                             //
                             // CODE 
                             // CODE:0000-CODE:2fff
                             //
       CODE:0000 e1 56           AJMP       LAB_CODE_0756
       CODE:0002 21 3a           AJMP       LAB_CODE_013a
       CODE:0004 21 2d           AJMP       FUN_CODE_012d                                              undefined FUN_CODE_012d()
                             -- Flow Override: CALL_RETURN (CALL_TERMINATOR)
       CODE:0006 41 fe           AJMP       FUN_CODE_02fe                                              undefined FUN_CODE_02fe()
                             -- Flow Override: CALL_RETURN (CALL_TERMINATOR)
       CODE:0008 21 2d           AJMP       FUN_CODE_012d                                              undefined FUN_CODE_012d()
                             -- Flow Override: CALL_RETURN (CALL_TERMINATOR)
       CODE:000a 21 63           AJMP       FUN_CODE_0163                                              undefined FUN_CODE_0163()
                             -- Flow Override: CALL_RETURN (CALL_TERMINATOR)
       CODE:000c 21 2d           AJMP       FUN_CODE_012d                                              undefined FUN_CODE_012d()
                             -- Flow Override: CALL_RETURN (CALL_TERMINATOR)
       CODE:000e 21 2d           AJMP       FUN_CODE_012d                                              undefined FUN_CODE_012d()
                             -- Flow Override: CALL_RETURN (CALL_TERMINATOR)
       CODE:0010 21 2d           AJMP       FUN_CODE_012d                                              undefined FUN_CODE_012d()
                             -- Flow Override: CALL_RETURN (CALL_TERMINATOR)
       CODE:0012 21 63           AJMP       FUN_CODE_0163                                              undefined FUN_CODE_0163()
                             -- Flow Override: CALL_RETURN (CALL_TERMINATOR)
       CODE:0014 21 2d           AJMP       FUN_CODE_012d                                              undefined FUN_CODE_012d()
                             -- Flow Override: CALL_RETURN (CALL_TERMINATOR)
       CODE:0016 21 2d           AJMP       FUN_CODE_012d                                              undefined FUN_CODE_012d()
                             -- Flow Override: CALL_RETURN (CALL_TERMINATOR)
       CODE:0018 21 2d           AJMP       FUN_CODE_012d                                              undefined FUN_CODE_012d()
                             -- Flow Override: CALL_RETURN (CALL_TERMINATOR)
       CODE:001a 21 2d           AJMP       FUN_CODE_012d                                              undefined FUN_CODE_012d()
                             -- Flow Override: CALL_RETURN (CALL_TERMINATOR)
       CODE:001c 21 2d           AJMP       FUN_CODE_012d                                              undefined FUN_CODE_012d()
                             -- Flow Override: CALL_RETURN (CALL_TERMINATOR)
       CODE:001e 21 2d           AJMP       FUN_CODE_012d                                              undefined FUN_CODE_012d()
                             -- Flow Override: CALL_RETURN (CALL_TERMINATOR)
       CODE:0020 21 2d           AJMP       FUN_CODE_012d                                              undefined FUN_CODE_012d()
                             -- Flow Override: CALL_RETURN (CALL_TERMINATOR)
       CODE:0022 21 2d           AJMP       FUN_CODE_012d                                              undefined FUN_CODE_012d()
                             -- Flow Override: CALL_RETURN (CALL_TERMINATOR)
       CODE:0024 21 2d           AJMP       FUN_CODE_012d                                              undefined FUN_CODE_012d()
                             -- Flow Override: CALL_RETURN (CALL_TERMINATOR)
       CODE:0026 21 2d           AJMP       FUN_CODE_012d                                              undefined FUN_CODE_012d()
                             -- Flow Override: CALL_RETURN (CALL_TERMINATOR)
       CODE:0028 21 2d           AJMP       FUN_CODE_012d                                              undefined FUN_CODE_012d()
                             -- Flow Override: CALL_RETURN (CALL_TERMINATOR)
       CODE:002a 21 2d           AJMP       FUN_CODE_012d                                              undefined FUN_CODE_012d()
                             -- Flow Override: CALL_RETURN (CALL_TERMINATOR)
       CODE:002c 21 2d           AJMP       FUN_CODE_012d                                              undefined FUN_CODE_012d()
                             -- Flow Override: CALL_RETURN (CALL_TERMINATOR)
       CODE:002e 21 37           AJMP       thunk_FUN_CODE_23bd                                        undefined thunk_FUN_CODE_23bd()
                             -- Flow Override: CALL_RETURN (CALL_TERMINATOR)
                             **************************************************************
                             *                          FUNCTION                          *
                             **************************************************************
                             undefined gpu_power_enable()
             undefined         ACC:1          <RETURN>
                             gpu_power_enable                                XREF[1]:     CODE:1005(c)  
       CODE:0030 c2 a2           CLR        P2.2                                                       = ??
       CODE:0032 22              RET
                             **************************************************************
                             *                          FUNCTION                          *
                             **************************************************************
                             undefined gpu_power_kill()
             undefined         ACC:1          <RETURN>
                             gpu_power_kill                                  XREF[1]:     CODE:0f4c(c)  
       CODE:0033 d2 a2           SETB       P2.2                                                       /VREG_GPU_EN_N = 1 (disable)
       CODE:0035 22              RET
                             **************************************************************
                             *                          FUNCTION                          *
                             **************************************************************
                             undefined FUN_CODE_0036()
             undefined         ACC:1          <RETURN>
                             FUN_CODE_0036                                   XREF[3]:     CODE:100a(c), CODE:1020(c), 
                                                                                          FUN_CODE_1d0f:1d2a(c)  
       CODE:0036 a2 a4           MOV        CY,P2.4                                                    = ??
       CODE:0038 20 1a 03        JB         23.2,LAB_CODE_003e                                         = ??
       CODE:003b c2 ac           CLR        ES                                                         = ??
       CODE:003d 22              RET
                             LAB_CODE_003e                                   XREF[1]:     CODE:0038(j)  
       CODE:003e b0 ac           ANL        CY,/ES                                                     = ??
       CODE:0040 22              RET
                             **************************************************************
                             *                          FUNCTION                          *
                             **************************************************************
                             undefined gpu_reset_assert()
             undefined         ACC:1          <RETURN>
                             gpu_reset_assert                                XREF[2]:     CODE:10b7(c), CODE:11ed(c)  
       CODE:0041 c2 81           CLR        P0.1                                                       = ??
       CODE:0043 22              RET
                             **************************************************************
                             *                          FUNCTION                          *
                             **************************************************************
                             undefined FUN_CODE_0044()
             undefined         ACC:1          <RETURN>
                             FUN_CODE_0044                                   XREF[2]:     CODE:11e8(c), CODE:11f2(c)  
       CODE:0044 d2 c3           SETB       FIFLG.3                                                    = ??
       CODE:0046 c2 c3           CLR        FIFLG.3                                                    = ??
       CODE:0048 d2 c3           SETB       FIFLG.3                                                    = ??
       CODE:004a c2 c3           CLR        FIFLG.3                                                    = ??
       CODE:004c d2 81           SETB       P0.1                                                       = ??
       CODE:004e 22              RET
                             **************************************************************
                             *                          FUNCTION                          *
                             **************************************************************
                             undefined FUN_CODE_004f()
             undefined         ACC:1          <RETURN>
                             FUN_CODE_004f                                   XREF[2]:     CODE:11d4(c), CODE:11ff(c)  
       CODE:004f a2 87           MOV        CY,P0.7                                                    = ??
       CODE:0051 22              RET
                             **************************************************************
                             *                          FUNCTION                          *
                             **************************************************************
                             undefined FUN_CODE_0052()
             undefined         ACC:1          <RETURN>
                             FUN_CODE_0052                                   XREF[1]:     CODE:104b(c)  
       CODE:0052 d2 97           SETB       P1.7                                                       = ??
       CODE:0054 22              RET
                             **************************************************************
                             *                          FUNCTION                          *
                             **************************************************************
                             undefined FUN_CODE_0055()
             undefined         ACC:1          <RETURN>
                             FUN_CODE_0055                                   XREF[1]:     CODE:0ef3(c)  
       CODE:0055 c2 97           CLR        P1.7                                                       = ??
       CODE:0057 22              RET
                             **************************************************************
                             *                          FUNCTION                          *
                             **************************************************************
                             undefined FUN_CODE_0058()
             undefined         ACC:1          <RETURN>
                             FUN_CODE_0058                                   XREF[3]:     CODE:1050(c), CODE:1066(c), 
                                                                                          FUN_CODE_1d0f:1d22(c)  
       CODE:0058 a2 96           MOV        CY,P1.6                                                    = ??
       CODE:005a 20 19 03        JB         23.1,LAB_CODE_0060                                         = ??
       CODE:005d c2 ab           CLR        ET1                                                        = ??
       CODE:005f 22              RET
                             LAB_CODE_0060                                   XREF[1]:     CODE:005a(j)  
       CODE:0060 b0 ab           ANL        CY,/ET1                                                    = ??
       CODE:0062 22              RET
                             **************************************************************
                             *                          FUNCTION                          *
                             **************************************************************
                             undefined cpu_pwrgd_set()
             undefined         ACC:1          <RETURN>
                             cpu_pwrgd_set                                   XREF[1]:     CODE:11bd(c)  
       CODE:0063 d2 80           SETB       P0.0                                                       = ??
       CODE:0065 22              RET
                             **************************************************************
                             *                          FUNCTION                          *
                             **************************************************************
                             undefined cpu_pwrgd_clear()
             undefined         ACC:1          <RETURN>
                             cpu_pwrgd_clear                                 XREF[1]:     CODE:110b(c)  
       CODE:0066 c2 80           CLR        P0.0                                                       = ??
       CODE:0068 22              RET
                             **************************************************************
                             *                          FUNCTION                          *
                             **************************************************************
                             undefined cpu_reset_assert()
             undefined         ACC:1          <RETURN>
                             cpu_reset_assert                                XREF[1]:     CODE:10ba(c)  
       CODE:0069 c2 86           CLR        P0.6                                                       /CPU_RESET_N
                                                                                                       is active low
       CODE:006b 22              RET
                             **************************************************************
                             *                          FUNCTION                          *
                             **************************************************************
                             undefined cpu_reset_deassert()
             undefined         ACC:1          <RETURN>
                             cpu_reset_deassert                              XREF[1]:     CODE:1271(c)  
       CODE:006c d2 86           SETB       P0.6                                                       = ??
       CODE:006e 22              RET
                             **************************************************************
                             *                          FUNCTION                          *
                             **************************************************************
                             undefined FUN_CODE_006f()
             undefined         ACC:1          <RETURN>
                             FUN_CODE_006f                                   XREF[1]:     CODE:1258(c)  
       CODE:006f e5 8f           MOV        A,FADDR                                                    = ??
       CODE:0071 54 30           ANL        A,#0x30
       CODE:0073 a2 d0           MOV        CY,P                                                       = ??
       CODE:0075 22              RET
                             **************************************************************
                             *                          FUNCTION                          *
                             **************************************************************
                             undefined FUN_CODE_0076()
             undefined         ACC:1          <RETURN>
                             FUN_CODE_0076                                   XREF[1]:     FUN_CODE_1d0f:1d39(c)  
       CODE:0076 a2 ca           MOV        CY,TR2                                                     = ??
       CODE:0078 22              RET
                             **************************************************************
                             *                          FUNCTION                          *
                             **************************************************************
                             undefined FUN_CODE_0079()
             undefined         ACC:1          <RETURN>
                             FUN_CODE_0079                                   XREF[1]:     CODE:11cc(c)  
       CODE:0079 d2 85           SETB       P0.5                                                       = ??
       CODE:007b 22              RET
                             **************************************************************
                             *                          FUNCTION                          *
                             **************************************************************
                             undefined FUN_CODE_007c()
             undefined         ACC:1          <RETURN>
                             FUN_CODE_007c                                   XREF[1]:     CODE:10bf(c)  
       CODE:007c c2 85           CLR        P0.5                                                       = ??
       CODE:007e 22              RET
                             **************************************************************
                             *                          FUNCTION                          *
                             **************************************************************
                             undefined FUN_CODE_007f()
             undefined         ACC:1          <RETURN>
                             FUN_CODE_007f                                   XREF[2]:     CODE:1108(c), CODE:1163(c)  
       CODE:007f c2 be           CLR        PC                                                         = ??
       CODE:0081 22              RET
                             **************************************************************
                             *                          FUNCTION                          *
                             **************************************************************
                             undefined FUN_CODE_0082()
             undefined         ACC:1          <RETURN>
                             FUN_CODE_0082                                   XREF[1]:     CODE:11cf(c)  
       CODE:0082 74 43           MOV        A,#0x43
       CODE:0084 f5 fc           MOV        CCAP2H,A                                                   = ??
       CODE:0086 f2              MOVX       @R0,A
       CODE:0087 f2              MOVX       @R0,A
       CODE:0088 f2              MOVX       @R0,A
       CODE:0089 f2              MOVX       @R0,A
       CODE:008a f2              MOVX       @R0,A
       CODE:008b f2              MOVX       @R0,A
       CODE:008c f2              MOVX       @R0,A
       CODE:008d f2              MOVX       @R0,A
       CODE:008e f2              MOVX       @R0,A
       CODE:008f f2              MOVX       @R0,A
       CODE:0090 f2              MOVX       @R0,A
       CODE:0091 f2              MOVX       @R0,A
       CODE:0092 f2              MOVX       @R0,A
       CODE:0093 f2              MOVX       @R0,A
       CODE:0094 f2              MOVX       @R0,A
       CODE:0095 f2              MOVX       @R0,A
       CODE:0096 f2              MOVX       @R0,A
       CODE:0097 f2              MOVX       @R0,A
       CODE:0098 f2              MOVX       @R0,A
       CODE:0099 f2              MOVX       @R0,A
       CODE:009a f2              MOVX       @R0,A
       CODE:009b f2              MOVX       @R0,A
       CODE:009c f2              MOVX       @R0,A
       CODE:009d f2              MOVX       @R0,A
       CODE:009e f2              MOVX       @R0,A
       CODE:009f f2              MOVX       @R0,A
       CODE:00a0 f2              MOVX       @R0,A
       CODE:00a1 f2              MOVX       @R0,A
       CODE:00a2 f2              MOVX       @R0,A
       CODE:00a3 f2              MOVX       @R0,A
       CODE:00a4 d2 be           SETB       PC                                                         = ??
       CODE:00a6 22              RET
                             **************************************************************
                             *                          FUNCTION                          *
                             **************************************************************
                             undefined sb_reset_assert()
             undefined         ACC:1          <RETURN>
                             sb_reset_assert                                 XREF[1]:     CODE:10c2(c)  
       CODE:00a7 c2 84           CLR        P0.4                                                       = ??
       CODE:00a9 22              RET
                             **************************************************************
                             *                          FUNCTION                          *
                             **************************************************************
                             undefined sb_reset_deassert()
             undefined         ACC:1          <RETURN>
                             sb_reset_deassert                               XREF[1]:     CODE:11f7(c)  
       CODE:00aa d2 84           SETB       P0.4                                                       = ??
       CODE:00ac 22              RET
                             **************************************************************
                             *                          FUNCTION                          *
                             **************************************************************
                             undefined FUN_CODE_00ad()
             undefined         ACC:1          <RETURN>
                             FUN_CODE_00ad                                   XREF[1]:     CODE:10c9(c)  
       CODE:00ad 75 e3 01        MOV        RXDAT,#0x1                                                 = ??
       CODE:00b0 75 e3 00        MOV        RXDAT,#0x0                                                 = ??
       CODE:00b3 75 e3 01        MOV        RXDAT,#0x1                                                 = ??
       CODE:00b6 75 e3 00        MOV        RXDAT,#0x0                                                 = ??
       CODE:00b9 22              RET
                             **************************************************************
                             *                          FUNCTION                          *
                             **************************************************************
                             undefined FUN_CODE_00ba()
             undefined         ACC:1          <RETURN>
                             FUN_CODE_00ba                                   XREF[1]:     CODE:1046(c)  
       CODE:00ba d2 a0           SETB       P2.0                                                       = ??
       CODE:00bc 22              RET
                             **************************************************************
                             *                          FUNCTION                          *
                             **************************************************************
                             undefined FUN_CODE_00bd()
             undefined         ACC:1          <RETURN>
                             FUN_CODE_00bd                                   XREF[1]:     CODE:0eec(c)  
       CODE:00bd c2 a0           CLR        P2.0                                                       = ??
       CODE:00bf 22              RET
                             **************************************************************
                             *                          FUNCTION                          *
                             **************************************************************
                             undefined ana_reset_assert()
             undefined         ACC:1          <RETURN>
                             ana_reset_assert                                XREF[1]:     CODE:1116(c)  
       CODE:00c0 c2 a3           CLR        P2.3                                                       = ??
       CODE:00c2 22              RET
                             **************************************************************
                             *                          FUNCTION                          *
                             **************************************************************
                             undefined ana_reset_deassert()
             undefined         ACC:1          <RETURN>
                             ana_reset_deassert                              XREF[2]:     CODE:1119(c), CODE:1166(c)  
       CODE:00c3 d2 a3           SETB       P2.3                                                       = ??
       CODE:00c5 22              RET
                             **************************************************************
                             *                          FUNCTION                          *
                             **************************************************************
                             undefined FUN_CODE_00c6()
             undefined         ACC:1          <RETURN>
                             FUN_CODE_00c6                                   XREF[5]:     CODE:20de(c), CODE:211f(c), 
                                                                                          CODE:2134(c), CODE:21b7(c), 
                                                                                          CODE:21f0(c)  
       CODE:00c6 e4              CLR        A
       CODE:00c7 a2 cf           MOV        CY,TF2                                                     = ??
       CODE:00c9 92 e0           MOV        ACC.0,CY                                                   = ??
       CODE:00cb a2 ce           MOV        CY,EXF2                                                    = ??
       CODE:00cd 22              RET
                             **************************************************************
                             *                          FUNCTION                          *
                             **************************************************************
                             undefined FUN_CODE_00ce()
             undefined         ACC:1          <RETURN>
                             FUN_CODE_00ce                                   XREF[1]:     CODE:219a(c)  
       CODE:00ce d2 cf           SETB       TF2                                                        = ??
       CODE:00d0 22              RET
                             **************************************************************
                             *                          FUNCTION                          *
                             **************************************************************
                             undefined FUN_CODE_00d1()
             undefined         ACC:1          <RETURN>
                             FUN_CODE_00d1                                   XREF[2]:     CODE:2182(c), CODE:2195(c)  
       CODE:00d1 c2 cf           CLR        TF2                                                        = ??
       CODE:00d3 22              RET
                             **************************************************************
                             *                          FUNCTION                          *
                             **************************************************************
                             undefined FUN_CODE_00d4()
             undefined         ACC:1          <RETURN>
                             FUN_CODE_00d4                                   XREF[4]:     CODE:20cd(c), CODE:2104(c), 
                                                                                          CODE:212c(c), CODE:2139(c)  
       CODE:00d4 b2 cf           CPL        TF2                                                        = ??
       CODE:00d6 22              RET
                             **************************************************************
                             *                          FUNCTION                          *
                             **************************************************************
                             undefined FUN_CODE_00d7()
             undefined         ACC:1          <RETURN>
                             FUN_CODE_00d7                                   XREF[1]:     FUN_CODE_0775:077b(c)  
       CODE:00d7 e5 8f           MOV        A,FADDR                                                    = ??
       CODE:00d9 54 30           ANL        A,#0x30
       CODE:00db 30 d0 06        JNB        P,LAB_CODE_00e4                                            = ??
       CODE:00de 20 e4 06        JB         ACC.4,LAB_CODE_00e7                                        = ??
       CODE:00e1 74 ff           MOV        A,#0xff
       CODE:00e3 22              RET
                             LAB_CODE_00e4                                   XREF[1]:     CODE:00db(j)  
       CODE:00e4 74 00           MOV        A,#0x0
       CODE:00e6 22              RET
                             LAB_CODE_00e7                                   XREF[1]:     CODE:00de(j)  
       CODE:00e7 74 f0           MOV        A,#0xf0
       CODE:00e9 22              RET
                             **************************************************************
                             *                          FUNCTION                          *
                             **************************************************************
                             undefined FUN_CODE_00ea()
             undefined         ACC:1          <RETURN>
                             FUN_CODE_00ea                                   XREF[1]:     CODE:13ea(c)  
       CODE:00ea 22              RET
                             **************************************************************
                             *                          FUNCTION                          *
                             **************************************************************
                             undefined FUN_CODE_00eb()
             undefined         ACC:1          <RETURN>
                             FUN_CODE_00eb                                   XREF[1]:     CODE:13e5(c)  
       CODE:00eb 22              RET
                             **************************************************************
                             *                          FUNCTION                          *
                             **************************************************************
                             undefined FUN_CODE_00ec()
             undefined         ACC:1          <RETURN>
                             FUN_CODE_00ec                                   XREF[1]:     CODE:13dc(c)  
       CODE:00ec 22              RET
                             **************************************************************
                             *                          FUNCTION                          *
                             **************************************************************
                             undefined FUN_CODE_00ed()
             undefined         ACC:1          <RETURN>
                             FUN_CODE_00ed                                   XREF[1]:     CODE:13d7(c)  
       CODE:00ed 22              RET
                             **************************************************************
                             *                          FUNCTION                          *
                             **************************************************************
                             undefined dbg_led_on()
             undefined         ACC:1          <RETURN>
                             dbg_led_on                                      XREF[1]:     CODE:13ce(c)  
       CODE:00ee d2 c0           SETB       FIFLG.0                                                    = ??
       CODE:00f0 22              RET
                             **************************************************************
                             *                          FUNCTION                          *
                             **************************************************************
                             undefined dbg_led_off()
             undefined         ACC:1          <RETURN>
                             dbg_led_off                                     XREF[1]:     CODE:13c9(c)  
       CODE:00f1 c2 c0           CLR        FIFLG.0                                                    = ??
       CODE:00f3 22              RET
                             **************************************************************
                             *                          FUNCTION                          *
                             **************************************************************
                             undefined FUN_CODE_00f4()
             undefined         ACC:1          <RETURN>
                             FUN_CODE_00f4                                   XREF[1]:     CODE:2289(c)  
       CODE:00f4 e5 e2           MOV        A,RXSTAT                                                   = ??
       CODE:00f6 a2 e4           MOV        CY,ACC.4                                                   = ??
       CODE:00f8 22              RET
       CODE:00f9 00              ??         00h
       CODE:00fa 00              ??         00h
       CODE:00fb 00              ??         00h
       CODE:00fc 00              ??         00h
       CODE:00fd 00              ??         00h
       CODE:00fe 00              ??         00h
       CODE:00ff 00              ??         00h
       CODE:0100 31              ??         31h    1
       CODE:0101 01              ??         01h
       CODE:0102 06              ??         06h
       CODE:0103 01              ??         01h
       CODE:0104 01              ??         01h
       CODE:0105 08              ??         08h
       CODE:0106 00              ??         00h
       CODE:0107 00              ??         00h
       CODE:0108 20              ??         20h     
       CODE:0109 20              ??         20h     
       CODE:010a 20              ??         20h     
       CODE:010b 3c              ??         3Ch    <
       CODE:010c 43              ??         43h    C
       CODE:010d 6f              ??         6Fh    o
       CODE:010e 70              ??         70h    p
       CODE:010f 79              ??         79h    y
       CODE:0110 72              ??         72h    r
       CODE:0111 69              ??         69h    i
       CODE:0112 67              ??         67h    g
       CODE:0113 68              ??         68h    h
       CODE:0114 74              ??         74h    t
       CODE:0115 20              ??         20h     
       CODE:0116 32              ??         32h    2
       CODE:0117 30              ??         30h    0
       CODE:0118 30              ??         30h    0
       CODE:0119 31              ??         31h    1
       CODE:011a 2d              ??         2Dh    -
       CODE:011b 32              ??         32h    2
       CODE:011c 30              ??         30h    0
       CODE:011d 30              ??         30h    0
       CODE:011e 35              ??         35h    5
       CODE:011f 20              ??         20h     
       CODE:0120 4d              ??         4Dh    M
       CODE:0121 69              ??         69h    i
       CODE:0122 63              ??         63h    c
       CODE:0123 72              ??         72h    r
       CODE:0124 6f              ??         6Fh    o
       CODE:0125 73              ??         73h    s
       CODE:0126 6f              ??         6Fh    o
       CODE:0127 66              ??         66h    f
       CODE:0128 74              ??         74h    t
       CODE:0129 3e              ??         3Eh    >
       CODE:012a 20              ??         20h     
       CODE:012b 20              ??         20h     
       CODE:012c 20              ??         20h     
                             **************************************************************
                             *                          FUNCTION                          *
                             **************************************************************
                             undefined FUN_CODE_012d()
             undefined         ACC:1          <RETURN>
                             FUN_CODE_012d                                   XREF[18]:    CODE:0004(c), CODE:0008(c), 
                                                                                          CODE:000c(c), CODE:000e(c), 
                                                                                          CODE:0010(c), CODE:0014(c), 
                                                                                          CODE:0016(c), CODE:0018(c), 
                                                                                          CODE:001a(c), CODE:001c(c), 
                                                                                          CODE:001e(c), CODE:0020(c), 
                                                                                          CODE:0022(c), CODE:0024(c), 
                                                                                          CODE:0026(c), CODE:0028(c), 
                                                                                          CODE:002a(c), CODE:002c(c)  
       CODE:012d 43 bc 36        ORL        DAT_SFR_bc,#0x36                                           = ??
       CODE:0130 43 bd ff        ORL        DAT_SFR_bd,#0xff                                           = ??
       CODE:0133 43 bd 3f        ORL        DAT_SFR_bd,#0x3f                                           = ??
       CODE:0136 32              RETI
                             **************************************************************
                             *                       THUNK FUNCTION                       *
                             **************************************************************
                             thunk undefined thunk_FUN_CODE_23bd()
                               Thunked-Function: FUN_CODE_23bd
             undefined         ACC:1          <RETURN>
                             thunk_FUN_CODE_23bd                             XREF[1]:     CODE:002e(c)  
       CODE:0137 02 23 bd        LJMP       FUN_CODE_23bd
                             LAB_CODE_013a                                   XREF[1]:     CODE:0002(j)  
       CODE:013a 43 bf 01        ORL        DAT_SFR_bf,#0x1                                            = ??
       CODE:013d c0 e0           PUSH       A
       CODE:013f c0 d0           PUSH       PSW
       CODE:0141 d2 d3           SETB       RS0                                                        = ??
       CODE:0143 43 8f 02        ORL        FADDR,#0x2                                                 = ??
       CODE:0146 05 76           INC        DAT_INTMEM_76                                              = ??
       CODE:0148 c2 bf           CLR        IP.7                                                       = ??
       CODE:014a 30 5b 09        JNB        2b.3,LAB_CODE_0156                                         skip this if argon is off
       CODE:014d d1 48           ACALL      FUN_CODE_0648                                              undefined FUN_CODE_0648()
       CODE:014f d1 2f           ACALL      FUN_CODE_062f                                              undefined FUN_CODE_062f()
       CODE:0151 20 cd 02        JB         RCLK,LAB_CODE_0156                                         = ??
       CODE:0154 05 77           INC        DAT_INTMEM_77                                              = ??
                             LAB_CODE_0156                                   XREF[2]:     CODE:014a(j), CODE:0151(j)  
       CODE:0156 53 8f fd        ANL        FADDR,#0xfd                                                = ??
       CODE:0159 c2 d3           CLR        RS0                                                        = ??
       CODE:015b d0 d0           POP        PSW
       CODE:015d d0 e0           POP        A
       CODE:015f 53 bf fe        ANL        DAT_SFR_bf,#0xfe                                           = ??
       CODE:0162 32              RETI
                             **************************************************************
                             *                          FUNCTION                          *
                             **************************************************************
                             undefined FUN_CODE_0163()
             undefined         ACC:1          <RETURN>
                             FUN_CODE_0163                                   XREF[2]:     CODE:000a(c), CODE:0012(c)  
       CODE:0163 43 bf 01        ORL        DAT_SFR_bf,#0x1                                            = ??
       CODE:0166 c0 e0           PUSH       A
       CODE:0168 c0 d0           PUSH       PSW
       CODE:016a d2 d3           SETB       RS0                                                        = ??
       CODE:016c 43 8f 02        ORL        FADDR,#0x2                                                 = ??
       CODE:016f 43 bc 01        ORL        DAT_SFR_bc,#0x1                                            = ??
       CODE:0172 e5 10           MOV        A,BANK2_R0                                                 = ??
       CODE:0174 23              RL         A
       CODE:0175 90 01 79        MOV        DPTR,#0x179
       CODE:0178 73              JMP        @A+DPTR
       CODE:0179 21 9f           AJMP       LAB_CODE_019f
       CODE:017b 21 bb           AJMP       LAB_CODE_01bb
       CODE:017d 21 d2           AJMP       LAB_CODE_01d2
       CODE:017f 41 29           AJMP       LAB_CODE_0229
       CODE:0181 41 40           AJMP       LAB_CODE_0240
       CODE:0183 41 61           AJMP       LAB_CODE_0261
       CODE:0185 41 78           AJMP       LAB_CODE_0278
                             LAB_CODE_0187                                   XREF[10]:    CODE:01af(j), CODE:01b4(j), 
                                                                                          CODE:01b9(j), CODE:01d0(j), 
                                                                                          CODE:01f4(j), CODE:020d(j), 
                                                                                          CODE:023e(j), CODE:0256(j), 
                                                                                          CODE:0276(j), CODE:029a(j)  
       CODE:0187 75 8b 8a        MOV        TL1,#0x8a                                                  = ??
       CODE:018a 75 8c ff        MOV        TH0,#0xff                                                  = ??
       CODE:018d d2 8a           SETB       IT1                                                        = ??
       CODE:018f 53 bc fe        ANL        DAT_SFR_bc,#0xfe                                           = ??
                             LAB_CODE_0192                                   XREF[1]:     CODE:021b(j)  
       CODE:0192 53 8f fd        ANL        FADDR,#0xfd                                                = ??
       CODE:0195 c2 d3           CLR        RS0                                                        = ??
       CODE:0197 d0 d0           POP        PSW
       CODE:0199 d0 e0           POP        A
       CODE:019b 53 bf fe        ANL        DAT_SFR_bf,#0xfe                                           = ??
       CODE:019e 32              RETI
                             LAB_CODE_019f                                   XREF[1]:     CODE:0179(j)  
       CODE:019f c2 d9           CLR        CCF.1                                                      = ??
       CODE:01a1 d2 db           SETB       CCF.3                                                      = ??
       CODE:01a3 75 1b 08        MOV        BANK3_R3,#0x8                                              = ??
       CODE:01a6 20 5d 08        JB         2b.5,LAB_CODE_01b1                                         = ??
       CODE:01a9 20 5e 0a        JB         2b.6,LAB_CODE_01b6                                         = ??
       CODE:01ac 75 10 05        MOV        BANK2_R0,#0x5                                              = ??
       CODE:01af 21 87           AJMP       LAB_CODE_0187
                             LAB_CODE_01b1                                   XREF[1]:     CODE:01a6(j)  
       CODE:01b1 75 10 01        MOV        BANK2_R0,#0x1                                              = ??
       CODE:01b4 21 87           AJMP       LAB_CODE_0187
                             LAB_CODE_01b6                                   XREF[2]:     CODE:01a9(j), CODE:0207(j)  
       CODE:01b6 75 10 03        MOV        BANK2_R0,#0x3                                              = ??
       CODE:01b9 21 87           AJMP       LAB_CODE_0187
                             LAB_CODE_01bb                                   XREF[1]:     CODE:017b(j)  
       CODE:01bb c2 db           CLR        CCF.3                                                      = ??
       CODE:01bd 30 d9 5d        JNB        CCF.1,LAB_CODE_021d                                        = ??
       CODE:01c0 e5 1b           MOV        A,BANK3_R3                                                 = ??
       CODE:01c2 b5 d9 5f        CJNE       A,CMOD,LAB_CODE_0224                                       = ??
       CODE:01c5 85 11 da        MOV        CCAPM0,BANK2_R1                                            = ??
       CODE:01c8 c2 d9           CLR        CCF.1                                                      = ??
       CODE:01ca 75 1b 18        MOV        BANK3_R3,#0x18                                             = ??
       CODE:01cd 75 10 02        MOV        BANK2_R0,#0x2                                              = ??
       CODE:01d0 21 87           AJMP       LAB_CODE_0187
                             LAB_CODE_01d2                                   XREF[1]:     CODE:017d(j)  
       CODE:01d2 30 d9 48        JNB        CCF.1,LAB_CODE_021d                                        = ??
       CODE:01d5 e5 1b           MOV        A,BANK3_R3                                                 = ??
       CODE:01d7 b5 d9 4a        CJNE       A,CMOD,LAB_CODE_0224                                       = ??
       CODE:01da e5 12           MOV        A,BANK2_R2                                                 = ??
       CODE:01dc 60 18           JZ         LAB_CODE_01f6
       CODE:01de 15 12           DEC        BANK2_R2                                                   = ??
       CODE:01e0 20 5c 09        JB         2b.4,LAB_CODE_01ec                                         = ??
       CODE:01e3 74 15           MOV        A,#0x15
       CODE:01e5 25 12           ADD        A,BANK2_R2                                                 = ??
       CODE:01e7 f8              MOV        R0,A
       CODE:01e8 86 da           MOV        CCAPM0,@R0                                                 = ??
       CODE:01ea 21 ef           AJMP       LAB_CODE_01ef
                             LAB_CODE_01ec                                   XREF[1]:     CODE:01e0(j)  
       CODE:01ec 85 e1 da        MOV        CCAPM0,EPCON                                               = ??
                             LAB_CODE_01ef                                   XREF[1]:     CODE:01ea(j)  
       CODE:01ef c2 d9           CLR        CCF.1                                                      = ??
       CODE:01f1 75 1b 28        MOV        BANK3_R3,#0x28                                             = ??
       CODE:01f4 21 87           AJMP       LAB_CODE_0187
                             LAB_CODE_01f6                                   XREF[1]:     CODE:01dc(j)  
       CODE:01f6 20 5e 07        JB         2b.6,LAB_CODE_0200                                         = ??
       CODE:01f9 20 5f 04        JB         2b.7,LAB_CODE_0200                                         = ??
       CODE:01fc c2 61           CLR        2c.1                                                       = ??
       CODE:01fe 41 0f           AJMP       LAB_CODE_020f
                             LAB_CODE_0200                                   XREF[3]:     CODE:01f6(j), CODE:01f9(j), 
                                                                                          CODE:025a(j)  
       CODE:0200 d2 db           SETB       CCF.3                                                      = ??
       CODE:0202 c2 d9           CLR        CCF.1                                                      = ??
       CODE:0204 75 1b 10        MOV        BANK3_R3,#0x10                                             = ??
       CODE:0207 20 5e ac        JB         2b.6,LAB_CODE_01b6                                         = ??
       CODE:020a 75 10 05        MOV        BANK2_R0,#0x5                                              = ??
       CODE:020d 21 87           AJMP       LAB_CODE_0187
                             LAB_CODE_020f                                   XREF[4]:     CODE:01fe(j), CODE:021f(j), 
                                                                                          CODE:025f(j), CODE:0289(j)  
       CODE:020f d2 da           SETB       CCF.2                                                      = ??
       CODE:0211 c2 d9           CLR        CCF.1                                                      = ??
                             LAB_CODE_0213                                   XREF[2]:     CODE:0222(j), CODE:0227(j)  
       CODE:0213 43 bc 08        ORL        DAT_SFR_bc,#0x8                                            = ??
       CODE:0216 c2 60           CLR        2c.0                                                       = ??
       CODE:0218 75 10 00        MOV        BANK2_R0,#0x0                                              = ??
       CODE:021b 21 92           AJMP       LAB_CODE_0192
                             LAB_CODE_021d                                   XREF[7]:     CODE:01bd(j), CODE:01d2(j), 
                                                                                          CODE:0224(j), CODE:022b(j), 
                                                                                          CODE:0240(j), CODE:0263(j), 
                                                                                          CODE:0278(j)  
       CODE:021d e5 1b           MOV        A,BANK3_R3                                                 = ??
       CODE:021f b4 08 ed        CJNE       A,#0x8,LAB_CODE_020f
       CODE:0222 41 13           AJMP       LAB_CODE_0213
                             LAB_CODE_0224                                   XREF[6]:     CODE:01c2(j), CODE:01d7(j), 
                                                                                          CODE:0230(j), CODE:0245(j), 
                                                                                          CODE:0268(j), CODE:027d(j)  
       CODE:0224 b4 00 f6        CJNE       A,#0x0,LAB_CODE_021d
       CODE:0227 41 13           AJMP       LAB_CODE_0213
                             LAB_CODE_0229                                   XREF[1]:     CODE:017f(j)  
       CODE:0229 c2 db           CLR        CCF.3                                                      = ??
       CODE:022b 30 d9 ef        JNB        CCF.1,LAB_CODE_021d                                        = ??
       CODE:022e e5 1b           MOV        A,BANK3_R3                                                 = ??
       CODE:0230 b5 d9 f1        CJNE       A,CMOD,LAB_CODE_0224                                       = ??
       CODE:0233 85 15 da        MOV        CCAPM0,BANK2_R5                                            = ??
       CODE:0236 c2 d9           CLR        CCF.1                                                      = ??
       CODE:0238 75 1b 18        MOV        BANK3_R3,#0x18                                             = ??
       CODE:023b 75 10 04        MOV        BANK2_R0,#0x4                                              = ??
       CODE:023e 21 87           AJMP       LAB_CODE_0187
                             LAB_CODE_0240                                   XREF[1]:     CODE:0181(j)  
       CODE:0240 30 d9 da        JNB        CCF.1,LAB_CODE_021d                                        = ??
       CODE:0243 e5 1b           MOV        A,BANK3_R3                                                 = ??
       CODE:0245 b5 d9 dc        CJNE       A,CMOD,LAB_CODE_0224                                       = ??
       CODE:0248 e5 16           MOV        A,BANK2_R6                                                 = ??
       CODE:024a 60 0c           JZ         LAB_CODE_0258
       CODE:024c 85 e1 da        MOV        CCAPM0,EPCON                                               = ??
       CODE:024f 15 16           DEC        BANK2_R6                                                   = ??
       CODE:0251 c2 d9           CLR        CCF.1                                                      = ??
       CODE:0253 75 1b 28        MOV        BANK3_R3,#0x28                                             = ??
       CODE:0256 21 87           AJMP       LAB_CODE_0187
                             LAB_CODE_0258                                   XREF[1]:     CODE:024a(j)  
       CODE:0258 c2 5e           CLR        2b.6                                                       = ??
       CODE:025a 20 5f a3        JB         2b.7,LAB_CODE_0200                                         = ??
       CODE:025d c2 61           CLR        2c.1                                                       = ??
       CODE:025f 41 0f           AJMP       LAB_CODE_020f
                             LAB_CODE_0261                                   XREF[1]:     CODE:0183(j)  
       CODE:0261 c2 db           CLR        CCF.3                                                      = ??
       CODE:0263 30 d9 b7        JNB        CCF.1,LAB_CODE_021d                                        = ??
       CODE:0266 e5 1b           MOV        A,BANK3_R3                                                 = ??
       CODE:0268 b5 d9 b9        CJNE       A,CMOD,LAB_CODE_0224                                       = ??
       CODE:026b 85 13 da        MOV        CCAPM0,BANK2_R3                                            = ??
       CODE:026e c2 d9           CLR        CCF.1                                                      = ??
       CODE:0270 75 1b 40        MOV        BANK3_R3,#0x40                                             = ??
       CODE:0273 75 10 06        MOV        BANK2_R0,#0x6                                              = ??
       CODE:0276 21 87           AJMP       LAB_CODE_0187
                             LAB_CODE_0278                                   XREF[1]:     CODE:0185(j)  
       CODE:0278 30 d9 a2        JNB        CCF.1,LAB_CODE_021d                                        = ??
       CODE:027b e5 1b           MOV        A,BANK3_R3                                                 = ??
       CODE:027d b5 d9 a4        CJNE       A,CMOD,LAB_CODE_0224                                       = ??
       CODE:0280 b4 40 19        CJNE       A,#0x40,LAB_CODE_029c
                             LAB_CODE_0283                                   XREF[2]:     CODE:02a6(j), CODE:02ab(j)  
       CODE:0283 e5 14           MOV        A,BANK2_R4                                                 = ??
       CODE:0285 70 04           JNZ        LAB_CODE_028b
       CODE:0287 c2 61           CLR        2c.1                                                       = ??
       CODE:0289 41 0f           AJMP       LAB_CODE_020f
                             LAB_CODE_028b                                   XREF[1]:     CODE:0285(j)  
       CODE:028b d2 d8           SETB       CCF.0                                                      = ??
       CODE:028d 75 1b 50        MOV        BANK3_R3,#0x50                                             = ??
       CODE:0290 d5 14 05        DJNZ       BANK2_R4,LAB_CODE_0298                                     = ??
       CODE:0293 c2 d8           CLR        CCF.0                                                      = ??
       CODE:0295 75 1b 58        MOV        BANK3_R3,#0x58                                             = ??
                             LAB_CODE_0298                                   XREF[1]:     CODE:0290(j)  
       CODE:0298 c2 d9           CLR        CCF.1                                                      = ??
       CODE:029a 21 87           AJMP       LAB_CODE_0187
                             LAB_CODE_029c                                   XREF[1]:     CODE:0280(j)  
       CODE:029c 20 5c 09        JB         2b.4,LAB_CODE_02a8                                         = ??
       CODE:029f 74 15           MOV        A,#0x15
       CODE:02a1 25 14           ADD        A,BANK2_R4                                                 = ??
       CODE:02a3 f8              MOV        R0,A
       CODE:02a4 a6 da           MOV        @R0,CCAPM0                                                 = ??
       CODE:02a6 41 83           AJMP       LAB_CODE_0283
                             LAB_CODE_02a8                                   XREF[1]:     CODE:029c(j)  
       CODE:02a8 85 da d5        MOV        HPSC,CCAPM0                                                = ??
       CODE:02ab 41 83           AJMP       LAB_CODE_0283
                             **************************************************************
                             *                          FUNCTION                          *
                             **************************************************************
                             undefined FUN_CODE_02ad()
             undefined         ACC:1          <RETURN>
                             FUN_CODE_02ad                                   XREF[3]:     FUN_CODE_2383:2388(c), 
                                                                                          FUN_CODE_2627:2640(c), 
                                                                                          FUN_CODE_2666:2666(c)  
       CODE:02ad 43 a6 01        ORL        WDTRST,#0x1                                                = ??
       CODE:02b0 43 a6 02        ORL        WDTRST,#0x2                                                = ??
       CODE:02b3 43 a5 10        ORL        DAT_SFR_a5,#0x10                                           = ??
       CODE:02b6 43 a6 08        ORL        WDTRST,#0x8                                                = ??
       CODE:02b9 43 a7 01        ORL        WCON,#0x1                                                  = ??
       CODE:02bc 43 a7 02        ORL        WCON,#0x2                                                  = ??
       CODE:02bf d2 c8           SETB       CPRL2                                                      = ??
       CODE:02c1 d2 c9           SETB       CT2                                                        = ??
       CODE:02c3 53 a6 fe        ANL        WDTRST,#0xfe                                               = ??
       CODE:02c6 53 a6 fd        ANL        WDTRST,#0xfd                                               = ??
       CODE:02c9 75 dc 03        MOV        CCAPM2,#0x3                                                = ??
       CODE:02cc c2 df           CLR        CF                                                         = ??
       CODE:02ce 22              RET
       CODE:02cf 00              ??         00h
       CODE:02d0 00              ??         00h
       CODE:02d1 00              ??         00h
       CODE:02d2 00              ??         00h
       CODE:02d3 00              ??         00h
       CODE:02d4 00              ??         00h
       CODE:02d5 00              ??         00h
       CODE:02d6 00              ??         00h
       CODE:02d7 00              ??         00h
       CODE:02d8 00              ??         00h
       CODE:02d9 00              ??         00h
       CODE:02da 00              ??         00h
       CODE:02db 00              ??         00h
       CODE:02dc 00              ??         00h
       CODE:02dd 00              ??         00h
       CODE:02de 00              ??         00h
       CODE:02df 00              ??         00h
       CODE:02e0 00              ??         00h
       CODE:02e1 00              ??         00h
                             LAB_CODE_02e2                                   XREF[1]:     CODE:030c(j)  
       CODE:02e2 b4 04 07        CJNE       A,#0x4,LAB_CODE_02ec
       CODE:02e5 7a ff           MOV        R2,#0xff
       CODE:02e7 63 75 ff        XRL        DAT_INTMEM_75,#0xff                                        = ??
       CODE:02ea 61 1b           AJMP       LAB_CODE_031b
                             LAB_CODE_02ec                                   XREF[2]:     CODE:02e2(j), CODE:0318(j)  
       CODE:02ec 91 96           ACALL      FUN_CODE_0496                                              undefined FUN_CODE_0496()
                             LAB_CODE_02ee                                   XREF[11]:    CODE:03a7(j), CODE:03b6(j), 
                                                                                          CODE:03c5(j), CODE:03e1(j), 
                                                                                          CODE:03ef(j), CODE:03fd(j), 
                                                                                          CODE:0402(j), CODE:0421(j), 
                                                                                          CODE:0437(j), CODE:045b(j), 
                                                                                          CODE:048c(j)  
       CODE:02ee 75 b0 85        MOV        P3,#0x85                                                   = ??
       CODE:02f1 53 8f fd        ANL        FADDR,#0xfd                                                = ??
       CODE:02f4 c2 d3           CLR        RS0                                                        = ??
       CODE:02f6 d0 d0           POP        PSW
       CODE:02f8 d0 e0           POP        A
       CODE:02fa 53 bf fe        ANL        DAT_SFR_bf,#0xfe                                           = ??
       CODE:02fd 32              RETI
                             **************************************************************
                             *                          FUNCTION                          *
                             **************************************************************
                             undefined FUN_CODE_02fe()
             undefined         ACC:1          <RETURN>
                             FUN_CODE_02fe                                   XREF[1]:     CODE:0006(c)  
       CODE:02fe 43 bf 01        ORL        DAT_SFR_bf,#0x1                                            = ??
       CODE:0301 c0 e0           PUSH       A
       CODE:0303 c0 d0           PUSH       PSW
       CODE:0305 d2 d3           SETB       RS0                                                        = ??
       CODE:0307 43 8f 02        ORL        FADDR,#0x2                                                 = ??
                             LAB_CODE_030a                                   XREF[1]:     CODE:035e(j)  
       CODE:030a e5 b0           MOV        A,P3                                                       = ??
       CODE:030c b4 01 d3        CJNE       A,#0x1,LAB_CODE_02e2
       CODE:030f aa b5           MOV        R2,DAT_SFR_b5                                              = ??
       CODE:0311 85 b6 75        MOV        DAT_INTMEM_75,DAT_SFR_b6                                   = ??
       CODE:0314 e5 75           MOV        A,DAT_INTMEM_75                                            = ??
       CODE:0316 54 f0           ANL        A,#0xf0
       CODE:0318 b4 10 d1        CJNE       A,#0x10,LAB_CODE_02ec
                             LAB_CODE_031b                                   XREF[4]:     CODE:02ea(j), CODE:0429(j), 
                                                                                          CODE:0463(j), CODE:0494(j)  
       CODE:031b 30 62 02        JNB        2c.2,LAB_CODE_0320                                         = ??
       CODE:031e 61 ff           AJMP       LAB_CODE_03ff
                             LAB_CODE_0320                                   XREF[1]:     CODE:031b(j)  
       CODE:0320 c3              CLR        CY
       CODE:0321 e5 6f           MOV        A,DAT_INTMEM_6f                                            = ??
       CODE:0323 13              RRC        A
       CODE:0324 83              MOVC       A,@A+PC
       CODE:0325 50 01           JNC        LAB_CODE_0328
       CODE:0327 c4              SWAP       A
                             LAB_CODE_0328                                   XREF[1]:     CODE:0325(j)  
       CODE:0328 54 0f           ANL        A,#0xf
       CODE:032a 23              RL         A
       CODE:032b 90 03 78        MOV        DPTR,#0x378
                             switchD_CODE:032e::switchD
       CODE:032e 73              JMP        @A+DPTR
       CODE:032f 10 33 33        JBC        26.3,LAB_CODE_0365                                         = ??
       CODE:0332 43 43 45        ORL        DAT_INTMEM_43,#0x45                                        = ??
       CODE:0335 33              RLC        A
       CODE:0336 33              RLC        A
       CODE:0337 33              RLC        A
       CODE:0338 33              RLC        A
       CODE:0339 33              RLC        A
       CODE:033a 33              RLC        A
       CODE:033b 33              RLC        A
       CODE:033c 33              RLC        A
       CODE:033d 33              RLC        A
       CODE:033e 33              RLC        A
       CODE:033f 34 33           ADDC       A,#0x33
       CODE:0341 33              RLC        A
       CODE:0342 73              JMP        @A+DPTR
       CODE:0343 76 76           MOV        @R0,#0x76
       CODE:0345 76 76           MOV        @R0,#0x76
       CODE:0347 43 34 73        ORL        DAT_INTMEM_34,#0x73                                        = ??
       CODE:034a 76 76           MOV        @R0,#0x76
       CODE:034c 76 76           MOV        @R0,#0x76
       CODE:034e 76 76           MOV        @R0,#0x76
       CODE:0350 76 76           MOV        @R0,#0x76
       CODE:0352 82 a8           ANL        CY,EX0                                                     = ??
       CODE:0354 a9 a9           MOV        R1,SADDR                                                   = ??
       CODE:0356 a9 a9           MOV        R1,SADDR                                                   = ??
       CODE:0358 a9 a9           MOV        R1,SADDR                                                   = ??
       CODE:035a a9 a9           MOV        R1,SADDR                                                   = ??
       CODE:035c a9 a9           MOV        R1,SADDR                                                   = ??
       CODE:035e b9 a9 a9        CJNE       R1,#0xa9,LAB_CODE_030a
       CODE:0361 a9 a9           MOV        R1,SADDR                                                   = ??
       CODE:0363 a9 a9           MOV        R1,SADDR                                                   = ??
                             LAB_CODE_0365                                   XREF[1]:     CODE:032f(j)  
       CODE:0365 a9 a9           MOV        R1,SADDR                                                   = ??
       CODE:0367 a9 a9           MOV        R1,SADDR                                                   = ??
       CODE:0369 a9 a9           MOV        R1,SADDR                                                   = ??
       CODE:036b a9 a9           MOV        R1,SADDR                                                   = ??
       CODE:036d a9 a9           MOV        R1,SADDR                                                   = ??
       CODE:036f a9 a9           MOV        R1,SADDR                                                   = ??
       CODE:0371 a9 a9           MOV        R1,SADDR                                                   = ??
       CODE:0373 a9 a9           MOV        R1,SADDR                                                   = ??
       CODE:0375 a9 a9           MOV        R1,SADDR                                                   = ??
       CODE:0377 02              ??         02h
                             switchD_CODE:032e::caseD_0                      XREF[1]:     CODE:032e(j)  
       CODE:0378 61 90           AJMP       switchD_CODE:032e::caseD_c
                             switchD_CODE:032e::caseD_1                      XREF[1]:     CODE:032e(j)  
       CODE:037a 61 a9           AJMP       LAB_CODE_03a9
                             switchD_CODE:032e::caseD_2                      XREF[1]:     CODE:032e(j)  
       CODE:037c 61 c7           AJMP       LAB_CODE_03c7
                             switchD_CODE:032e::caseD_3                      XREF[1]:     CODE:032e(j)  
       CODE:037e 61 d5           AJMP       LAB_CODE_03d5
                             switchD_CODE:032e::caseD_4                      XREF[1]:     CODE:032e(j)  
       CODE:0380 61 e3           AJMP       LAB_CODE_03e3
                             switchD_CODE:032e::caseD_5                      XREF[1]:     CODE:032e(j)  
       CODE:0382 61 f1           AJMP       LAB_CODE_03f1
                             switchD_CODE:032e::caseD_6                      XREF[1]:     CODE:032e(j)  
       CODE:0384 81 04           AJMP       LAB_CODE_0404
                             switchD_CODE:032e::caseD_7                      XREF[1]:     CODE:032e(j)  
       CODE:0386 81 15           AJMP       LAB_CODE_0415
                             switchD_CODE:032e::caseD_8                      XREF[1]:     CODE:032e(j)  
       CODE:0388 81 2b           AJMP       LAB_CODE_042b
                             switchD_CODE:032e::caseD_9                      XREF[1]:     CODE:032e(j)  
       CODE:038a 81 39           AJMP       LAB_CODE_0439
                             switchD_CODE:032e::caseD_a                      XREF[1]:     CODE:032e(j)  
       CODE:038c 81 4f           AJMP       LAB_CODE_044f
                             switchD_CODE:032e::caseD_b                      XREF[1]:     CODE:032e(j)  
       CODE:038e 81 65           AJMP       LAB_CODE_0465
                             caseD_d (CODE:0390+2)                           XREF[2,1]:   CODE:032e(j), CODE:0378(j), 
                             switchD_CODE:032e::caseD_c                                   CODE:032e(j)  
       CODE:0390 75 74 00        MOV        DAT_INTMEM_74,#0x0                                         = ??
                             caseD_e (CODE:0393+1)                           XREF[0,1]:   CODE:032e(j)  
       CODE:0393 75 70 00        MOV        DAT_INTMEM_70,#0x0                                         = ??
                             switchD_CODE:032e::caseD_f                      XREF[1]:     CODE:032e(j)  
       CODE:0396 e5 75           MOV        A,DAT_INTMEM_75                                            = ??
       CODE:0398 20 e3 64        JB         ACC.3,LAB_CODE_03ff                                        = ??
       CODE:039b ea              MOV        A,R2
       CODE:039c 24 4a           ADD        A,#0x4a
       CODE:039e 50 5f           JNC        LAB_CODE_03ff
       CODE:03a0 ea              MOV        A,R2
       CODE:03a1 24 2f           ADD        A,#0x2f
       CODE:03a3 40 5a           JC         LAB_CODE_03ff
       CODE:03a5 05 6f           INC        DAT_INTMEM_6f                                              = ??
       CODE:03a7 41 ee           AJMP       LAB_CODE_02ee
                             LAB_CODE_03a9                                   XREF[1]:     CODE:037a(j)  
       CODE:03a9 ea              MOV        A,R2
       CODE:03aa 24 ca           ADD        A,#0xca
       CODE:03ac 50 0a           JNC        LAB_CODE_03b8
       CODE:03ae ea              MOV        A,R2
       CODE:03af 24 b5           ADD        A,#0xb5
       CODE:03b1 40 05           JC         LAB_CODE_03b8
       CODE:03b3 75 6f 16        MOV        DAT_INTMEM_6f,#0x16                                        = ??
       CODE:03b6 41 ee           AJMP       LAB_CODE_02ee
                             LAB_CODE_03b8                                   XREF[2]:     CODE:03ac(j), CODE:03b1(j)  
       CODE:03b8 ea              MOV        A,R2
       CODE:03b9 24 f4           ADD        A,#0xf4
       CODE:03bb 50 42           JNC        LAB_CODE_03ff
       CODE:03bd ea              MOV        A,R2
       CODE:03be 24 df           ADD        A,#0xdf
       CODE:03c0 40 3d           JC         LAB_CODE_03ff
       CODE:03c2 75 6f 5b        MOV        DAT_INTMEM_6f,#0x5b                                        = ??
       CODE:03c5 41 ee           AJMP       LAB_CODE_02ee
                             LAB_CODE_03c7                                   XREF[1]:     CODE:037c(j)  
       CODE:03c7 e5 75           MOV        A,DAT_INTMEM_75                                            = ??
       CODE:03c9 30 e3 33        JNB        ACC.3,LAB_CODE_03ff                                        = ??
       CODE:03cc ea              MOV        A,R2
       CODE:03cd 24 4a           ADD        A,#0x4a
       CODE:03cf 50 2e           JNC        LAB_CODE_03ff
       CODE:03d1 d2 62           SETB       2c.2                                                       = ??
       CODE:03d3 61 ff           AJMP       LAB_CODE_03ff
                             LAB_CODE_03d5                                   XREF[2]:     CODE:037e(j), CODE:0413(j)  
       CODE:03d5 ea              MOV        A,R2
       CODE:03d6 24 ea           ADD        A,#0xea
       CODE:03d8 50 25           JNC        LAB_CODE_03ff
       CODE:03da ea              MOV        A,R2
       CODE:03db 24 d5           ADD        A,#0xd5
       CODE:03dd 40 20           JC         LAB_CODE_03ff
       CODE:03df 05 6f           INC        DAT_INTMEM_6f                                              = ??
       CODE:03e1 41 ee           AJMP       LAB_CODE_02ee
                             LAB_CODE_03e3                                   XREF[1]:     CODE:0380(j)  
       CODE:03e3 ea              MOV        A,R2
       CODE:03e4 24 ca           ADD        A,#0xca
       CODE:03e6 50 17           JNC        LAB_CODE_03ff
       CODE:03e8 ea              MOV        A,R2
       CODE:03e9 24 b5           ADD        A,#0xb5
       CODE:03eb 40 12           JC         LAB_CODE_03ff
       CODE:03ed 05 6f           INC        DAT_INTMEM_6f                                              = ??
       CODE:03ef 41 ee           AJMP       LAB_CODE_02ee
                             LAB_CODE_03f1                                   XREF[1]:     CODE:0382(j)  
       CODE:03f1 ea              MOV        A,R2
       CODE:03f2 24 aa           ADD        A,#0xaa
       CODE:03f4 50 09           JNC        LAB_CODE_03ff
       CODE:03f6 ea              MOV        A,R2
       CODE:03f7 24 95           ADD        A,#0x95
       CODE:03f9 40 04           JC         LAB_CODE_03ff
       CODE:03fb 05 6f           INC        DAT_INTMEM_6f                                              = ??
       CODE:03fd 41 ee           AJMP       LAB_CODE_02ee
                             LAB_CODE_03ff                                   XREF[21]:    CODE:031e(j), CODE:0398(j), 
                                                                                          CODE:039e(j), CODE:03a3(j), 
                                                                                          CODE:03bb(j), CODE:03c0(j), 
                                                                                          CODE:03c9(j), CODE:03cf(j), 
                                                                                          CODE:03d3(j), CODE:03d8(j), 
                                                                                          CODE:03dd(j), CODE:03e6(j), 
                                                                                          CODE:03eb(j), CODE:03f4(j), 
                                                                                          CODE:03f9(j), CODE:0418(j), 
                                                                                          CODE:042e(j), CODE:0433(j), 
                                                                                          CODE:0452(j), CODE:0468(j), [more]
       CODE:03ff 75 6f 14        MOV        DAT_INTMEM_6f,#0x14                                        = ??
       CODE:0402 41 ee           AJMP       LAB_CODE_02ee
                             LAB_CODE_0404                                   XREF[1]:     CODE:0384(j)  
       CODE:0404 e5 75           MOV        A,DAT_INTMEM_75                                            = ??
       CODE:0406 a2 e3           MOV        CY,ACC.3                                                   = ??
       CODE:0408 b3              CPL        CY
       CODE:0409 e5 72           MOV        A,DAT_INTMEM_72                                            = ??
       CODE:040b 33              RLC        A
       CODE:040c f5 72           MOV        DAT_INTMEM_72,A                                            = ??
       CODE:040e e5 71           MOV        A,DAT_INTMEM_71                                            = ??
       CODE:0410 33              RLC        A
       CODE:0411 f5 71           MOV        DAT_INTMEM_71,A                                            = ??
       CODE:0413 61 d5           AJMP       LAB_CODE_03d5
                             LAB_CODE_0415                                   XREF[1]:     CODE:0386(j)  
       CODE:0415 ea              MOV        A,R2
       CODE:0416 24 ea           ADD        A,#0xea
       CODE:0418 50 e5           JNC        LAB_CODE_03ff
       CODE:041a ea              MOV        A,R2
       CODE:041b 24 d5           ADD        A,#0xd5
       CODE:041d 40 04           JC         LAB_CODE_0423
       CODE:041f 05 6f           INC        DAT_INTMEM_6f                                              = ??
       CODE:0421 41 ee           AJMP       LAB_CODE_02ee
                             LAB_CODE_0423                                   XREF[1]:     CODE:041d(j)  
       CODE:0423 ea              MOV        A,R2
       CODE:0424 94 20           SUBB       A,#0x20
       CODE:0426 fa              MOV        R2,A
       CODE:0427 05 6f           INC        DAT_INTMEM_6f                                              = ??
       CODE:0429 61 1b           AJMP       LAB_CODE_031b
                             LAB_CODE_042b                                   XREF[2]:     CODE:0388(j), CODE:044d(j)  
       CODE:042b ea              MOV        A,R2
       CODE:042c 24 f4           ADD        A,#0xf4
       CODE:042e 50 cf           JNC        LAB_CODE_03ff
       CODE:0430 ea              MOV        A,R2
       CODE:0431 24 df           ADD        A,#0xdf
       CODE:0433 40 ca           JC         LAB_CODE_03ff
       CODE:0435 05 6f           INC        DAT_INTMEM_6f                                              = ??
       CODE:0437 41 ee           AJMP       LAB_CODE_02ee
                             LAB_CODE_0439                                   XREF[1]:     CODE:038a(j)  
       CODE:0439 e5 75           MOV        A,DAT_INTMEM_75                                            = ??
       CODE:043b a2 e3           MOV        CY,ACC.3                                                   = ??
       CODE:043d b3              CPL        CY
       CODE:043e e5 74           MOV        A,DAT_INTMEM_74                                            = ??
       CODE:0440 33              RLC        A
       CODE:0441 f5 74           MOV        DAT_INTMEM_74,A                                            = ??
       CODE:0443 e5 73           MOV        A,DAT_INTMEM_73                                            = ??
       CODE:0445 33              RLC        A
       CODE:0446 f5 73           MOV        DAT_INTMEM_73,A                                            = ??
       CODE:0448 e5 72           MOV        A,DAT_INTMEM_72                                            = ??
       CODE:044a 33              RLC        A
       CODE:044b f5 72           MOV        DAT_INTMEM_72,A                                            = ??
       CODE:044d 81 2b           AJMP       LAB_CODE_042b
                             LAB_CODE_044f                                   XREF[1]:     CODE:038c(j)  
       CODE:044f ea              MOV        A,R2
       CODE:0450 24 f4           ADD        A,#0xf4
       CODE:0452 50 ab           JNC        LAB_CODE_03ff
       CODE:0454 ea              MOV        A,R2
       CODE:0455 24 df           ADD        A,#0xdf
       CODE:0457 40 04           JC         LAB_CODE_045d
       CODE:0459 05 6f           INC        DAT_INTMEM_6f                                              = ??
       CODE:045b 41 ee           AJMP       LAB_CODE_02ee
                             LAB_CODE_045d                                   XREF[2]:     CODE:0457(j), CODE:0488(j)  
       CODE:045d ea              MOV        A,R2
       CODE:045e 94 16           SUBB       A,#0x16
       CODE:0460 fa              MOV        R2,A
       CODE:0461 05 6f           INC        DAT_INTMEM_6f                                              = ??
       CODE:0463 61 1b           AJMP       LAB_CODE_031b
                             LAB_CODE_0465                                   XREF[1]:     CODE:038e(j)  
       CODE:0465 ea              MOV        A,R2
       CODE:0466 24 f4           ADD        A,#0xf4
       CODE:0468 50 95           JNC        LAB_CODE_03ff
       CODE:046a 85 73 70        MOV        DAT_INTMEM_70,DAT_INTMEM_73                                = ??
       CODE:046d 85 74 71        MOV        DAT_INTMEM_71,DAT_INTMEM_74                                = ??
       CODE:0470 e5 70           MOV        A,DAT_INTMEM_70                                            = ??
       CODE:0472 30 d0 8a        JNB        P,LAB_CODE_03ff                                            = ??
       CODE:0475 b4 07 05        CJNE       A,#0x7,LAB_CODE_047d
       CODE:0478 75 6f 93        MOV        DAT_INTMEM_6f,#0x93                                        = ??
       CODE:047b 81 85           AJMP       LAB_CODE_0485
                             LAB_CODE_047d                                   XREF[1]:     CODE:0475(j)  
       CODE:047d b4 01 05        CJNE       A,#0x1,LAB_CODE_0485
       CODE:0480 75 6f 79        MOV        DAT_INTMEM_6f,#0x79                                        = ??
       CODE:0483 81 85           AJMP       LAB_CODE_0485
                             LAB_CODE_0485                                   XREF[3]:     CODE:047b(j), CODE:047d(j), 
                                                                                          CODE:0483(j)  
       CODE:0485 ea              MOV        A,R2
       CODE:0486 24 df           ADD        A,#0xdf
       CODE:0488 40 d3           JC         LAB_CODE_045d
       CODE:048a 05 6f           INC        DAT_INTMEM_6f                                              = ??
       CODE:048c 41 ee           AJMP       LAB_CODE_02ee
       CODE:048e ea              MOV        A,R2
       CODE:048f 94 16           SUBB       A,#0x16
       CODE:0491 fa              MOV        R2,A
       CODE:0492 05 6f           INC        DAT_INTMEM_6f                                              = ??
       CODE:0494 61 1b           AJMP       LAB_CODE_031b
                             **************************************************************
                             *                          FUNCTION                          *
                             **************************************************************
                             undefined FUN_CODE_0496()
             undefined         ACC:1          <RETURN>
                             FUN_CODE_0496                                   XREF[2]:     FUN_CODE_02fe:02ec(c), 
                                                                                          FUN_CODE_2383:2385(c)  
       CODE:0496 75 b7 f2        MOV        IPH0,#0xf2                                                 = ??
       CODE:0499 75 b7 10        MOV        IPH0,#0x10                                                 = ??
       CODE:049c 75 b1 00        MOV        IEN1,#0x0                                                  = ??
       CODE:049f 75 b2 4c        MOV        IPL1,#0x4c                                                 = ??
       CODE:04a2 75 b2 82        MOV        IPL1,#0x82                                                 = ??
       CODE:04a5 75 b3 0c        MOV        IPH1,#0xc                                                  = ??
       CODE:04a8 75 b4 3f        MOV        DAT_SFR_b4,#0x3f                                           = ??
       CODE:04ab 75 b0 87        MOV        P3,#0x87                                                   = ??
       CODE:04ae 75 b1 07        MOV        IEN1,#0x7                                                  = ??
       CODE:04b1 75 6f 14        MOV        DAT_INTMEM_6f,#0x14                                        = ??
       CODE:04b4 43 b7 01        ORL        IPH0,#0x1                                                  = ??
       CODE:04b7 43 b9 40        ORL        SADEN,#0x40                                                = ??
       CODE:04ba 53 bc bf        ANL        DAT_SFR_bc,#0xbf                                           = ??
       CODE:04bd 22              RET
                             LAB_CODE_04be                                   XREF[1]:     CODE:0636(j)  
       CODE:04be 43 9d 04        ORL        DAT_SFR_9d,#0x4                                            = ??
       CODE:04c1 43 9d 08        ORL        DAT_SFR_9d,#0x8                                            = ??
       CODE:04c4 53 a2 fb        ANL        FIE,#0xfb                                                  = ??
       CODE:04c7 53 a2 f7        ANL        FIE,#0xf7                                                  = ??
       CODE:04ca c2 68           CLR        2d.0                                                       = ??
       CODE:04cc c2 82           CLR        g_argon_clk                                                = ??
       CODE:04ce c2 83           CLR        g_argon_data                                               = ??
       CODE:04d0 75 69 0b        MOV        DAT_INTMEM_69,#0xb                                         = ??
       CODE:04d3 a1 78           AJMP       LAB_CODE_0578
                             LAB_CODE_04d5                                   XREF[1]:     CODE:063c(j)  
       CODE:04d5 43 9d 04        ORL        DAT_SFR_9d,#0x4                                            = ??
       CODE:04d8 43 9d 08        ORL        DAT_SFR_9d,#0x8                                            = ??
       CODE:04db 53 a2 fb        ANL        FIE,#0xfb                                                  = ??
       CODE:04de 53 a2 f7        ANL        FIE,#0xf7                                                  = ??
       CODE:04e1 30 82 02        JNB        g_argon_clk,LAB_CODE_04e6                                  = ??
       CODE:04e4 a1 84           AJMP       LAB_CODE_0584
                             LAB_CODE_04e6                                   XREF[2]:     CODE:04e1(j), CODE:0526(j)  
       CODE:04e6 30 68 07        JNB        2d.0,LAB_CODE_04f0                                         = ??
       CODE:04e9 20 67 04        JB         2c.7,LAB_CODE_04f0                                         = ??
       CODE:04ec c2 64           CLR        2c.4                                                       = ??
       CODE:04ee c2 68           CLR        2d.0                                                       = ??
                             LAB_CODE_04f0                                   XREF[2]:     CODE:04e6(j), CODE:04e9(j)  
       CODE:04f0 75 6a 0b        MOV        DAT_INTMEM_6a,#0xb                                         = ??
       CODE:04f3 75 69 0b        MOV        DAT_INTMEM_69,#0xb                                         = ??
       CODE:04f6 a1 8c           AJMP       LAB_CODE_058c
                             LAB_CODE_04f8                                   XREF[1]:     CODE:063a(j)  
       CODE:04f8 d5 69 04        DJNZ       DAT_INTMEM_69,LAB_CODE_04ff                                = ??
       CODE:04fb c2 64           CLR        2c.4                                                       = ??
       CODE:04fd a1 74           AJMP       LAB_CODE_0574
                             LAB_CODE_04ff                                   XREF[1]:     CODE:04f8(j)  
       CODE:04ff 30 82 7a        JNB        g_argon_clk,LAB_CODE_057c                                  = ??
       CODE:0502 30 83 77        JNB        g_argon_data,LAB_CODE_057c                                 = ??
       CODE:0505 a1 80           AJMP       LAB_CODE_0580
                             LAB_CODE_0507                                   XREF[1]:     CODE:0638(j)  
       CODE:0507 d5 69 6e        DJNZ       DAT_INTMEM_69,LAB_CODE_0578                                = ??
       CODE:050a 30 63 04        JNB        2c.3,LAB_CODE_0511                                         = ??
       CODE:050d 05 69           INC        DAT_INTMEM_69                                              = ??
       CODE:050f a1 78           AJMP       LAB_CODE_0578
                             LAB_CODE_0511                                   XREF[1]:     CODE:050a(j)  
       CODE:0511 d2 82           SETB       g_argon_clk                                                = ??
       CODE:0513 d2 83           SETB       g_argon_data                                               = ??
       CODE:0515 75 69 64        MOV        DAT_INTMEM_69,#0x64                                        = ??
       CODE:0518 a1 7c           AJMP       LAB_CODE_057c
                             LAB_CODE_051a                                   XREF[1]:     CODE:063e(j)  
       CODE:051a 43 9d 04        ORL        DAT_SFR_9d,#0x4                                            = ??
       CODE:051d 43 9d 08        ORL        DAT_SFR_9d,#0x8                                            = ??
       CODE:0520 53 a2 fb        ANL        FIE,#0xfb                                                  = ??
       CODE:0523 53 a2 f7        ANL        FIE,#0xf7                                                  = ??
       CODE:0526 30 82 bd        JNB        g_argon_clk,LAB_CODE_04e6                                  = ??
       CODE:0529 20 68 0d        JB         2d.0,LAB_CODE_0539                                         = ??
       CODE:052c e5 6e           MOV        A,DAT_INTMEM_6e                                            = ??
       CODE:052e 70 05           JNZ        LAB_CODE_0535
       CODE:0530 20 64 17        JB         2c.4,LAB_CODE_054a                                         = ??
       CODE:0533 a1 84           AJMP       LAB_CODE_0584
                             LAB_CODE_0535                                   XREF[1]:     CODE:052e(j)  
       CODE:0535 15 6e           DEC        DAT_INTMEM_6e                                              = ??
       CODE:0537 a1 84           AJMP       LAB_CODE_0584
                             LAB_CODE_0539                                   XREF[1]:     CODE:0529(j)  
       CODE:0539 30 67 07        JNB        2c.7,LAB_CODE_0543                                         = ??
       CODE:053c d5 69 45        DJNZ       DAT_INTMEM_69,LAB_CODE_0584                                = ??
       CODE:053f c2 64           CLR        2c.4                                                       = ??
       CODE:0541 a1 74           AJMP       LAB_CODE_0574
                             LAB_CODE_0543                                   XREF[1]:     CODE:0539(j)  
       CODE:0543 d2 69           SETB       2d.1                                                       = ??
       CODE:0545 85 6d 6c        MOV        DAT_INTMEM_6c,DAT_INTMEM_6d                                = ??
       CODE:0548 a1 56           AJMP       LAB_CODE_0556
                             LAB_CODE_054a                                   XREF[1]:     CODE:0530(j)  
       CODE:054a c2 69           CLR        2d.1                                                       = ??
       CODE:054c e5 6c           MOV        A,DAT_INTMEM_6c                                            = ??
       CODE:054e 70 06           JNZ        LAB_CODE_0556
       CODE:0550 c2 64           CLR        2c.4                                                       = ??
       CODE:0552 c2 65           CLR        2c.5                                                       = ??
       CODE:0554 a1 74           AJMP       LAB_CODE_0574
                             LAB_CODE_0556                                   XREF[2]:     CODE:0548(j), CODE:054e(j)  
       CODE:0556 75 6a 0b        MOV        DAT_INTMEM_6a,#0xb                                         = ??
       CODE:0559 75 69 0b        MOV        DAT_INTMEM_69,#0xb                                         = ??
       CODE:055c c2 83           CLR        g_argon_data                                               = ??
       CODE:055e c2 6a           CLR        2d.2                                                       = ??
       CODE:0560 a1 90           AJMP       LAB_CODE_0590
                             LAB_CODE_0562                                   XREF[1]:     CODE:0640(j)  
       CODE:0562 30 82 0a        JNB        g_argon_clk,LAB_CODE_056f                                  = ??
       CODE:0565 d5 69 20        DJNZ       DAT_INTMEM_69,LAB_CODE_0588                                = ??
       CODE:0568 30 68 02        JNB        2d.0,LAB_CODE_056d                                         = ??
       CODE:056b c2 64           CLR        2c.4                                                       = ??
                             LAB_CODE_056d                                   XREF[1]:     CODE:0568(j)  
       CODE:056d a1 74           AJMP       LAB_CODE_0574
                             LAB_CODE_056f                                   XREF[1]:     CODE:0562(j)  
       CODE:056f 75 69 0b        MOV        DAT_INTMEM_69,#0xb                                         = ??
       CODE:0572 a1 8c           AJMP       LAB_CODE_058c
                             LAB_CODE_0574                                   XREF[8]:     CODE:04fd(j), CODE:0541(j), 
                                                                                          CODE:0554(j), CODE:056d(j), 
                                                                                          CODE:05a3(j), CODE:05b0(j), 
                                                                                          CODE:05de(j), CODE:0609(j)  
       CODE:0574 75 68 00        MOV        DAT_INTMEM_68,#0x0                                         = ??
       CODE:0577 22              RET
                             LAB_CODE_0578                                   XREF[3]:     CODE:04d3(j), CODE:0507(j), 
                                                                                          CODE:050f(j)  
       CODE:0578 75 68 01        MOV        DAT_INTMEM_68,#0x1                                         = ??
       CODE:057b 22              RET
                             LAB_CODE_057c                                   XREF[3]:     CODE:04ff(j), CODE:0502(j), 
                                                                                          CODE:0518(j)  
       CODE:057c 75 68 02        MOV        DAT_INTMEM_68,#0x2                                         = ??
       CODE:057f 22              RET
                             LAB_CODE_0580                                   XREF[6]:     CODE:0505(j), CODE:05ab(j), 
                                                                                          CODE:05be(j), CODE:05c6(j), 
                                                                                          CODE:0625(j), CODE:062d(j)  
       CODE:0580 75 68 03        MOV        DAT_INTMEM_68,#0x3                                         = ??
       CODE:0583 22              RET
                             LAB_CODE_0584                                   XREF[4]:     CODE:04e4(j), CODE:0533(j), 
                                                                                          CODE:0537(j), CODE:053c(j)  
       CODE:0584 75 68 04        MOV        DAT_INTMEM_68,#0x4                                         = ??
       CODE:0587 22              RET
                             LAB_CODE_0588                                   XREF[2]:     CODE:0565(j), CODE:05d4(j)  
       CODE:0588 75 68 05        MOV        DAT_INTMEM_68,#0x5                                         = ??
       CODE:058b 22              RET
                             LAB_CODE_058c                                   XREF[3]:     CODE:04f6(j), CODE:0572(j), 
                                                                                          CODE:059b(j)  
       CODE:058c 75 68 06        MOV        DAT_INTMEM_68,#0x6                                         = ??
       CODE:058f 22              RET
                             LAB_CODE_0590                                   XREF[3]:     CODE:0560(j), CODE:05d9(j), 
                                                                                          CODE:0618(j)  
       CODE:0590 75 68 07        MOV        DAT_INTMEM_68,#0x7                                         = ??
       CODE:0593 22              RET
                             LAB_CODE_0594                                   XREF[4]:     CODE:05ec(j), CODE:05f0(j), 
                                                                                          CODE:05ff(j), CODE:0604(j)  
       CODE:0594 75 68 08        MOV        DAT_INTMEM_68,#0x8                                         = ??
       CODE:0597 22              RET
                             LAB_CODE_0598                                   XREF[1]:     CODE:0642(j)  
       CODE:0598 20 82 0a        JB         g_argon_clk,LAB_CODE_05a5                                  = ??
       CODE:059b d5 69 ee        DJNZ       DAT_INTMEM_69,LAB_CODE_058c                                = ??
       CODE:059e 30 68 02        JNB        2d.0,LAB_CODE_05a3                                         = ??
       CODE:05a1 c2 64           CLR        2c.4                                                       = ??
                             LAB_CODE_05a3                                   XREF[1]:     CODE:059e(j)  
       CODE:05a3 a1 74           AJMP       LAB_CODE_0574
                             LAB_CODE_05a5                                   XREF[1]:     CODE:0598(j)  
       CODE:05a5 d5 6a 20        DJNZ       DAT_INTMEM_6a,LAB_CODE_05c8                                = ??
       CODE:05a8 20 68 07        JB         2d.0,LAB_CODE_05b2                                         = ??
       CODE:05ab 20 69 d2        JB         2d.1,LAB_CODE_0580                                         = ??
       CODE:05ae d2 63           SETB       2c.3                                                       = ??
       CODE:05b0 a1 74           AJMP       LAB_CODE_0574
                             LAB_CODE_05b2                                   XREF[1]:     CODE:05a8(j)  
       CODE:05b2 30 69 0b        JNB        2d.1,LAB_CODE_05c0                                         = ??
       CODE:05b5 85 6b 6d        MOV        DAT_INTMEM_6d,DAT_INTMEM_6b                                = ??
       CODE:05b8 c2 64           CLR        2c.4                                                       = ??
       CODE:05ba c2 65           CLR        2c.5                                                       = ??
       CODE:05bc c2 68           CLR        2d.0                                                       = ??
       CODE:05be a1 80           AJMP       LAB_CODE_0580
                             LAB_CODE_05c0                                   XREF[1]:     CODE:05b2(j)  
       CODE:05c0 c2 64           CLR        2c.4                                                       = ??
       CODE:05c2 c2 68           CLR        2d.0                                                       = ??
       CODE:05c4 d2 63           SETB       2c.3                                                       = ??
       CODE:05c6 a1 80           AJMP       LAB_CODE_0580
                             LAB_CODE_05c8                                   XREF[1]:     CODE:05a5(j)  
       CODE:05c8 75 69 0b        MOV        DAT_INTMEM_69,#0xb                                         = ??
       CODE:05cb e5 6b           MOV        A,DAT_INTMEM_6b                                            = ??
       CODE:05cd a2 83           MOV        CY,g_argon_data                                            = ??
       CODE:05cf 33              RLC        A
       CODE:05d0 f5 6b           MOV        DAT_INTMEM_6b,A                                            = ??
       CODE:05d2 92 69           MOV        2d.1,CY                                                    = ??
       CODE:05d4 a1 88           AJMP       LAB_CODE_0588
                             LAB_CODE_05d6                                   XREF[1]:     CODE:0644(j)  
       CODE:05d6 30 82 07        JNB        g_argon_clk,LAB_CODE_05e0                                  = ??
       CODE:05d9 d5 69 b4        DJNZ       DAT_INTMEM_69,LAB_CODE_0590                                = ??
       CODE:05dc c2 64           CLR        2c.4                                                       = ??
       CODE:05de a1 74           AJMP       LAB_CODE_0574
                             LAB_CODE_05e0                                   XREF[1]:     CODE:05d6(j)  
       CODE:05e0 75 69 0b        MOV        DAT_INTMEM_69,#0xb                                         = ??
       CODE:05e3 e5 6a           MOV        A,DAT_INTMEM_6a                                            = ??
       CODE:05e5 d5 6a 06        DJNZ       DAT_INTMEM_6a,LAB_CODE_05ee                                = ??
       CODE:05e8 d2 83           SETB       g_argon_data                                               = ??
       CODE:05ea d2 6a           SETB       2d.2                                                       = ??
       CODE:05ec a1 94           AJMP       LAB_CODE_0594
                             LAB_CODE_05ee                                   XREF[1]:     CODE:05e5(j)  
       CODE:05ee 64 0b           XRL        A,#0xb
       CODE:05f0 60 a2           JZ         LAB_CODE_0594
       CODE:05f2 a2 69           MOV        CY,2d.1                                                    = ??
       CODE:05f4 92 83           MOV        g_argon_data,CY                                            = ??
       CODE:05f6 92 6a           MOV        2d.2,CY                                                    = ??
       CODE:05f8 e5 6c           MOV        A,DAT_INTMEM_6c                                            = ??
       CODE:05fa 33              RLC        A
       CODE:05fb f5 6c           MOV        DAT_INTMEM_6c,A                                            = ??
       CODE:05fd 92 69           MOV        2d.1,CY                                                    = ??
       CODE:05ff a1 94           AJMP       LAB_CODE_0594
                             LAB_CODE_0601                                   XREF[1]:     CODE:0646(j)  
       CODE:0601 20 82 07        JB         g_argon_clk,LAB_CODE_060b                                  = ??
       CODE:0604 d5 69 8d        DJNZ       DAT_INTMEM_69,LAB_CODE_0594                                = ??
                             LAB_CODE_0607                                   XREF[1]:     CODE:060e(j)  
       CODE:0607 c2 64           CLR        2c.4                                                       = ??
       CODE:0609 a1 74           AJMP       LAB_CODE_0574
                             LAB_CODE_060b                                   XREF[1]:     CODE:0601(j)  
       CODE:060b 30 6a 03        JNB        2d.2,LAB_CODE_0611                                         = ??
       CODE:060e 30 83 f6        JNB        g_argon_data,LAB_CODE_0607                                 = ??
                             LAB_CODE_0611                                   XREF[1]:     CODE:060b(j)  
       CODE:0611 e5 6a           MOV        A,DAT_INTMEM_6a                                            = ??
       CODE:0613 60 05           JZ         LAB_CODE_061a
       CODE:0615 75 69 0b        MOV        DAT_INTMEM_69,#0xb                                         = ??
       CODE:0618 a1 90           AJMP       LAB_CODE_0590
                             LAB_CODE_061a                                   XREF[1]:     CODE:0613(j)  
       CODE:061a 20 68 0a        JB         2d.0,LAB_CODE_0627                                         = ??
       CODE:061d 30 66 07        JNB        2c.6,LAB_CODE_0627                                         = ??
       CODE:0620 d2 68           SETB       2d.0                                                       = ??
       CODE:0622 75 69 96        MOV        DAT_INTMEM_69,#0x96                                        = ??
       CODE:0625 a1 80           AJMP       LAB_CODE_0580
                             LAB_CODE_0627                                   XREF[2]:     CODE:061a(j), CODE:061d(j)  
       CODE:0627 c2 64           CLR        2c.4                                                       = ??
       CODE:0629 c2 65           CLR        2c.5                                                       = ??
       CODE:062b c2 68           CLR        2d.0                                                       = ??
       CODE:062d a1 80           AJMP       LAB_CODE_0580
                             **************************************************************
                             *                          FUNCTION                          *
                             **************************************************************
                             undefined FUN_CODE_062f()
             undefined         ACC:1          <RETURN>
                             FUN_CODE_062f                                   XREF[1]:     CODE:014f(c)  
       CODE:062f e5 68           MOV        A,DAT_INTMEM_68                                            = ??
       CODE:0631 23              RL         A
       CODE:0632 90 06 36        MOV        DPTR,#0x636
       CODE:0635 73              JMP        @A+DPTR
       CODE:0636 81 be           AJMP       LAB_CODE_04be
       CODE:0638 a1 07           AJMP       LAB_CODE_0507
       CODE:063a 81 f8           AJMP       LAB_CODE_04f8
       CODE:063c 81 d5           AJMP       LAB_CODE_04d5
       CODE:063e a1 1a           AJMP       LAB_CODE_051a
       CODE:0640 a1 62           AJMP       LAB_CODE_0562
       CODE:0642 a1 98           AJMP       LAB_CODE_0598
       CODE:0644 a1 d6           AJMP       LAB_CODE_05d6
       CODE:0646 c1 01           AJMP       LAB_CODE_0601
                             **************************************************************
                             *                          FUNCTION                          *
                             **************************************************************
                             undefined FUN_CODE_0648()
             undefined         ACC:1          <RETURN>
                             FUN_CODE_0648                                   XREF[1]:     CODE:014d(c)  
       CODE:0648 e5 1f           MOV        A,BANK3_R7                                                 = ??
       CODE:064a 60 01           JZ         LAB_CODE_064d
       CODE:064c 22              RET
                             LAB_CODE_064d                                   XREF[1]:     CODE:064a(j)  
       CODE:064d e5 d7           MOV        A,HPSTAT                                                   = ??
       CODE:064f 30 e0 11        JNB        ACC.0,LAB_CODE_0663                                        = ??
       CODE:0652 e5 d7           MOV        A,HPSTAT                                                   = ??
       CODE:0654 30 e0 4e        JNB        ACC.0,LAB_CODE_06a5                                        = ??
       CODE:0657 e5 d7           MOV        A,HPSTAT                                                   = ??
       CODE:0659 30 e0 49        JNB        ACC.0,LAB_CODE_06a5                                        = ??
       CODE:065c c2 6b           CLR        2d.3                                                       = ??
       CODE:065e 75 1c 64        MOV        BANK3_R4,#0x64                                             = ??
       CODE:0661 c1 a5           AJMP       LAB_CODE_06a5
                             LAB_CODE_0663                                   XREF[1]:     CODE:064f(j)  
       CODE:0663 20 6b 0d        JB         2d.3,LAB_CODE_0673                                         = ??
       CODE:0666 d5 1c 3c        DJNZ       BANK3_R4,LAB_CODE_06a5                                     = ??
       CODE:0669 d2 6b           SETB       2d.3                                                       = ??
       CODE:066b c2 71           CLR        2e.1                                                       = ??
       CODE:066d a2 e1           MOV        CY,ACC.1                                                   = ??
       CODE:066f 92 6e           MOV        2d.6,CY                                                    = ??
       CODE:0671 c1 a5           AJMP       LAB_CODE_06a5
                             LAB_CODE_0673                                   XREF[1]:     CODE:0663(j)  
       CODE:0673 54 02           ANL        A,#0x2
       CODE:0675 a2 6e           MOV        CY,2d.6                                                    = ??
       CODE:0677 13              RRC        A
       CODE:0678 20 71 0c        JB         2e.1,LAB_CODE_0687                                         = ??
       CODE:067b 30 d0 27        JNB        P,LAB_CODE_06a5                                            = ??
       CODE:067e d2 71           SETB       2e.1                                                       = ??
       CODE:0680 c2 74           CLR        2e.4                                                       = ??
       CODE:0682 75 1c 32        MOV        BANK3_R4,#0x32                                             = ??
       CODE:0685 c1 a5           AJMP       LAB_CODE_06a5
                             LAB_CODE_0687                                   XREF[1]:     CODE:0678(j)  
       CODE:0687 20 74 0c        JB         2e.4,LAB_CODE_0696                                         = ??
       CODE:068a 30 d0 13        JNB        P,LAB_CODE_06a0                                            = ??
       CODE:068d d5 1c 15        DJNZ       BANK3_R4,LAB_CODE_06a5                                     = ??
                             LAB_CODE_0690                                   XREF[1]:     CODE:0696(j)  
       CODE:0690 b2 6e           CPL        2d.6                                                       = ??
       CODE:0692 c2 71           CLR        2e.1                                                       = ??
       CODE:0694 c1 a5           AJMP       LAB_CODE_06a5
                             LAB_CODE_0696                                   XREF[1]:     CODE:0687(j)  
       CODE:0696 20 d0 f7        JB         P,LAB_CODE_0690                                            = ??
       CODE:0699 d5 1c 09        DJNZ       BANK3_R4,LAB_CODE_06a5                                     = ??
       CODE:069c 75 1f 56        MOV        BANK3_R7,#0x56                                             = ??
       CODE:069f 22              RET
                             LAB_CODE_06a0                                   XREF[1]:     CODE:068a(j)  
       CODE:06a0 d2 74           SETB       2e.4                                                       = ??
       CODE:06a2 75 1c 64        MOV        BANK3_R4,#0x64                                             = ??
                             LAB_CODE_06a5                                   XREF[10]:    CODE:0654(j), CODE:0659(j), 
                                                                                          CODE:0661(j), CODE:0666(j), 
                                                                                          CODE:0671(j), CODE:067b(j), 
                                                                                          CODE:0685(j), CODE:068d(j), 
                                                                                          CODE:0694(j), CODE:0699(j)  
       CODE:06a5 e5 d7           MOV        A,HPSTAT                                                   = ??
       CODE:06a7 30 e2 11        JNB        ACC.2,LAB_CODE_06bb                                        = ??
       CODE:06aa e5 d7           MOV        A,HPSTAT                                                   = ??
       CODE:06ac 30 e2 4e        JNB        ACC.2,LAB_CODE_06fd                                        = ??
       CODE:06af e5 d7           MOV        A,HPSTAT                                                   = ??
       CODE:06b1 30 e2 49        JNB        ACC.2,LAB_CODE_06fd                                        = ??
       CODE:06b4 c2 6c           CLR        2d.4                                                       = ??
       CODE:06b6 75 1d 64        MOV        BANK3_R5,#0x64                                             = ??
       CODE:06b9 c1 fd           AJMP       LAB_CODE_06fd
                             LAB_CODE_06bb                                   XREF[1]:     CODE:06a7(j)  
       CODE:06bb 20 6c 0d        JB         2d.4,LAB_CODE_06cb                                         = ??
       CODE:06be d5 1d 3c        DJNZ       BANK3_R5,LAB_CODE_06fd                                     = ??
       CODE:06c1 d2 6c           SETB       2d.4                                                       = ??
       CODE:06c3 c2 72           CLR        2e.2                                                       = ??
       CODE:06c5 a2 e3           MOV        CY,ACC.3                                                   = ??
       CODE:06c7 92 6f           MOV        2d.7,CY                                                    = ??
       CODE:06c9 c1 fd           AJMP       LAB_CODE_06fd
                             LAB_CODE_06cb                                   XREF[1]:     CODE:06bb(j)  
       CODE:06cb 54 08           ANL        A,#0x8
       CODE:06cd a2 6f           MOV        CY,2d.7                                                    = ??
       CODE:06cf 13              RRC        A
       CODE:06d0 20 72 0c        JB         2e.2,LAB_CODE_06df                                         = ??
       CODE:06d3 30 d0 27        JNB        P,LAB_CODE_06fd                                            = ??
       CODE:06d6 d2 72           SETB       2e.2                                                       = ??
       CODE:06d8 c2 75           CLR        2e.5                                                       = ??
       CODE:06da 75 1d 32        MOV        BANK3_R5,#0x32                                             = ??
       CODE:06dd c1 fd           AJMP       LAB_CODE_06fd
                             LAB_CODE_06df                                   XREF[1]:     CODE:06d0(j)  
       CODE:06df 20 75 0c        JB         2e.5,LAB_CODE_06ee                                         = ??
       CODE:06e2 30 d0 13        JNB        P,LAB_CODE_06f8                                            = ??
       CODE:06e5 d5 1d 15        DJNZ       BANK3_R5,LAB_CODE_06fd                                     = ??
                             LAB_CODE_06e8                                   XREF[1]:     CODE:06ee(j)  
       CODE:06e8 b2 6f           CPL        2d.7                                                       = ??
       CODE:06ea c2 72           CLR        2e.2                                                       = ??
       CODE:06ec c1 fd           AJMP       LAB_CODE_06fd
                             LAB_CODE_06ee                                   XREF[1]:     CODE:06df(j)  
       CODE:06ee 20 d0 f7        JB         P,LAB_CODE_06e8                                            = ??
       CODE:06f1 d5 1d 09        DJNZ       BANK3_R5,LAB_CODE_06fd                                     = ??
       CODE:06f4 75 1f 57        MOV        BANK3_R7,#0x57                                             = ??
       CODE:06f7 22              RET
                             LAB_CODE_06f8                                   XREF[1]:     CODE:06e2(j)  
       CODE:06f8 d2 75           SETB       2e.5                                                       = ??
       CODE:06fa 75 1d 64        MOV        BANK3_R5,#0x64                                             = ??
                             LAB_CODE_06fd                                   XREF[10]:    CODE:06ac(j), CODE:06b1(j), 
                                                                                          CODE:06b9(j), CODE:06be(j), 
                                                                                          CODE:06c9(j), CODE:06d3(j), 
                                                                                          CODE:06dd(j), CODE:06e5(j), 
                                                                                          CODE:06ec(j), CODE:06f1(j)  
       CODE:06fd e5 fd           MOV        A,CCAP3H                                                   = ??
       CODE:06ff 30 e4 11        JNB        ACC.4,LAB_CODE_0713                                        = ??
       CODE:0702 e5 fd           MOV        A,CCAP3H                                                   = ??
       CODE:0704 30 e4 4e        JNB        ACC.4,LAB_CODE_0755                                        = ??
       CODE:0707 e5 fd           MOV        A,CCAP3H                                                   = ??
       CODE:0709 30 e4 49        JNB        ACC.4,LAB_CODE_0755                                        = ??
       CODE:070c c2 6d           CLR        2d.5                                                       = ??
       CODE:070e 75 1e 64        MOV        BANK3_R6,#0x64                                             = ??
       CODE:0711 e1 55           AJMP       LAB_CODE_0755
                             LAB_CODE_0713                                   XREF[1]:     CODE:06ff(j)  
       CODE:0713 20 6d 0d        JB         2d.5,LAB_CODE_0723                                         = ??
       CODE:0716 d5 1e 3c        DJNZ       BANK3_R6,LAB_CODE_0755                                     = ??
       CODE:0719 d2 6d           SETB       2d.5                                                       = ??
       CODE:071b c2 73           CLR        2e.3                                                       = ??
       CODE:071d a2 e5           MOV        CY,ACC.5                                                   = ??
       CODE:071f 92 70           MOV        2e.0,CY                                                    = ??
       CODE:0721 e1 55           AJMP       LAB_CODE_0755
                             LAB_CODE_0723                                   XREF[1]:     CODE:0713(j)  
       CODE:0723 54 20           ANL        A,#0x20
       CODE:0725 a2 70           MOV        CY,2e.0                                                    = ??
       CODE:0727 13              RRC        A
       CODE:0728 20 73 0c        JB         2e.3,LAB_CODE_0737                                         = ??
       CODE:072b 30 d0 27        JNB        P,LAB_CODE_0755                                            = ??
       CODE:072e d2 73           SETB       2e.3                                                       = ??
       CODE:0730 c2 76           CLR        2e.6                                                       = ??
       CODE:0732 75 1e 32        MOV        BANK3_R6,#0x32                                             = ??
       CODE:0735 e1 55           AJMP       LAB_CODE_0755
                             LAB_CODE_0737                                   XREF[1]:     CODE:0728(j)  
       CODE:0737 20 76 0c        JB         2e.6,LAB_CODE_0746                                         = ??
       CODE:073a 30 d0 13        JNB        P,LAB_CODE_0750                                            = ??
       CODE:073d d5 1e 15        DJNZ       BANK3_R6,LAB_CODE_0755                                     = ??
                             LAB_CODE_0740                                   XREF[1]:     CODE:0746(j)  
       CODE:0740 b2 70           CPL        2e.0                                                       = ??
       CODE:0742 c2 73           CLR        2e.3                                                       = ??
       CODE:0744 e1 55           AJMP       LAB_CODE_0755
                             LAB_CODE_0746                                   XREF[1]:     CODE:0737(j)  
       CODE:0746 20 d0 f7        JB         P,LAB_CODE_0740                                            = ??
       CODE:0749 d5 1e 09        DJNZ       BANK3_R6,LAB_CODE_0755                                     = ??
       CODE:074c 75 1f 5a        MOV        BANK3_R7,#0x5a                                             = ??
       CODE:074f 22              RET
                             LAB_CODE_0750                                   XREF[1]:     CODE:073a(j)  
       CODE:0750 d2 76           SETB       2e.6                                                       = ??
       CODE:0752 75 1e 64        MOV        BANK3_R6,#0x64                                             = ??
                             LAB_CODE_0755                                   XREF[10]:    CODE:0704(j), CODE:0709(j), 
                                                                                          CODE:0711(j), CODE:0716(j), 
                                                                                          CODE:0721(j), CODE:072b(j), 
                                                                                          CODE:0735(j), CODE:073d(j), 
                                                                                          CODE:0744(j), CODE:0749(j)  
       CODE:0755 22              RET
                             LAB_CODE_0756                                   XREF[1]:     CODE:0000(j)  
       CODE:0756 75 81 b8        MOV        SP,#0xb8                                                   none of this init code
                                                                                                       really seems to power
                                                                                                       anything up or down
       CODE:0759 12 22 b6        LCALL      FUN_CODE_22b6                                              undefined FUN_CODE_22b6()
       CODE:075c 12 23 b7        LCALL      argon_disable                                              undefined argon_disable()
       CODE:075f 12 22 be        LCALL      FUN_CODE_22be                                              undefined FUN_CODE_22be()
       CODE:0762 12 23 10        LCALL      FUN_CODE_2310                                              undefined FUN_CODE_2310()
       CODE:0765 12 23 34        LCALL      FUN_CODE_2334                                              undefined FUN_CODE_2334()
       CODE:0768 12 08 0d        LCALL      FUN_CODE_080d                                              undefined FUN_CODE_080d()
       CODE:076b 12 07 ea        LCALL      FUN_CODE_07ea                                              undefined FUN_CODE_07ea()
       CODE:076e d2 0c           SETB       21.4                                                       allow powerup event sm
                                                                                                       to run below
       CODE:0770 12 25 d2        LCALL      FUN_CODE_25d2                                              undefined FUN_CODE_25d2()
       CODE:0773 92 0a           MOV        21.2,CY                                                    = ??
                             **************************************************************
                             *                          FUNCTION                          *
                             **************************************************************
                             undefined FUN_CODE_0775()
             undefined         ACC:1          <RETURN>
                             FUN_CODE_0775                                   XREF[1]:     CODE:07e8(j)  
       CODE:0775 75 81 b8        MOV        SP,#0xb8                                                   = ??
       CODE:0778 12 22 b6        LCALL      FUN_CODE_22b6                                              undefined FUN_CODE_22b6()
       CODE:077b 12 00 d7        LCALL      FUN_CODE_00d7                                              undefined FUN_CODE_00d7()
       CODE:077e f5 39           MOV        DAT_INTMEM_39,A                                            = ??
       CODE:0780 12 25 d8        LCALL      FUN_CODE_25d8                                              undefined FUN_CODE_25d8()
       CODE:0783 ec              MOV        A,R4
       CODE:0784 a2 e2           MOV        CY,ACC.2                                                   = ??
       CODE:0786 50 0e           JNC        LAB_CODE_0796
       CODE:0788 20 06 0b        JB         20.6,LAB_CODE_0796                                         = ??
       CODE:078b 20 17 05        JB         22.7,LAB_CODE_0793                                         = ??
       CODE:078e 43 34 20        ORL        DAT_INTMEM_34,#0x20                                        = ??
       CODE:0791 80 03           SJMP       LAB_CODE_0796
                             LAB_CODE_0793                                   XREF[1]:     CODE:078b(j)  
       CODE:0793 43 34 04        ORL        DAT_INTMEM_34,#0x4                                         = ??
                             LAB_CODE_0796                                   XREF[3]:     CODE:0786(j), CODE:0788(j), 
                                                                                          CODE:0791(j)  
       CODE:0796 92 06           MOV        20.6,CY                                                    = ??
       CODE:0798 e5 60           MOV        A,DAT_INTMEM_60                                            = ??
       CODE:079a 60 02           JZ         LAB_CODE_079e
       CODE:079c 15 60           DEC        DAT_INTMEM_60                                              = ??
                             LAB_CODE_079e                                   XREF[1]:     CODE:079a(j)  
       CODE:079e e5 60           MOV        A,DAT_INTMEM_60                                            = ??
       CODE:07a0 70 02           JNZ        LAB_CODE_07a4
       CODE:07a2 c2 34           CLR        26.4                                                       = ??
                             LAB_CODE_07a4                                   XREF[1]:     CODE:07a0(j)  
       CODE:07a4 12 1d 0f        LCALL      FUN_CODE_1d0f                                              monitors powergood signals
                                                                                                       and RRoDs if something bad happens
       CODE:07a7 12 14 a5        LCALL      FUN_CODE_14a5                                              read external powerup pin???
       CODE:07aa 12 1c 87        LCALL      powerejectsw_sm_exec                                       undefined powerejectsw_sm_exec()
       CODE:07ad 12 13 85        LCALL      FUN_CODE_1385                                              undefined FUN_CODE_1385()
       CODE:07b0 12 20 ab        LCALL      FUN_CODE_20ab                                              undefined FUN_CODE_20ab()
       CODE:07b3 12 13 5e        LCALL      FUN_CODE_135e                                              undefined FUN_CODE_135e()
       CODE:07b6 12 1b be        LCALL      FUN_CODE_1bbe                                              undefined FUN_CODE_1bbe()
       CODE:07b9 12 22 1b        LCALL      FUN_CODE_221b                                              undefined FUN_CODE_221b()
       CODE:07bc 12 20 29        LCALL      FUN_CODE_2029                                              undefined FUN_CODE_2029()
       CODE:07bf 12 14 ba        LCALL      FUN_CODE_14ba                                              undefined FUN_CODE_14ba()
       CODE:07c2 12 13 fc        LCALL      dbg_led_statemachine                                       dbg led statemachine
                                                                                                       can probably kill this
       CODE:07c5 12 1d ce        LCALL      FUN_CODE_1dce                                              undefined FUN_CODE_1dce()
       CODE:07c8 12 11 96        LCALL      FUN_CODE_1196                                              undefined FUN_CODE_1196()
       CODE:07cb 12 10 6d        LCALL      powerup_sm_exec                                            undefined powerup_sm_exec()
       CODE:07ce 12 12 c6        LCALL      sysreset_watchdog_statemachine_exec                        undefined sysreset_watchdog_statema
       CODE:07d1 12 11 22        LCALL      hw_reset_statemachine_exec                                 undefined hw_reset_statemachine_exe
       CODE:07d4 12 0e a4        LCALL      powerdown_sm_exec                                          undefined powerdown_sm_exec()
                             LAB_CODE_07d7                                   XREF[1]:     CODE:07e6(j)  
       CODE:07d7 12 1a 2e        LCALL      FUN_CODE_1a2e                                              undefined FUN_CODE_1a2e()
       CODE:07da 12 22 a7        LCALL      FUN_CODE_22a7                                              undefined FUN_CODE_22a7()
       CODE:07dd 12 1d bc        LCALL      FUN_CODE_1dbc                                              undefined FUN_CODE_1dbc()
       CODE:07e0 12 19 e7        LCALL      argon_sm_exec                                              argon/rf/ring of light stuff
       CODE:07e3 12 23 1d        LCALL      have_20ms_elapsed                                          wait a certain number of ms
                                                                                                       before running the next tick
                                                                                                       of above logic
       CODE:07e6 50 ef           JNC        LAB_CODE_07d7
       CODE:07e8 80 8b           SJMP       FUN_CODE_0775
                             **************************************************************
                             *                          FUNCTION                          *
                             **************************************************************
                             undefined FUN_CODE_07ea()
             undefined         ACC:1          <RETURN>
                             FUN_CODE_07ea                                   XREF[1]:     CODE:076b(c)  
       CODE:07ea 78 7d           MOV        R0,#0x7d                                                   zero 0x7D ~ 0x9A
       CODE:07ec 7a 1d           MOV        R2,#0x1d
       CODE:07ee 12 2c dc        LCALL      zero_memory_range                                          undefined zero_memory_range()
       CODE:07f1 78 2f           MOV        R0,#0x2f                                                   zero 0x2F ~ 0x35
       CODE:07f3 7a 06           MOV        R2,#0x6
       CODE:07f5 12 2c dc        LCALL      zero_memory_range                                          undefined zero_memory_range()
       CODE:07f8 78 00           MOV        R0,#0x0
       CODE:07fa 7a 08           MOV        R2,#0x8
       CODE:07fc 12 2c ed        LCALL      FUN_CODE_2ced                                              undefined FUN_CODE_2ced()
       CODE:07ff 78 7f           MOV        R0,#0x7f
       CODE:0801 76 0f           MOV        @R0=>DAT_INTMEM_7f,#0xf                                    = ??
       CODE:0803 78 81           MOV        R0,#0x81
       CODE:0805 76 0d           MOV        @R0=>DAT_INTMEM_81,#0xd                                    = ??
       CODE:0807 75 2f 5c        MOV        DAT_INTMEM_2f,#0x5c                                        = ??
       CODE:080a d2 00           SETB       20.0
       CODE:080c 22              RET
                             **************************************************************
                             *                          FUNCTION                          *
                             **************************************************************
                             undefined FUN_CODE_080d()
             undefined         ACC:1          <RETURN>
                             FUN_CODE_080d                                   XREF[2]:     CODE:0768(c), CODE:1e8d(c)  
       CODE:080d 78 9a           MOV        R0,#0x9a                                                   clear 0x9A~0xB9
       CODE:080f 7a 1f           MOV        R2,#0x1f
       CODE:0811 12 2c dc        LCALL      zero_memory_range                                          undefined zero_memory_range()
       CODE:0814 78 35           MOV        R0,#0x35                                                   clear 0x35~0x68
       CODE:0816 7a 33           MOV        R2,#0x33
       CODE:0818 12 2c dc        LCALL      zero_memory_range                                          undefined zero_memory_range()
       CODE:081b 78 08           MOV        R0,#0x8
       CODE:081d 7a 53           MOV        R2,#0x53
       CODE:081f 12 2c ed        LCALL      FUN_CODE_2ced                                              undefined FUN_CODE_2ced()
       CODE:0822 75 53 10        MOV        DAT_INTMEM_53,#0x10                                        = ??
       CODE:0825 75 54 fa        MOV        DAT_INTMEM_54,#0xfa                                        = ??
       CODE:0828 75 46 19        MOV        DAT_INTMEM_46,#0x19                                        = ??
       CODE:082b 75 3c 80        MOV        DAT_INTMEM_3c,#0x80                                        = ??
       CODE:082e 75 61 00        MOV        DAT_INTMEM_61,#0x0                                         = ??
       CODE:0831 d2 25           SETB       24.5                                                       = ??
       CODE:0833 d2 1f           SETB       23.7                                                       = ??
       CODE:0835 e5 2f           MOV        A,DAT_INTMEM_2f                                            = ??
       CODE:0837 54 20           ANL        A,#0x20
       CODE:0839 44 5c           ORL        A,#0x5c
       CODE:083b f5 2f           MOV        DAT_INTMEM_2f,A                                            = ??
       CODE:083d 22              RET
                             **************************************************************
                             *                          FUNCTION                          *
                             **************************************************************
                             undefined ipc_handle_messages()
             undefined         ACC:1          <RETURN>
                             ipc_handle_messages                             XREF[2]:     CODE:1da0(c), CODE:2293(c)  
       CODE:083e 12 23 fc        LCALL      FUN_CODE_23fc                                              undefined FUN_CODE_23fc()
       CODE:0841 50 03           JNC        LAB_CODE_0846
       CODE:0843 02 0a ca        LJMP       LAB_CODE_0aca
                             LAB_CODE_0846                                   XREF[1]:     CODE:0841(j)  
       CODE:0846 f5 f0           MOV        B,A
       CODE:0848 74 00           MOV        A,#0x0
       CODE:084a 12 24 2a        LCALL      FUN_CODE_242a                                              undefined FUN_CODE_242a()
       CODE:084d e5 f0           MOV        A,B
       CODE:084f 12 24 2f        LCALL      ipc_fifo_write                                             undefined ipc_fifo_write()
       CODE:0852 e5 f0           MOV        A,B
       CODE:0854 b4 01 02        CJNE       A,#0x1,LAB_CODE_0859
       CODE:0857 80 44           SJMP       ipc_handle_getpowerupcause
                             LAB_CODE_0859                                   XREF[1]:     CODE:0854(j)  
       CODE:0859 b4 04 02        CJNE       A,#0x4,LAB_CODE_085e
       CODE:085c 80 62           SJMP       LAB_CODE_08c0
                             LAB_CODE_085e                                   XREF[1]:     CODE:0859(j)  
       CODE:085e b4 07 03        CJNE       A,#0x7,LAB_CODE_0864
       CODE:0861 02 09 01        LJMP       ipc_handle_gettemperatures
                             LAB_CODE_0864                                   XREF[1]:     CODE:085e(j)  
       CODE:0864 b4 0a 03        CJNE       A,#0xa,LAB_CODE_086a
       CODE:0867 02 09 34        LJMP       ipc_handle_gettraystate
                             LAB_CODE_086a                                   XREF[1]:     CODE:0864(j)  
       CODE:086a b4 0f 03        CJNE       A,#0xf,LAB_CODE_0870
       CODE:086d 02 09 3f        LJMP       ipc_handle_getavpack
                             LAB_CODE_0870                                   XREF[1]:     CODE:086a(j)  
       CODE:0870 b4 16 03        CJNE       A,#0x16,LAB_CODE_0876
       CODE:0873 02 09 4a        LJMP       LAB_CODE_094a
                             LAB_CODE_0876                                   XREF[1]:     CODE:0870(j)  
       CODE:0876 b4 17 03        CJNE       A,#0x17,LAB_CODE_087c
       CODE:0879 02 09 59        LJMP       ipc_handle_gettiltswitch
                             LAB_CODE_087c                                   XREF[1]:     CODE:0876(j)  
       CODE:087c b4 11 03        CJNE       A,#0x11,LAB_CODE_0882
       CODE:087f 02 09 6b        LJMP       LAB_CODE_096b
                             LAB_CODE_0882                                   XREF[1]:     CODE:087c(j)  
       CODE:0882 b4 12 03        CJNE       A,#0x12,LAB_CODE_0888
       CODE:0885 02 0a 7c        LJMP       LAB_CODE_0a7c
                             LAB_CODE_0888                                   XREF[1]:     CODE:0882(j)  
       CODE:0888 b4 13 03        CJNE       A,#0x13,LAB_CODE_088e
       CODE:088b 02 0a 9b        LJMP       LAB_CODE_0a9b
                             LAB_CODE_088e                                   XREF[1]:     CODE:0888(j)  
       CODE:088e b4 1e 03        CJNE       A,#0x1e,LAB_CODE_0894
       CODE:0891 02 0a b0        LJMP       LAB_CODE_0ab0
                             LAB_CODE_0894                                   XREF[1]:     CODE:088e(j)  
       CODE:0894 b4 20 03        CJNE       A,#0x20,LAB_CODE_089a
       CODE:0897 02 0a bd        LJMP       LAB_CODE_0abd
                             LAB_CODE_089a                                   XREF[1]:     CODE:0894(j)  
       CODE:089a c2 35           CLR        26.5                                                       = ??
       CODE:089c 22              RET
                             ipc_handle_getpowerupcause                      XREF[1]:     CODE:0857(j)  
       CODE:089d 75 f0 00        MOV        B,#0x0
       CODE:08a0 a2 59           MOV        CY,2b.1                                                    = ??
       CODE:08a2 92 f0           MOV        B.0,CY                                                     = ??
       CODE:08a4 74 01           MOV        A,#0x1
       CODE:08a6 12 24 2a        LCALL      FUN_CODE_242a                                              undefined FUN_CODE_242a()
       CODE:08a9 e5 62           MOV        A,g_power_up_cause                                         = ??
       CODE:08ab 12 24 2f        LCALL      ipc_fifo_write                                             undefined ipc_fifo_write()
       CODE:08ae 74 00           MOV        A,#0x0
       CODE:08b0 12 24 2f        LCALL      ipc_fifo_write                                             undefined ipc_fifo_write()
       CODE:08b3 e5 3e           MOV        A,g_num_boot_tries                                         = ??
       CODE:08b5 12 24 2f        LCALL      ipc_fifo_write                                             undefined ipc_fifo_write()
       CODE:08b8 e5 f0           MOV        A,B
       CODE:08ba 12 24 2f        LCALL      ipc_fifo_write                                             undefined ipc_fifo_write()
       CODE:08bd d2 13           SETB       g_has_getpoweroncause_arrived                              = ??
       CODE:08bf 22              RET
                             LAB_CODE_08c0                                   XREF[1]:     CODE:085c(j)  
       CODE:08c0 12 25 d8        LCALL      FUN_CODE_25d8                                              undefined FUN_CODE_25d8()
       CODE:08c3 75 f0 00        MOV        B,#0x0
       CODE:08c6 a2 07           MOV        CY,20.7                                                    = ??
       CODE:08c8 92 f0           MOV        B.0,CY                                                     = ??
       CODE:08ca a2 58           MOV        CY,2b.0                                                    = ??
       CODE:08cc 92 f1           MOV        B.1,CY                                                     = ??
       CODE:08ce 74 01           MOV        A,#0x1
       CODE:08d0 12 24 2a        LCALL      FUN_CODE_242a                                              undefined FUN_CODE_242a()
       CODE:08d3 ea              MOV        A,R2
       CODE:08d4 12 24 2f        LCALL      ipc_fifo_write                                             undefined ipc_fifo_write()
       CODE:08d7 eb              MOV        A,R3
       CODE:08d8 12 24 2f        LCALL      ipc_fifo_write                                             undefined ipc_fifo_write()
       CODE:08db ec              MOV        A,R4
       CODE:08dc 12 24 2f        LCALL      ipc_fifo_write                                             undefined ipc_fifo_write()
       CODE:08df ed              MOV        A,R5
       CODE:08e0 12 24 2f        LCALL      ipc_fifo_write                                             undefined ipc_fifo_write()
       CODE:08e3 ee              MOV        A,R6
       CODE:08e4 12 24 2f        LCALL      ipc_fifo_write                                             undefined ipc_fifo_write()
       CODE:08e7 e5 f0           MOV        A,B
       CODE:08e9 12 24 2f        LCALL      ipc_fifo_write                                             undefined ipc_fifo_write()
       CODE:08ec e5 33           MOV        A,DAT_INTMEM_33                                            = ??
       CODE:08ee 12 24 2f        LCALL      ipc_fifo_write                                             undefined ipc_fifo_write()
       CODE:08f1 e5 32           MOV        A,DAT_INTMEM_32                                            = ??
       CODE:08f3 12 24 2f        LCALL      ipc_fifo_write                                             undefined ipc_fifo_write()
       CODE:08f6 e5 31           MOV        A,DAT_INTMEM_31                                            = ??
       CODE:08f8 12 24 2f        LCALL      ipc_fifo_write                                             undefined ipc_fifo_write()
       CODE:08fb e5 30           MOV        A,DAT_INTMEM_30                                            = ??
       CODE:08fd 12 24 2f        LCALL      ipc_fifo_write                                             undefined ipc_fifo_write()
       CODE:0900 22              RET
                             ipc_handle_gettemperatures                      XREF[1]:     CODE:0861(j)  
       CODE:0901 74 01           MOV        A,#0x1
       CODE:0903 12 24 2a        LCALL      FUN_CODE_242a                                              undefined FUN_CODE_242a()
       CODE:0906 e5 3f           MOV        A,DAT_INTMEM_3f                                            = ??
       CODE:0908 12 24 2f        LCALL      ipc_fifo_write                                             undefined ipc_fifo_write()
       CODE:090b e5 40           MOV        A,DAT_INTMEM_40                                            = ??
       CODE:090d 12 24 2f        LCALL      ipc_fifo_write                                             undefined ipc_fifo_write()
       CODE:0910 e5 41           MOV        A,DAT_INTMEM_41                                            = ??
       CODE:0912 12 24 2f        LCALL      ipc_fifo_write                                             undefined ipc_fifo_write()
       CODE:0915 e5 42           MOV        A,DAT_INTMEM_42                                            = ??
       CODE:0917 12 24 2f        LCALL      ipc_fifo_write                                             undefined ipc_fifo_write()
       CODE:091a e5 43           MOV        A,DAT_INTMEM_43                                            = ??
       CODE:091c 12 24 2f        LCALL      ipc_fifo_write                                             undefined ipc_fifo_write()
       CODE:091f e5 44           MOV        A,DAT_INTMEM_44                                            = ??
       CODE:0921 12 24 2f        LCALL      ipc_fifo_write                                             undefined ipc_fifo_write()
       CODE:0924 e5 45           MOV        A,DAT_INTMEM_45                                            = ??
       CODE:0926 12 24 2f        LCALL      ipc_fifo_write                                             undefined ipc_fifo_write()
       CODE:0929 e5 46           MOV        A,DAT_INTMEM_46                                            = ??
       CODE:092b 12 24 2f        LCALL      ipc_fifo_write                                             undefined ipc_fifo_write()
       CODE:092e e5 56           MOV        A,DAT_INTMEM_56                                            = ??
       CODE:0930 12 24 2f        LCALL      ipc_fifo_write                                             undefined ipc_fifo_write()
       CODE:0933 22              RET
                             ipc_handle_gettraystate                         XREF[1]:     CODE:0867(j)  
       CODE:0934 74 01           MOV        A,#0x1
       CODE:0936 12 24 2a        LCALL      FUN_CODE_242a                                              undefined FUN_CODE_242a()
       CODE:0939 e5 36           MOV        A,DAT_INTMEM_36                                            = ??
       CODE:093b 12 24 2f        LCALL      ipc_fifo_write                                             undefined ipc_fifo_write()
       CODE:093e 22              RET
                             ipc_handle_getavpack                            XREF[1]:     CODE:086d(j)  
       CODE:093f 74 01           MOV        A,#0x1
       CODE:0941 12 24 2a        LCALL      FUN_CODE_242a                                              undefined FUN_CODE_242a()
       CODE:0944 e5 2f           MOV        A,DAT_INTMEM_2f                                            = ??
       CODE:0946 12 24 2f        LCALL      ipc_fifo_write                                             undefined ipc_fifo_write()
       CODE:0949 22              RET
                             LAB_CODE_094a                                   XREF[1]:     CODE:0873(j)  
       CODE:094a 78 7f           MOV        R0,#0x7f
       CODE:094c 86 f0           MOV        B,@R0=>DAT_INTMEM_7f                                       = ??
       CODE:094e 74 01           MOV        A,#0x1
       CODE:0950 12 24 2a        LCALL      FUN_CODE_242a                                              undefined FUN_CODE_242a()
       CODE:0953 e5 f0           MOV        A,B
       CODE:0955 12 24 2f        LCALL      ipc_fifo_write                                             undefined ipc_fifo_write()
       CODE:0958 22              RET
                             ipc_handle_gettiltswitch                        XREF[1]:     CODE:0879(j)  
       CODE:0959 75 f0 00        MOV        B,#0x0
       CODE:095c a2 05           MOV        CY,20.5                                                    = ??
       CODE:095e 92 f0           MOV        B.0,CY                                                     = ??
       CODE:0960 74 01           MOV        A,#0x1
       CODE:0962 12 24 2a        LCALL      FUN_CODE_242a                                              undefined FUN_CODE_242a()
       CODE:0965 e5 f0           MOV        A,B
       CODE:0967 12 24 2f        LCALL      ipc_fifo_write                                             undefined ipc_fifo_write()
       CODE:096a 22              RET
                             LAB_CODE_096b                                   XREF[1]:     CODE:087f(j)  
       CODE:096b d2 d5           SETB       F0                                                         = ??
       CODE:096d e5 2f           MOV        A,DAT_INTMEM_2f                                            = ??
       CODE:096f 20 e5 0b        JB         ACC.5,LAB_CODE_097d                                        = ??
       CODE:0972 30 e6 08        JNB        ACC.6,LAB_CODE_097d                                        = ??
       CODE:0975 64 58           XRL        A,#0x58
       CODE:0977 54 5c           ANL        A,#0x5c
       CODE:0979 60 02           JZ         LAB_CODE_097d
       CODE:097b c2 d5           CLR        F0                                                         = ??
                             LAB_CODE_097d                                   XREF[3]:     CODE:096f(j), CODE:0972(j), 
                                                                                          CODE:0979(j)  
       CODE:097d 74 01           MOV        A,#0x1
       CODE:097f 12 24 08        LCALL      FUN_CODE_2408                                              undefined FUN_CODE_2408()
       CODE:0982 12 24 0d        LCALL      ipc_fifo_read                                              undefined ipc_fifo_read()
       CODE:0985 fa              MOV        R2,A
       CODE:0986 12 24 0d        LCALL      ipc_fifo_read                                              undefined ipc_fifo_read()
       CODE:0989 fb              MOV        R3,A
       CODE:098a 12 24 0d        LCALL      ipc_fifo_read                                              undefined ipc_fifo_read()
       CODE:098d fc              MOV        R4,A
       CODE:098e 12 24 0d        LCALL      ipc_fifo_read                                              undefined ipc_fifo_read()
       CODE:0991 fd              MOV        R5,A
       CODE:0992 12 24 0d        LCALL      ipc_fifo_read                                              undefined ipc_fifo_read()
       CODE:0995 fe              MOV        R6,A
       CODE:0996 ea              MOV        A,R2
       CODE:0997 30 e0 37        JNB        ACC.0,LAB_CODE_09d1                                        = ??
       CODE:099a 30 d5 65        JNB        F0,LAB_CODE_0a02                                           = ??
       CODE:099d 75 60 fa        MOV        DAT_INTMEM_60,#0xfa                                        = ??
       CODE:09a0 30 e1 10        JNB        ACC.1,LAB_CODE_09b3                                        = ??
       CODE:09a3 d2 34           SETB       26.4                                                       = ??
       CODE:09a5 75 60 02        MOV        DAT_INTMEM_60,#0x2                                         = ??
       CODE:09a8 74 01           MOV        A,#0x1
       CODE:09aa 12 24 2a        LCALL      FUN_CODE_242a                                              undefined FUN_CODE_242a()
       CODE:09ad 74 00           MOV        A,#0x0
       CODE:09af 12 24 2f        LCALL      ipc_fifo_write                                             undefined ipc_fifo_write()
       CODE:09b2 22              RET
                             LAB_CODE_09b3                                   XREF[1]:     CODE:09a0(j)  
       CODE:09b3 30 e2 0d        JNB        ACC.2,LAB_CODE_09c3                                        = ??
       CODE:09b6 c2 34           CLR        26.4                                                       = ??
       CODE:09b8 74 01           MOV        A,#0x1
       CODE:09ba 12 24 2a        LCALL      FUN_CODE_242a                                              undefined FUN_CODE_242a()
       CODE:09bd 74 00           MOV        A,#0x0
       CODE:09bf 12 24 2f        LCALL      ipc_fifo_write                                             undefined ipc_fifo_write()
       CODE:09c2 22              RET
                             LAB_CODE_09c3                                   XREF[1]:     CODE:09b3(j)  
       CODE:09c3 20 34 0b        JB         26.4,LAB_CODE_09d1                                         = ??
       CODE:09c6 74 01           MOV        A,#0x1
       CODE:09c8 12 24 2a        LCALL      FUN_CODE_242a                                              undefined FUN_CODE_242a()
       CODE:09cb 74 04           MOV        A,#0x4
       CODE:09cd 12 24 2f        LCALL      ipc_fifo_write                                             undefined ipc_fifo_write()
       CODE:09d0 22              RET
                             LAB_CODE_09d1                                   XREF[2]:     CODE:0997(j), CODE:09c3(j)  
       CODE:09d1 a2 e0           MOV        CY,ACC.0                                                   = ??
       CODE:09d3 92 d5           MOV        F0,CY                                                      = ??
       CODE:09d5 c4              SWAP       A
       CODE:09d6 54 0f           ANL        A,#0xf
       CODE:09d8 f5 f0           MOV        B,A
       CODE:09da eb              MOV        A,R3
       CODE:09db c4              SWAP       A
       CODE:09dc 54 0f           ANL        A,#0xf
       CODE:09de 25 f0           ADD        A,B
       CODE:09e0 24 f5           ADD        A,#0xf5
       CODE:09e2 40 13           JC         LAB_CODE_09f7
       CODE:09e4 eb              MOV        A,R3
       CODE:09e5 54 0f           ANL        A,#0xf
       CODE:09e7 24 f2           ADD        A,#0xf2
       CODE:09e9 40 0c           JC         LAB_CODE_09f7
       CODE:09eb ec              MOV        A,R4
       CODE:09ec 20 e7 1e        JB         ACC.7,LAB_CODE_0a0d                                        = ??
       CODE:09ef ed              MOV        A,R5
       CODE:09f0 20 e7 1a        JB         ACC.7,LAB_CODE_0a0d                                        = ??
       CODE:09f3 ee              MOV        A,R6
       CODE:09f4 20 e7 16        JB         ACC.7,LAB_CODE_0a0d                                        = ??
                             LAB_CODE_09f7                                   XREF[7]:     CODE:09e2(j), CODE:09e9(j), 
                                                                                          CODE:0a37(j), CODE:0a39(j), 
                                                                                          CODE:0a64(j), CODE:0a66(j), 
                                                                                          CODE:0a74(j)  
       CODE:09f7 74 01           MOV        A,#0x1
       CODE:09f9 12 24 2a        LCALL      FUN_CODE_242a                                              undefined FUN_CODE_242a()
       CODE:09fc 74 02           MOV        A,#0x2
       CODE:09fe 12 24 2f        LCALL      ipc_fifo_write                                             undefined ipc_fifo_write()
       CODE:0a01 22              RET
                             LAB_CODE_0a02                                   XREF[1]:     CODE:099a(j)  
       CODE:0a02 74 01           MOV        A,#0x1
       CODE:0a04 12 24 2a        LCALL      FUN_CODE_242a                                              undefined FUN_CODE_242a()
       CODE:0a07 74 01           MOV        A,#0x1
       CODE:0a09 12 24 2f        LCALL      ipc_fifo_write                                             undefined ipc_fifo_write()
       CODE:0a0c 22              RET
                             LAB_CODE_0a0d                                   XREF[3]:     CODE:09ec(j), CODE:09f0(j), 
                                                                                          CODE:09f4(j)  
       CODE:0a0d ea              MOV        A,R2
       CODE:0a0e c4              SWAP       A
       CODE:0a0f 54 0f           ANL        A,#0xf
       CODE:0a11 fa              MOV        R2,A
       CODE:0a12 60 28           JZ         LAB_CODE_0a3c
       CODE:0a14 ec              MOV        A,R4
       CODE:0a15 20 e7 04        JB         ACC.7,LAB_CODE_0a1c                                        = ??
       CODE:0a18 7a 00           MOV        R2,#0x0
       CODE:0a1a 80 20           SJMP       LAB_CODE_0a3c
                             LAB_CODE_0a1c                                   XREF[1]:     CODE:0a15(j)  
       CODE:0a1c 54 7f           ANL        A,#0x7f
       CODE:0a1e b4 39 18        CJNE       A,#0x39,LAB_CODE_0a39
       CODE:0a21 74 06           MOV        A,#0x6
       CODE:0a23 12 24 08        LCALL      FUN_CODE_2408                                              undefined FUN_CODE_2408()
       CODE:0a26 12 24 0d        LCALL      ipc_fifo_read                                              undefined ipc_fifo_read()
       CODE:0a29 fc              MOV        R4,A
       CODE:0a2a ec              MOV        A,R4
       CODE:0a2b 24 30           ADD        A,#0x30
       CODE:0a2d 50 0a           JNC        LAB_CODE_0a39
       CODE:0a2f ec              MOV        A,R4
       CODE:0a30 24 0a           ADD        A,#0xa
       CODE:0a32 40 05           JC         LAB_CODE_0a39
       CODE:0a34 20 d5 05        JB         F0,LAB_CODE_0a3c                                           = ??
       CODE:0a37 80 be           SJMP       LAB_CODE_09f7
                             LAB_CODE_0a39                                   XREF[3]:     CODE:0a1e(j), CODE:0a2d(j), 
                                                                                          CODE:0a32(j)  
       CODE:0a39 20 d5 bb        JB         F0,LAB_CODE_09f7                                           = ??
                             LAB_CODE_0a3c                                   XREF[3]:     CODE:0a12(j), CODE:0a1a(j), 
                                                                                          CODE:0a34(j)  
       CODE:0a3c eb              MOV        A,R3
       CODE:0a3d c4              SWAP       A
       CODE:0a3e 54 0f           ANL        A,#0xf
       CODE:0a40 60 27           JZ         LAB_CODE_0a69
       CODE:0a42 ed              MOV        A,R5
       CODE:0a43 30 e7 23        JNB        ACC.7,LAB_CODE_0a69                                        = ??
       CODE:0a46 54 7f           ANL        A,#0x7f
       CODE:0a48 b4 39 1b        CJNE       A,#0x39,LAB_CODE_0a66
       CODE:0a4b 74 05           MOV        A,#0x5
       CODE:0a4d 2a              ADD        A,R2
       CODE:0a4e fa              MOV        R2,A
       CODE:0a4f ea              MOV        A,R2
       CODE:0a50 12 24 08        LCALL      FUN_CODE_2408                                              undefined FUN_CODE_2408()
       CODE:0a53 12 24 0d        LCALL      ipc_fifo_read                                              undefined ipc_fifo_read()
       CODE:0a56 fd              MOV        R5,A
       CODE:0a57 ed              MOV        A,R5
       CODE:0a58 24 30           ADD        A,#0x30
       CODE:0a5a 50 0a           JNC        LAB_CODE_0a66
       CODE:0a5c ed              MOV        A,R5
       CODE:0a5d 24 2f           ADD        A,#0x2f
       CODE:0a5f 40 05           JC         LAB_CODE_0a66
       CODE:0a61 20 d5 05        JB         F0,LAB_CODE_0a69                                           = ??
       CODE:0a64 80 91           SJMP       LAB_CODE_09f7
                             LAB_CODE_0a66                                   XREF[3]:     CODE:0a48(j), CODE:0a5a(j), 
                                                                                          CODE:0a5f(j)  
       CODE:0a66 20 d5 8e        JB         F0,LAB_CODE_09f7                                           = ??
                             LAB_CODE_0a69                                   XREF[3]:     CODE:0a40(j), CODE:0a43(j), 
                                                                                          CODE:0a61(j)  
       CODE:0a69 ee              MOV        A,R6
       CODE:0a6a 30 e7 0a        JNB        ACC.7,LAB_CODE_0a77                                        = ??
       CODE:0a6d 54 7f           ANL        A,#0x7f
       CODE:0a6f b4 39 02        CJNE       A,#0x39,LAB_CODE_0a74
       CODE:0a72 80 03           SJMP       LAB_CODE_0a77
                             LAB_CODE_0a74                                   XREF[1]:     CODE:0a6f(j)  
       CODE:0a74 20 d5 80        JB         F0,LAB_CODE_09f7                                           = ??
                             LAB_CODE_0a77                                   XREF[2]:     CODE:0a6a(j), CODE:0a72(j)  
       CODE:0a77 d2 2c           SETB       25.4                                                       = ??
       CODE:0a79 d2 36           SETB       26.6                                                       = ??
       CODE:0a7b 22              RET
                             LAB_CODE_0a7c                                   XREF[1]:     CODE:0885(j)  
       CODE:0a7c 74 01           MOV        A,#0x1
       CODE:0a7e 12 24 2a        LCALL      FUN_CODE_242a                                              undefined FUN_CODE_242a()
       CODE:0a81 74 31           MOV        A,#0x31
       CODE:0a83 12 24 2f        LCALL      ipc_fifo_write                                             undefined ipc_fifo_write()
       CODE:0a86 74 01           MOV        A,#0x1
       CODE:0a88 12 24 2f        LCALL      ipc_fifo_write                                             undefined ipc_fifo_write()
       CODE:0a8b 74 06           MOV        A,#0x6
       CODE:0a8d 12 24 2f        LCALL      ipc_fifo_write                                             undefined ipc_fifo_write()
       CODE:0a90 e5 66           MOV        A,DAT_INTMEM_66                                            = ??
       CODE:0a92 12 24 2f        LCALL      ipc_fifo_write                                             undefined ipc_fifo_write()
       CODE:0a95 e5 67           MOV        A,DAT_INTMEM_67                                            = ??
       CODE:0a97 12 24 2f        LCALL      ipc_fifo_write                                             undefined ipc_fifo_write()
       CODE:0a9a 22              RET
                             LAB_CODE_0a9b                                   XREF[1]:     CODE:088b(j)  
       CODE:0a9b 74 01           MOV        A,#0x1
       CODE:0a9d 12 24 08        LCALL      FUN_CODE_2408                                              undefined FUN_CODE_2408()
       CODE:0aa0 74 01           MOV        A,#0x1
       CODE:0aa2 12 24 2a        LCALL      FUN_CODE_242a                                              undefined FUN_CODE_242a()
       CODE:0aa5 7a 0f           MOV        R2,#0xf
                             LAB_CODE_0aa7                                   XREF[1]:     CODE:0aad(j)  
       CODE:0aa7 12 24 0d        LCALL      ipc_fifo_read                                              undefined ipc_fifo_read()
       CODE:0aaa 12 24 2f        LCALL      ipc_fifo_write                                             undefined ipc_fifo_write()
       CODE:0aad da f8           DJNZ       R2,LAB_CODE_0aa7
       CODE:0aaf 22              RET
                             LAB_CODE_0ab0                                   XREF[1]:     CODE:0891(j)  
       CODE:0ab0 74 01           MOV        A,#0x1
       CODE:0ab2 12 24 2a        LCALL      FUN_CODE_242a                                              undefined FUN_CODE_242a()
       CODE:0ab5 78 82           MOV        R0,#0x82
       CODE:0ab7 7a 0c           MOV        R2,#0xc
       CODE:0ab9 12 24 32        LCALL      FUN_CODE_2432                                              undefined FUN_CODE_2432()
       CODE:0abc 22              RET
                             LAB_CODE_0abd                                   XREF[1]:     CODE:0897(j)  
       CODE:0abd 74 01           MOV        A,#0x1
       CODE:0abf 12 24 2a        LCALL      FUN_CODE_242a                                              undefined FUN_CODE_242a()
       CODE:0ac2 78 8e           MOV        R0,#0x8e
       CODE:0ac4 7a 0c           MOV        R2,#0xc
       CODE:0ac6 12 24 32        LCALL      FUN_CODE_2432                                              undefined FUN_CODE_2432()
       CODE:0ac9 22              RET
                             LAB_CODE_0aca                                   XREF[1]:     CODE:0843(j)  
       CODE:0aca b4 82 02        CJNE       A,#0x82,LAB_CODE_0acf                                      0x82 - power off/hard reset
       CODE:0acd 80 61           SJMP       ipc_handle_poweroff_or_restart
                             LAB_CODE_0acf                                   XREF[1]:     CODE:0aca(j)  
       CODE:0acf b4 85 03        CJNE       A,#0x85,LAB_CODE_0ad5
       CODE:0ad2 02 0b 93        LJMP       LAB_CODE_0b93
                             LAB_CODE_0ad5                                   XREF[1]:     CODE:0acf(j)  
       CODE:0ad5 b4 9b 03        CJNE       A,#0x9b,LAB_CODE_0adb
       CODE:0ad8 02 0b b6        LJMP       LAB_CODE_0bb6
                             LAB_CODE_0adb                                   XREF[1]:     CODE:0ad5(j)  
       CODE:0adb b4 88 03        CJNE       A,#0x88,LAB_CODE_0ae1
       CODE:0ade 02 0b ef        LJMP       LAB_CODE_0bef
                             LAB_CODE_0ae1                                   XREF[1]:     CODE:0adb(j)  
       CODE:0ae1 b4 89 03        CJNE       A,#0x89,LAB_CODE_0ae7
       CODE:0ae4 02 0c 06        LJMP       LAB_CODE_0c06
                             LAB_CODE_0ae7                                   XREF[1]:     CODE:0ae1(j)  
       CODE:0ae7 b4 94 03        CJNE       A,#0x94,LAB_CODE_0aed
       CODE:0aea 02 0c 11        LJMP       LAB_CODE_0c11
                             LAB_CODE_0aed                                   XREF[1]:     CODE:0ae7(j)  
       CODE:0aed b4 8b 03        CJNE       A,#0x8b,LAB_CODE_0af3
       CODE:0af0 02 0c 1c        LJMP       ipc_handle_openclosetray
                             LAB_CODE_0af3                                   XREF[1]:     CODE:0aed(j)  
       CODE:0af3 b4 98 03        CJNE       A,#0x98,LAB_CODE_0af9
       CODE:0af6 02 0c 4d        LJMP       LAB_CODE_0c4d
                             LAB_CODE_0af9                                   XREF[1]:     CODE:0af3(j)  
       CODE:0af9 b4 8c 03        CJNE       A,#0x8c,LAB_CODE_0aff
       CODE:0afc 02 0c 50        LJMP       ipc_handle_setpowerled
                             LAB_CODE_0aff                                   XREF[1]:     CODE:0af9(j)  
       CODE:0aff b4 99 03        CJNE       A,#0x99,LAB_CODE_0b05
       CODE:0b02 02 0c 75        LJMP       ipc_handle_setleds
                             LAB_CODE_0b05                                   XREF[1]:     CODE:0aff(j)  
       CODE:0b05 b4 8d 03        CJNE       A,#0x8d,LAB_CODE_0b0b
       CODE:0b08 02 0c 94        LJMP       LAB_CODE_0c94
                             LAB_CODE_0b0b                                   XREF[1]:     CODE:0b05(j)  
       CODE:0b0b b4 95 03        CJNE       A,#0x95,LAB_CODE_0b11
       CODE:0b0e 02 0c a7        LJMP       LAB_CODE_0ca7
                             LAB_CODE_0b11                                   XREF[1]:     CODE:0b0b(j)  
       CODE:0b11 b4 90 03        CJNE       A,#0x90,LAB_CODE_0b17
       CODE:0b14 02 0c bb        LJMP       LAB_CODE_0cbb
                             LAB_CODE_0b17                                   XREF[1]:     CODE:0b11(j)  
       CODE:0b17 b4 9a 03        CJNE       A,#0x9a,LAB_CODE_0b1d
       CODE:0b1a 02 0c da        LJMP       ipc_handle_display_error
                             LAB_CODE_0b1d                                   XREF[1]:     CODE:0b17(j)  
       CODE:0b1d b4 9c 03        CJNE       A,#0x9c,LAB_CODE_0b23
       CODE:0b20 02 0d 17        LJMP       LAB_CODE_0d17
                             LAB_CODE_0b23                                   XREF[1]:     CODE:0b1d(j)  
       CODE:0b23 b4 9d 03        CJNE       A,#0x9d,LAB_CODE_0b29
       CODE:0b26 02 0d 29        LJMP       LAB_CODE_0d29
                             LAB_CODE_0b29                                   XREF[1]:     CODE:0b23(j)  
       CODE:0b29 b4 9f 03        CJNE       A,#0x9f,LAB_CODE_0b2f
       CODE:0b2c 02 0d 36        LJMP       LAB_CODE_0d36
                             LAB_CODE_0b2f                                   XREF[1]:     CODE:0b29(j)  
       CODE:0b2f 22              RET
                             ipc_handle_poweroff_or_restart                  XREF[1]:     CODE:0acd(j)  
       CODE:0b30 74 01           MOV        A,#0x1
       CODE:0b32 12 24 08        LCALL      FUN_CODE_2408                                              undefined FUN_CODE_2408()
       CODE:0b35 12 24 0d        LCALL      ipc_fifo_read                                              undefined ipc_fifo_read()
       CODE:0b38 fa              MOV        R2,A                                                       byte 0 - rq type
                                                                                                       0x01 - power off
                                                                                                       0x04 - restart
                                                                                                       linux commands are:
                                                                                                       restart - 82 04 30 00
                                                                                                       power off - 82 01 00 00
       CODE:0b39 12 24 0d        LCALL      ipc_fifo_read                                              undefined ipc_fifo_read()
       CODE:0b3c fb              MOV        R3,A
       CODE:0b3d 12 24 0d        LCALL      ipc_fifo_read                                              undefined ipc_fifo_read()
       CODE:0b40 fc              MOV        R4,A
       CODE:0b41 12 24 0d        LCALL      ipc_fifo_read                                              undefined ipc_fifo_read()
       CODE:0b44 fd              MOV        R5,A
       CODE:0b45 ba 01 15        CJNE       R2,#0x1,LAB_CODE_0b5d                                      if we aren't powering off,
                                                                                                       jump down
       CODE:0b48 bb 00 07        CJNE       R3,#0x0,LAB_CODE_0b52                                      if r3 is not 0, jump down
       CODE:0b4b d2 08           SETB       g_powerswitch_pushed                                       looks suspiciously like we're
                                                                                                       setting up for a hard reboot
                                                                                                       but that only matters if r5 != 0
       CODE:0b4d 75 3d 01        MOV        DAT_INTMEM_3d,#0x1                                         = ??
       CODE:0b50 80 3c           SJMP       LAB_CODE_0b8e
                             LAB_CODE_0b52                                   XREF[1]:     CODE:0b48(j)  
       CODE:0b52 bb 32 07        CJNE       R3,#0x32,LAB_CODE_0b5c                                     0x32 is the only other valid value
       CODE:0b55 d2 04           SETB       20.4                                                       in which case, set this
       CODE:0b57 75 3d 00        MOV        DAT_INTMEM_3d,#0x0                                         = ??
       CODE:0b5a 80 32           SJMP       LAB_CODE_0b8e
                             LAB_CODE_0b5c                                   XREF[1]:     CODE:0b52(j)  
       CODE:0b5c 22              RET
                             LAB_CODE_0b5d                                   XREF[1]:     CODE:0b45(j)  
       CODE:0b5d ba 04 2d        CJNE       R2,#0x4,LAB_CODE_0b8d                                      has to be 4 (reset)
                                                                                                       or the command is invalid
       CODE:0b60 bb 31 10        CJNE       R3,#0x31,LAB_CODE_0b73
       CODE:0b63 d2 14           SETB       22.4                                                       = ??
       CODE:0b65 ed              MOV        A,R5
       CODE:0b66 a2 e0           MOV        CY,ACC.0                                                   = ??
       CODE:0b68 92 15           MOV        22.5,CY                                                    = ??
       CODE:0b6a a2 e1           MOV        CY,ACC.1                                                   = ??
       CODE:0b6c 92 16           MOV        22.6,CY                                                    = ??
       CODE:0b6e 75 3d 01        MOV        DAT_INTMEM_3d,#0x1                                         = ??
       CODE:0b71 80 1b           SJMP       LAB_CODE_0b8e
                             LAB_CODE_0b73                                   XREF[1]:     CODE:0b60(j)  
       CODE:0b73 bb 30 07        CJNE       R3,#0x30,LAB_CODE_0b7d
       CODE:0b76 d2 03           SETB       20.3                                                       = ??
       CODE:0b78 75 3d 00        MOV        DAT_INTMEM_3d,#0x0                                         = ??
       CODE:0b7b 80 11           SJMP       LAB_CODE_0b8e
                             LAB_CODE_0b7d                                   XREF[1]:     CODE:0b73(j)  
       CODE:0b7d bb 33 0c        CJNE       R3,#0x33,LAB_CODE_0b8c
       CODE:0b80 c2 14           CLR        22.4                                                       = ??
       CODE:0b82 c2 08           CLR        g_powerswitch_pushed                                       = ??
       CODE:0b84 c2 20           CLR        24.0                                                       = ??
       CODE:0b86 c2 0b           CLR        21.3                                                       = ??
       CODE:0b88 75 3d 00        MOV        DAT_INTMEM_3d,#0x0                                         = ??
       CODE:0b8b 22              RET
                             LAB_CODE_0b8c                                   XREF[1]:     CODE:0b7d(j)  
       CODE:0b8c 22              RET
                             LAB_CODE_0b8d                                   XREF[1]:     CODE:0b5d(j)  
       CODE:0b8d 22              RET
                             LAB_CODE_0b8e                                   XREF[4]:     CODE:0b50(j), CODE:0b5a(j), 
                                                                                          CODE:0b71(j), CODE:0b7b(j)  
       CODE:0b8e 8c 63           MOV        DAT_INTMEM_63,R4                                           delay???
       CODE:0b90 c2 13           CLR        g_has_getpoweroncause_arrived                              = ??
       CODE:0b92 22              RET
                             LAB_CODE_0b93                                   XREF[1]:     CODE:0ad2(j)  
       CODE:0b93 74 01           MOV        A,#0x1
       CODE:0b95 12 24 08        LCALL      FUN_CODE_2408                                              undefined FUN_CODE_2408()
       CODE:0b98 12 24 0d        LCALL      ipc_fifo_read                                              undefined ipc_fifo_read()
       CODE:0b9b fa              MOV        R2,A
       CODE:0b9c 12 24 0d        LCALL      ipc_fifo_read                                              undefined ipc_fifo_read()
       CODE:0b9f fb              MOV        R3,A
       CODE:0ba0 12 24 0d        LCALL      ipc_fifo_read                                              undefined ipc_fifo_read()
       CODE:0ba3 fc              MOV        R4,A
       CODE:0ba4 12 24 0d        LCALL      ipc_fifo_read                                              undefined ipc_fifo_read()
       CODE:0ba7 fd              MOV        R5,A
       CODE:0ba8 12 24 0d        LCALL      ipc_fifo_read                                              undefined ipc_fifo_read()
       CODE:0bab fe              MOV        R6,A
       CODE:0bac 12 25 e6        LCALL      FUN_CODE_25e6                                              undefined FUN_CODE_25e6()
       CODE:0baf d2 07           SETB       20.7                                                       = ??
       CODE:0bb1 c2 57           CLR        2a.7                                                       = ??
       CODE:0bb3 d2 45           SETB       28.5                                                       = ??
       CODE:0bb5 22              RET
                             LAB_CODE_0bb6                                   XREF[1]:     CODE:0ad8(j)  
       CODE:0bb6 74 01           MOV        A,#0x1
       CODE:0bb8 12 24 08        LCALL      FUN_CODE_2408                                              undefined FUN_CODE_2408()
       CODE:0bbb 12 24 0d        LCALL      ipc_fifo_read                                              undefined ipc_fifo_read()
       CODE:0bbe fb              MOV        R3,A
       CODE:0bbf 12 24 0d        LCALL      ipc_fifo_read                                              undefined ipc_fifo_read()
       CODE:0bc2 fc              MOV        R4,A
       CODE:0bc3 12 24 0d        LCALL      ipc_fifo_read                                              undefined ipc_fifo_read()
       CODE:0bc6 fd              MOV        R5,A
       CODE:0bc7 12 24 0d        LCALL      ipc_fifo_read                                              undefined ipc_fifo_read()
       CODE:0bca fe              MOV        R6,A
       CODE:0bcb 12 24 0d        LCALL      ipc_fifo_read                                              undefined ipc_fifo_read()
       CODE:0bce f5 f0           MOV        B,A
       CODE:0bd0 8e 30           MOV        DAT_INTMEM_30,R6                                           = ??
       CODE:0bd2 8d 31           MOV        DAT_INTMEM_31,R5                                           = ??
       CODE:0bd4 8c 32           MOV        DAT_INTMEM_32,R4                                           = ??
       CODE:0bd6 8b 33           MOV        DAT_INTMEM_33,R3                                           = ??
       CODE:0bd8 a2 f0           MOV        CY,B.0                                                     = ??
       CODE:0bda 92 58           MOV        2b.0,CY                                                    = ??
       CODE:0bdc d2 57           SETB       2a.7                                                       = ??
       CODE:0bde ee              MOV        A,R6
       CODE:0bdf 70 0b           JNZ        LAB_CODE_0bec
       CODE:0be1 ed              MOV        A,R5
       CODE:0be2 70 08           JNZ        LAB_CODE_0bec
       CODE:0be4 ec              MOV        A,R4
       CODE:0be5 70 05           JNZ        LAB_CODE_0bec
       CODE:0be7 eb              MOV        A,R3
       CODE:0be8 70 02           JNZ        LAB_CODE_0bec
       CODE:0bea c2 57           CLR        2a.7                                                       = ??
                             LAB_CODE_0bec                                   XREF[4]:     CODE:0bdf(j), CODE:0be2(j), 
                                                                                          CODE:0be5(j), CODE:0be8(j)  
       CODE:0bec d2 45           SETB       28.5                                                       = ??
       CODE:0bee 22              RET
                             LAB_CODE_0bef                                   XREF[1]:     CODE:0ade(j)  
       CODE:0bef 74 01           MOV        A,#0x1
       CODE:0bf1 12 24 08        LCALL      FUN_CODE_2408                                              undefined FUN_CODE_2408()
       CODE:0bf4 12 24 0d        LCALL      ipc_fifo_read                                              undefined ipc_fifo_read()
       CODE:0bf7 fa              MOV        R2,A
       CODE:0bf8 ea              MOV        A,R2
       CODE:0bf9 a2 e0           MOV        CY,ACC.0                                                   = ??
       CODE:0bfb 92 4e           MOV        29.6,CY                                                    = ??
       CODE:0bfd 30 e1 05        JNB        ACC.1,LAB_CODE_0c05                                        = ??
       CODE:0c00 d2 4d           SETB       29.5                                                       = ??
       CODE:0c02 75 54 fa        MOV        DAT_INTMEM_54,#0xfa                                        = ??
                             LAB_CODE_0c05                                   XREF[1]:     CODE:0bfd(j)  
       CODE:0c05 22              RET
                             LAB_CODE_0c06                                   XREF[1]:     CODE:0ae4(j)  
       CODE:0c06 74 01           MOV        A,#0x1
       CODE:0c08 12 24 08        LCALL      FUN_CODE_2408                                              undefined FUN_CODE_2408()
       CODE:0c0b 12 24 0d        LCALL      ipc_fifo_read                                              undefined ipc_fifo_read()
       CODE:0c0e f5 57           MOV        DAT_INTMEM_57,A                                            = ??
       CODE:0c10 22              RET
                             LAB_CODE_0c11                                   XREF[1]:     CODE:0aea(j)  
       CODE:0c11 74 01           MOV        A,#0x1
       CODE:0c13 12 24 08        LCALL      FUN_CODE_2408                                              undefined FUN_CODE_2408()
       CODE:0c16 12 24 0d        LCALL      ipc_fifo_read                                              undefined ipc_fifo_read()
       CODE:0c19 f5 58           MOV        DAT_INTMEM_58,A                                            = ??
       CODE:0c1b 22              RET
                             ipc_handle_openclosetray                        XREF[1]:     CODE:0af0(j)  
       CODE:0c1c 74 01           MOV        A,#0x1
       CODE:0c1e 12 24 08        LCALL      FUN_CODE_2408                                              undefined FUN_CODE_2408()
       CODE:0c21 12 24 0d        LCALL      ipc_fifo_read                                              undefined ipc_fifo_read()
       CODE:0c24 fa              MOV        R2,A
       CODE:0c25 e5 36           MOV        A,DAT_INTMEM_36                                            = ??
       CODE:0c27 ba 60 0d        CJNE       R2,#0x60,LAB_CODE_0c37
       CODE:0c2a 75 65 00        MOV        DAT_INTMEM_65,#0x0                                         = ??
       CODE:0c2d b4 60 03        CJNE       A,#0x60,LAB_CODE_0c33
       CODE:0c30 d2 3e           SETB       27.6                                                       = ??
       CODE:0c32 22              RET
                             LAB_CODE_0c33                                   XREF[1]:     CODE:0c2d(j)  
       CODE:0c33 75 37 60        MOV        DAT_INTMEM_37,#0x60                                        = ??
       CODE:0c36 22              RET
                             LAB_CODE_0c37                                   XREF[1]:     CODE:0c27(j)  
       CODE:0c37 ba 62 0d        CJNE       R2,#0x62,LAB_CODE_0c47
       CODE:0c3a 75 65 00        MOV        DAT_INTMEM_65,#0x0                                         = ??
       CODE:0c3d b4 62 03        CJNE       A,#0x62,LAB_CODE_0c43
       CODE:0c40 d2 3e           SETB       27.6                                                       = ??
       CODE:0c42 22              RET
                             LAB_CODE_0c43                                   XREF[1]:     CODE:0c3d(j)  
       CODE:0c43 75 37 62        MOV        DAT_INTMEM_37,#0x62                                        = ??
       CODE:0c46 22              RET
                             LAB_CODE_0c47                                   XREF[1]:     CODE:0c37(j)  
       CODE:0c47 ba 66 02        CJNE       R2,#0x66,LAB_CODE_0c4c
       CODE:0c4a d2 25           SETB       24.5                                                       = ??
                             LAB_CODE_0c4c                                   XREF[1]:     CODE:0c47(j)  
       CODE:0c4c 22              RET
                             LAB_CODE_0c4d                                   XREF[1]:     CODE:0af6(j)  
       CODE:0c4d d2 29           SETB       25.1                                                       = ??
       CODE:0c4f 22              RET
                             ipc_handle_setpowerled                          XREF[1]:     CODE:0afc(j)  
       CODE:0c50 85 61 f0        MOV        B,DAT_INTMEM_61                                            = ??
       CODE:0c53 74 01           MOV        A,#0x1
       CODE:0c55 12 24 08        LCALL      FUN_CODE_2408                                              undefined FUN_CODE_2408()
       CODE:0c58 12 24 0d        LCALL      ipc_fifo_read                                              undefined ipc_fifo_read()
       CODE:0c5b fa              MOV        R2,A                                                       command
       CODE:0c5c 12 24 0d        LCALL      ipc_fifo_read                                              undefined ipc_fifo_read()
       CODE:0c5f fb              MOV        R3,A                                                       if 1, then start the
                                                                                                       ring of light boot animation
                                                                                                       (important when monitoring
                                                                                                       boot progress!!!)
       CODE:0c60 ea              MOV        A,R2                                                       XeLL sends 0x01 here
                                                                                                       so that just turns into a zero
       CODE:0c61 14              DEC        A
       CODE:0c62 a2 e0           MOV        CY,ACC.0                                                   = ??
       CODE:0c64 92 f2           MOV        B.2,CY                                                     = ??
       CODE:0c66 a2 e1           MOV        CY,ACC.1                                                   = ??
       CODE:0c68 92 f3           MOV        B.3,CY                                                     = ??
       CODE:0c6a eb              MOV        A,R3
       CODE:0c6b a2 e0           MOV        CY,ACC.0                                                   = ??
       CODE:0c6d 92 f4           MOV        B.4,CY                                                     set bit 4 of this thing for
                                                                                                       RoL boot anim
       CODE:0c6f 85 f0 61        MOV        DAT_INTMEM_61,B                                            = ??
       CODE:0c72 d2 47           SETB       28.7                                                       = ??
       CODE:0c74 22              RET
                             ipc_handle_setleds                              XREF[1]:     CODE:0b02(j)  
       CODE:0c75 85 61 f0        MOV        B,DAT_INTMEM_61                                            read this
       CODE:0c78 74 01           MOV        A,#0x1
       CODE:0c7a 12 24 08        LCALL      FUN_CODE_2408                                              undefined FUN_CODE_2408()
       CODE:0c7d 12 24 0d        LCALL      ipc_fifo_read                                              undefined ipc_fifo_read()
       CODE:0c80 fa              MOV        R2,A                                                       either 1 or 0
       CODE:0c81 12 24 0d        LCALL      ipc_fifo_read                                              undefined ipc_fifo_read()
       CODE:0c84 fb              MOV        R3,A                                                       actual LED states
       CODE:0c85 ea              MOV        A,R2
       CODE:0c86 a2 e0           MOV        CY,ACC.0                                                   = ??
       CODE:0c88 92 f5           MOV        B.5,CY                                                     set B bit 5 to whatever we read
                                                                                                       (0 or 1)
       CODE:0c8a 85 f0 61        MOV        DAT_INTMEM_61,B                                            and store it
       CODE:0c8d eb              MOV        A,R3
       CODE:0c8e 78 ae           MOV        R0,#0xae                                                   write updated LED state somewhere
       CODE:0c90 f6              MOV        @R0=>DAT_INTMEM_ae,A                                       = ??
       CODE:0c91 d2 48           SETB       29.0                                                       ???
       CODE:0c93 22              RET
                             LAB_CODE_0c94                                   XREF[1]:     CODE:0b08(j)  
       CODE:0c94 74 01           MOV        A,#0x1
       CODE:0c96 12 24 08        LCALL      FUN_CODE_2408                                              undefined FUN_CODE_2408()
       CODE:0c99 12 24 0d        LCALL      ipc_fifo_read                                              undefined ipc_fifo_read()
       CODE:0c9c f5 f0           MOV        B,A
       CODE:0c9e 20 f0 03        JB         B.0,LAB_CODE_0ca4                                          = ??
       CODE:0ca1 c2 55           CLR        2a.5                                                       = ??
       CODE:0ca3 22              RET
                             LAB_CODE_0ca4                                   XREF[1]:     CODE:0c9e(j)  
       CODE:0ca4 d2 55           SETB       2a.5                                                       = ??
       CODE:0ca6 22              RET
                             LAB_CODE_0ca7                                   XREF[1]:     CODE:0b0e(j)  
       CODE:0ca7 74 01           MOV        A,#0x1
       CODE:0ca9 12 24 08        LCALL      FUN_CODE_2408                                              undefined FUN_CODE_2408()
       CODE:0cac 12 24 0d        LCALL      ipc_fifo_read                                              undefined ipc_fifo_read()
       CODE:0caf f5 f0           MOV        B,A
       CODE:0cb1 53 f0 0f        ANL        B,#0xf
       CODE:0cb4 78 7f           MOV        R0,#0x7f
       CODE:0cb6 a6 f0           MOV        @R0=>DAT_INTMEM_7f,B                                       = ??
       CODE:0cb8 d2 45           SETB       28.5                                                       = ??
       CODE:0cba 22              RET
                             LAB_CODE_0cbb                                   XREF[1]:     CODE:0b14(j)  
       CODE:0cbb 20 4b 1b        JB         29.3,LAB_CODE_0cd9                                         = ??
       CODE:0cbe 20 3b 18        JB         27.3,LAB_CODE_0cd9                                         = ??
       CODE:0cc1 74 01           MOV        A,#0x1
       CODE:0cc3 12 24 08        LCALL      FUN_CODE_2408                                              undefined FUN_CODE_2408()
       CODE:0cc6 12 24 0d        LCALL      ipc_fifo_read                                              undefined ipc_fifo_read()
       CODE:0cc9 f5 f0           MOV        B,A
       CODE:0ccb 12 24 0d        LCALL      ipc_fifo_read                                              undefined ipc_fifo_read()
       CODE:0cce fb              MOV        R3,A
       CODE:0ccf 78 b0           MOV        R0,#0xb0
       CODE:0cd1 a6 f0           MOV        @R0=>DAT_INTMEM_b0,B                                       = ??
       CODE:0cd3 eb              MOV        A,R3
       CODE:0cd4 78 b1           MOV        R0,#0xb1
       CODE:0cd6 f6              MOV        @R0=>DAT_INTMEM_b1,A                                       = ??
       CODE:0cd7 d2 4b           SETB       29.3                                                       = ??
                             LAB_CODE_0cd9                                   XREF[2]:     CODE:0cbb(j), CODE:0cbe(j)  
       CODE:0cd9 22              RET
                             ipc_handle_display_error                        XREF[1]:     CODE:0b1a(j)  
       CODE:0cda 74 01           MOV        A,#0x1
       CODE:0cdc 12 24 08        LCALL      FUN_CODE_2408                                              undefined FUN_CODE_2408()
       CODE:0cdf 12 24 0d        LCALL      ipc_fifo_read                                              undefined ipc_fifo_read()
       CODE:0ce2 fa              MOV        R2,A
       CODE:0ce3 12 24 0d        LCALL      ipc_fifo_read                                              undefined ipc_fifo_read()
       CODE:0ce6 fb              MOV        R3,A
       CODE:0ce7 12 24 0d        LCALL      ipc_fifo_read                                              undefined ipc_fifo_read()
       CODE:0cea fc              MOV        R4,A
       CODE:0ceb ea              MOV        A,R2
       CODE:0cec 24 f0           ADD        A,#0xf0
       CODE:0cee 50 26           JNC        LAB_CODE_0d16
       CODE:0cf0 8a 59           MOV        DAT_INTMEM_59,R2                                           = ??
       CODE:0cf2 8b 5b           MOV        DAT_INTMEM_5b,R3                                           = ??
       CODE:0cf4 75 5a 00        MOV        DAT_INTMEM_5a,#0x0                                         = ??
       CODE:0cf7 d2 46           SETB       28.6                                                       = ??
       CODE:0cf9 d2 33           SETB       26.3                                                       = ??
       CODE:0cfb d2 1e           SETB       23.6                                                       = ??
       CODE:0cfd ec              MOV        A,R4                                                       load RROD type
       CODE:0cfe 75 5c 04        MOV        g_rol_base_error_pattern,#00000100b                        red LED, top right
                                                                                                       likely Hardware Failure
       CODE:0d01 20 e0 09        JB         ACC.0,LAB_CODE_0d0d                                        = ??
       CODE:0d04 75 5c 16        MOV        g_rol_base_error_pattern,#00010110b                        one green LED, two red LEDs??
                                                                                                       not sure what this is
       CODE:0d07 20 e1 03        JB         ACC.1,LAB_CODE_0d0d                                        = ??
       CODE:0d0a 75 5c 0d        MOV        g_rol_base_error_pattern,#00001101b                        all red leds
                                                                                                       bot right, top right, top left
                                                                                                       RRoD Classic/General Failure
                             LAB_CODE_0d0d                                   XREF[2]:     CODE:0d01(j), CODE:0d07(j)  
       CODE:0d0d 30 13 06        JNB        g_has_getpoweroncause_arrived,LAB_CODE_0d16                = ??
       CODE:0d10 78 af           MOV        R0,#0xaf                                                   force ring of light on?
       CODE:0d12 a6 5c           MOV        @R0=>DAT_INTMEM_af,g_rol_base_error_pattern                = ??
       CODE:0d14 d2 48           SETB       29.0                                                       = ??
                             LAB_CODE_0d16                                   XREF[2]:     CODE:0cee(j), CODE:0d0d(j)  
       CODE:0d16 22              RET
                             LAB_CODE_0d17                                   XREF[1]:     CODE:0b20(j)  
       CODE:0d17 74 01           MOV        A,#0x1
       CODE:0d19 12 24 08        LCALL      FUN_CODE_2408                                              undefined FUN_CODE_2408()
       CODE:0d1c 12 24 0d        LCALL      ipc_fifo_read                                              undefined ipc_fifo_read()
       CODE:0d1f fa              MOV        R2,A
       CODE:0d20 12 24 0d        LCALL      ipc_fifo_read                                              undefined ipc_fifo_read()
       CODE:0d23 fb              MOV        R3,A
       CODE:0d24 8a 66           MOV        DAT_INTMEM_66,R2                                           = ??
       CODE:0d26 8b 67           MOV        DAT_INTMEM_67,R3                                           = ??
       CODE:0d28 22              RET
                             LAB_CODE_0d29                                   XREF[1]:     CODE:0b26(j)  
       CODE:0d29 74 01           MOV        A,#0x1
       CODE:0d2b 12 24 08        LCALL      FUN_CODE_2408                                              undefined FUN_CODE_2408()
       CODE:0d2e 78 82           MOV        R0,#0x82
       CODE:0d30 7a 0c           MOV        R2,#0xc
       CODE:0d32 12 24 10        LCALL      FUN_CODE_2410                                              undefined FUN_CODE_2410()
       CODE:0d35 22              RET
                             LAB_CODE_0d36                                   XREF[1]:     CODE:0b2c(j)  
       CODE:0d36 74 01           MOV        A,#0x1
       CODE:0d38 12 24 08        LCALL      FUN_CODE_2408                                              undefined FUN_CODE_2408()
       CODE:0d3b 78 8e           MOV        R0,#0x8e
       CODE:0d3d 7a 0c           MOV        R2,#0xc
       CODE:0d3f 12 24 10        LCALL      FUN_CODE_2410                                              undefined FUN_CODE_2410()
       CODE:0d42 22              RET
                             **************************************************************
                             *                          FUNCTION                          *
                             **************************************************************
                             undefined FUN_CODE_0d43()
             undefined         ACC:1          <RETURN>
                             FUN_CODE_0d43                                   XREF[1]:     CODE:1d96(c)  
       CODE:0d43 c3              CLR        CY
       CODE:0d44 20 13 11        JB         g_has_getpoweroncause_arrived,LAB_CODE_0d58                = ??
       CODE:0d47 c2 3a           CLR        27.2                                                       = ??
       CODE:0d49 c2 3d           CLR        27.5                                                       = ??
       CODE:0d4b c2 37           CLR        26.7                                                       = ??
       CODE:0d4d c2 38           CLR        27.0                                                       = ??
       CODE:0d4f c2 39           CLR        27.1                                                       = ??
       CODE:0d51 c2 3b           CLR        27.3                                                       = ??
       CODE:0d53 c2 3c           CLR        27.4                                                       = ??
       CODE:0d55 c2 3e           CLR        27.6                                                       = ??
       CODE:0d57 22              RET
                             LAB_CODE_0d58                                   XREF[1]:     CODE:0d44(j)  
       CODE:0d58 30 3a 02        JNB        27.2,LAB_CODE_0d5d                                         = ??
       CODE:0d5b 80 3a           SJMP       LAB_CODE_0d97
                             LAB_CODE_0d5d                                   XREF[1]:     CODE:0d58(j)  
       CODE:0d5d 30 3d 03        JNB        27.5,LAB_CODE_0d63                                         = ??
       CODE:0d60 02 0d ea        LJMP       LAB_CODE_0dea
                             LAB_CODE_0d63                                   XREF[1]:     CODE:0d5d(j)  
       CODE:0d63 30 37 03        JNB        26.7,LAB_CODE_0d69                                         = ??
       CODE:0d66 02 0d f8        LJMP       LAB_CODE_0df8
                             LAB_CODE_0d69                                   XREF[1]:     CODE:0d63(j)  
       CODE:0d69 30 38 03        JNB        27.0,LAB_CODE_0d6f                                         = ??
       CODE:0d6c 02 0e 0c        LJMP       LAB_CODE_0e0c
                             LAB_CODE_0d6f                                   XREF[1]:     CODE:0d69(j)  
       CODE:0d6f 30 39 03        JNB        27.1,LAB_CODE_0d75                                         = ??
       CODE:0d72 02 0e 1b        LJMP       LAB_CODE_0e1b
                             LAB_CODE_0d75                                   XREF[1]:     CODE:0d6f(j)  
       CODE:0d75 30 3b 03        JNB        27.3,LAB_CODE_0d7b                                         = ??
       CODE:0d78 02 0e 36        LJMP       LAB_CODE_0e36
                             LAB_CODE_0d7b                                   XREF[1]:     CODE:0d75(j)  
       CODE:0d7b 30 3c 03        JNB        27.4,LAB_CODE_0d81                                         = ??
       CODE:0d7e 02 0e 56        LJMP       LAB_CODE_0e56
                             LAB_CODE_0d81                                   XREF[1]:     CODE:0d7b(j)  
       CODE:0d81 30 3e 03        JNB        27.6,LAB_CODE_0d87                                         = ??
       CODE:0d84 02 0e 95        LJMP       LAB_CODE_0e95
                             LAB_CODE_0d87                                   XREF[1]:     CODE:0d81(j)  
       CODE:0d87 22              RET
                             LAB_CODE_0d88                                   XREF[11]:    CODE:0db5(j), CODE:0dc6(j), 
                                                                                          CODE:0dd7(j), CODE:0de8(j), 
                                                                                          CODE:0df6(j), CODE:0e09(j), 
                                                                                          CODE:0e18(j), CODE:0e33(j), 
                                                                                          CODE:0e53(j), CODE:0e92(j), 
                                                                                          CODE:0ea1(j)  
       CODE:0d88 74 00           MOV        A,#0x0
       CODE:0d8a 12 24 2a        LCALL      FUN_CODE_242a                                              undefined FUN_CODE_242a()
       CODE:0d8d 74 83           MOV        A,#0x83
       CODE:0d8f 12 24 2f        LCALL      ipc_fifo_write                                             undefined ipc_fifo_write()
       CODE:0d92 12 24 39        LCALL      FUN_CODE_2439                                              undefined FUN_CODE_2439()
       CODE:0d95 d3              SETB       CY
       CODE:0d96 22              RET
                             LAB_CODE_0d97                                   XREF[1]:     CODE:0d5b(j)  
       CODE:0d97 c2 3a           CLR        27.2                                                       = ??
       CODE:0d99 20 14 0a        JB         22.4,LAB_CODE_0da6                                         = ??
       CODE:0d9c 20 08 18        JB         g_powerswitch_pushed,LAB_CODE_0db7                         = ??
       CODE:0d9f 20 20 26        JB         24.0,LAB_CODE_0dc8                                         = ??
       CODE:0da2 20 0b 34        JB         21.3,LAB_CODE_0dd9                                         = ??
       CODE:0da5 22              RET
                             LAB_CODE_0da6                                   XREF[1]:     CODE:0d99(j)  
       CODE:0da6 74 01           MOV        A,#0x1
       CODE:0da8 12 24 2a        LCALL      FUN_CODE_242a                                              undefined FUN_CODE_242a()
       CODE:0dab 74 31           MOV        A,#0x31
       CODE:0dad 12 24 2f        LCALL      ipc_fifo_write                                             undefined ipc_fifo_write()
       CODE:0db0 74 04           MOV        A,#0x4
       CODE:0db2 12 24 2f        LCALL      ipc_fifo_write                                             undefined ipc_fifo_write()
       CODE:0db5 80 d1           SJMP       LAB_CODE_0d88
                             LAB_CODE_0db7                                   XREF[1]:     CODE:0d9c(j)  
       CODE:0db7 74 01           MOV        A,#0x1
       CODE:0db9 12 24 2a        LCALL      FUN_CODE_242a                                              undefined FUN_CODE_242a()
       CODE:0dbc 74 11           MOV        A,#0x11
       CODE:0dbe 12 24 2f        LCALL      ipc_fifo_write                                             undefined ipc_fifo_write()
       CODE:0dc1 74 01           MOV        A,#0x1
       CODE:0dc3 12 24 2f        LCALL      ipc_fifo_write                                             undefined ipc_fifo_write()
       CODE:0dc6 80 c0           SJMP       LAB_CODE_0d88
                             LAB_CODE_0dc8                                   XREF[1]:     CODE:0d9f(j)  
       CODE:0dc8 74 01           MOV        A,#0x1
       CODE:0dca 12 24 2a        LCALL      FUN_CODE_242a                                              undefined FUN_CODE_242a()
       CODE:0dcd 74 20           MOV        A,#0x20
       CODE:0dcf 12 24 2f        LCALL      ipc_fifo_write                                             undefined ipc_fifo_write()
       CODE:0dd2 74 01           MOV        A,#0x1
       CODE:0dd4 12 24 2f        LCALL      ipc_fifo_write                                             undefined ipc_fifo_write()
       CODE:0dd7 80 af           SJMP       LAB_CODE_0d88
                             LAB_CODE_0dd9                                   XREF[1]:     CODE:0da2(j)  
       CODE:0dd9 74 01           MOV        A,#0x1
       CODE:0ddb 12 24 2a        LCALL      FUN_CODE_242a                                              undefined FUN_CODE_242a()
       CODE:0dde 74 42           MOV        A,#0x42
       CODE:0de0 12 24 2f        LCALL      ipc_fifo_write                                             undefined ipc_fifo_write()
       CODE:0de3 74 01           MOV        A,#0x1
       CODE:0de5 12 24 2f        LCALL      ipc_fifo_write                                             undefined ipc_fifo_write()
       CODE:0de8 80 9e           SJMP       LAB_CODE_0d88
                             LAB_CODE_0dea                                   XREF[1]:     CODE:0d60(j)  
       CODE:0dea c2 3d           CLR        27.5                                                       = ??
       CODE:0dec 74 01           MOV        A,#0x1
       CODE:0dee 12 24 2a        LCALL      FUN_CODE_242a                                              undefined FUN_CODE_242a()
       CODE:0df1 74 61           MOV        A,#0x61
       CODE:0df3 12 24 2f        LCALL      ipc_fifo_write                                             undefined ipc_fifo_write()
       CODE:0df6 80 90           SJMP       LAB_CODE_0d88
                             LAB_CODE_0df8                                   XREF[1]:     CODE:0d66(j)  
       CODE:0df8 c2 37           CLR        26.7                                                       = ??
       CODE:0dfa 74 01           MOV        A,#0x1
       CODE:0dfc 12 24 2a        LCALL      FUN_CODE_242a                                              undefined FUN_CODE_242a()
       CODE:0dff 74 40           MOV        A,#0x40
       CODE:0e01 12 24 2f        LCALL      ipc_fifo_write                                             undefined ipc_fifo_write()
       CODE:0e04 e5 2f           MOV        A,DAT_INTMEM_2f                                            = ??
       CODE:0e06 12 24 2f        LCALL      ipc_fifo_write                                             undefined ipc_fifo_write()
       CODE:0e09 02 0d 88        LJMP       LAB_CODE_0d88
                             LAB_CODE_0e0c                                   XREF[1]:     CODE:0d6c(j)  
       CODE:0e0c c2 38           CLR        27.0                                                       = ??
       CODE:0e0e 74 01           MOV        A,#0x1
       CODE:0e10 12 24 2a        LCALL      FUN_CODE_242a                                              undefined FUN_CODE_242a()
       CODE:0e13 74 13           MOV        A,#0x13
       CODE:0e15 12 24 2f        LCALL      ipc_fifo_write                                             undefined ipc_fifo_write()
       CODE:0e18 02 0d 88        LJMP       LAB_CODE_0d88
                             LAB_CODE_0e1b                                   XREF[1]:     CODE:0d72(j)  
       CODE:0e1b c2 39           CLR        27.1                                                       = ??
       CODE:0e1d 75 f0 00        MOV        B,#0x0
       CODE:0e20 a2 05           MOV        CY,20.5                                                    = ??
       CODE:0e22 92 f0           MOV        B.0,CY                                                     = ??
       CODE:0e24 74 01           MOV        A,#0x1
       CODE:0e26 12 24 2a        LCALL      FUN_CODE_242a                                              undefined FUN_CODE_242a()
       CODE:0e29 74 14           MOV        A,#0x14
       CODE:0e2b 12 24 2f        LCALL      ipc_fifo_write                                             undefined ipc_fifo_write()
       CODE:0e2e e5 f0           MOV        A,B
       CODE:0e30 12 24 2f        LCALL      ipc_fifo_write                                             undefined ipc_fifo_write()
       CODE:0e33 02 0d 88        LJMP       LAB_CODE_0d88
                             LAB_CODE_0e36                                   XREF[1]:     CODE:0d78(j)  
       CODE:0e36 c2 3b           CLR        27.3                                                       = ??
       CODE:0e38 78 b0           MOV        R0,#0xb0
       CODE:0e3a 86 f0           MOV        B,@R0=>DAT_INTMEM_b0                                       = ??
       CODE:0e3c 78 b1           MOV        R0,#0xb1
       CODE:0e3e e6              MOV        A,@R0=>DAT_INTMEM_b1                                       = ??
       CODE:0e3f fb              MOV        R3,A
       CODE:0e40 74 01           MOV        A,#0x1
       CODE:0e42 12 24 2a        LCALL      FUN_CODE_242a                                              undefined FUN_CODE_242a()
       CODE:0e45 74 44           MOV        A,#0x44
       CODE:0e47 12 24 2f        LCALL      ipc_fifo_write                                             undefined ipc_fifo_write()
       CODE:0e4a e5 f0           MOV        A,B
       CODE:0e4c 12 24 2f        LCALL      ipc_fifo_write                                             undefined ipc_fifo_write()
       CODE:0e4f eb              MOV        A,R3
       CODE:0e50 12 24 2f        LCALL      ipc_fifo_write                                             undefined ipc_fifo_write()
       CODE:0e53 02 0d 88        LJMP       LAB_CODE_0d88
                             LAB_CODE_0e56                                   XREF[1]:     CODE:0d7e(j)  
       CODE:0e56 c2 3c           CLR        27.4                                                       = ??
       CODE:0e58 78 aa           MOV        R0,#0xaa
       CODE:0e5a e6              MOV        A,@R0=>DAT_INTMEM_aa                                       = ??
       CODE:0e5b fb              MOV        R3,A
       CODE:0e5c 54 1f           ANL        A,#0x1f
       CODE:0e5e ff              MOV        R7,A
       CODE:0e5f eb              MOV        A,R3
       CODE:0e60 a2 e6           MOV        CY,ACC.6                                                   = ??
       CODE:0e62 54 80           ANL        A,#0x80
       CODE:0e64 b3              CPL        CY
       CODE:0e65 92 e0           MOV        ACC.0,CY                                                   = ??
       CODE:0e67 fb              MOV        R3,A
       CODE:0e68 78 ab           MOV        R0,#0xab
       CODE:0e6a e6              MOV        A,@R0=>DAT_INTMEM_ab                                       = ??
       CODE:0e6b fc              MOV        R4,A
       CODE:0e6c 78 ac           MOV        R0,#0xac
       CODE:0e6e e6              MOV        A,@R0=>DAT_INTMEM_ac                                       = ??
       CODE:0e6f fd              MOV        R5,A
       CODE:0e70 78 ad           MOV        R0,#0xad
       CODE:0e72 e6              MOV        A,@R0=>DAT_INTMEM_ad                                       = ??
       CODE:0e73 fe              MOV        R6,A
       CODE:0e74 74 01           MOV        A,#0x1
       CODE:0e76 12 24 2a        LCALL      FUN_CODE_242a                                              undefined FUN_CODE_242a()
       CODE:0e79 74 23           MOV        A,#0x23
       CODE:0e7b 12 24 2f        LCALL      ipc_fifo_write                                             undefined ipc_fifo_write()
       CODE:0e7e eb              MOV        A,R3
       CODE:0e7f 12 24 2f        LCALL      ipc_fifo_write                                             undefined ipc_fifo_write()
       CODE:0e82 ec              MOV        A,R4
       CODE:0e83 12 24 2f        LCALL      ipc_fifo_write                                             undefined ipc_fifo_write()
       CODE:0e86 ed              MOV        A,R5
       CODE:0e87 12 24 2f        LCALL      ipc_fifo_write                                             undefined ipc_fifo_write()
       CODE:0e8a ee              MOV        A,R6
       CODE:0e8b 12 24 2f        LCALL      ipc_fifo_write                                             undefined ipc_fifo_write()
       CODE:0e8e ef              MOV        A,R7
       CODE:0e8f 12 24 2f        LCALL      ipc_fifo_write                                             undefined ipc_fifo_write()
       CODE:0e92 02 0d 88        LJMP       LAB_CODE_0d88
                             LAB_CODE_0e95                                   XREF[1]:     CODE:0d84(j)  
       CODE:0e95 c2 3e           CLR        27.6                                                       = ??
       CODE:0e97 74 01           MOV        A,#0x1
       CODE:0e99 12 24 2a        LCALL      FUN_CODE_242a                                              undefined FUN_CODE_242a()
       CODE:0e9c e5 36           MOV        A,DAT_INTMEM_36                                            = ??
       CODE:0e9e 12 24 2f        LCALL      ipc_fifo_write                                             undefined ipc_fifo_write()
       CODE:0ea1 02 0d 88        LJMP       LAB_CODE_0d88
                             **************************************************************
                             *                          FUNCTION                          *
                             **************************************************************
                             undefined powerdown_sm_exec()
             undefined         ACC:1          <RETURN>
                             powerdown_sm_exec                               XREF[1]:     FUN_CODE_0775:07d4(c)  
       CODE:0ea4 20 10 05        JB         g_powerdown_sm_should_run,LAB_CODE_0eac                    = ??
       CODE:0ea7 78 9e           MOV        R0,#0x9e
       CODE:0ea9 76 00           MOV        @R0=>DAT_INTMEM_9e,#0x0                                    = ??
       CODE:0eab 22              RET
                             LAB_CODE_0eac                                   XREF[1]:     CODE:0ea4(j)  
       CODE:0eac 78 9e           MOV        R0,#0x9e
       CODE:0eae e6              MOV        A,@R0=>DAT_INTMEM_9e                                       = ??
       CODE:0eaf 26              ADD        A,@R0=>DAT_INTMEM_9e                                       = ??
       CODE:0eb0 26              ADD        A,@R0=>DAT_INTMEM_9e                                       = ??
       CODE:0eb1 90 0e b5        MOV        DPTR,#0xeb5
       CODE:0eb4 73              JMP        @A+DPTR
       CODE:0eb5 02 0e d6        LJMP       LAB_CODE_0ed6                                              state 0 - wait for power down
                                                                                                       (023h.4 / 023h.5 must be set)
       CODE:0eb8 02 0e ec        LJMP       LAB_CODE_0eec                                              state 1 - shut down clocks
       CODE:0ebb 02 0e f1        LJMP       LAB_CODE_0ef1                                              state 2 - kill CPU power
       CODE:0ebe 02 0e f8        LJMP       LAB_CODE_0ef8                                              state 3 - kill 3v3 and
                                                                                                       set 5v to standby rail?
       CODE:0ec1 02 0f 38        LJMP       LAB_CODE_0f38                                              state 4 - kill 1v8
       CODE:0ec4 02 0f 3f        LJMP       LAB_CODE_0f3f                                              state 5 - kill 5v
       CODE:0ec7 02 0f 4a        LJMP       LAB_CODE_0f4a                                              state 6 - power GPU down,
                                                                                                       other things
       CODE:0eca 02 0f 70        LJMP       LAB_CODE_0f70                                              state 7 - kill 12v and check stuff
       CODE:0ecd 02 0f 8b        LJMP       LAB_CODE_0f8b                                              state 8 - wait for counters
       CODE:0ed0 02 0f 96        LJMP       LAB_CODE_0f96                                              state 9 - wait for another counter
       CODE:0ed3 02 0f 9e        LJMP       LAB_CODE_0f9e                                              state 10 - end
                             LAB_CODE_0ed6                                   XREF[1]:     CODE:0eb5(j)  
       CODE:0ed6 20 1c 0f        JB         23.4,LAB_CODE_0ee8                                         if either of these are set,
                                                                                                       start the power down sequence
                                                                                                       (023h.4/023h.5 both seem to
                                                                                                        be RROD errors)
       CODE:0ed9 20 1d 0c        JB         23.5,LAB_CODE_0ee8                                         = ??
       CODE:0edc e5 36           MOV        A,DAT_INTMEM_36                                            = ??
       CODE:0ede b4 63 02        CJNE       A,#0x63,LAB_CODE_0ee3                                      if 0x63 or 0x64,
                                                                                                       continue waiting
       CODE:0ee1 80 1d           SJMP       LAB_CODE_0f00                                              go state 0
                             LAB_CODE_0ee3                                   XREF[1]:     CODE:0ede(j)  
       CODE:0ee3 b4 64 02        CJNE       A,#0x64,LAB_CODE_0ee8
       CODE:0ee6 80 18           SJMP       LAB_CODE_0f00                                              go state 0
                             LAB_CODE_0ee8                                   XREF[3]:     CODE:0ed6(j), CODE:0ed9(j), 
                                                                                          CODE:0ee3(j)  
       CODE:0ee8 c2 24           CLR        24.4                                                       = ??
       CODE:0eea 80 19           SJMP       LAB_CODE_0f05
                             LAB_CODE_0eec                                   XREF[1]:     CODE:0eb8(j)  
       CODE:0eec 12 00 bd        LCALL      FUN_CODE_00bd                                              undefined FUN_CODE_00bd()
       CODE:0eef 80 19           SJMP       LAB_CODE_0f0a
                             LAB_CODE_0ef1                                   XREF[1]:     CODE:0ebb(j)  
       CODE:0ef1 c2 19           CLR        23.1                                                       = ??
       CODE:0ef3 12 00 55        LCALL      FUN_CODE_0055                                              undefined FUN_CODE_0055()
       CODE:0ef6 80 17           SJMP       LAB_CODE_0f0f
                             LAB_CODE_0ef8                                   XREF[1]:     CODE:0ebe(j)  
       CODE:0ef8 12 23 e2        LCALL      FUN_CODE_23e2                                              undefined FUN_CODE_23e2()
       CODE:0efb 12 23 f9        LCALL      FUN_CODE_23f9                                              undefined FUN_CODE_23f9()
       CODE:0efe 80 14           SJMP       LAB_CODE_0f14
                             LAB_CODE_0f00                                   XREF[2]:     CODE:0ee1(j), CODE:0ee6(j)  
       CODE:0f00 78 9e           MOV        R0,#0x9e
       CODE:0f02 76 00           MOV        @R0=>DAT_INTMEM_9e,#0x0                                    = ??
       CODE:0f04 22              RET
                             LAB_CODE_0f05                                   XREF[1]:     CODE:0eea(j)  
       CODE:0f05 78 9e           MOV        R0,#0x9e
       CODE:0f07 76 01           MOV        @R0=>DAT_INTMEM_9e,#0x1                                    = ??
       CODE:0f09 22              RET
                             LAB_CODE_0f0a                                   XREF[1]:     CODE:0eef(j)  
       CODE:0f0a 78 9e           MOV        R0,#0x9e
       CODE:0f0c 76 02           MOV        @R0=>DAT_INTMEM_9e,#0x2                                    = ??
       CODE:0f0e 22              RET
                             LAB_CODE_0f0f                                   XREF[1]:     CODE:0ef6(j)  
       CODE:0f0f 78 9e           MOV        R0,#0x9e
       CODE:0f11 76 03           MOV        @R0=>DAT_INTMEM_9e,#0x3                                    = ??
       CODE:0f13 22              RET
                             LAB_CODE_0f14                                   XREF[1]:     CODE:0efe(j)  
       CODE:0f14 78 9e           MOV        R0,#0x9e
       CODE:0f16 76 04           MOV        @R0=>DAT_INTMEM_9e,#0x4                                    = ??
       CODE:0f18 22              RET
                             LAB_CODE_0f19                                   XREF[1]:     CODE:0f3d(j)  
       CODE:0f19 78 9e           MOV        R0,#0x9e
       CODE:0f1b 76 05           MOV        @R0=>DAT_INTMEM_9e,#0x5                                    = ??
       CODE:0f1d 22              RET
                             LAB_CODE_0f1e                                   XREF[1]:     CODE:0f48(j)  
       CODE:0f1e 78 9e           MOV        R0,#0x9e
       CODE:0f20 76 06           MOV        @R0=>DAT_INTMEM_9e,#0x6                                    = ??
       CODE:0f22 22              RET
                             LAB_CODE_0f23                                   XREF[1]:     CODE:0f6e(j)  
       CODE:0f23 78 9e           MOV        R0,#0x9e
       CODE:0f25 76 07           MOV        @R0=>DAT_INTMEM_9e,#0x7                                    = ??
       CODE:0f27 22              RET
                             LAB_CODE_0f28                                   XREF[1]:     CODE:0f89(j)  
       CODE:0f28 78 9e           MOV        R0,#0x9e
       CODE:0f2a 76 08           MOV        @R0=>DAT_INTMEM_9e,#0x8                                    = ??
       CODE:0f2c 22              RET
                             LAB_CODE_0f2d                                   XREF[1]:     CODE:0f92(j)  
       CODE:0f2d 78 9e           MOV        R0,#0x9e
       CODE:0f2f 76 09           MOV        @R0=>DAT_INTMEM_9e,#0x9                                    = ??
       CODE:0f31 22              RET
                             LAB_CODE_0f32                                   XREF[1]:     CODE:0f9c(j)  
       CODE:0f32 78 9e           MOV        R0,#0x9e
       CODE:0f34 76 0a           MOV        @R0=>DAT_INTMEM_9e,#0xa                                    = ??
       CODE:0f36 22              RET
                             LAB_CODE_0f37                                   XREF[8]:     CODE:0f5e(j), CODE:0f67(j), 
                                                                                          CODE:0f7c(j), CODE:0f7f(j), 
                                                                                          CODE:0f8b(j), CODE:0f96(j), 
                                                                                          CODE:0f9e(j), CODE:0fa3(j)  
       CODE:0f37 22              RET
                             LAB_CODE_0f38                                   XREF[1]:     CODE:0ec1(j)  
       CODE:0f38 c2 18           CLR        23.0                                                       = ??
       CODE:0f3a 12 23 e8        LCALL      FUN_CODE_23e8                                              undefined FUN_CODE_23e8()
       CODE:0f3d 80 da           SJMP       LAB_CODE_0f19
                             LAB_CODE_0f3f                                   XREF[1]:     CODE:0ec4(j)  
       CODE:0f3f 12 23 dc        LCALL      vreg_5vp0_kill                                             undefined vreg_5vp0_kill()
       CODE:0f42 75 3d fa        MOV        DAT_INTMEM_3d,#0xfa                                        = ??
       CODE:0f45 75 65 18        MOV        DAT_INTMEM_65,#0x18                                        = ??
       CODE:0f48 80 d4           SJMP       LAB_CODE_0f1e
                             LAB_CODE_0f4a                                   XREF[1]:     CODE:0ec7(j)  
       CODE:0f4a c2 1a           CLR        23.2                                                       = ??
       CODE:0f4c 12 00 33        LCALL      gpu_power_kill                                             undefined gpu_power_kill()
       CODE:0f4f 20 1c 18        JB         23.4,LAB_CODE_0f6a                                         = ??
       CODE:0f52 30 1d 15        JNB        23.5,LAB_CODE_0f6a                                         = ??
       CODE:0f55 c2 08           CLR        g_powerswitch_pushed                                       = ??
       CODE:0f57 c2 20           CLR        24.0                                                       = ??
       CODE:0f59 c2 0b           CLR        21.3                                                       = ??
       CODE:0f5b 30 4f 0c        JNB        29.7,LAB_CODE_0f6a                                         = ??
       CODE:0f5e d5 3d d6        DJNZ       DAT_INTMEM_3d,LAB_CODE_0f37                                = ??
       CODE:0f61 20 50 06        JB         2a.0,LAB_CODE_0f6a                                         = ??
       CODE:0f64 75 3d fa        MOV        DAT_INTMEM_3d,#0xfa                                        = ??
       CODE:0f67 d5 65 cd        DJNZ       DAT_INTMEM_65,LAB_CODE_0f37                                = ??
                             LAB_CODE_0f6a                                   XREF[4]:     CODE:0f4f(j), CODE:0f52(j), 
                                                                                          CODE:0f5b(j), CODE:0f61(j)  
       CODE:0f6a c2 17           CLR        22.7                                                       = ??
       CODE:0f6c d2 2f           SETB       25.7                                                       = ??
       CODE:0f6e 80 b3           SJMP       LAB_CODE_0f23                                              go state 7 to power off
                             LAB_CODE_0f70                                   XREF[1]:     CODE:0eca(j)  
       CODE:0f70 12 23 cb        LCALL      psu_kill_12v                                               undefined psu_kill_12v()
       CODE:0f73 20 08 0c        JB         g_powerswitch_pushed,LAB_CODE_0f82                         = ??
       CODE:0f76 20 20 09        JB         24.0,LAB_CODE_0f82                                         = ??
       CODE:0f79 20 0b 06        JB         21.3,LAB_CODE_0f82                                         = ??
       CODE:0f7c 20 1c b8        JB         23.4,LAB_CODE_0f37                                         if this bit is still set
                                                                                                       then block execution
                                                                                                       until it's clear
       CODE:0f7f 20 1d b5        JB         23.5,LAB_CODE_0f37                                         = ??
                             LAB_CODE_0f82                                   XREF[3]:     CODE:0f73(j), CODE:0f76(j), 
                                                                                          CODE:0f79(j)  
       CODE:0f82 c2 2a           CLR        25.2                                                       = ??
       CODE:0f84 c2 3f           CLR        27.7                                                       turn off ring of light
       CODE:0f86 75 3d 19        MOV        DAT_INTMEM_3d,#0x19                                        cooldown time of sorts
                                                                                                       = 500 ms
       CODE:0f89 80 9d           SJMP       LAB_CODE_0f28                                              go state 8
                             LAB_CODE_0f8b                                   XREF[1]:     CODE:0ecd(j)  
       CODE:0f8b d5 3d a9        DJNZ       DAT_INTMEM_3d,LAB_CODE_0f37                                note that this 3D counter
                                                                                                       is shared with other
                                                                                                       statemachines
       CODE:0f8e e5 63           MOV        A,DAT_INTMEM_63                                            read what SMC IPC dropped off here
                                                                                                       from a poweroff/reset request
       CODE:0f90 f5 3d           MOV        DAT_INTMEM_3d,A                                            = ??
       CODE:0f92 70 99           JNZ        LAB_CODE_0f2d                                              if nonzero, go to state 9
       CODE:0f94 80 03           SJMP       LAB_CODE_0f99
                             LAB_CODE_0f96                                   XREF[1]:     CODE:0ed0(j)  
       CODE:0f96 d5 3d 9e        DJNZ       DAT_INTMEM_3d,LAB_CODE_0f37                                tick this timer down
                             LAB_CODE_0f99                                   XREF[1]:     CODE:0f94(j)  
       CODE:0f99 30 40 05        JNB        28.0,LAB_CODE_0fa1                                         if this bit not set,
                                                                                                       go to "done" state
       CODE:0f9c 80 94           SJMP       LAB_CODE_0f32                                              else go to state 10
                             LAB_CODE_0f9e                                   XREF[1]:     CODE:0ed3(j)  
       CODE:0f9e 20 40 96        JB         28.0,LAB_CODE_0f37                                         = ??
                             LAB_CODE_0fa1                                   XREF[1]:     CODE:0f99(j)  
       CODE:0fa1 c2 10           CLR        g_powerdown_sm_should_run                                  turn off this state machine
       CODE:0fa3 80 92           SJMP       LAB_CODE_0f37                                              and return
       CODE:0fa5 78 9b           MOV        R0,#0x9b
       CODE:0fa7 76 00           MOV        @R0=>DAT_INTMEM_9b,#0x0                                    = ??
       CODE:0fa9 22              RET
                             LAB_CODE_0faa                                   XREF[2]:     CODE:0fe1(j), CODE:0fe8(j)  
       CODE:0faa 78 9b           MOV        R0,#0x9b
       CODE:0fac 76 01           MOV        @R0=>DAT_INTMEM_9b,#0x1                                    = ??
       CODE:0fae 22              RET
                             LAB_CODE_0faf                                   XREF[1]:     CODE:0ffe(j)  
       CODE:0faf 78 9b           MOV        R0,#0x9b
       CODE:0fb1 76 02           MOV        @R0=>DAT_INTMEM_9b,#0x2                                    = ??
       CODE:0fb3 22              RET
                             LAB_CODE_0fb4                                   XREF[1]:     CODE:1008(j)  
       CODE:0fb4 78 9b           MOV        R0,#0x9b
       CODE:0fb6 76 03           MOV        @R0=>DAT_INTMEM_9b,#0x3                                    = ??
       CODE:0fb8 22              RET
                             LAB_CODE_0fb9                                   XREF[1]:     CODE:1025(j)  
       CODE:0fb9 78 9b           MOV        R0,#0x9b
       CODE:0fbb 76 04           MOV        @R0=>DAT_INTMEM_9b,#0x4                                    = ??
       CODE:0fbd 22              RET
                             LAB_CODE_0fbe                                   XREF[1]:     CODE:1030(j)  
       CODE:0fbe 78 9b           MOV        R0,#0x9b
       CODE:0fc0 76 05           MOV        @R0=>DAT_INTMEM_9b,#0x5                                    = ??
       CODE:0fc2 22              RET
                             LAB_CODE_0fc3                                   XREF[1]:     CODE:103d(j)  
       CODE:0fc3 78 9b           MOV        R0,#0x9b
       CODE:0fc5 76 06           MOV        @R0=>DAT_INTMEM_9b,#0x6                                    = ??
       CODE:0fc7 22              RET
                             LAB_CODE_0fc8                                   XREF[1]:     CODE:1044(j)  
       CODE:0fc8 78 9b           MOV        R0,#0x9b
       CODE:0fca 76 07           MOV        @R0=>DAT_INTMEM_9b,#0x7                                    = ??
       CODE:0fcc 22              RET
                             LAB_CODE_0fcd                                   XREF[1]:     CODE:1049(j)  
       CODE:0fcd 78 9b           MOV        R0,#0x9b
       CODE:0fcf 76 08           MOV        @R0=>DAT_INTMEM_9b,#0x8                                    = ??
       CODE:0fd1 22              RET
                             LAB_CODE_0fd2                                   XREF[1]:     CODE:104e(j)  
       CODE:0fd2 78 9b           MOV        R0,#0x9b
       CODE:0fd4 76 09           MOV        @R0=>DAT_INTMEM_9b,#0x9                                    = ??
       CODE:0fd6 22              RET
                             LAB_CODE_0fd7                                   XREF[1]:     CODE:1037(j)  
       CODE:0fd7 22              RET
                             LAB_CODE_0fd8                                   XREF[1]:     CODE:1080(j)  
       CODE:0fd8 12 23 c8        LCALL      psu_enable_12v                                             undefined psu_enable_12v()
       CODE:0fdb 43 34 01        ORL        DAT_INTMEM_34,#0x1                                         = ??
       CODE:0fde 75 3d 0a        MOV        DAT_INTMEM_3d,#0xa                                         = ??
       CODE:0fe1 80 c7           SJMP       LAB_CODE_0faa
                             LAB_CODE_0fe3                                   XREF[1]:     CODE:1083(j)  
       CODE:0fe3 12 23 ce        LCALL      FUN_CODE_23ce                                              undefined FUN_CODE_23ce()
       CODE:0fe6 40 14           JC         LAB_CODE_0ffc
       CODE:0fe8 d5 3d bf        DJNZ       DAT_INTMEM_3d,LAB_CODE_0faa                                = ??
       CODE:0feb d2 1c           SETB       23.4                                                       = ??
       CODE:0fed 75 59 01        MOV        DAT_INTMEM_59,#0x1                                         = ??
       CODE:0ff0 75 5b 01        MOV        DAT_INTMEM_5b,#0x1                                         = ??
       CODE:0ff3 75 5a 00        MOV        DAT_INTMEM_5a,#0x0                                         = ??
       CODE:0ff6 d2 46           SETB       28.6                                                       = ??
       CODE:0ff8 d2 33           SETB       26.3                                                       = ??
       CODE:0ffa 80 74           SJMP       LAB_CODE_1070
                             LAB_CODE_0ffc                                   XREF[1]:     CODE:0fe6(j)  
       CODE:0ffc d2 2e           SETB       25.6                                                       = ??
       CODE:0ffe 80 af           SJMP       LAB_CODE_0faf
                             LAB_CODE_1000                                   XREF[1]:     CODE:1086(j)  
       CODE:1000 12 23 ce        LCALL      FUN_CODE_23ce                                              undefined FUN_CODE_23ce()
       CODE:1003 d2 17           SETB       22.7                                                       = ??
       CODE:1005 12 00 30        LCALL      gpu_power_enable                                           undefined gpu_power_enable()
       CODE:1008 80 aa           SJMP       LAB_CODE_0fb4
                             LAB_CODE_100a                                   XREF[1]:     CODE:1089(j)  
       CODE:100a 12 00 36        LCALL      FUN_CODE_0036                                              undefined FUN_CODE_0036()
       CODE:100d 40 11           JC         LAB_CODE_1020
       CODE:100f d2 1c           SETB       23.4                                                       = ??
       CODE:1011 75 59 03        MOV        DAT_INTMEM_59,#0x3                                         = ??
       CODE:1014 75 5b 03        MOV        DAT_INTMEM_5b,#0x3                                         = ??
       CODE:1017 75 5a 00        MOV        DAT_INTMEM_5a,#0x0                                         = ??
       CODE:101a d2 46           SETB       28.6                                                       = ??
       CODE:101c d2 33           SETB       26.3                                                       = ??
       CODE:101e 80 50           SJMP       LAB_CODE_1070
                             LAB_CODE_1020                                   XREF[1]:     CODE:100d(j)  
       CODE:1020 12 00 36        LCALL      FUN_CODE_0036                                              undefined FUN_CODE_0036()
       CODE:1023 d2 1a           SETB       23.2                                                       = ??
       CODE:1025 80 92           SJMP       LAB_CODE_0fb9
                             LAB_CODE_1027                                   XREF[1]:     CODE:108c(j)  
       CODE:1027 12 23 d9        LCALL      vreg_5vp0_enable                                           undefined vreg_5vp0_enable()
       CODE:102a 12 23 e5        LCALL      FUN_CODE_23e5                                              undefined FUN_CODE_23e5()
       CODE:102d 75 3d 02        MOV        DAT_INTMEM_3d,#0x2                                         = ??
       CODE:1030 80 8c           SJMP       LAB_CODE_0fbe
                             LAB_CODE_1032                                   XREF[1]:     CODE:108f(j)  
       CODE:1032 12 23 eb        LCALL      FUN_CODE_23eb                                              undefined FUN_CODE_23eb()
       CODE:1035 d2 18           SETB       23.0                                                       = ??
       CODE:1037 d5 3d 9d        DJNZ       DAT_INTMEM_3d,LAB_CODE_0fd7                                = ??
       CODE:103a 12 23 f6        LCALL      FUN_CODE_23f6                                              undefined FUN_CODE_23f6()
       CODE:103d 80 84           SJMP       LAB_CODE_0fc3
                             LAB_CODE_103f                                   XREF[1]:     CODE:1092(j)  
       CODE:103f 12 23 df        LCALL      FUN_CODE_23df                                              undefined FUN_CODE_23df()
       CODE:1042 d2 24           SETB       24.4                                                       = ??
       CODE:1044 80 82           SJMP       LAB_CODE_0fc8
                             LAB_CODE_1046                                   XREF[1]:     CODE:1095(j)  
       CODE:1046 12 00 ba        LCALL      FUN_CODE_00ba                                              undefined FUN_CODE_00ba()
       CODE:1049 80 82           SJMP       LAB_CODE_0fcd
                             LAB_CODE_104b                                   XREF[1]:     CODE:1098(j)  
       CODE:104b 12 00 52        LCALL      FUN_CODE_0052                                              undefined FUN_CODE_0052()
       CODE:104e 80 82           SJMP       LAB_CODE_0fd2
                             LAB_CODE_1050                                   XREF[1]:     CODE:109b(j)  
       CODE:1050 12 00 58        LCALL      FUN_CODE_0058                                              undefined FUN_CODE_0058()
       CODE:1053 40 11           JC         LAB_CODE_1066
       CODE:1055 d2 1c           SETB       23.4                                                       = ??
       CODE:1057 75 59 02        MOV        DAT_INTMEM_59,#0x2                                         = ??
       CODE:105a 75 5b 02        MOV        DAT_INTMEM_5b,#0x2                                         = ??
       CODE:105d 75 5a 00        MOV        DAT_INTMEM_5a,#0x0                                         = ??
       CODE:1060 d2 46           SETB       28.6                                                       = ??
       CODE:1062 d2 33           SETB       26.3                                                       = ??
       CODE:1064 80 0a           SJMP       LAB_CODE_1070
                             LAB_CODE_1066                                   XREF[1]:     CODE:1053(j)  
       CODE:1066 12 00 58        LCALL      FUN_CODE_0058                                              undefined FUN_CODE_0058()
       CODE:1069 d2 19           SETB       23.1                                                       = ??
       CODE:106b 80 03           SJMP       LAB_CODE_1070
                             **************************************************************
                             *                          FUNCTION                          *
                             **************************************************************
                             undefined powerup_sm_exec()
             undefined         ACC:1          <RETURN>
                             powerup_sm_exec                                 XREF[1]:     FUN_CODE_0775:07cb(c)  
       CODE:106d 20 0d 07        JB         g_powerup_sm_should_run,LAB_CODE_1077                      = ??
                             LAB_CODE_1070                                   XREF[4]:     CODE:0ffa(j), CODE:101e(j), 
                                                                                          CODE:1064(j), CODE:106b(j)  
       CODE:1070 c2 0d           CLR        g_powerup_sm_should_run                                    = ??
       CODE:1072 78 9b           MOV        R0,#0x9b
       CODE:1074 76 00           MOV        @R0=>DAT_INTMEM_9b,#0x0                                    = ??
       CODE:1076 22              RET
                             LAB_CODE_1077                                   XREF[1]:     CODE:106d(j)  
       CODE:1077 78 9b           MOV        R0,#0x9b
       CODE:1079 e6              MOV        A,@R0=>DAT_INTMEM_9b                                       = ??
       CODE:107a 26              ADD        A,@R0=>DAT_INTMEM_9b                                       = ??
       CODE:107b 26              ADD        A,@R0=>DAT_INTMEM_9b                                       = ??
       CODE:107c 90 10 80        MOV        DPTR,#0x1080
       CODE:107f 73              JMP        @A+DPTR
       CODE:1080 02 0f d8        LJMP       LAB_CODE_0fd8
       CODE:1083 02 0f e3        LJMP       LAB_CODE_0fe3
       CODE:1086 02 10 00        LJMP       LAB_CODE_1000
       CODE:1089 02 10 0a        LJMP       LAB_CODE_100a
       CODE:108c 02 10 27        LJMP       LAB_CODE_1027
       CODE:108f 02 10 32        LJMP       LAB_CODE_1032
       CODE:1092 02 10 3f        LJMP       LAB_CODE_103f
       CODE:1095 02 10 46        LJMP       LAB_CODE_1046
       CODE:1098 02 10 4b        LJMP       LAB_CODE_104b
       CODE:109b 02 10 50        LJMP       LAB_CODE_1050
       CODE:109e 78 9d           MOV        R0,#0x9d
       CODE:10a0 76 00           MOV        @R0=>DAT_INTMEM_9d,#0x0                                    = ??
       CODE:10a2 22              RET
                             LAB_CODE_10a3                                   XREF[1]:     CODE:10c7(j)  
       CODE:10a3 78 9d           MOV        R0,#0x9d
       CODE:10a5 76 01           MOV        @R0=>DAT_INTMEM_9d,#0x1                                    = ??
       CODE:10a7 22              RET
                             LAB_CODE_10a8                                   XREF[1]:     CODE:1111(j)  
       CODE:10a8 78 9d           MOV        R0,#0x9d
       CODE:10aa 76 02           MOV        @R0=>DAT_INTMEM_9d,#0x2                                    = ??
       CODE:10ac 22              RET
                             LAB_CODE_10ad                                   XREF[2]:     CODE:1113(j), CODE:1120(j)  
       CODE:10ad 22              RET
                             LAB_CODE_10ae                                   XREF[1]:     CODE:1133(j)  
       CODE:10ae c2 13           CLR        g_has_getpoweroncause_arrived                              = ??
       CODE:10b0 c2 29           CLR        25.1                                                       = ??
       CODE:10b2 c2 55           CLR        2a.5                                                       = ??
       CODE:10b4 12 25 95        LCALL      FUN_CODE_2595                                              setup serial thing
       CODE:10b7 12 00 41        LCALL      gpu_reset_assert                                           reset all the things
       CODE:10ba 12 00 69        LCALL      cpu_reset_assert                                           undefined cpu_reset_assert()
       CODE:10bd c2 12           CLR        22.2                                                       = ??
       CODE:10bf 12 00 7c        LCALL      FUN_CODE_007c                                              undefined FUN_CODE_007c()
       CODE:10c2 12 00 a7        LCALL      sb_reset_assert                                            undefined sb_reset_assert()
       CODE:10c5 c2 2a           CLR        25.2                                                       = ??
       CODE:10c7 80 da           SJMP       LAB_CODE_10a3                                              advance to step 1
                             LAB_CODE_10c9                                   XREF[1]:     CODE:1136(j)  
       CODE:10c9 12 00 ad        LCALL      FUN_CODE_00ad                                              undefined FUN_CODE_00ad()
       CODE:10cc a4              MUL        AB                                                         very long NOP sled
                                                                                                       while we wait for stuff
                                                                                                       to reset
       CODE:10cd a4              MUL        AB
       CODE:10ce a4              MUL        AB
       CODE:10cf a4              MUL        AB
       CODE:10d0 a4              MUL        AB
       CODE:10d1 a4              MUL        AB
       CODE:10d2 a4              MUL        AB
       CODE:10d3 a4              MUL        AB
       CODE:10d4 a4              MUL        AB
       CODE:10d5 a4              MUL        AB
       CODE:10d6 a4              MUL        AB
       CODE:10d7 a4              MUL        AB
       CODE:10d8 a4              MUL        AB
       CODE:10d9 a4              MUL        AB
       CODE:10da a4              MUL        AB
       CODE:10db a4              MUL        AB
       CODE:10dc a4              MUL        AB
       CODE:10dd a4              MUL        AB
       CODE:10de a4              MUL        AB
       CODE:10df a4              MUL        AB
       CODE:10e0 a4              MUL        AB
       CODE:10e1 a4              MUL        AB
       CODE:10e2 a4              MUL        AB
       CODE:10e3 a4              MUL        AB
       CODE:10e4 a4              MUL        AB
       CODE:10e5 a4              MUL        AB
       CODE:10e6 a4              MUL        AB
       CODE:10e7 a4              MUL        AB
       CODE:10e8 a4              MUL        AB
       CODE:10e9 a4              MUL        AB
       CODE:10ea a4              MUL        AB
       CODE:10eb a4              MUL        AB
       CODE:10ec a4              MUL        AB
       CODE:10ed a4              MUL        AB
       CODE:10ee a4              MUL        AB
       CODE:10ef a4              MUL        AB
       CODE:10f0 a4              MUL        AB
       CODE:10f1 a4              MUL        AB
       CODE:10f2 a4              MUL        AB
       CODE:10f3 a4              MUL        AB
       CODE:10f4 a4              MUL        AB
       CODE:10f5 a4              MUL        AB
       CODE:10f6 a4              MUL        AB
       CODE:10f7 a4              MUL        AB
       CODE:10f8 a4              MUL        AB
       CODE:10f9 a4              MUL        AB
       CODE:10fa a4              MUL        AB
       CODE:10fb a4              MUL        AB
       CODE:10fc a4              MUL        AB
       CODE:10fd a4              MUL        AB
       CODE:10fe a4              MUL        AB
       CODE:10ff a4              MUL        AB
       CODE:1100 a4              MUL        AB
       CODE:1101 a4              MUL        AB
       CODE:1102 a4              MUL        AB
       CODE:1103 a4              MUL        AB
       CODE:1104 a4              MUL        AB
       CODE:1105 a4              MUL        AB
       CODE:1106 a4              MUL        AB
       CODE:1107 a4              MUL        AB
       CODE:1108 12 00 7f        LCALL      FUN_CODE_007f                                              undefined FUN_CODE_007f()
       CODE:110b 12 00 66        LCALL      cpu_pwrgd_clear                                            undefined cpu_pwrgd_clear()
       CODE:110e 30 2b 05        JNB        25.3,LAB_CODE_1116                                         check whatever this is
       CODE:1111 80 95           SJMP       LAB_CODE_10a8                                              otherwise, go to state 2
                             LAB_CODE_1113                                   XREF[1]:     CODE:1139(j)  
       CODE:1113 20 2b 97        JB         25.3,LAB_CODE_10ad                                         = ??
                             LAB_CODE_1116                                   XREF[1]:     CODE:110e(j)  
       CODE:1116 12 00 c0        LCALL      ana_reset_assert                                           undefined ana_reset_assert()
       CODE:1119 12 00 c3        LCALL      ana_reset_deassert                                         undefined ana_reset_deassert()
       CODE:111c d2 2a           SETB       25.2                                                       = ??
       CODE:111e c2 0f           CLR        g_requesting_reset                                         = ??
       CODE:1120 80 8b           SJMP       LAB_CODE_10ad
                             **************************************************************
                             *                          FUNCTION                          *
                             **************************************************************
                             undefined hw_reset_statemachine_exec()
             undefined         ACC:1          <RETURN>
                             hw_reset_statemachine_exec                      XREF[1]:     FUN_CODE_0775:07d1(c)  
       CODE:1122 20 0f 05        JB         g_requesting_reset,LAB_CODE_112a                           exec this statemachine
                                                                                                       if 21.7 is set
       CODE:1125 78 9d           MOV        R0,#0x9d                                                   otherwise, reset statemachine
                                                                                                       to initial state
       CODE:1127 76 00           MOV        @R0=>DAT_INTMEM_9d,#0x0                                    = ??
       CODE:1129 22              RET
                             LAB_CODE_112a                                   XREF[1]:     CODE:1122(j)  
       CODE:112a 78 9d           MOV        R0,#0x9d
       CODE:112c e6              MOV        A,@R0=>DAT_INTMEM_9d                                       = ??
       CODE:112d 26              ADD        A,@R0=>DAT_INTMEM_9d                                       = ??
       CODE:112e 26              ADD        A,@R0=>DAT_INTMEM_9d                                       = ??
       CODE:112f 90 11 33        MOV        DPTR,#0x1133
       CODE:1132 73              JMP        @A+DPTR
       CODE:1133 02 10 ae        LJMP       LAB_CODE_10ae
       CODE:1136 02 10 c9        LJMP       LAB_CODE_10c9
       CODE:1139 02 11 13        LJMP       LAB_CODE_1113
       CODE:113c 78 9a           MOV        R0,#0x9a
       CODE:113e 76 00           MOV        @R0=>DAT_INTMEM_9a,#0x0                                    = ??
       CODE:1140 22              RET
                             LAB_CODE_1141                                   XREF[1]:     CODE:1172(j)  
       CODE:1141 78 9a           MOV        R0,#0x9a
       CODE:1143 76 01           MOV        @R0=>DAT_INTMEM_9a,#0x1                                    = ??
       CODE:1145 22              RET
                             LAB_CODE_1146                                   XREF[1]:     CODE:1188(j)  
       CODE:1146 78 9a           MOV        R0,#0x9a
       CODE:1148 76 02           MOV        @R0=>DAT_INTMEM_9a,#0x2                                    = ??
       CODE:114a 22              RET
                             LAB_CODE_114b                                   XREF[2]:     CODE:1192(j), CODE:1194(j)  
       CODE:114b 78 9a           MOV        R0,#0x9a
       CODE:114d 76 03           MOV        @R0=>DAT_INTMEM_9a,#0x3                                    = ??
       CODE:114f 22              RET
                             LAB_CODE_1150                                   XREF[2]:     CODE:118a(j), CODE:118d(j)  
       CODE:1150 22              RET
                             LAB_CODE_1151                                   XREF[1]:     CODE:11a7(j)  
       CODE:1151 12 23 b7        LCALL      argon_disable                                              undefined argon_disable()
       CODE:1154 12 22 be        LCALL      FUN_CODE_22be                                              undefined FUN_CODE_22be()
       CODE:1157 12 23 3e        LCALL      dbgled_read                                                undefined dbgled_read()
       CODE:115a 12 23 46        LCALL      FUN_CODE_2346                                              undefined FUN_CODE_2346()
       CODE:115d 20 04 14        JB         20.4,LAB_CODE_1174                                         = ??
       CODE:1160 12 23 83        LCALL      FUN_CODE_2383                                              undefined FUN_CODE_2383()
       CODE:1163 12 00 7f        LCALL      FUN_CODE_007f                                              undefined FUN_CODE_007f()
       CODE:1166 12 00 c3        LCALL      ana_reset_deassert                                         undefined ana_reset_deassert()
       CODE:1169 12 23 10        LCALL      FUN_CODE_2310                                              undefined FUN_CODE_2310()
       CODE:116c 12 23 ba        LCALL      argon_enable                                               undefined argon_enable()
       CODE:116f 12 24 42        LCALL      FUN_CODE_2442                                              undefined FUN_CODE_2442()
       CODE:1172 80 cd           SJMP       LAB_CODE_1141
                             LAB_CODE_1174                                   XREF[1]:     CODE:115d(j)  
       CODE:1174 12 23 bd        LCALL      FUN_CODE_23bd                                              undefined FUN_CODE_23bd()
                             LAB_CODE_1177                                   XREF[1]:     CODE:11aa(j)  
       CODE:1177 12 24 a5        LCALL      FUN_CODE_24a5                                              undefined FUN_CODE_24a5()
       CODE:117a d2 2a           SETB       25.2                                                       = ??
       CODE:117c d2 3f           SETB       27.7                                                       enable ring of light
       CODE:117e d2 2d           SETB       25.5                                                       = ??
       CODE:1180 d2 43           SETB       28.3                                                       = ??
       CODE:1182 d2 4a           SETB       29.2                                                       = ??
       CODE:1184 d2 44           SETB       28.4                                                       = ??
       CODE:1186 d2 47           SETB       28.7                                                       = ??
       CODE:1188 80 bc           SJMP       LAB_CODE_1146
                             LAB_CODE_118a                                   XREF[1]:     CODE:11ad(j)  
       CODE:118a 20 2d c3        JB         25.5,LAB_CODE_1150                                         = ??
       CODE:118d 20 44 c0        JB         28.4,LAB_CODE_1150                                         = ??
       CODE:1190 c2 0c           CLR        21.4                                                       = ??
       CODE:1192 80 b7           SJMP       LAB_CODE_114b
                             LAB_CODE_1194                                   XREF[1]:     CODE:11b0(j)  
       CODE:1194 80 b5           SJMP       LAB_CODE_114b
                             **************************************************************
                             *                          FUNCTION                          *
                             **************************************************************
                             undefined FUN_CODE_1196()
             undefined         ACC:1          <RETURN>
                             FUN_CODE_1196                                   XREF[1]:     FUN_CODE_0775:07c8(c)  
       CODE:1196 20 0c 05        JB         21.4,LAB_CODE_119e                                         = ??
       CODE:1199 78 9a           MOV        R0,#0x9a
       CODE:119b 76 00           MOV        @R0=>DAT_INTMEM_9a,#0x0                                    = ??
       CODE:119d 22              RET
                             LAB_CODE_119e                                   XREF[1]:     CODE:1196(j)  
       CODE:119e 78 9a           MOV        R0,#0x9a
       CODE:11a0 e6              MOV        A,@R0=>DAT_INTMEM_9a                                       = ??
       CODE:11a1 26              ADD        A,@R0=>DAT_INTMEM_9a                                       = ??
       CODE:11a2 26              ADD        A,@R0=>DAT_INTMEM_9a                                       = ??
       CODE:11a3 90 11 a7        MOV        DPTR,#0x11a7
       CODE:11a6 73              JMP        @A+DPTR
       CODE:11a7 02 11 51        LJMP       LAB_CODE_1151
       CODE:11aa 02 11 77        LJMP       LAB_CODE_1177
       CODE:11ad 02 11 8a        LJMP       LAB_CODE_118a
       CODE:11b0 02 11 94        LJMP       LAB_CODE_1194
                             LAB_CODE_11b3                                   XREF[1]:     CODE:12d7(j)  
       CODE:11b3 c2 1e           CLR        23.6                                                       = ??
       CODE:11b5 20 14 0a        JB         22.4,LAB_CODE_11c2                                         needs to be 0 or we start the
                                                                                                       CPU reset sequence over
       CODE:11b8 c2 29           CLR        25.1                                                       = ??
       CODE:11ba 12 24 42        LCALL      FUN_CODE_2442                                              undefined FUN_CODE_2442()
       CODE:11bd 12 00 63        LCALL      cpu_pwrgd_set                                              undefined cpu_pwrgd_set()
       CODE:11c0 80 5e           SJMP       sysreset_watchdog_go_state_1
                             LAB_CODE_11c2                                   XREF[1]:     CODE:11b5(j)  
       CODE:11c2 c2 14           CLR        22.4                                                       = ??
       CODE:11c4 d2 0f           SETB       g_requesting_reset                                         request system reset
       CODE:11c6 02 12 52        LJMP       sysreset_watchdog_go_state_11
                             LAB_CODE_11c9                                   XREF[1]:     CODE:12da(j)  
       CODE:11c9 12 24 a5        LCALL      FUN_CODE_24a5                                              undefined FUN_CODE_24a5()
       CODE:11cc 12 00 79        LCALL      FUN_CODE_0079                                              set southbridge powergood signal
       CODE:11cf 12 00 82        LCALL      FUN_CODE_0082                                              large NOP sled to kill cycles
       CODE:11d2 80 51           SJMP       sysreset_watchdog_go_state_2
                             LAB_CODE_11d4                                   XREF[1]:     CODE:12dd(j)  
       CODE:11d4 12 00 4f        LCALL      FUN_CODE_004f                                              undefined FUN_CODE_004f()
       CODE:11d7 50 0f           JNC        LAB_CODE_11e8
       CODE:11d9 75 59 08        MOV        DAT_INTMEM_59,#0x8                                         = ??
       CODE:11dc 75 5b 08        MOV        DAT_INTMEM_5b,#0x8                                         = ??
       CODE:11df 75 5a 00        MOV        DAT_INTMEM_5a,#0x0                                         = ??
       CODE:11e2 d2 46           SETB       28.6                                                       = ??
       CODE:11e4 d2 33           SETB       26.3                                                       = ??
       CODE:11e6 80 65           SJMP       sysreset_watchdog_go_state_10
                             LAB_CODE_11e8                                   XREF[1]:     CODE:11d7(j)  
       CODE:11e8 12 00 44        LCALL      FUN_CODE_0044                                              undefined FUN_CODE_0044()
       CODE:11eb 80 3d           SJMP       sysreset_watchdog_go_state_3
                             LAB_CODE_11ed                                   XREF[1]:     CODE:12e0(j)  
       CODE:11ed 12 00 41        LCALL      gpu_reset_assert                                           undefined gpu_reset_assert()
       CODE:11f0 80 3d           SJMP       sysreset_watchdog_go_state_4
                             LAB_CODE_11f2                                   XREF[1]:     CODE:12e3(j)  
       CODE:11f2 12 00 44        LCALL      FUN_CODE_0044                                              undefined FUN_CODE_0044()
       CODE:11f5 80 3d           SJMP       sysreset_watchdog_go_state_5
                             LAB_CODE_11f7                                   XREF[1]:     CODE:12e6(j)  
       CODE:11f7 12 00 aa        LCALL      sb_reset_deassert                                          undefined sb_reset_deassert()
       CODE:11fa 75 3d 04        MOV        DAT_INTMEM_3d,#0x4                                         = ??
       CODE:11fd 80 3a           SJMP       sysreset_watchdog_go_state_6
                             LAB_CODE_11ff                                   XREF[1]:     CODE:12e9(j)  
       CODE:11ff 12 00 4f        LCALL      FUN_CODE_004f                                              undefined FUN_CODE_004f()
       CODE:1202 40 12           JC         LAB_CODE_1216
       CODE:1204 d5 3d 50        DJNZ       DAT_INTMEM_3d,LAB_CODE_1257                                = ??
       CODE:1207 75 59 08        MOV        DAT_INTMEM_59,#0x8                                         = ??
       CODE:120a 75 5b 08        MOV        DAT_INTMEM_5b,#0x8                                         = ??
       CODE:120d 75 5a 00        MOV        DAT_INTMEM_5a,#0x0                                         = ??
       CODE:1210 d2 46           SETB       28.6                                                       = ??
       CODE:1212 d2 33           SETB       26.3                                                       = ??
       CODE:1214 80 37           SJMP       sysreset_watchdog_go_state_10
                             LAB_CODE_1216                                   XREF[1]:     CODE:1202(j)  
       CODE:1216 75 3d 05        MOV        DAT_INTMEM_3d,#0x5                                         = ??
       CODE:1219 80 23           SJMP       sysreset_watchdog_go_state_7
                             sysreset_watchdog_go_state_0                    XREF[1]:     CODE:12c1(j)  
       CODE:121b 78 9c           MOV        R0,#0x9c
       CODE:121d 76 00           MOV        @R0=>g_sysreset_watchdog_state,#0x0                        = ??
       CODE:121f 22              RET
                             sysreset_watchdog_go_state_1                    XREF[1]:     CODE:11c0(j)  
       CODE:1220 78 9c           MOV        R0,#0x9c
       CODE:1222 76 01           MOV        @R0=>g_sysreset_watchdog_state,#0x1                        = ??
       CODE:1224 22              RET
                             sysreset_watchdog_go_state_2                    XREF[1]:     CODE:11d2(j)  
       CODE:1225 78 9c           MOV        R0,#0x9c
       CODE:1227 76 02           MOV        @R0=>g_sysreset_watchdog_state,#0x2                        = ??
       CODE:1229 22              RET
                             sysreset_watchdog_go_state_3                    XREF[1]:     CODE:11eb(j)  
       CODE:122a 78 9c           MOV        R0,#0x9c
       CODE:122c 76 03           MOV        @R0=>g_sysreset_watchdog_state,#0x3                        = ??
       CODE:122e 22              RET
                             sysreset_watchdog_go_state_4                    XREF[1]:     CODE:11f0(j)  
       CODE:122f 78 9c           MOV        R0,#0x9c
       CODE:1231 76 04           MOV        @R0=>g_sysreset_watchdog_state,#0x4                        = ??
       CODE:1233 22              RET
                             sysreset_watchdog_go_state_5                    XREF[1]:     CODE:11f5(j)  
       CODE:1234 78 9c           MOV        R0,#0x9c
       CODE:1236 76 05           MOV        @R0=>g_sysreset_watchdog_state,#0x5                        = ??
       CODE:1238 22              RET
                             sysreset_watchdog_go_state_6                    XREF[1]:     CODE:11fd(j)  
       CODE:1239 78 9c           MOV        R0,#0x9c
       CODE:123b 76 06           MOV        @R0=>g_sysreset_watchdog_state,#0x6                        = ??
       CODE:123d 22              RET
                             sysreset_watchdog_go_state_7                    XREF[1]:     CODE:1219(j)  
       CODE:123e 78 9c           MOV        R0,#0x9c
       CODE:1240 76 07           MOV        @R0=>g_sysreset_watchdog_state,#0x7                        = ??
       CODE:1242 22              RET
                             sysreset_watchdog_go_state_8                    XREF[1]:     CODE:1277(j)  
       CODE:1243 78 9c           MOV        R0,#0x9c
       CODE:1245 76 08           MOV        @R0=>g_sysreset_watchdog_state,#0x8                        = ??
       CODE:1247 22              RET
                             sysreset_watchdog_go_state_9                    XREF[1]:     CODE:1285(j)  
       CODE:1248 78 9c           MOV        R0,#0x9c
       CODE:124a 76 09           MOV        @R0=>g_sysreset_watchdog_state,#0x9                        = ??
       CODE:124c 22              RET
                             sysreset_watchdog_go_state_10                   XREF[6]:     CODE:11e6(j), CODE:1214(j), 
                                                                                          CODE:126d(j), CODE:127c(j), 
                                                                                          CODE:128a(j), CODE:129d(j)  
       CODE:124d 78 9c           MOV        R0,#0x9c
       CODE:124f 76 0a           MOV        @R0=>g_sysreset_watchdog_state,#0xa                        = ??
       CODE:1251 22              RET
                             sysreset_watchdog_go_state_11                   XREF[2]:     CODE:11c6(j), CODE:12bc(j)  
       CODE:1252 78 9c           MOV        R0,#0x9c
       CODE:1254 76 0b           MOV        @R0=>g_sysreset_watchdog_state,#0xb                        = ??
       CODE:1256 22              RET
                             LAB_CODE_1257                                   XREF[8]:     CODE:1204(j), CODE:125d(j), 
                                                                                          CODE:127f(j), CODE:128d(j), 
                                                                                          CODE:12a1(j), CODE:12b8(j), 
                                                                                          CODE:12be(j), CODE:12c4(j)  
       CODE:1257 22              RET
                             LAB_CODE_1258                                   XREF[1]:     CODE:12ec(j)  
       CODE:1258 12 00 6f        LCALL      FUN_CODE_006f                                              undefined FUN_CODE_006f()
       CODE:125b 40 12           JC         LAB_CODE_126f
       CODE:125d d5 3d f7        DJNZ       DAT_INTMEM_3d,LAB_CODE_1257                                = ??
       CODE:1260 75 59 09        MOV        DAT_INTMEM_59,#0x9                                         = ??
       CODE:1263 75 5b 09        MOV        DAT_INTMEM_5b,#0x9                                         = ??
       CODE:1266 75 5a 00        MOV        DAT_INTMEM_5a,#0x0                                         = ??
       CODE:1269 d2 46           SETB       28.6                                                       = ??
       CODE:126b d2 33           SETB       26.3                                                       = ??
       CODE:126d 80 de           SJMP       sysreset_watchdog_go_state_10
                             LAB_CODE_126f                                   XREF[1]:     CODE:125b(j)  
       CODE:126f d2 12           SETB       22.2                                                       = ??
       CODE:1271 12 00 6c        LCALL      cpu_reset_deassert                                         undefined cpu_reset_deassert()
       CODE:1274 75 3d af        MOV        DAT_INTMEM_3d,#0xaf                                        load timeout
                                                                                                       (175 * 20ms = 3500 seconds)
       CODE:1277 80 ca           SJMP       sysreset_watchdog_go_state_8                               go to state #8
                             sysreset_watchdog_exec_state_8                  XREF[1]:     CODE:12ef(j)  
       CODE:1279 20 13 23        JB         g_has_getpoweroncause_arrived,LAB_CODE_129f                = ??
       CODE:127c 20 1e ce        JB         23.6,sysreset_watchdog_go_state_10                         = ??
       CODE:127f d5 3d d5        DJNZ       DAT_INTMEM_3d,LAB_CODE_1257                                = ??
       CODE:1282 75 3d af        MOV        DAT_INTMEM_3d,#0xaf                                        reload timeout
       CODE:1285 80 c1           SJMP       sysreset_watchdog_go_state_9                               and go to state #9
                             sysreset_watchdog_exec_state_9                  XREF[1]:     CODE:12f2(j)  
       CODE:1287 20 13 15        JB         g_has_getpoweroncause_arrived,LAB_CODE_129f                = ??
       CODE:128a 20 1e c0        JB         23.6,sysreset_watchdog_go_state_10                         = ??
       CODE:128d d5 3d c7        DJNZ       DAT_INTMEM_3d,LAB_CODE_1257                                = ??
       CODE:1290 75 59 0a        MOV        DAT_INTMEM_59,#0xa                                         setup RROD error?
                                                                                                       probably 0022
       CODE:1293 75 5b 0a        MOV        DAT_INTMEM_5b,#0xa                                         = ??
       CODE:1296 75 5a 00        MOV        DAT_INTMEM_5a,#0x0                                         = ??
       CODE:1299 d2 46           SETB       28.6                                                       activate RROD error case
                                                                                                       (both these bits need to
                                                                                                        be set to do that)
       CODE:129b d2 33           SETB       26.3                                                       = ??
       CODE:129d 80 ae           SJMP       sysreset_watchdog_go_state_10
                             LAB_CODE_129f                                   XREF[2]:     CODE:1279(j), CODE:1287(j)  
       CODE:129f c2 0e           CLR        g_sysreset_watchdog_should_run                             exit statemachine execution
       CODE:12a1 80 b4           SJMP       LAB_CODE_1257
                             sysreset_watchdog_exec_state_10                 XREF[1]:     CODE:12f5(j)  
       CODE:12a3 05 3e           INC        g_num_boot_tries                                           increment death counter
       CODE:12a5 e5 3e           MOV        A,g_num_boot_tries                                         = ??
       CODE:12a7 b4 05 10        CJNE       A,#0x5,LAB_CODE_12ba                                       if it's not 5, try again
       CODE:12aa 20 1e 03        JB         23.6,LAB_CODE_12b0                                         failure case ends up here
                                                                                                       first check if ring of light
                                                                                                       error state hasn't been set up
                                                                                                       already
       CODE:12ad 75 5c 0d        MOV        g_rol_base_error_pattern,#00001101b                        if error state not setup yet,
                                                                                                       then show red lights on
                                                                                                       3 quadrants (RRoD classic)
                             LAB_CODE_12b0                                   XREF[1]:     CODE:12aa(j)  
       CODE:12b0 78 af           MOV        R0,#0xaf
       CODE:12b2 a6 5c           MOV        @R0=>DAT_INTMEM_af,g_rol_base_error_pattern                move error code to LEDs
       CODE:12b4 d2 48           SETB       29.0                                                       go to error state
       CODE:12b6 c2 0e           CLR        g_sysreset_watchdog_should_run                             kill statemachine execution
       CODE:12b8 80 9d           SJMP       LAB_CODE_1257                                              and give up
                             LAB_CODE_12ba                                   XREF[1]:     CODE:12a7(j)  
       CODE:12ba d2 0f           SETB       g_requesting_reset                                         request system reset
       CODE:12bc 80 94           SJMP       sysreset_watchdog_go_state_11
                             sysreset_watchdog_exec_state_11                 XREF[1]:     CODE:12f8(j)  
       CODE:12be 20 0f 96        JB         g_requesting_reset,LAB_CODE_1257                           loop until reset statemachine
                                                                                                       is done executing
       CODE:12c1 02 12 1b        LJMP       sysreset_watchdog_go_state_0
       CODE:12c4 80 91           SJMP       LAB_CODE_1257
                             **************************************************************
                             *                          FUNCTION                          *
                             **************************************************************
                             undefined sysreset_watchdog_statemachine_exec()
             undefined         ACC:1          <RETURN>
                             sysreset_watchdog_statemachine_exec             XREF[1]:     FUN_CODE_0775:07ce(c)  
       CODE:12c6 20 0e 05        JB         g_sysreset_watchdog_should_run,LAB_CODE_12ce               = ??
       CODE:12c9 78 9c           MOV        R0,#0x9c
       CODE:12cb 76 00           MOV        @R0=>g_sysreset_watchdog_state,#0x0                        = ??
       CODE:12cd 22              RET
                             LAB_CODE_12ce                                   XREF[1]:     CODE:12c6(j)  
       CODE:12ce 78 9c           MOV        R0,#0x9c
       CODE:12d0 e6              MOV        A,@R0=>g_sysreset_watchdog_state                           = ??
       CODE:12d1 26              ADD        A,@R0=>g_sysreset_watchdog_state                           = ??
       CODE:12d2 26              ADD        A,@R0=>g_sysreset_watchdog_state                           = ??
       CODE:12d3 90 12 d7        MOV        DPTR,#0x12d7
       CODE:12d6 73              JMP        @A+DPTR
       CODE:12d7 02 11 b3        LJMP       LAB_CODE_11b3                                              run I2C commands on HANA
                                                                                                       and change powergood state
                                                                                                       (also goes to state 11
                                                                                                        if some flag is set)
       CODE:12da 02 11 c9        LJMP       LAB_CODE_11c9
       CODE:12dd 02 11 d4        LJMP       LAB_CODE_11d4                                              I2C stuff,
                                                                                                       set powergood signal
       CODE:12e0 02 11 ed        LJMP       LAB_CODE_11ed                                              hold GPU in reset
       CODE:12e3 02 11 f2        LJMP       LAB_CODE_11f2                                              release GPU reset
       CODE:12e6 02 11 f7        LJMP       LAB_CODE_11f7                                              de-assert southbridge reset
       CODE:12e9 02 11 ff        LJMP       LAB_CODE_11ff                                              wait for GPU_RESET_DONE
                                                                                                       and fail if it isn't active
       CODE:12ec 02 12 58        LJMP       LAB_CODE_1258                                              check something,
                                                                                                       deassert CPU reset,
                                                                                                       and load timeout
       CODE:12ef 02 12 79        LJMP       sysreset_watchdog_exec_state_8
       CODE:12f2 02 12 87        LJMP       sysreset_watchdog_exec_state_9
       CODE:12f5 02 12 a3        LJMP       sysreset_watchdog_exec_state_10                            boot timed out
       CODE:12f8 02 12 be        LJMP       sysreset_watchdog_exec_state_11                            wait for reset
                             LAB_CODE_12fb                                   XREF[4]:     CODE:1324(j), CODE:132c(j), 
                                                                                          CODE:1349(j), CODE:135c(j)  
       CODE:12fb 78 9f           MOV        R0,#0x9f
       CODE:12fd 76 00           MOV        @R0=>DAT_INTMEM_9f,#0x0                                    = ??
       CODE:12ff 22              RET
                             LAB_CODE_1300                                   XREF[1]:     CODE:1317(j)  
       CODE:1300 78 9f           MOV        R0,#0x9f
       CODE:1302 76 01           MOV        @R0=>DAT_INTMEM_9f,#0x1                                    = ??
       CODE:1304 22              RET
                             LAB_CODE_1305                                   XREF[1]:     CODE:1341(j)  
       CODE:1305 78 9f           MOV        R0,#0x9f
       CODE:1307 76 02           MOV        @R0=>DAT_INTMEM_9f,#0x2                                    = ??
       CODE:1309 22              RET
                             LAB_CODE_130a                                   XREF[3]:     CODE:133c(j), CODE:134e(j), 
                                                                                          CODE:1350(j)  
       CODE:130a 22              RET
                             LAB_CODE_130b                                   XREF[1]:     CODE:1367(j)  
       CODE:130b 75 5e 04        MOV        DAT_INTMEM_5e,#0x4                                         = ??
       CODE:130e 12 25 b4        LCALL      FUN_CODE_25b4                                              undefined FUN_CODE_25b4()
       CODE:1311 f5 5d           MOV        DAT_INTMEM_5d,A                                            = ??
       CODE:1313 65 2f           XRL        A,DAT_INTMEM_2f                                            = ??
       CODE:1315 54 5c           ANL        A,#0x5c
       CODE:1317 70 e7           JNZ        LAB_CODE_1300
       CODE:1319 e5 5d           MOV        A,DAT_INTMEM_5d                                            = ??
       CODE:131b 64 5c           XRL        A,#0x5c
       CODE:131d 54 5c           ANL        A,#0x5c
       CODE:131f 70 05           JNZ        LAB_CODE_1326
                             LAB_CODE_1321                                   XREF[1]:     CODE:1326(j)  
       CODE:1321 12 25 95        LCALL      FUN_CODE_2595                                              undefined FUN_CODE_2595()
       CODE:1324 80 d5           SJMP       LAB_CODE_12fb
                             LAB_CODE_1326                                   XREF[1]:     CODE:131f(j)  
       CODE:1326 30 55 f8        JNB        2a.5,LAB_CODE_1321                                         = ??
       CODE:1329 12 25 92        LCALL      FUN_CODE_2592                                              undefined FUN_CODE_2592()
       CODE:132c 80 cd           SJMP       LAB_CODE_12fb
                             LAB_CODE_132e                                   XREF[1]:     CODE:136a(j)  
       CODE:132e 85 5d f0        MOV        B,DAT_INTMEM_5d                                            = ??
       CODE:1331 12 25 b4        LCALL      FUN_CODE_25b4                                              undefined FUN_CODE_25b4()
       CODE:1334 f5 5d           MOV        DAT_INTMEM_5d,A                                            = ??
       CODE:1336 65 f0           XRL        A,B
       CODE:1338 54 5c           ANL        A,#0x5c
       CODE:133a 70 07           JNZ        LAB_CODE_1343
       CODE:133c d5 5e cb        DJNZ       DAT_INTMEM_5e,LAB_CODE_130a                                = ??
       CODE:133f d2 30           SETB       26.0                                                       = ??
       CODE:1341 80 c2           SJMP       LAB_CODE_1305
                             LAB_CODE_1343                                   XREF[1]:     CODE:133a(j)  
       CODE:1343 e5 5d           MOV        A,DAT_INTMEM_5d                                            = ??
       CODE:1345 65 2f           XRL        A,DAT_INTMEM_2f                                            = ??
       CODE:1347 54 5c           ANL        A,#0x5c
       CODE:1349 60 b0           JZ         LAB_CODE_12fb
       CODE:134b 75 5e 04        MOV        DAT_INTMEM_5e,#0x4                                         = ??
       CODE:134e 80 ba           SJMP       LAB_CODE_130a
                             LAB_CODE_1350                                   XREF[1]:     CODE:136d(j)  
       CODE:1350 20 30 b7        JB         26.0,LAB_CODE_130a                                         = ??
       CODE:1353 85 5d 2f        MOV        DAT_INTMEM_2f,DAT_INTMEM_5d                                = ??
       CODE:1356 d2 37           SETB       26.7                                                       = ??
       CODE:1358 d2 43           SETB       28.3                                                       = ??
       CODE:135a d2 48           SETB       29.0                                                       = ??
       CODE:135c 80 9d           SJMP       LAB_CODE_12fb
                             **************************************************************
                             *                          FUNCTION                          *
                             **************************************************************
                             undefined FUN_CODE_135e()
             undefined         ACC:1          <RETURN>
                             FUN_CODE_135e                                   XREF[1]:     FUN_CODE_0775:07b3(c)  
       CODE:135e 78 9f           MOV        R0,#0x9f
       CODE:1360 e6              MOV        A,@R0=>DAT_INTMEM_9f                                       = ??
       CODE:1361 26              ADD        A,@R0=>DAT_INTMEM_9f                                       = ??
       CODE:1362 26              ADD        A,@R0=>DAT_INTMEM_9f                                       = ??
       CODE:1363 90 13 67        MOV        DPTR,#0x1367
       CODE:1366 73              JMP        @A+DPTR
       CODE:1367 02 13 0b        LJMP       LAB_CODE_130b
       CODE:136a 02 13 2e        LJMP       LAB_CODE_132e
       CODE:136d 02 13 50        LJMP       LAB_CODE_1350
                             LAB_CODE_1370                                   XREF[2]:     CODE:13a4(j), CODE:13b6(j)  
       CODE:1370 78 a0           MOV        R0,#0xa0
       CODE:1372 76 00           MOV        @R0=>DAT_INTMEM_a0,#0x0                                    = ??
       CODE:1374 22              RET
                             LAB_CODE_1375                                   XREF[1]:     CODE:139f(j)  
       CODE:1375 78 a0           MOV        R0,#0xa0
       CODE:1377 76 01           MOV        @R0=>DAT_INTMEM_a0,#0x1                                    = ??
       CODE:1379 22              RET
                             LAB_CODE_137a                                   XREF[2]:     CODE:13a6(j), CODE:13b2(j)  
       CODE:137a 78 a0           MOV        R0,#0xa0
       CODE:137c 76 02           MOV        @R0=>DAT_INTMEM_a0,#0x2                                    = ??
       CODE:137e 22              RET
                             LAB_CODE_137f                                   XREF[1]:     CODE:13ab(j)  
       CODE:137f 78 a0           MOV        R0,#0xa0
       CODE:1381 76 03           MOV        @R0=>DAT_INTMEM_a0,#0x3                                    = ??
       CODE:1383 22              RET
                             LAB_CODE_1384                                   XREF[2]:     CODE:139d(j), CODE:13ad(j)  
       CODE:1384 22              RET
                             **************************************************************
                             *                          FUNCTION                          *
                             **************************************************************
                             undefined FUN_CODE_1385()
             undefined         ACC:1          <RETURN>
                             FUN_CODE_1385                                   XREF[1]:     FUN_CODE_0775:07ad(c)  
       CODE:1385 78 a0           MOV        R0,#0xa0
       CODE:1387 e6              MOV        A,@R0=>DAT_INTMEM_a0                                       = ??
       CODE:1388 26              ADD        A,@R0=>DAT_INTMEM_a0                                       = ??
       CODE:1389 26              ADD        A,@R0=>DAT_INTMEM_a0                                       = ??
       CODE:138a 90 13 8e        MOV        DPTR,#0x138e
       CODE:138d 73              JMP        @A+DPTR
       CODE:138e 02 13 9a        LJMP       LAB_CODE_139a
       CODE:1391 02 13 a1        LJMP       LAB_CODE_13a1
       CODE:1394 02 13 a8        LJMP       LAB_CODE_13a8
       CODE:1397 02 13 af        LJMP       LAB_CODE_13af
                             LAB_CODE_139a                                   XREF[1]:     CODE:138e(j)  
       CODE:139a 12 25 a6        LCALL      FUN_CODE_25a6                                              undefined FUN_CODE_25a6()
       CODE:139d 40 e5           JC         LAB_CODE_1384
       CODE:139f 80 d4           SJMP       LAB_CODE_1375
                             LAB_CODE_13a1                                   XREF[1]:     CODE:1391(j)  
       CODE:13a1 12 25 a6        LCALL      FUN_CODE_25a6                                              undefined FUN_CODE_25a6()
       CODE:13a4 40 ca           JC         LAB_CODE_1370
       CODE:13a6 80 d2           SJMP       LAB_CODE_137a
                             LAB_CODE_13a8                                   XREF[1]:     CODE:1394(j)  
       CODE:13a8 12 25 a6        LCALL      FUN_CODE_25a6                                              undefined FUN_CODE_25a6()
       CODE:13ab 40 d2           JC         LAB_CODE_137f
       CODE:13ad 80 d5           SJMP       LAB_CODE_1384
                             LAB_CODE_13af                                   XREF[1]:     CODE:1397(j)  
       CODE:13af 12 25 a6        LCALL      FUN_CODE_25a6                                              undefined FUN_CODE_25a6()
       CODE:13b2 50 c6           JNC        LAB_CODE_137a
       CODE:13b4 d2 41           SETB       28.1                                                       = ??
       CODE:13b6 80 b8           SJMP       LAB_CODE_1370
                             LAB_CODE_13b8                                   XREF[1]:     CODE:13fa(j)  
       CODE:13b8 78 a1           MOV        R0,#0xa1
       CODE:13ba 76 00           MOV        @R0=>DAT_INTMEM_a1,#0x0                                    = ??
       CODE:13bc 22              RET
                             LAB_CODE_13bd                                   XREF[2]:     CODE:13f5(j), CODE:13f7(j)  
       CODE:13bd 78 a1           MOV        R0,#0xa1
       CODE:13bf 76 01           MOV        @R0=>DAT_INTMEM_a1,#0x1                                    = ??
       CODE:13c1 22              RET
       CODE:13c2 22              RET
                             LAB_CODE_13c3                                   XREF[1]:     CODE:1405(j)  
       CODE:13c3 e5 3b           MOV        A,DAT_INTMEM_3b                                            = ??
       CODE:13c5 55 3c           ANL        A,DAT_INTMEM_3c                                            = ??
       CODE:13c7 70 05           JNZ        LAB_CODE_13ce
       CODE:13c9 12 00 f1        LCALL      dbg_led_off                                                undefined dbg_led_off()
       CODE:13cc 80 03           SJMP       LAB_CODE_13d1
                             LAB_CODE_13ce                                   XREF[1]:     CODE:13c7(j)  
       CODE:13ce 12 00 ee        LCALL      dbg_led_on                                                 undefined dbg_led_on()
                             LAB_CODE_13d1                                   XREF[1]:     CODE:13cc(j)  
       CODE:13d1 e5 3a           MOV        A,DAT_INTMEM_3a                                            = ??
       CODE:13d3 55 3c           ANL        A,DAT_INTMEM_3c                                            = ??
       CODE:13d5 70 05           JNZ        LAB_CODE_13dc
       CODE:13d7 12 00 ed        LCALL      FUN_CODE_00ed                                              undefined FUN_CODE_00ed()
       CODE:13da 80 03           SJMP       LAB_CODE_13df
                             LAB_CODE_13dc                                   XREF[1]:     CODE:13d5(j)  
       CODE:13dc 12 00 ec        LCALL      FUN_CODE_00ec                                              undefined FUN_CODE_00ec()
                             LAB_CODE_13df                                   XREF[1]:     CODE:13da(j)  
       CODE:13df e5 39           MOV        A,DAT_INTMEM_39                                            = ??
       CODE:13e1 55 3c           ANL        A,DAT_INTMEM_3c                                            = ??
       CODE:13e3 70 05           JNZ        LAB_CODE_13ea
       CODE:13e5 12 00 eb        LCALL      FUN_CODE_00eb                                              undefined FUN_CODE_00eb()
       CODE:13e8 80 03           SJMP       LAB_CODE_13ed
                             LAB_CODE_13ea                                   XREF[1]:     CODE:13e3(j)  
       CODE:13ea 12 00 ea        LCALL      FUN_CODE_00ea                                              undefined FUN_CODE_00ea()
                             LAB_CODE_13ed                                   XREF[1]:     CODE:13e8(j)  
       CODE:13ed e5 3c           MOV        A,DAT_INTMEM_3c                                            = ??
       CODE:13ef 03              RR         A
       CODE:13f0 f5 3c           MOV        DAT_INTMEM_3c,A                                            = ??
       CODE:13f2 75 38 05        MOV        DAT_INTMEM_38,#0x5                                         = ??
       CODE:13f5 80 c6           SJMP       LAB_CODE_13bd
                             LAB_CODE_13f7                                   XREF[1]:     CODE:1408(j)  
       CODE:13f7 d5 38 c3        DJNZ       DAT_INTMEM_38,LAB_CODE_13bd                                = ??
       CODE:13fa 80 bc           SJMP       LAB_CODE_13b8
                             **************************************************************
                             *                          FUNCTION                          *
                             **************************************************************
                             undefined dbg_led_statemachine()
             undefined         ACC:1          <RETURN>
                             dbg_led_statemachine                            XREF[1]:     FUN_CODE_0775:07c2(c)  
       CODE:13fc 78 a1           MOV        R0,#0xa1
       CODE:13fe e6              MOV        A,@R0=>DAT_INTMEM_a1                                       = ??
       CODE:13ff 26              ADD        A,@R0=>DAT_INTMEM_a1                                       = ??
       CODE:1400 26              ADD        A,@R0=>DAT_INTMEM_a1                                       = ??
       CODE:1401 90 14 05        MOV        DPTR,#0x1405
       CODE:1404 73              JMP        @A+DPTR
       CODE:1405 02 13 c3        LJMP       LAB_CODE_13c3
       CODE:1408 02 13 f7        LJMP       LAB_CODE_13f7
                             LAB_CODE_140b                                   XREF[1]:     CODE:14ae(j)  
       CODE:140b 12 25 d2        LCALL      FUN_CODE_25d2                                              undefined FUN_CODE_25d2()
       CODE:140e 40 05           JC         LAB_CODE_1415
       CODE:1410 12 25 ce        LCALL      FUN_CODE_25ce                                              undefined FUN_CODE_25ce()
       CODE:1413 80 05           SJMP       LAB_CODE_141a
                             LAB_CODE_1415                                   XREF[3]:     CODE:140e(j), CODE:143d(j), 
                                                                                          CODE:14a2(j)  
       CODE:1415 78 a2           MOV        R0,#0xa2
       CODE:1417 76 00           MOV        @R0=>DAT_INTMEM_a2,#0x0                                    = ??
       CODE:1419 22              RET
                             LAB_CODE_141a                                   XREF[1]:     CODE:1413(j)  
       CODE:141a 78 a2           MOV        R0,#0xa2
       CODE:141c 76 01           MOV        @R0=>DAT_INTMEM_a2,#0x1                                    = ??
       CODE:141e 22              RET
                             LAB_CODE_141f                                   XREF[1]:     CODE:1472(j)  
       CODE:141f 78 a2           MOV        R0,#0xa2
       CODE:1421 76 02           MOV        @R0=>DAT_INTMEM_a2,#0x2                                    = ??
       CODE:1423 22              RET
                             LAB_CODE_1424                                   XREF[6]:     CODE:142c(j), CODE:143f(j), 
                                                                                          CODE:146e(j), CODE:1499(j), 
                                                                                          CODE:149b(j), CODE:14a0(j)  
       CODE:1424 22              RET
                             LAB_CODE_1425                                   XREF[1]:     CODE:14b1(j)  
       CODE:1425 12 25 d2        LCALL      FUN_CODE_25d2                                              undefined FUN_CODE_25d2()
       CODE:1428 40 04           JC         LAB_CODE_142e
       CODE:142a 70 15           JNZ        LAB_CODE_1441
       CODE:142c 80 f6           SJMP       LAB_CODE_1424
                             LAB_CODE_142e                                   XREF[1]:     CODE:1428(j)  
       CODE:142e d2 d5           SETB       F0                                                         = ??
       CODE:1430 c2 d1           CLR        UD                                                         = ??
       CODE:1432 b4 df 02        CJNE       A,#0xdf,LAB_CODE_1437
       CODE:1435 80 06           SJMP       LAB_CODE_143d
                             LAB_CODE_1437                                   XREF[1]:     CODE:1432(j)  
       CODE:1437 c2 d5           CLR        F0                                                         = ??
       CODE:1439 92 d1           MOV        UD,CY                                                      = ??
       CODE:143b b2 d1           CPL        UD                                                         = ??
                             LAB_CODE_143d                                   XREF[1]:     CODE:1435(j)  
       CODE:143d 50 d6           JNC        LAB_CODE_1415
       CODE:143f 80 e3           SJMP       LAB_CODE_1424
                             LAB_CODE_1441                                   XREF[1]:     CODE:142a(j)  
       CODE:1441 12 25 ce        LCALL      FUN_CODE_25ce                                              undefined FUN_CODE_25ce()
       CODE:1444 d2 d5           SETB       F0                                                         = ??
       CODE:1446 c2 d1           CLR        UD                                                         = ??
       CODE:1448 b4 48 02        CJNE       A,#0x48,LAB_CODE_144d
       CODE:144b 80 06           SJMP       LAB_CODE_1453
                             LAB_CODE_144d                                   XREF[1]:     CODE:1448(j)  
       CODE:144d c2 d5           CLR        F0                                                         = ??
       CODE:144f 92 d1           MOV        UD,CY                                                      = ??
       CODE:1451 b2 d1           CPL        UD                                                         = ??
                             LAB_CODE_1453                                   XREF[1]:     CODE:144b(j)  
       CODE:1453 20 d1 1e        JB         UD,LAB_CODE_1474                                           = ??
       CODE:1456 d2 d5           SETB       F0                                                         = ??
       CODE:1458 c2 d1           CLR        UD                                                         = ??
       CODE:145a b4 08 02        CJNE       A,#0x8,LAB_CODE_145f
       CODE:145d 80 06           SJMP       LAB_CODE_1465
                             LAB_CODE_145f                                   XREF[1]:     CODE:145a(j)  
       CODE:145f c2 d5           CLR        F0                                                         = ??
       CODE:1461 92 d1           MOV        UD,CY                                                      = ??
       CODE:1463 b2 d1           CPL        UD                                                         = ??
                             LAB_CODE_1465                                   XREF[1]:     CODE:145d(j)  
       CODE:1465 40 0d           JC         LAB_CODE_1474
       CODE:1467 e5 2f           MOV        A,DAT_INTMEM_2f                                            = ??
       CODE:1469 20 e5 04        JB         ACC.5,LAB_CODE_1470                                        = ??
       CODE:146c d2 0a           SETB       21.2                                                       = ??
       CODE:146e 80 b4           SJMP       LAB_CODE_1424
                             LAB_CODE_1470                                   XREF[1]:     CODE:1469(j)  
       CODE:1470 d2 31           SETB       26.1                                                       = ??
       CODE:1472 80 ab           SJMP       LAB_CODE_141f
                             LAB_CODE_1474                                   XREF[2]:     CODE:1453(j), CODE:1465(j)  
       CODE:1474 d2 d5           SETB       F0                                                         = ??
       CODE:1476 c2 d1           CLR        UD                                                         = ??
       CODE:1478 b4 de 02        CJNE       A,#0xde,LAB_CODE_147d
       CODE:147b 80 06           SJMP       LAB_CODE_1483
                             LAB_CODE_147d                                   XREF[1]:     CODE:1478(j)  
       CODE:147d c2 d5           CLR        F0                                                         = ??
       CODE:147f 92 d1           MOV        UD,CY                                                      = ??
       CODE:1481 b2 d1           CPL        UD                                                         = ??
                             LAB_CODE_1483                                   XREF[1]:     CODE:147b(j)  
       CODE:1483 20 d1 15        JB         UD,LAB_CODE_149b                                           = ??
       CODE:1486 d2 d5           SETB       F0                                                         = ??
       CODE:1488 c2 d1           CLR        UD                                                         = ??
       CODE:148a b4 58 02        CJNE       A,#0x58,LAB_CODE_148f
       CODE:148d 80 06           SJMP       LAB_CODE_1495
                             LAB_CODE_148f                                   XREF[1]:     CODE:148a(j)  
       CODE:148f c2 d5           CLR        F0                                                         = ??
       CODE:1491 92 d1           MOV        UD,CY                                                      = ??
       CODE:1493 b2 d1           CPL        UD                                                         = ??
                             LAB_CODE_1495                                   XREF[1]:     CODE:148d(j)  
       CODE:1495 40 04           JC         LAB_CODE_149b
       CODE:1497 d2 0b           SETB       21.3                                                       = ??
       CODE:1499 80 89           SJMP       LAB_CODE_1424
                             LAB_CODE_149b                                   XREF[2]:     CODE:1483(j), CODE:1495(j)  
       CODE:149b 80 87           SJMP       LAB_CODE_1424
                             LAB_CODE_149d                                   XREF[1]:     CODE:14b4(j)  
       CODE:149d 30 31 02        JNB        26.1,LAB_CODE_14a2                                         = ??
       CODE:14a0 80 82           SJMP       LAB_CODE_1424
                             LAB_CODE_14a2                                   XREF[1]:     CODE:149d(j)  
       CODE:14a2 02 14 15        LJMP       LAB_CODE_1415
                             **************************************************************
                             *                          FUNCTION                          *
                             **************************************************************
                             undefined FUN_CODE_14a5()
             undefined         ACC:1          <RETURN>
                             FUN_CODE_14a5                                   XREF[1]:     FUN_CODE_0775:07a7(c)  
       CODE:14a5 78 a2           MOV        R0,#0xa2
       CODE:14a7 e6              MOV        A,@R0=>DAT_INTMEM_a2                                       = ??
       CODE:14a8 26              ADD        A,@R0=>DAT_INTMEM_a2                                       = ??
       CODE:14a9 26              ADD        A,@R0=>DAT_INTMEM_a2                                       = ??
       CODE:14aa 90 14 ae        MOV        DPTR,#0x14ae
       CODE:14ad 73              JMP        @A+DPTR
       CODE:14ae 02 14 0b        LJMP       LAB_CODE_140b
       CODE:14b1 02 14 25        LJMP       LAB_CODE_1425
       CODE:14b4 02 14 9d        LJMP       LAB_CODE_149d
                             LAB_CODE_14b7                                   XREF[1]:     CODE:14ca(j)  
       CODE:14b7 02 15 7a        LJMP       LAB_CODE_157a
                             **************************************************************
                             *                          FUNCTION                          *
                             **************************************************************
                             undefined FUN_CODE_14ba()
             undefined         ACC:1          <RETURN>
                             FUN_CODE_14ba                                   XREF[1]:     FUN_CODE_0775:07bf(c)  
       CODE:14ba 20 17 0d        JB         22.7,LAB_CODE_14ca                                         = ??
       CODE:14bd 75 56 42        MOV        DAT_INTMEM_56,#0x42                                        = ??
       CODE:14c0 75 55 0f        MOV        DAT_INTMEM_55,#0xf                                         = ??
       CODE:14c3 7a 00           MOV        R2,#0x0
       CODE:14c5 7b 00           MOV        R3,#0x0
       CODE:14c7 02 15 ac        LJMP       LAB_CODE_15ac
                             LAB_CODE_14ca                                   XREF[1]:     CODE:14ba(j)  
       CODE:14ca d5 55 ea        DJNZ       DAT_INTMEM_55,LAB_CODE_14b7                                = ??
       CODE:14cd 75 55 32        MOV        DAT_INTMEM_55,#0x32                                        = ??
       CODE:14d0 d2 4f           SETB       29.7                                                       = ??
       CODE:14d2 e5 40           MOV        A,DAT_INTMEM_40                                            = ??
       CODE:14d4 24 c3           ADD        A,#0xc3
       CODE:14d6 40 0e           JC         LAB_CODE_14e6
       CODE:14d8 e5 42           MOV        A,DAT_INTMEM_42                                            = ??
       CODE:14da 24 b9           ADD        A,#0xb9
       CODE:14dc 40 08           JC         LAB_CODE_14e6
       CODE:14de e5 44           MOV        A,DAT_INTMEM_44                                            = ??
       CODE:14e0 24 b9           ADD        A,#0xb9
       CODE:14e2 40 02           JC         LAB_CODE_14e6
       CODE:14e4 c2 4f           CLR        29.7                                                       = ??
                             LAB_CODE_14e6                                   XREF[3]:     CODE:14d6(j), CODE:14dc(j), 
                                                                                          CODE:14e2(j)  
       CODE:14e6 d2 50           SETB       2a.0                                                       = ??
       CODE:14e8 7a 05           MOV        R2,#0x5
       CODE:14ea 7b 05           MOV        R3,#0x5
       CODE:14ec c3              CLR        CY
       CODE:14ed e5 40           MOV        A,DAT_INTMEM_40                                            = ??
       CODE:14ef 95 50           SUBB       A,DAT_INTMEM_50                                            = ??
       CODE:14f1 50 18           JNC        LAB_CODE_150b
       CODE:14f3 7a 06           MOV        R2,#0x6
       CODE:14f5 7b 06           MOV        R3,#0x6
       CODE:14f7 c3              CLR        CY
       CODE:14f8 e5 42           MOV        A,DAT_INTMEM_42                                            = ??
       CODE:14fa 95 51           SUBB       A,DAT_INTMEM_51                                            = ??
       CODE:14fc 50 0d           JNC        LAB_CODE_150b
       CODE:14fe 7a 07           MOV        R2,#0x7
       CODE:1500 7b 07           MOV        R3,#0x7
       CODE:1502 c3              CLR        CY
       CODE:1503 e5 44           MOV        A,DAT_INTMEM_44                                            = ??
       CODE:1505 95 52           SUBB       A,DAT_INTMEM_52                                            = ??
       CODE:1507 50 02           JNC        LAB_CODE_150b
       CODE:1509 c2 50           CLR        2a.0                                                       = ??
                             LAB_CODE_150b                                   XREF[3]:     CODE:14f1(j), CODE:14fc(j), 
                                                                                          CODE:1507(j)  
       CODE:150b 20 1d 6c        JB         23.5,LAB_CODE_157a                                         = ??
       CODE:150e 30 50 0f        JNB        2a.0,LAB_CODE_1520                                         = ??
       CODE:1511 d2 1d           SETB       23.5                                                       = ??
       CODE:1513 8a 59           MOV        DAT_INTMEM_59,R2                                           = ??
       CODE:1515 8b 5b           MOV        DAT_INTMEM_5b,R3                                           = ??
       CODE:1517 75 5a 00        MOV        DAT_INTMEM_5a,#0x0                                         = ??
       CODE:151a d2 46           SETB       28.6                                                       = ??
       CODE:151c d2 33           SETB       26.3                                                       = ??
       CODE:151e 80 5a           SJMP       LAB_CODE_157a
                             LAB_CODE_1520                                   XREF[1]:     CODE:150e(j)  
       CODE:1520 12 15 b5        LCALL      FUN_CODE_15b5                                              undefined FUN_CODE_15b5()
       CODE:1523 e5 48           MOV        A,DAT_INTMEM_48                                            = ??
       CODE:1525 60 53           JZ         LAB_CODE_157a
       CODE:1527 e5 4a           MOV        A,DAT_INTMEM_4a                                            = ??
       CODE:1529 60 4f           JZ         LAB_CODE_157a
       CODE:152b e5 4c           MOV        A,DAT_INTMEM_4c                                            = ??
       CODE:152d 60 4b           JZ         LAB_CODE_157a
       CODE:152f 78 3f           MOV        R0,#0x3f
       CODE:1531 79 47           MOV        R1,#0x47
       CODE:1533 aa 4d           MOV        R2,DAT_INTMEM_4d                                           = ??
       CODE:1535 12 16 26        LCALL      FUN_CODE_1626                                              undefined FUN_CODE_1626()
       CODE:1538 79 b2           MOV        R1,#0xb2
       CODE:153a 12 16 5e        LCALL      FUN_CODE_165e                                              undefined FUN_CODE_165e()
       CODE:153d 78 41           MOV        R0,#0x41
       CODE:153f 79 49           MOV        R1,#0x49
       CODE:1541 aa 4e           MOV        R2,DAT_INTMEM_4e                                           = ??
       CODE:1543 12 16 26        LCALL      FUN_CODE_1626                                              undefined FUN_CODE_1626()
       CODE:1546 79 b4           MOV        R1,#0xb4
       CODE:1548 12 16 5e        LCALL      FUN_CODE_165e                                              undefined FUN_CODE_165e()
       CODE:154b 78 43           MOV        R0,#0x43
       CODE:154d 79 4b           MOV        R1,#0x4b
       CODE:154f aa 4f           MOV        R2,DAT_INTMEM_4f                                           = ??
       CODE:1551 12 16 26        LCALL      FUN_CODE_1626                                              undefined FUN_CODE_1626()
       CODE:1554 79 b6           MOV        R1,#0xb6
       CODE:1556 12 16 5e        LCALL      FUN_CODE_165e                                              undefined FUN_CODE_165e()
       CODE:1559 78 b2           MOV        R0,#0xb2
       CODE:155b 79 b4           MOV        R1,#0xb4
       CODE:155d 12 17 26        LCALL      FUN_CODE_1726                                              undefined FUN_CODE_1726()
       CODE:1560 79 b6           MOV        R1,#0xb6
       CODE:1562 12 17 26        LCALL      FUN_CODE_1726                                              undefined FUN_CODE_1726()
       CODE:1565 79 b2           MOV        R1,#0xb2
       CODE:1567 12 17 3d        LCALL      FUN_CODE_173d                                              undefined FUN_CODE_173d()
       CODE:156a 79 b4           MOV        R1,#0xb4
       CODE:156c 12 17 3d        LCALL      FUN_CODE_173d                                              undefined FUN_CODE_173d()
       CODE:156f 79 b6           MOV        R1,#0xb6
       CODE:1571 12 17 3d        LCALL      FUN_CODE_173d                                              undefined FUN_CODE_173d()
       CODE:1574 08              INC        R0
       CODE:1575 e5 56           MOV        A,DAT_INTMEM_56                                            = ??
       CODE:1577 26              ADD        A,@R0=>DAT_INTMEM_b3                                       = ??
       CODE:1578 f5 56           MOV        DAT_INTMEM_56,A                                            = ??
                             LAB_CODE_157a                                   XREF[6]:     CODE:14b7(j), CODE:150b(j), 
                                                                                          CODE:151e(j), CODE:1525(j), 
                                                                                          CODE:1529(j), CODE:152d(j)  
       CODE:157a 7a 64           MOV        R2,#0x64
       CODE:157c 7b 64           MOV        R3,#0x64
       CODE:157e 20 4d 2b        JB         29.5,LAB_CODE_15ac                                         = ??
       CODE:1581 20 1d 28        JB         23.5,LAB_CODE_15ac                                         = ??
       CODE:1584 aa 56           MOV        R2,DAT_INTMEM_56                                           = ??
       CODE:1586 85 57 f0        MOV        B,DAT_INTMEM_57                                            = ??
       CODE:1589 30 f7 0c        JNB        B.7,LAB_CODE_1598                                          = ??
       CODE:158c c2 f7           CLR        B.7                                                        = ??
       CODE:158e aa f0           MOV        R2,B
       CODE:1590 74 9b           MOV        A,#0x9b
       CODE:1592 25 f0           ADD        A,B
       CODE:1594 50 02           JNC        LAB_CODE_1598
       CODE:1596 7a 64           MOV        R2,#0x64
                             LAB_CODE_1598                                   XREF[2]:     CODE:1589(j), CODE:1594(j)  
       CODE:1598 ab 56           MOV        R3,DAT_INTMEM_56                                           = ??
       CODE:159a 85 58 f0        MOV        B,DAT_INTMEM_58                                            = ??
       CODE:159d 30 f7 0c        JNB        B.7,LAB_CODE_15ac                                          = ??
       CODE:15a0 c2 f7           CLR        B.7                                                        = ??
       CODE:15a2 ab f0           MOV        R3,B
       CODE:15a4 74 9b           MOV        A,#0x9b
       CODE:15a6 25 f0           ADD        A,B
       CODE:15a8 50 02           JNC        LAB_CODE_15ac
       CODE:15aa 7b 64           MOV        R3,#0x64
                             LAB_CODE_15ac                                   XREF[5]:     CODE:14c7(j), CODE:157e(j), 
                                                                                          CODE:1581(j), CODE:159d(j), 
                                                                                          CODE:15a8(j)  
       CODE:15ac ea              MOV        A,R2
       CODE:15ad 12 25 9b        LCALL      FUN_CODE_259b                                              undefined FUN_CODE_259b()
       CODE:15b0 eb              MOV        A,R3
       CODE:15b1 12 25 98        LCALL      FUN_CODE_2598                                              undefined FUN_CODE_2598()
       CODE:15b4 22              RET
                             **************************************************************
                             *                          FUNCTION                          *
                             **************************************************************
                             undefined FUN_CODE_15b5()
             undefined         ACC:1          <RETURN>
                             FUN_CODE_15b5                                   XREF[1]:     FUN_CODE_14ba:1520(c)  
       CODE:15b5 e5 46           MOV        A,DAT_INTMEM_46                                            = ??
       CODE:15b7 30 4e 04        JNB        29.6,LAB_CODE_15be                                         = ??
       CODE:15ba 24 ea           ADD        A,#0xea
       CODE:15bc 50 06           JNC        LAB_CODE_15c4
                             LAB_CODE_15be                                   XREF[1]:     CODE:15b7(j)  
       CODE:15be fa              MOV        R2,A
       CODE:15bf 24 df           ADD        A,#0xdf
       CODE:15c1 fb              MOV        R3,A
       CODE:15c2 40 04           JC         LAB_CODE_15c8
                             LAB_CODE_15c4                                   XREF[1]:     CODE:15bc(j)  
       CODE:15c4 74 2c           MOV        A,#0x2c
       CODE:15c6 80 25           SJMP       LAB_CODE_15ed
                             LAB_CODE_15c8                                   XREF[1]:     CODE:15c2(j)  
       CODE:15c8 ea              MOV        A,R2
       CODE:15c9 24 c8           ADD        A,#0xc8
       CODE:15cb 50 04           JNC        LAB_CODE_15d1
       CODE:15cd 74 64           MOV        A,#0x64
       CODE:15cf 80 1c           SJMP       LAB_CODE_15ed
                             LAB_CODE_15d1                                   XREF[1]:     CODE:15cb(j)  
       CODE:15d1 90 15 f0        MOV        DPTR,#0x15f0
       CODE:15d4 ea              MOV        A,R2
       CODE:15d5 24 cc           ADD        A,#0xcc
       CODE:15d7 92 d5           MOV        F0,CY                                                      = ??
       CODE:15d9 50 04           JNC        LAB_CODE_15df
       CODE:15db fb              MOV        R3,A
       CODE:15dc 90 16 16        MOV        DPTR,#0x1616
                             LAB_CODE_15df                                   XREF[1]:     CODE:15d9(j)  
       CODE:15df 85 45 f0        MOV        B,DAT_INTMEM_45                                            = ??
       CODE:15e2 a2 f7           MOV        CY,B.7                                                     = ??
       CODE:15e4 eb              MOV        A,R3
       CODE:15e5 33              RLC        A
       CODE:15e6 30 d5 03        JNB        F0,LAB_CODE_15ec                                           = ??
       CODE:15e9 a2 f6           MOV        CY,B.6                                                     = ??
       CODE:15eb 33              RLC        A
                             LAB_CODE_15ec                                   XREF[1]:     CODE:15e6(j)  
       CODE:15ec 93              MOVC       A,@A+DPTR=>DAT_CODE_1616                                   = 49h    I
                             LAB_CODE_15ed                                   XREF[2]:     CODE:15c6(j), CODE:15cf(j)  
       CODE:15ed f5 56           MOV        DAT_INTMEM_56,A                                            = ??
       CODE:15ef 22              RET
       CODE:15f0 2c              ??         2Ch    ,
       CODE:15f1 2d              ??         2Dh    -
       CODE:15f2 2d              ??         2Dh    -
       CODE:15f3 2e              ??         2Eh    .
       CODE:15f4 2f              ??         2Fh    /
       CODE:15f5 30              ??         30h    0
       CODE:15f6 31              ??         31h    1
       CODE:15f7 31              ??         31h    1
       CODE:15f8 32              ??         32h    2
       CODE:15f9 33              ??         33h    3
       CODE:15fa 33              ??         33h    3
       CODE:15fb 33              ??         33h    3
       CODE:15fc 34              ??         34h    4
       CODE:15fd 34              ??         34h    4
       CODE:15fe 35              ??         35h    5
       CODE:15ff 35              ??         35h    5
       CODE:1600 36              ??         36h    6
       CODE:1601 37              ??         37h    7
       CODE:1602 37              ??         37h    7
       CODE:1603 38              ??         38h    8
       CODE:1604 39              ??         39h    9
       CODE:1605 39              ??         39h    9
       CODE:1606 3a              ??         3Ah    :
       CODE:1607 3b              ??         3Bh    ;
       CODE:1608 3b              ??         3Bh    ;
       CODE:1609 3c              ??         3Ch    <
       CODE:160a 3d              ??         3Dh    =
       CODE:160b 3e              ??         3Eh    >
       CODE:160c 3e              ??         3Eh    >
       CODE:160d 3f              ??         3Fh    ?
       CODE:160e 40              ??         40h    @
       CODE:160f 41              ??         41h    A
       CODE:1610 42              ??         42h    B
       CODE:1611 43              ??         43h    C
       CODE:1612 45              ??         45h    E
       CODE:1613 46              ??         46h    F
       CODE:1614 47              ??         47h    G
       CODE:1615 48              ??         48h    H
                             DAT_CODE_1616                                   XREF[1]:     FUN_CODE_15b5:15ec(*)  
       CODE:1616 49              ??         49h    I
       CODE:1617 4a              ??         4Ah    J
       CODE:1618 4b              ??         4Bh    K
       CODE:1619 4c              ??         4Ch    L
       CODE:161a 4e              ??         4Eh    N
       CODE:161b 4f              ??         4Fh    O
       CODE:161c 51              ??         51h    Q
       CODE:161d 53              ??         53h    S
       CODE:161e 55              ??         55h    U
       CODE:161f 58              ??         58h    X
       CODE:1620 5a              ??         5Ah    Z
       CODE:1621 5e              ??         5Eh    ^
       CODE:1622 61              ??         61h    a
       CODE:1623 64              ??         64h    d
       CODE:1624 64              ??         64h    d
       CODE:1625 64              ??         64h    d
                             **************************************************************
                             *                          FUNCTION                          *
                             **************************************************************
                             undefined FUN_CODE_1626()
             undefined         ACC:1          <RETURN>
                             FUN_CODE_1626                                   XREF[3]:     FUN_CODE_14ba:1535(c), 
                                                                                          FUN_CODE_14ba:1543(c), 
                                                                                          FUN_CODE_14ba:1551(c)  
       CODE:1626 c3              CLR        CY
       CODE:1627 e6              MOV        A,@R0
       CODE:1628 87 f0           MOV        B,@R1
       CODE:162a 95 f0           SUBB       A,B
       CODE:162c fc              MOV        R4,A
       CODE:162d 08              INC        R0
       CODE:162e 09              INC        R1
       CODE:162f e6              MOV        A,@R0
       CODE:1630 87 f0           MOV        B,@R1
       CODE:1632 95 f0           SUBB       A,B
       CODE:1634 fd              MOV        R5,A
       CODE:1635 18              DEC        R0
       CODE:1636 a2 e7           MOV        CY,ACC.7                                                   = ??
       CODE:1638 92 d5           MOV        F0,CY                                                      = ??
       CODE:163a 50 0a           JNC        LAB_CODE_1646
       CODE:163c ec              MOV        A,R4
       CODE:163d f4              CPL        A
       CODE:163e 24 01           ADD        A,#0x1
       CODE:1640 fc              MOV        R4,A
       CODE:1641 ed              MOV        A,R5
       CODE:1642 f4              CPL        A
       CODE:1643 34 00           ADDC       A,#0x0
       CODE:1645 fd              MOV        R5,A
                             LAB_CODE_1646                                   XREF[1]:     CODE:163a(j)  
       CODE:1646 e6              MOV        A,@R0
       CODE:1647 fe              MOV        R6,A
       CODE:1648 c3              CLR        CY
       CODE:1649 08              INC        R0
       CODE:164a e6              MOV        A,@R0
       CODE:164b 9a              SUBB       A,R2
       CODE:164c ff              MOV        R7,A
       CODE:164d a2 e7           MOV        CY,ACC.7                                                   = ??
       CODE:164f 92 d1           MOV        UD,CY                                                      = ??
       CODE:1651 50 0a           JNC        LAB_CODE_165d
       CODE:1653 ee              MOV        A,R6
       CODE:1654 f4              CPL        A
       CODE:1655 24 01           ADD        A,#0x1
       CODE:1657 fe              MOV        R6,A
       CODE:1658 ef              MOV        A,R7
       CODE:1659 f4              CPL        A
       CODE:165a 34 00           ADDC       A,#0x0
       CODE:165c ff              MOV        R7,A
                             LAB_CODE_165d                                   XREF[1]:     CODE:1651(j)  
       CODE:165d 22              RET
                             **************************************************************
                             *                          FUNCTION                          *
                             **************************************************************
                             undefined FUN_CODE_165e()
             undefined         ACC:1          <RETURN>
                             FUN_CODE_165e                                   XREF[3]:     FUN_CODE_14ba:153a(c), 
                                                                                          FUN_CODE_14ba:1548(c), 
                                                                                          FUN_CODE_14ba:1556(c)  
       CODE:165e ef              MOV        A,R7
       CODE:165f 24 fb           ADD        A,#0xfb
       CODE:1661 20 d1 21        JB         UD,LAB_CODE_1685                                           = ??
       CODE:1664 7a 16           MOV        R2,#0x16
       CODE:1666 50 02           JNC        LAB_CODE_166a
       CODE:1668 7a 4b           MOV        R2,#0x4b
                             LAB_CODE_166a                                   XREF[1]:     CODE:1666(j)  
       CODE:166a ee              MOV        A,R6
       CODE:166b 8a f0           MOV        B,R2
       CODE:166d a4              MUL        AB
       CODE:166e e5 f0           MOV        A,B
       CODE:1670 27              ADD        A,@R1
       CODE:1671 f7              MOV        @R1,A
       CODE:1672 50 03           JNC        LAB_CODE_1677
       CODE:1674 09              INC        R1
       CODE:1675 07              INC        @R1
       CODE:1676 19              DEC        R1
                             LAB_CODE_1677                                   XREF[1]:     CODE:1672(j)  
       CODE:1677 ef              MOV        A,R7
       CODE:1678 8a f0           MOV        B,R2
       CODE:167a a4              MUL        AB
       CODE:167b 27              ADD        A,@R1
       CODE:167c f7              MOV        @R1,A
       CODE:167d 09              INC        R1
       CODE:167e e5 f0           MOV        A,B
       CODE:1680 37              ADDC       A,@R1
       CODE:1681 f7              MOV        @R1,A
       CODE:1682 19              DEC        R1
       CODE:1683 80 23           SJMP       LAB_CODE_16a8
                             LAB_CODE_1685                                   XREF[1]:     CODE:1661(j)  
       CODE:1685 7a 07           MOV        R2,#0x7
       CODE:1687 50 02           JNC        LAB_CODE_168b
       CODE:1689 7a 07           MOV        R2,#0x7
                             LAB_CODE_168b                                   XREF[1]:     CODE:1687(j)  
       CODE:168b ee              MOV        A,R6
       CODE:168c 8a f0           MOV        B,R2
       CODE:168e a4              MUL        AB
       CODE:168f c3              CLR        CY
       CODE:1690 e7              MOV        A,@R1
       CODE:1691 95 f0           SUBB       A,B
       CODE:1693 f7              MOV        @R1,A
       CODE:1694 50 03           JNC        LAB_CODE_1699
       CODE:1696 09              INC        R1
       CODE:1697 17              DEC        @R1
       CODE:1698 19              DEC        R1
                             LAB_CODE_1699                                   XREF[1]:     CODE:1694(j)  
       CODE:1699 ef              MOV        A,R7
       CODE:169a 8a f0           MOV        B,R2
       CODE:169c a4              MUL        AB
       CODE:169d c3              CLR        CY
       CODE:169e fe              MOV        R6,A
       CODE:169f e7              MOV        A,@R1
       CODE:16a0 9e              SUBB       A,R6
       CODE:16a1 f7              MOV        @R1,A
       CODE:16a2 09              INC        R1
       CODE:16a3 e7              MOV        A,@R1
       CODE:16a4 95 f0           SUBB       A,B
       CODE:16a6 f7              MOV        @R1,A
       CODE:16a7 19              DEC        R1
                             LAB_CODE_16a8                                   XREF[1]:     CODE:1683(j)  
       CODE:16a8 30 d1 07        JNB        UD,LAB_CODE_16b2                                           = ??
       CODE:16ab ef              MOV        A,R7
       CODE:16ac 24 eb           ADD        A,#0xeb
       CODE:16ae 50 02           JNC        LAB_CODE_16b2
       CODE:16b0 80 4d           SJMP       LAB_CODE_16ff
                             LAB_CODE_16b2                                   XREF[2]:     CODE:16a8(j), CODE:16ae(j)  
       CODE:16b2 ed              MOV        A,R5
       CODE:16b3 24 fe           ADD        A,#0xfe
       CODE:16b5 50 04           JNC        LAB_CODE_16bb
       CODE:16b7 7d 02           MOV        R5,#0x2
       CODE:16b9 7c 00           MOV        R4,#0x0
                             LAB_CODE_16bb                                   XREF[1]:     CODE:16b5(j)  
       CODE:16bb c3              CLR        CY
       CODE:16bc ec              MOV        A,R4
       CODE:16bd 33              RLC        A
       CODE:16be fc              MOV        R4,A
       CODE:16bf ed              MOV        A,R5
       CODE:16c0 33              RLC        A
       CODE:16c1 fd              MOV        R5,A
       CODE:16c2 7a c8           MOV        R2,#0xc8
       CODE:16c4 20 d5 1b        JB         F0,LAB_CODE_16e2                                           = ??
       CODE:16c7 ec              MOV        A,R4
       CODE:16c8 8a f0           MOV        B,R2
       CODE:16ca a4              MUL        AB
       CODE:16cb e5 f0           MOV        A,B
       CODE:16cd 27              ADD        A,@R1
       CODE:16ce f7              MOV        @R1,A
       CODE:16cf 50 03           JNC        LAB_CODE_16d4
       CODE:16d1 09              INC        R1
       CODE:16d2 07              INC        @R1
       CODE:16d3 19              DEC        R1
                             LAB_CODE_16d4                                   XREF[1]:     CODE:16cf(j)  
       CODE:16d4 ed              MOV        A,R5
       CODE:16d5 8a f0           MOV        B,R2
       CODE:16d7 a4              MUL        AB
       CODE:16d8 27              ADD        A,@R1
       CODE:16d9 f7              MOV        @R1,A
       CODE:16da 09              INC        R1
       CODE:16db e5 f0           MOV        A,B
       CODE:16dd 37              ADDC       A,@R1
       CODE:16de f7              MOV        @R1,A
       CODE:16df 19              DEC        R1
       CODE:16e0 80 1d           SJMP       LAB_CODE_16ff
                             LAB_CODE_16e2                                   XREF[1]:     CODE:16c4(j)  
       CODE:16e2 ec              MOV        A,R4
       CODE:16e3 8a f0           MOV        B,R2
       CODE:16e5 a4              MUL        AB
       CODE:16e6 c3              CLR        CY
       CODE:16e7 e7              MOV        A,@R1
       CODE:16e8 95 f0           SUBB       A,B
       CODE:16ea f7              MOV        @R1,A
       CODE:16eb 50 03           JNC        LAB_CODE_16f0
       CODE:16ed 09              INC        R1
       CODE:16ee 17              DEC        @R1
       CODE:16ef 19              DEC        R1
                             LAB_CODE_16f0                                   XREF[1]:     CODE:16eb(j)  
       CODE:16f0 ed              MOV        A,R5
       CODE:16f1 8a f0           MOV        B,R2
       CODE:16f3 a4              MUL        AB
       CODE:16f4 c3              CLR        CY
       CODE:16f5 fe              MOV        R6,A
       CODE:16f6 e7              MOV        A,@R1
       CODE:16f7 9e              SUBB       A,R6
       CODE:16f8 f7              MOV        @R1,A
       CODE:16f9 09              INC        R1
       CODE:16fa e7              MOV        A,@R1
       CODE:16fb 95 f0           SUBB       A,B
       CODE:16fd f7              MOV        @R1,A
       CODE:16fe 19              DEC        R1
                             LAB_CODE_16ff                                   XREF[2]:     CODE:16b0(j), CODE:16e0(j)  
       CODE:16ff 09              INC        R1
       CODE:1700 e7              MOV        A,@R1
       CODE:1701 25 56           ADD        A,DAT_INTMEM_56                                            = ??
       CODE:1703 fc              MOV        R4,A
       CODE:1704 20 d2 15        JB         OV,LAB_CODE_171c                                           = ??
       CODE:1707 20 e7 0b        JB         ACC.7,LAB_CODE_1715                                        = ??
       CODE:170a ec              MOV        A,R4
       CODE:170b 24 9c           ADD        A,#0x9c
       CODE:170d 40 0d           JC         LAB_CODE_171c
       CODE:170f ec              MOV        A,R4
       CODE:1710 24 d4           ADD        A,#0xd4
       CODE:1712 50 01           JNC        LAB_CODE_1715
       CODE:1714 22              RET
                             LAB_CODE_1715                                   XREF[2]:     CODE:1707(j), CODE:1712(j)  
       CODE:1715 c3              CLR        CY
       CODE:1716 74 2c           MOV        A,#0x2c
       CODE:1718 95 56           SUBB       A,DAT_INTMEM_56                                            = ??
       CODE:171a 80 05           SJMP       LAB_CODE_1721
                             LAB_CODE_171c                                   XREF[2]:     CODE:1704(j), CODE:170d(j)  
       CODE:171c c3              CLR        CY
       CODE:171d 74 64           MOV        A,#0x64
       CODE:171f 95 56           SUBB       A,DAT_INTMEM_56                                            = ??
                             LAB_CODE_1721                                   XREF[1]:     CODE:171a(j)  
       CODE:1721 f7              MOV        @R1,A
       CODE:1722 19              DEC        R1
       CODE:1723 77 00           MOV        @R1,#0x0
       CODE:1725 22              RET
                             **************************************************************
                             *                          FUNCTION                          *
                             **************************************************************
                             undefined FUN_CODE_1726()
             undefined         ACC:1          <RETURN>
                             FUN_CODE_1726                                   XREF[2]:     FUN_CODE_14ba:155d(c), 
                                                                                          FUN_CODE_14ba:1562(c)  
       CODE:1726 c3              CLR        CY
       CODE:1727 e6              MOV        A,@R0
       CODE:1728 97              SUBB       A,@R1
       CODE:1729 08              INC        R0
       CODE:172a 09              INC        R1
       CODE:172b e6              MOV        A,@R0
       CODE:172c 97              SUBB       A,@R1
       CODE:172d 20 d2 05        JB         OV,LAB_CODE_1735                                           = ??
       CODE:1730 30 e7 08        JNB        ACC.7,LAB_CODE_173b                                        = ??
       CODE:1733 80 04           SJMP       LAB_CODE_1739
                             LAB_CODE_1735                                   XREF[1]:     CODE:172d(j)  
       CODE:1735 e7              MOV        A,@R1
       CODE:1736 20 e7 02        JB         ACC.7,LAB_CODE_173b                                        = ??
                             LAB_CODE_1739                                   XREF[1]:     CODE:1733(j)  
       CODE:1739 e9              MOV        A,R1
       CODE:173a f8              MOV        R0,A
                             LAB_CODE_173b                                   XREF[2]:     CODE:1730(j), CODE:1736(j)  
       CODE:173b 18              DEC        R0
       CODE:173c 22              RET
                             **************************************************************
                             *                          FUNCTION                          *
                             **************************************************************
                             undefined FUN_CODE_173d()
             undefined         ACC:1          <RETURN>
                             FUN_CODE_173d                                   XREF[3]:     FUN_CODE_14ba:1567(c), 
                                                                                          FUN_CODE_14ba:156c(c), 
                                                                                          FUN_CODE_14ba:1571(c)  
       CODE:173d c3              CLR        CY
       CODE:173e e6              MOV        A,@R0
       CODE:173f 97              SUBB       A,@R1
       CODE:1740 08              INC        R0
       CODE:1741 09              INC        R1
       CODE:1742 e6              MOV        A,@R0
       CODE:1743 97              SUBB       A,@R1
       CODE:1744 24 ff           ADD        A,#0xff
       CODE:1746 40 02           JC         LAB_CODE_174a
       CODE:1748 18              DEC        R0
       CODE:1749 22              RET
                             LAB_CODE_174a                                   XREF[1]:     CODE:1746(j)  
       CODE:174a e6              MOV        A,@R0
       CODE:174b 24 ff           ADD        A,#0xff
       CODE:174d f7              MOV        @R1,A
       CODE:174e 18              DEC        R0
       CODE:174f 19              DEC        R1
       CODE:1750 e6              MOV        A,@R0
       CODE:1751 f7              MOV        @R1,A
       CODE:1752 22              RET
                             LAB_CODE_1753                                   XREF[1]:     CODE:17fd(j)  
       CODE:1753 74 00           MOV        A,#0x0                                                     turns all LEDs off
       CODE:1755 12 2a 15        LCALL      FUN_CODE_2a15                                              undefined FUN_CODE_2a15()
       CODE:1758 c2 42           CLR        28.2                                                       = ??
       CODE:175a 02 19 47        LJMP       argon_sm_go_state_1
                             LAB_CODE_175d                                   XREF[1]:     CODE:1808(j)  
       CODE:175d 74 10           MOV        A,#0x10
       CODE:175f a2 05           MOV        CY,20.5                                                    = ??
       CODE:1761 92 e0           MOV        ACC.0,CY                                                   = ??
       CODE:1763 d2 e1           SETB       ACC.1                                                      = ??
       CODE:1765 12 2a 15        LCALL      FUN_CODE_2a15                                              undefined FUN_CODE_2a15()
       CODE:1768 c2 43           CLR        28.3                                                       = ??
       CODE:176a 02 19 47        LJMP       argon_sm_go_state_1
                             LAB_CODE_176d                                   XREF[1]:     CODE:1813(j)  
       CODE:176d 85 61 f0        MOV        B,DAT_INTMEM_61                                            = ??
       CODE:1770 c3              CLR        CY
       CODE:1771 78 af           MOV        R0,#0xaf
       CODE:1773 e6              MOV        A,@R0=>DAT_INTMEM_af                                       = ??
       CODE:1774 70 05           JNZ        LAB_CODE_177b
       CODE:1776 20 f5 02        JB         B.5,LAB_CODE_177b                                          skip if this bit set
       CODE:1779 a2 f4           MOV        CY,B.4                                                     otherwise, set carry to this
                             LAB_CODE_177b                                   XREF[2]:     CODE:1774(j), CODE:1776(j)  
       CODE:177b 74 80           MOV        A,#0x80
       CODE:177d 30 f7 1f        JNB        B.7,LAB_CODE_179f                                          = ??
       CODE:1780 92 e0           MOV        ACC.0,CY                                                   = ??
       CODE:1782 c2 f4           CLR        B.4                                                        = ??
       CODE:1784 85 f0 61        MOV        DAT_INTMEM_61,B                                            = ??
       CODE:1787 20 f2 0d        JB         B.2,LAB_CODE_1797                                          = ??
       CODE:178a 20 f3 0a        JB         B.3,LAB_CODE_1797                                          = ??
       CODE:178d a2 f0           MOV        CY,B.0                                                     = ??
       CODE:178f 92 e2           MOV        ACC.2,CY                                                   = ??
       CODE:1791 a2 f1           MOV        CY,B.1                                                     = ??
       CODE:1793 92 e3           MOV        ACC.3,CY                                                   = ??
       CODE:1795 80 08           SJMP       LAB_CODE_179f
                             LAB_CODE_1797                                   XREF[2]:     CODE:1787(j), CODE:178a(j)  
       CODE:1797 a2 f2           MOV        CY,B.2                                                     = ??
       CODE:1799 92 e2           MOV        ACC.2,CY                                                   = ??
       CODE:179b a2 f3           MOV        CY,B.3                                                     = ??
       CODE:179d 92 e3           MOV        ACC.3,CY                                                   = ??
                             LAB_CODE_179f                                   XREF[2]:     CODE:177d(j), CODE:1795(j)  
       CODE:179f 12 2a 15        LCALL      FUN_CODE_2a15                                              undefined FUN_CODE_2a15()
       CODE:17a2 c2 47           CLR        28.7                                                       = ??
       CODE:17a4 02 19 47        LJMP       argon_sm_go_state_1
                             LAB_CODE_17a7                                   XREF[1]:     CODE:180e(j)  
       CODE:17a7 74 08           MOV        A,#0x8
       CODE:17a9 a2 03           MOV        CY,20.3                                                    = ??
       CODE:17ab b3              CPL        CY
       CODE:17ac 72 15           ORL        CY,22.5                                                    = ??
       CODE:17ae 92 e0           MOV        ACC.0,CY                                                   = ??
       CODE:17b0 12 2a 15        LCALL      FUN_CODE_2a15                                              undefined FUN_CODE_2a15()
       CODE:17b3 c2 4a           CLR        29.2                                                       = ??
       CODE:17b5 c2 15           CLR        22.5                                                       = ??
       CODE:17b7 02 19 47        LJMP       argon_sm_go_state_1
                             LAB_CODE_17ba                                   XREF[1]:     CODE:1803(j)  
       CODE:17ba 74 40           MOV        A,#0x40
       CODE:17bc 12 2a 15        LCALL      FUN_CODE_2a15                                              undefined FUN_CODE_2a15()
       CODE:17bf 02 19 65        LJMP       argon_sm_go_state_7
                             LAB_CODE_17c2                                   XREF[1]:     CODE:182d(j)  
       CODE:17c2 74 20           MOV        A,#0x20
       CODE:17c4 78 7f           MOV        R0,#0x7f
       CODE:17c6 86 f0           MOV        B,@R0=>DAT_INTMEM_7f                                       = ??
       CODE:17c8 c3              CLR        CY
       CODE:17c9 30 57 03        JNB        2a.7,LAB_CODE_17cf                                         = ??
       CODE:17cc a2 58           MOV        CY,2b.0                                                    = ??
       CODE:17ce b3              CPL        CY
                             LAB_CODE_17cf                                   XREF[1]:     CODE:17c9(j)  
       CODE:17cf 92 f7           MOV        B.7,CY                                                     = ??
       CODE:17d1 12 2a 15        LCALL      FUN_CODE_2a15                                              undefined FUN_CODE_2a15()
       CODE:17d4 c2 45           CLR        28.5                                                       = ??
       CODE:17d6 02 19 47        LJMP       argon_sm_go_state_1
                             LAB_CODE_17d9                                   XREF[1]:     CODE:1831(j)  
       CODE:17d9 7a 10           MOV        R2,#0x10
       CODE:17db 74 01           MOV        A,#0x1
                             LAB_CODE_17dd                                   XREF[1]:     CODE:17e4(j)  
       CODE:17dd 1a              DEC        R2
       CODE:17de 03              RR         A
       CODE:17df 85 34 f0        MOV        B,DAT_INTMEM_34                                            = ??
       CODE:17e2 52 f0           ANL        B,A
       CODE:17e4 b5 f0 f6        CJNE       A,B,LAB_CODE_17dd
       CODE:17e7 f5 5f           MOV        DAT_INTMEM_5f,A                                            = ??
       CODE:17e9 f4              CPL        A
       CODE:17ea 52 34           ANL        DAT_INTMEM_34,A                                            = ??
       CODE:17ec 74 40           MOV        A,#0x40
       CODE:17ee 2a              ADD        A,R2
       CODE:17ef 12 2a 15        LCALL      FUN_CODE_2a15                                              undefined FUN_CODE_2a15()
       CODE:17f2 02 19 6a        LJMP       argon_sm_go_state_8
                             argon_sm_exec_state_0                           XREF[1]:     CODE:1a13(j)  
       CODE:17f5 d2 40           SETB       28.0                                                       mutex? idk
       CODE:17f7 30 3f 3e        JNB        27.7,LAB_CODE_1838                                         idle if this bit not set
       CODE:17fa 30 42 03        JNB        28.2,LAB_CODE_1800                                         = ??
       CODE:17fd 02 17 53        LJMP       LAB_CODE_1753                                              if set, go to state 1
                                                                                                       which is an idle state
                             LAB_CODE_1800                                   XREF[1]:     CODE:17fa(j)  
       CODE:1800 30 44 02        JNB        28.4,LAB_CODE_1805                                         = ??
       CODE:1803 80 b5           SJMP       LAB_CODE_17ba
                             LAB_CODE_1805                                   XREF[1]:     CODE:1800(j)  
       CODE:1805 30 43 03        JNB        28.3,LAB_CODE_180b                                         = ??
       CODE:1808 02 17 5d        LJMP       LAB_CODE_175d
                             LAB_CODE_180b                                   XREF[1]:     CODE:1805(j)  
       CODE:180b 30 4a 02        JNB        29.2,LAB_CODE_1810                                         = ??
       CODE:180e 80 97           SJMP       LAB_CODE_17a7
                             LAB_CODE_1810                                   XREF[1]:     CODE:180b(j)  
       CODE:1810 30 47 03        JNB        28.7,LAB_CODE_1816                                         typically set when some
                                                                                                       ring of light related stuff
                                                                                                       has to happen
       CODE:1813 02 17 6d        LJMP       LAB_CODE_176d                                              so if that bit's set
                                                                                                       then run this logic
                             LAB_CODE_1816                                   XREF[1]:     CODE:1810(j)  
       CODE:1816 30 46 02        JNB        28.6,LAB_CODE_181b                                         = ??
       CODE:1819 80 22           SJMP       LAB_CODE_183d
                             LAB_CODE_181b                                   XREF[1]:     CODE:1816(j)  
       CODE:181b 30 49 02        JNB        29.1,LAB_CODE_1820                                         = ??
       CODE:181e 80 35           SJMP       LAB_CODE_1855
                             LAB_CODE_1820                                   XREF[1]:     CODE:181b(j)  
       CODE:1820 30 48 02        JNB        29.0,LAB_CODE_1825                                         = ??
       CODE:1823 80 77           SJMP       LAB_CODE_189c
                             LAB_CODE_1825                                   XREF[1]:     CODE:1820(j)  
       CODE:1825 30 41 02        JNB        28.1,LAB_CODE_182a                                         = ??
       CODE:1828 80 38           SJMP       LAB_CODE_1862
                             LAB_CODE_182a                                   XREF[1]:     CODE:1825(j)  
       CODE:182a 30 45 02        JNB        28.5,LAB_CODE_182f                                         = ??
       CODE:182d 80 93           SJMP       LAB_CODE_17c2
                             LAB_CODE_182f                                   XREF[1]:     CODE:182a(j)  
       CODE:182f e5 34           MOV        A,DAT_INTMEM_34                                            = ??
       CODE:1831 70 a6           JNZ        LAB_CODE_17d9
       CODE:1833 30 4b 02        JNB        29.3,LAB_CODE_1838                                         = ??
       CODE:1836 80 43           SJMP       LAB_CODE_187b
                             LAB_CODE_1838                                   XREF[2]:     CODE:17f7(j), CODE:1833(j)  
       CODE:1838 c2 40           CLR        28.0                                                       = ??
       CODE:183a 02 19 6f        LJMP       LAB_CODE_196f
                             LAB_CODE_183d                                   XREF[1]:     CODE:1819(j)  
       CODE:183d c2 46           CLR        28.6                                                       = ??
       CODE:183f e5 5b           MOV        A,DAT_INTMEM_5b                                            = ??
       CODE:1841 f5 5f           MOV        DAT_INTMEM_5f,A                                            = ??
       CODE:1843 24 c8           ADD        A,#0xc8
       CODE:1845 40 18           JC         LAB_CODE_185f
       CODE:1847 e5 5f           MOV        A,DAT_INTMEM_5f                                            = ??
       CODE:1849 75 f0 08        MOV        B,#0x8
       CODE:184c 84              DIV        AB
       CODE:184d 24 41           ADD        A,#0x41
       CODE:184f 12 2a 15        LCALL      FUN_CODE_2a15                                              undefined FUN_CODE_2a15()
       CODE:1852 02 19 4c        LJMP       argon_sm_go_state_2
                             LAB_CODE_1855                                   XREF[1]:     CODE:181e(j)  
       CODE:1855 c2 49           CLR        29.1                                                       = ??
       CODE:1857 74 42           MOV        A,#0x42
       CODE:1859 12 2a 15        LCALL      FUN_CODE_2a15                                              undefined FUN_CODE_2a15()
       CODE:185c 02 19 51        LJMP       argon_sm_go_state_3
                             LAB_CODE_185f                                   XREF[4]:     CODE:1845(j), CODE:1866(j), 
                                                                                          CODE:1869(j), CODE:186f(j)  
       CODE:185f 02 19 6f        LJMP       LAB_CODE_196f
                             LAB_CODE_1862                                   XREF[1]:     CODE:1828(j)  
       CODE:1862 c2 41           CLR        28.1                                                       = ??
       CODE:1864 e5 61           MOV        A,DAT_INTMEM_61                                            = ??
       CODE:1866 30 e7 f6        JNB        ACC.7,LAB_CODE_185f                                        = ??
       CODE:1869 20 e5 f3        JB         ACC.5,LAB_CODE_185f                                        = ??
       CODE:186c 78 af           MOV        R0,#0xaf
       CODE:186e e6              MOV        A,@R0=>DAT_INTMEM_af                                       = ??
       CODE:186f 70 ee           JNZ        LAB_CODE_185f
       CODE:1871 d2 38           SETB       27.0                                                       = ??
       CODE:1873 74 04           MOV        A,#0x4
       CODE:1875 12 2a 15        LCALL      FUN_CODE_2a15                                              undefined FUN_CODE_2a15()
       CODE:1878 02 19 47        LJMP       argon_sm_go_state_1
                             LAB_CODE_187b                                   XREF[1]:     CODE:1836(j)  
       CODE:187b 78 b1           MOV        R0,#0xb1
       CODE:187d 86 f0           MOV        B,@R0=>DAT_INTMEM_b1                                       = ??
       CODE:187f 78 b0           MOV        R0,#0xb0
       CODE:1881 e6              MOV        A,@R0=>DAT_INTMEM_b0                                       = ??
       CODE:1882 20 e7 08        JB         ACC.7,LAB_CODE_188d                                        = ??
       CODE:1885 54 0f           ANL        A,#0xf
       CODE:1887 60 0e           JZ         LAB_CODE_1897
       CODE:1889 24 20           ADD        A,#0x20
       CODE:188b 80 04           SJMP       LAB_CODE_1891
                             LAB_CODE_188d                                   XREF[1]:     CODE:1882(j)  
       CODE:188d 54 0f           ANL        A,#0xf
       CODE:188f 24 40           ADD        A,#0x40
                             LAB_CODE_1891                                   XREF[1]:     CODE:188b(j)  
       CODE:1891 12 2a 15        LCALL      FUN_CODE_2a15                                              undefined FUN_CODE_2a15()
       CODE:1894 02 19 60        LJMP       argon_sm_go_state_6
                             LAB_CODE_1897                                   XREF[1]:     CODE:1887(j)  
       CODE:1897 d2 d5           SETB       F0                                                         = ??
       CODE:1899 02 19 8d        LJMP       LAB_CODE_198d
                             LAB_CODE_189c                                   XREF[1]:     CODE:1823(j)  
       CODE:189c 74 80           MOV        A,#0x80
       CODE:189e 85 61 f0        MOV        B,DAT_INTMEM_61                                            bit 7 of this not set
                                                                                                       means we go back to state 1
       CODE:18a1 30 f7 39        JNB        B.7,LAB_CODE_18dd                                          = ??
       CODE:18a4 78 af           MOV        R0,#0xaf                                                   read error flash state
       CODE:18a6 e6              MOV        A,@R0=>DAT_INTMEM_af                                       = ??
       CODE:18a7 70 0a           JNZ        LAB_CODE_18b3                                              if error code present, jump down
       CODE:18a9 85 61 f0        MOV        B,DAT_INTMEM_61                                            otherwise, bit 5 of this
                                                                                                       must be set
       CODE:18ac 20 f5 35        JB         B.5,LAB_CODE_18e4                                          if it is, go to state 4,
                                                                                                       which updates LEDs
       CODE:18af 74 90           MOV        A,#0x90                                                    otherwise, throw the message out
       CODE:18b1 80 2a           SJMP       LAB_CODE_18dd
                             LAB_CODE_18b3                                   XREF[1]:     CODE:18a7(j)  
       CODE:18b3 aa 5a           MOV        R2,DAT_INTMEM_5a                                           if this is zero
                                                                                                       throw the request out
       CODE:18b5 ba 00 04        CJNE       R2,#0x0,LAB_CODE_18bc
                             LAB_CODE_18b8                                   XREF[4]:     CODE:18c9(j), CODE:18cd(j), 
                                                                                          CODE:18d7(j), CODE:18db(j)  
       CODE:18b8 44 c0           ORL        A,#0xc0                                                    set this and head to state 1
       CODE:18ba 80 21           SJMP       LAB_CODE_18dd
                             LAB_CODE_18bc                                   XREF[1]:     CODE:18b5(j)  
       CODE:18bc e5 59           MOV        A,DAT_INTMEM_59                                            = ??
       CODE:18be 5a              ANL        A,R2
       CODE:18bf 70 0e           JNZ        LAB_CODE_18cf
       CODE:18c1 ea              MOV        A,R2
       CODE:18c2 23              RL         A
       CODE:18c3 55 59           ANL        A,DAT_INTMEM_59                                            = ??
       CODE:18c5 70 04           JNZ        LAB_CODE_18cb
       CODE:18c7 74 11           MOV        A,#0x11
       CODE:18c9 80 ed           SJMP       LAB_CODE_18b8
                             LAB_CODE_18cb                                   XREF[1]:     CODE:18c5(j)  
       CODE:18cb 74 18           MOV        A,#0x18
       CODE:18cd 80 e9           SJMP       LAB_CODE_18b8
                             LAB_CODE_18cf                                   XREF[1]:     CODE:18bf(j)  
       CODE:18cf ea              MOV        A,R2
       CODE:18d0 23              RL         A
       CODE:18d1 55 59           ANL        A,DAT_INTMEM_59                                            = ??
       CODE:18d3 70 04           JNZ        LAB_CODE_18d9
       CODE:18d5 74 12           MOV        A,#0x12
       CODE:18d7 80 df           SJMP       LAB_CODE_18b8
                             LAB_CODE_18d9                                   XREF[1]:     CODE:18d3(j)  
       CODE:18d9 74 1f           MOV        A,#0x1f
       CODE:18db 80 db           SJMP       LAB_CODE_18b8
                             LAB_CODE_18dd                                   XREF[3]:     CODE:18a1(j), CODE:18b1(j), 
                                                                                          CODE:18ba(j)  
       CODE:18dd 12 2a 15        LCALL      FUN_CODE_2a15                                              undefined FUN_CODE_2a15()
       CODE:18e0 c2 48           CLR        29.0                                                       = ??
       CODE:18e2 80 63           SJMP       argon_sm_go_state_1
                             LAB_CODE_18e4                                   XREF[1]:     CODE:18ac(j)  
       CODE:18e4 74 90           MOV        A,#0x90
       CODE:18e6 12 2a 15        LCALL      FUN_CODE_2a15                                              undefined FUN_CODE_2a15()
       CODE:18e9 c2 48           CLR        29.0                                                       = ??
       CODE:18eb 80 69           SJMP       argon_sm_go_state_4
                             argon_sm_exec_state_1                           XREF[1]:     CODE:1a16(j)  
       CODE:18ed 12 2a 3e        LCALL      FUN_CODE_2a3e                                              undefined FUN_CODE_2a3e()
       CODE:18f0 50 7d           JNC        LAB_CODE_196f
       CODE:18f2 80 4e           SJMP       argon_sm_go_state_0
                             argon_sm_exec_state_2                           XREF[1]:     CODE:1a19(j)  
       CODE:18f4 12 2a 3e        LCALL      FUN_CODE_2a3e                                              undefined FUN_CODE_2a3e()
       CODE:18f7 50 76           JNC        LAB_CODE_196f
       CODE:18f9 20 d5 46        JB         F0,argon_sm_go_state_0                                     this bit should not be true
       CODE:18fc fa              MOV        R2,A
       CODE:18fd e5 5f           MOV        A,DAT_INTMEM_5f                                            = ??
       CODE:18ff 75 f0 08        MOV        B,#0x8
       CODE:1902 84              DIV        AB
       CODE:1903 24 21           ADD        A,#0x21
       CODE:1905 fb              MOV        R3,A
       CODE:1906 74 01           MOV        A,#0x1
       CODE:1908 05 f0           INC        B
                             LAB_CODE_190a                                   XREF[1]:     CODE:1910(j)  
       CODE:190a d5 f0 02        DJNZ       B,LAB_CODE_190f
       CODE:190d 80 03           SJMP       LAB_CODE_1912
                             LAB_CODE_190f                                   XREF[1]:     CODE:190a(j)  
       CODE:190f 23              RL         A
       CODE:1910 80 f8           SJMP       LAB_CODE_190a
                             LAB_CODE_1912                                   XREF[1]:     CODE:190d(j)  
       CODE:1912 4a              ORL        A,R2
       CODE:1913 f5 f0           MOV        B,A
       CODE:1915 eb              MOV        A,R3
       CODE:1916 12 2a 15        LCALL      FUN_CODE_2a15                                              undefined FUN_CODE_2a15()
       CODE:1919 80 2c           SJMP       argon_sm_go_state_1
                             argon_sm_exec_state_3                           XREF[1]:     CODE:1a1c(j)  
       CODE:191b 12 2a 3e        LCALL      FUN_CODE_2a3e                                              undefined FUN_CODE_2a3e()
       CODE:191e 50 4f           JNC        LAB_CODE_196f
       CODE:1920 20 d5 1f        JB         F0,argon_sm_go_state_0                                     = ??
       CODE:1923 44 40           ORL        A,#0x40
       CODE:1925 f5 f0           MOV        B,A
       CODE:1927 74 22           MOV        A,#0x22
       CODE:1929 12 2a 15        LCALL      FUN_CODE_2a15                                              undefined FUN_CODE_2a15()
       CODE:192c 80 19           SJMP       argon_sm_go_state_1
                             argon_sm_exec_state_4                           XREF[1]:     CODE:1a1f(j)  
       CODE:192e 12 2a 3e        LCALL      FUN_CODE_2a3e                                              undefined FUN_CODE_2a3e()
       CODE:1931 50 3c           JNC        LAB_CODE_196f
       CODE:1933 20 d5 0c        JB         F0,argon_sm_go_state_0                                     = ??
       CODE:1936 78 ae           MOV        R0,#0xae
       CODE:1938 e6              MOV        A,@R0=>DAT_INTMEM_ae                                       read RoL state
       CODE:1939 54 0f           ANL        A,#0xf                                                     red bits only please
       CODE:193b 44 b0           ORL        A,#0xb0
       CODE:193d 12 2a 15        LCALL      FUN_CODE_2a15                                              undefined FUN_CODE_2a15()
       CODE:1940 80 19           SJMP       argon_sm_go_state_5
                             argon_sm_go_state_0                             XREF[10]:    CODE:18f2(j), CODE:18f9(j), 
                                                                                          CODE:1920(j), CODE:1933(j), 
                                                                                          CODE:1975(j), CODE:199b(j), 
                                                                                          CODE:19a4(j), CODE:19b0(j), 
                                                                                          CODE:19b7(j), CODE:19c2(j)  
       CODE:1942 78 a4           MOV        R0,#0xa4
       CODE:1944 76 00           MOV        @R0=>DAT_INTMEM_a4,#0x0                                    = ??
       CODE:1946 22              RET
                             argon_sm_go_state_1                             XREF[11]:    CODE:175a(j), CODE:176a(j), 
                                                                                          CODE:17a4(j), CODE:17b7(j), 
                                                                                          CODE:17d6(j), CODE:1878(j), 
                                                                                          CODE:18e2(j), CODE:1919(j), 
                                                                                          CODE:192c(j), CODE:1983(j), 
                                                                                          CODE:19e4(j)  
       CODE:1947 78 a4           MOV        R0,#0xa4
       CODE:1949 76 01           MOV        @R0=>DAT_INTMEM_a4,#0x1                                    = ??
       CODE:194b 22              RET
                             argon_sm_go_state_2                             XREF[1]:     CODE:1852(j)  
       CODE:194c 78 a4           MOV        R0,#0xa4
       CODE:194e 76 02           MOV        @R0=>DAT_INTMEM_a4,#0x2                                    = ??
       CODE:1950 22              RET
                             argon_sm_go_state_3                             XREF[1]:     CODE:185c(j)  
       CODE:1951 78 a4           MOV        R0,#0xa4
       CODE:1953 76 03           MOV        @R0=>DAT_INTMEM_a4,#0x3                                    = ??
       CODE:1955 22              RET
                             argon_sm_go_state_4                             XREF[1]:     CODE:18eb(j)  
       CODE:1956 78 a4           MOV        R0,#0xa4
       CODE:1958 76 04           MOV        @R0=>DAT_INTMEM_a4,#0x4                                    = ??
       CODE:195a 22              RET
                             argon_sm_go_state_5                             XREF[1]:     CODE:1940(j)  
       CODE:195b 78 a4           MOV        R0,#0xa4
       CODE:195d 76 05           MOV        @R0=>DAT_INTMEM_a4,#0x5                                    = ??
       CODE:195f 22              RET
                             argon_sm_go_state_6                             XREF[1]:     CODE:1894(j)  
       CODE:1960 78 a4           MOV        R0,#0xa4
       CODE:1962 76 06           MOV        @R0=>DAT_INTMEM_a4,#0x6                                    = ??
       CODE:1964 22              RET
                             argon_sm_go_state_7                             XREF[1]:     CODE:17bf(j)  
       CODE:1965 78 a4           MOV        R0,#0xa4
       CODE:1967 76 07           MOV        @R0=>DAT_INTMEM_a4,#0x7                                    = ??
       CODE:1969 22              RET
                             argon_sm_go_state_8                             XREF[1]:     CODE:17f2(j)  
       CODE:196a 78 a4           MOV        R0,#0xa4
       CODE:196c 76 08           MOV        @R0=>DAT_INTMEM_a4,#0x8                                    = ??
       CODE:196e 22              RET
                             LAB_CODE_196f                                   XREF[10]:    CODE:183a(j), CODE:185f(j), 
                                                                                          CODE:18f0(j), CODE:18f7(j), 
                                                                                          CODE:191e(j), CODE:1931(j), 
                                                                                          CODE:1973(j), CODE:1988(j), 
                                                                                          CODE:19a0(j), CODE:19b5(j)  
       CODE:196f 22              RET
                             argon_sm_exec_state_5                           XREF[1]:     CODE:1a22(j)  
       CODE:1970 12 2a 3e        LCALL      FUN_CODE_2a3e                                              undefined FUN_CODE_2a3e()
       CODE:1973 50 fa           JNC        LAB_CODE_196f
       CODE:1975 20 d5 ca        JB         F0,argon_sm_go_state_0                                     = ??
       CODE:1978 78 ae           MOV        R0,#0xae
       CODE:197a e6              MOV        A,@R0=>DAT_INTMEM_ae                                       = ??
       CODE:197b c4              SWAP       A
       CODE:197c 54 0f           ANL        A,#0xf                                                     keep green lights only
       CODE:197e 44 a0           ORL        A,#0xa0
       CODE:1980 12 2a 15        LCALL      FUN_CODE_2a15                                              undefined FUN_CODE_2a15()
       CODE:1983 80 c2           SJMP       argon_sm_go_state_1
                             argon_sm_exec_state_6                           XREF[1]:     CODE:1a25(j)  
       CODE:1985 12 2a 3e        LCALL      FUN_CODE_2a3e                                              undefined FUN_CODE_2a3e()
       CODE:1988 50 e5           JNC        LAB_CODE_196f
       CODE:198a 78 b1           MOV        R0,#0xb1
       CODE:198c f6              MOV        @R0=>DAT_INTMEM_b1,A                                       = ??
                             LAB_CODE_198d                                   XREF[1]:     CODE:1899(j)  
       CODE:198d 78 b0           MOV        R0,#0xb0
       CODE:198f e6              MOV        A,@R0=>DAT_INTMEM_b0                                       = ??
       CODE:1990 a2 d5           MOV        CY,F0                                                      = ??
       CODE:1992 92 e6           MOV        ACC.6,CY                                                   = ??
       CODE:1994 78 b0           MOV        R0,#0xb0
       CODE:1996 f6              MOV        @R0=>DAT_INTMEM_b0,A                                       = ??
       CODE:1997 d2 3b           SETB       27.3                                                       = ??
       CODE:1999 c2 4b           CLR        29.3                                                       = ??
       CODE:199b 80 a5           SJMP       argon_sm_go_state_0
                             argon_sm_exec_state_7                           XREF[1]:     CODE:1a28(j)  
       CODE:199d 12 2a 3e        LCALL      FUN_CODE_2a3e                                              undefined FUN_CODE_2a3e()
       CODE:19a0 50 cd           JNC        LAB_CODE_196f
       CODE:19a2 c2 44           CLR        28.4                                                       = ??
       CODE:19a4 20 d5 9b        JB         F0,argon_sm_go_state_0                                     = ??
       CODE:19a7 a2 e7           MOV        CY,ACC.7                                                   = ??
       CODE:19a9 92 57           MOV        2a.7,CY                                                    = ??
       CODE:19ab 54 0f           ANL        A,#0xf
       CODE:19ad 78 7f           MOV        R0,#0x7f
       CODE:19af f6              MOV        @R0=>DAT_INTMEM_7f,A                                       = ??
       CODE:19b0 80 90           SJMP       argon_sm_go_state_0
                             argon_sm_exec_state_8                           XREF[1]:     CODE:1a2b(j)  
       CODE:19b2 12 2a 3e        LCALL      FUN_CODE_2a3e                                              undefined FUN_CODE_2a3e()
       CODE:19b5 50 b8           JNC        LAB_CODE_196f
       CODE:19b7 20 d5 88        JB         F0,argon_sm_go_state_0                                     = ??
       CODE:19ba aa 5f           MOV        R2,DAT_INTMEM_5f                                           = ??
       CODE:19bc ba 02 06        CJNE       R2,#0x2,LAB_CODE_19c5
       CODE:19bf b4 ff 03        CJNE       A,#0xff,LAB_CODE_19c5
       CODE:19c2 02 19 42        LJMP       argon_sm_go_state_0
                             LAB_CODE_19c5                                   XREF[2]:     CODE:19bc(j), CODE:19bf(j)  
       CODE:19c5 24 01           ADD        A,#0x1
       CODE:19c7 f5 f0           MOV        B,A
       CODE:19c9 50 0b           JNC        LAB_CODE_19d6
       CODE:19cb 74 6d           MOV        A,#0x6d
       CODE:19cd 55 5f           ANL        A,DAT_INTMEM_5f                                            = ??
       CODE:19cf 60 05           JZ         LAB_CODE_19d6
       CODE:19d1 e5 5f           MOV        A,DAT_INTMEM_5f                                            = ??
       CODE:19d3 23              RL         A
       CODE:19d4 42 34           ORL        DAT_INTMEM_34,A                                            = ??
                             LAB_CODE_19d6                                   XREF[2]:     CODE:19c9(j), CODE:19cf(j)  
       CODE:19d6 7a 10           MOV        R2,#0x10
       CODE:19d8 e5 5f           MOV        A,DAT_INTMEM_5f                                            = ??
                             LAB_CODE_19da                                   XREF[1]:     CODE:19dc(j)  
       CODE:19da 1a              DEC        R2
       CODE:19db 33              RLC        A
       CODE:19dc 50 fc           JNC        LAB_CODE_19da
       CODE:19de 74 20           MOV        A,#0x20
       CODE:19e0 2a              ADD        A,R2
       CODE:19e1 12 2a 15        LCALL      FUN_CODE_2a15                                              undefined FUN_CODE_2a15()
       CODE:19e4 02 19 47        LJMP       argon_sm_go_state_1
                             **************************************************************
                             *                          FUNCTION                          *
                             **************************************************************
                             undefined argon_sm_exec()
             undefined         ACC:1          <RETURN>
                             argon_sm_exec                                   XREF[1]:     FUN_CODE_0775:07e0(c)  
       CODE:19e7 12 2a 0b        LCALL      FUN_CODE_2a0b                                              undefined FUN_CODE_2a0b()
       CODE:19ea 40 1e           JC         LAB_CODE_1a0a
       CODE:19ec 60 1c           JZ         LAB_CODE_1a0a
       CODE:19ee 20 e7 09        JB         ACC.7,LAB_CODE_19fa                                        looks like we short circuit
                                                                                                       to state 1 if either of these
                                                                                                       bits are set
       CODE:19f1 20 e6 06        JB         ACC.6,LAB_CODE_19fa                                        = ??
       CODE:19f4 20 e5 07        JB         ACC.5,LAB_CODE_19fe                                        if this bit set then a
                                                                                                       wireless controller powered
                                                                                                       the system up
       CODE:19f7 20 e4 08        JB         ACC.4,LAB_CODE_1a02                                        = ??
                             LAB_CODE_19fa                                   XREF[2]:     CODE:19ee(j), CODE:19f1(j)  
       CODE:19fa d2 42           SETB       28.2                                                       = ??
       CODE:19fc 80 0c           SJMP       LAB_CODE_1a0a
                             LAB_CODE_19fe                                   XREF[1]:     CODE:19f4(j)  
       CODE:19fe d2 4c           SETB       g_wireless_controller_powered_system_on                    = ??
       CODE:1a00 80 08           SJMP       LAB_CODE_1a0a
                             LAB_CODE_1a02                                   XREF[1]:     CODE:19f7(j)  
       CODE:1a02 a2 e0           MOV        CY,ACC.0                                                   = ??
       CODE:1a04 92 47           MOV        28.7,CY                                                    = ??
       CODE:1a06 a2 e1           MOV        CY,ACC.1                                                   = ??
       CODE:1a08 92 43           MOV        28.3,CY                                                    = ??
                             LAB_CODE_1a0a                                   XREF[4]:     CODE:19ea(j), CODE:19ec(j), 
                                                                                          CODE:19fc(j), CODE:1a00(j)  
       CODE:1a0a 78 a4           MOV        R0,#0xa4
       CODE:1a0c e6              MOV        A,@R0=>DAT_INTMEM_a4                                       = ??
       CODE:1a0d 26              ADD        A,@R0=>DAT_INTMEM_a4                                       = ??
       CODE:1a0e 26              ADD        A,@R0=>DAT_INTMEM_a4                                       = ??
       CODE:1a0f 90 1a 13        MOV        DPTR,#0x1a13
       CODE:1a12 73              JMP        @A+DPTR
       CODE:1a13 02 17 f5        LJMP       argon_sm_exec_state_0                                      state 0 loops through normal stuff
       CODE:1a16 02 18 ed        LJMP       argon_sm_exec_state_1                                      state 1 waits until some
                                                                                                       condition is met
                                                                                                       then goes back to state 0
       CODE:1a19 02 18 f4        LJMP       argon_sm_exec_state_2
       CODE:1a1c 02 19 1b        LJMP       argon_sm_exec_state_3
       CODE:1a1f 02 19 2e        LJMP       argon_sm_exec_state_4                                      update red LEDs
       CODE:1a22 02 19 70        LJMP       argon_sm_exec_state_5                                      update green LEDs
       CODE:1a25 02 19 85        LJMP       argon_sm_exec_state_6
       CODE:1a28 02 19 9d        LJMP       argon_sm_exec_state_7
       CODE:1a2b 02 19 b2        LJMP       argon_sm_exec_state_8
                             **************************************************************
                             *                          FUNCTION                          *
                             **************************************************************
                             undefined FUN_CODE_1a2e()
             undefined         ACC:1          <RETURN>
                             FUN_CODE_1a2e                                   XREF[1]:     FUN_CODE_0775:07d7(c)  
       CODE:1a2e 78 a5           MOV        R0,#0xa5
       CODE:1a30 e6              MOV        A,@R0=>DAT_INTMEM_a5                                       = ??
       CODE:1a31 26              ADD        A,@R0=>DAT_INTMEM_a5                                       = ??
       CODE:1a32 26              ADD        A,@R0=>DAT_INTMEM_a5                                       = ??
       CODE:1a33 90 1a 37        MOV        DPTR,#0x1a37
       CODE:1a36 73              JMP        @A+DPTR
       CODE:1a37 02 1a 52        LJMP       LAB_CODE_1a52
       CODE:1a3a 02 1a db        LJMP       LAB_CODE_1adb
       CODE:1a3d 02 1a fd        LJMP       LAB_CODE_1afd
       CODE:1a40 02 1b 18        LJMP       LAB_CODE_1b18
       CODE:1a43 02 1b 24        LJMP       LAB_CODE_1b24
       CODE:1a46 02 1b 70        LJMP       LAB_CODE_1b70
       CODE:1a49 02 1b 8a        LJMP       LAB_CODE_1b8a
       CODE:1a4c 02 1b 5b        LJMP       LAB_CODE_1b5b
       CODE:1a4f 02 1b 67        LJMP       LAB_CODE_1b67
                             LAB_CODE_1a52                                   XREF[1]:     CODE:1a37(j)  
       CODE:1a52 d2 2b           SETB       25.3                                                       = ??
       CODE:1a54 20 2a 02        JB         25.2,LAB_CODE_1a59                                         = ??
       CODE:1a57 80 7d           SJMP       LAB_CODE_1ad6
                             LAB_CODE_1a59                                   XREF[1]:     CODE:1a54(j)  
       CODE:1a59 30 2c 0b        JNB        25.4,LAB_CODE_1a67                                         = ??
       CODE:1a5c 12 25 f4        LCALL      FUN_CODE_25f4                                              undefined FUN_CODE_25f4()
       CODE:1a5f 20 d5 03        JB         F0,LAB_CODE_1a65                                           = ??
       CODE:1a62 02 1b 32        LJMP       LAB_CODE_1b32
                             LAB_CODE_1a65                                   XREF[1]:     CODE:1a5f(j)  
       CODE:1a65 80 79           SJMP       LAB_CODE_1ae0
                             LAB_CODE_1a67                                   XREF[1]:     CODE:1a59(j)  
       CODE:1a67 30 2d 0c        JNB        25.5,LAB_CODE_1a76                                         = ??
       CODE:1a6a 12 25 fc        LCALL      FUN_CODE_25fc                                              undefined FUN_CODE_25fc()
       CODE:1a6d 20 d5 03        JB         F0,LAB_CODE_1a73                                           = ??
       CODE:1a70 02 1b 37        LJMP       LAB_CODE_1b37
                             LAB_CODE_1a73                                   XREF[1]:     CODE:1a6d(j)  
       CODE:1a73 02 1b 02        LJMP       LAB_CODE_1b02
                             LAB_CODE_1a76                                   XREF[1]:     CODE:1a67(j)  
       CODE:1a76 30 2e 0c        JNB        25.6,LAB_CODE_1a85                                         = ??
       CODE:1a79 12 26 01        LCALL      FUN_CODE_2601                                              undefined FUN_CODE_2601()
       CODE:1a7c 20 d5 03        JB         F0,LAB_CODE_1a82                                           = ??
       CODE:1a7f 02 1b 3c        LJMP       LAB_CODE_1b3c
                             LAB_CODE_1a82                                   XREF[1]:     CODE:1a7c(j)  
       CODE:1a82 02 1b 1d        LJMP       LAB_CODE_1b1d
                             LAB_CODE_1a85                                   XREF[1]:     CODE:1a76(j)  
       CODE:1a85 30 2f 0c        JNB        25.7,LAB_CODE_1a94                                         = ??
       CODE:1a88 12 26 06        LCALL      FUN_CODE_2606                                              undefined FUN_CODE_2606()
       CODE:1a8b 20 d5 03        JB         F0,LAB_CODE_1a91                                           = ??
       CODE:1a8e 02 1b 41        LJMP       LAB_CODE_1b41
                             LAB_CODE_1a91                                   XREF[1]:     CODE:1a8b(j)  
       CODE:1a91 02 1b 29        LJMP       LAB_CODE_1b29
                             LAB_CODE_1a94                                   XREF[1]:     CODE:1a85(j)  
       CODE:1a94 20 34 1e        JB         26.4,LAB_CODE_1ab5                                         = ??
       CODE:1a97 30 30 0c        JNB        26.0,LAB_CODE_1aa6                                         = ??
       CODE:1a9a 12 26 0b        LCALL      FUN_CODE_260b                                              undefined FUN_CODE_260b()
       CODE:1a9d 20 d5 03        JB         F0,LAB_CODE_1aa3                                           = ??
       CODE:1aa0 02 1b 46        LJMP       LAB_CODE_1b46
                             LAB_CODE_1aa3                                   XREF[1]:     CODE:1a9d(j)  
       CODE:1aa3 02 1b 75        LJMP       LAB_CODE_1b75
                             LAB_CODE_1aa6                                   XREF[1]:     CODE:1a97(j)  
       CODE:1aa6 30 31 0c        JNB        26.1,LAB_CODE_1ab5                                         = ??
       CODE:1aa9 12 26 10        LCALL      FUN_CODE_2610                                              undefined FUN_CODE_2610()
       CODE:1aac 20 d5 03        JB         F0,LAB_CODE_1ab2                                           = ??
       CODE:1aaf 02 1b 4b        LJMP       LAB_CODE_1b4b
                             LAB_CODE_1ab2                                   XREF[1]:     CODE:1aac(j)  
       CODE:1ab2 02 1b 8f        LJMP       LAB_CODE_1b8f
                             LAB_CODE_1ab5                                   XREF[2]:     CODE:1a94(j), CODE:1aa6(j)  
       CODE:1ab5 30 32 0c        JNB        26.2,LAB_CODE_1ac4                                         = ??
       CODE:1ab8 12 26 15        LCALL      FUN_CODE_2615                                              undefined FUN_CODE_2615()
       CODE:1abb 20 d5 03        JB         F0,LAB_CODE_1ac1                                           = ??
       CODE:1abe 02 1b 50        LJMP       LAB_CODE_1b50
                             LAB_CODE_1ac1                                   XREF[1]:     CODE:1abb(j)  
       CODE:1ac1 02 1b 60        LJMP       LAB_CODE_1b60
                             LAB_CODE_1ac4                                   XREF[1]:     CODE:1ab5(j)  
       CODE:1ac4 20 34 0f        JB         26.4,LAB_CODE_1ad6                                         = ??
       CODE:1ac7 30 33 0c        JNB        26.3,LAB_CODE_1ad6                                         = ??
       CODE:1aca 12 26 1a        LCALL      FUN_CODE_261a                                              undefined FUN_CODE_261a()
       CODE:1acd 20 d5 03        JB         F0,LAB_CODE_1ad3                                           = ??
       CODE:1ad0 02 1b 55        LJMP       LAB_CODE_1b55
                             LAB_CODE_1ad3                                   XREF[1]:     CODE:1acd(j)  
       CODE:1ad3 02 1b 6c        LJMP       LAB_CODE_1b6c
                             LAB_CODE_1ad6                                   XREF[3]:     CODE:1a57(j), CODE:1ac4(j), 
                                                                                          CODE:1ac7(j)  
       CODE:1ad6 c2 2b           CLR        25.3                                                       = ??
       CODE:1ad8 02 1b 5a        LJMP       LAB_CODE_1b5a
                             LAB_CODE_1adb                                   XREF[1]:     CODE:1a3a(j)  
       CODE:1adb 12 26 27        LCALL      FUN_CODE_2627                                              undefined FUN_CODE_2627()
       CODE:1ade 50 7a           JNC        LAB_CODE_1b5a
                             LAB_CODE_1ae0                                   XREF[1]:     CODE:1a65(j)  
       CODE:1ae0 c2 2c           CLR        25.4                                                       = ??
       CODE:1ae2 c2 36           CLR        26.6                                                       = ??
       CODE:1ae4 74 01           MOV        A,#0x1
       CODE:1ae6 12 24 2a        LCALL      FUN_CODE_242a                                              undefined FUN_CODE_242a()
       CODE:1ae9 74 03           MOV        A,#0x3
       CODE:1aeb 12 24 2f        LCALL      ipc_fifo_write                                             undefined ipc_fifo_write()
       CODE:1aee 20 d5 3c        JB         F0,LAB_CODE_1b2d                                           = ??
       CODE:1af1 74 01           MOV        A,#0x1
       CODE:1af3 12 24 2a        LCALL      FUN_CODE_242a                                              undefined FUN_CODE_242a()
       CODE:1af6 74 00           MOV        A,#0x0
       CODE:1af8 12 24 2f        LCALL      ipc_fifo_write                                             undefined ipc_fifo_write()
       CODE:1afb 80 30           SJMP       LAB_CODE_1b2d
                             LAB_CODE_1afd                                   XREF[1]:     CODE:1a3d(j)  
       CODE:1afd 12 26 27        LCALL      FUN_CODE_2627                                              undefined FUN_CODE_2627()
       CODE:1b00 50 58           JNC        LAB_CODE_1b5a
                             LAB_CODE_1b02                                   XREF[1]:     CODE:1a73(j)  
       CODE:1b02 c2 2d           CLR        25.5                                                       = ??
       CODE:1b04 30 d5 26        JNB        F0,LAB_CODE_1b2d                                           = ??
                             LAB_CODE_1b07                                   XREF[2]:     CODE:1b22(j), CODE:1b65(j)  
       CODE:1b07 d2 1c           SETB       23.4                                                       = ??
       CODE:1b09 75 59 04        MOV        DAT_INTMEM_59,#0x4                                         RRoD 0010
       CODE:1b0c 75 5b 04        MOV        DAT_INTMEM_5b,#0x4                                         = ??
       CODE:1b0f 75 5a 00        MOV        DAT_INTMEM_5a,#0x0                                         = ??
       CODE:1b12 d2 46           SETB       28.6                                                       = ??
       CODE:1b14 d2 33           SETB       26.3                                                       = ??
       CODE:1b16 80 15           SJMP       LAB_CODE_1b2d
                             LAB_CODE_1b18                                   XREF[1]:     CODE:1a40(j)  
       CODE:1b18 12 26 27        LCALL      FUN_CODE_2627                                              undefined FUN_CODE_2627()
       CODE:1b1b 50 3d           JNC        LAB_CODE_1b5a
                             LAB_CODE_1b1d                                   XREF[1]:     CODE:1a82(j)  
       CODE:1b1d c2 2e           CLR        25.6                                                       = ??
       CODE:1b1f 30 d5 0b        JNB        F0,LAB_CODE_1b2d                                           = ??
       CODE:1b22 80 e3           SJMP       LAB_CODE_1b07
                             LAB_CODE_1b24                                   XREF[1]:     CODE:1a43(j)  
       CODE:1b24 12 26 27        LCALL      FUN_CODE_2627                                              undefined FUN_CODE_2627()
       CODE:1b27 50 31           JNC        LAB_CODE_1b5a
                             LAB_CODE_1b29                                   XREF[1]:     CODE:1a91(j)  
       CODE:1b29 c2 2f           CLR        25.7                                                       = ??
       CODE:1b2b 80 00           SJMP       LAB_CODE_1b2d
                             LAB_CODE_1b2d                                   XREF[13]:    CODE:1aee(j), CODE:1afb(j), 
                                                                                          CODE:1b04(j), CODE:1b16(j), 
                                                                                          CODE:1b1f(j), CODE:1b2b(j), 
                                                                                          CODE:1b62(j), CODE:1b6e(j), 
                                                                                          CODE:1b77(j), CODE:1b88(j), 
                                                                                          CODE:1b96(j), CODE:1ba7(j), 
                                                                                          CODE:1bbb(j)  
       CODE:1b2d 78 a5           MOV        R0,#0xa5
       CODE:1b2f 76 00           MOV        @R0=>DAT_INTMEM_a5,#0x0                                    = ??
       CODE:1b31 22              RET
                             LAB_CODE_1b32                                   XREF[1]:     CODE:1a62(j)  
       CODE:1b32 78 a5           MOV        R0,#0xa5
       CODE:1b34 76 01           MOV        @R0=>DAT_INTMEM_a5,#0x1                                    = ??
       CODE:1b36 22              RET
                             LAB_CODE_1b37                                   XREF[1]:     CODE:1a70(j)  
       CODE:1b37 78 a5           MOV        R0,#0xa5
       CODE:1b39 76 02           MOV        @R0=>DAT_INTMEM_a5,#0x2                                    = ??
       CODE:1b3b 22              RET
                             LAB_CODE_1b3c                                   XREF[1]:     CODE:1a7f(j)  
       CODE:1b3c 78 a5           MOV        R0,#0xa5
       CODE:1b3e 76 03           MOV        @R0=>DAT_INTMEM_a5,#0x3                                    = ??
       CODE:1b40 22              RET
                             LAB_CODE_1b41                                   XREF[1]:     CODE:1a8e(j)  
       CODE:1b41 78 a5           MOV        R0,#0xa5
       CODE:1b43 76 04           MOV        @R0=>DAT_INTMEM_a5,#0x4                                    = ??
       CODE:1b45 22              RET
                             LAB_CODE_1b46                                   XREF[1]:     CODE:1aa0(j)  
       CODE:1b46 78 a5           MOV        R0,#0xa5
       CODE:1b48 76 05           MOV        @R0=>DAT_INTMEM_a5,#0x5                                    = ??
       CODE:1b4a 22              RET
                             LAB_CODE_1b4b                                   XREF[1]:     CODE:1aaf(j)  
       CODE:1b4b 78 a5           MOV        R0,#0xa5
       CODE:1b4d 76 06           MOV        @R0=>DAT_INTMEM_a5,#0x6                                    = ??
       CODE:1b4f 22              RET
                             LAB_CODE_1b50                                   XREF[1]:     CODE:1abe(j)  
       CODE:1b50 78 a5           MOV        R0,#0xa5
       CODE:1b52 76 07           MOV        @R0=>DAT_INTMEM_a5,#0x7                                    = ??
       CODE:1b54 22              RET
                             LAB_CODE_1b55                                   XREF[1]:     CODE:1ad0(j)  
       CODE:1b55 78 a5           MOV        R0,#0xa5
       CODE:1b57 76 08           MOV        @R0=>DAT_INTMEM_a5,#0x8                                    = ??
       CODE:1b59 22              RET
                             LAB_CODE_1b5a                                   XREF[9]:     CODE:1ad8(j), CODE:1ade(j), 
                                                                                          CODE:1b00(j), CODE:1b1b(j), 
                                                                                          CODE:1b27(j), CODE:1b5e(j), 
                                                                                          CODE:1b6a(j), CODE:1b73(j), 
                                                                                          CODE:1b8d(j)  
       CODE:1b5a 22              RET
                             LAB_CODE_1b5b                                   XREF[1]:     CODE:1a4c(j)  
       CODE:1b5b 12 26 27        LCALL      FUN_CODE_2627                                              undefined FUN_CODE_2627()
       CODE:1b5e 50 fa           JNC        LAB_CODE_1b5a
                             LAB_CODE_1b60                                   XREF[1]:     CODE:1ac1(j)  
       CODE:1b60 c2 32           CLR        26.2                                                       = ??
       CODE:1b62 30 d5 c8        JNB        F0,LAB_CODE_1b2d                                           = ??
       CODE:1b65 80 a0           SJMP       LAB_CODE_1b07
                             LAB_CODE_1b67                                   XREF[1]:     CODE:1a4f(j)  
       CODE:1b67 12 26 27        LCALL      FUN_CODE_2627                                              undefined FUN_CODE_2627()
       CODE:1b6a 50 ee           JNC        LAB_CODE_1b5a
                             LAB_CODE_1b6c                                   XREF[1]:     CODE:1ad3(j)  
       CODE:1b6c c2 33           CLR        26.3                                                       = ??
       CODE:1b6e 80 bd           SJMP       LAB_CODE_1b2d
                             LAB_CODE_1b70                                   XREF[1]:     CODE:1a46(j)  
       CODE:1b70 12 26 27        LCALL      FUN_CODE_2627                                              undefined FUN_CODE_2627()
       CODE:1b73 50 e5           JNC        LAB_CODE_1b5a
                             LAB_CODE_1b75                                   XREF[1]:     CODE:1aa3(j)  
       CODE:1b75 c2 30           CLR        26.0                                                       = ??
       CODE:1b77 20 d5 b3        JB         F0,LAB_CODE_1b2d                                           = ??
       CODE:1b7a 53 5d 5c        ANL        DAT_INTMEM_5d,#0x5c                                        = ??
       CODE:1b7d 78 b8           MOV        R0,#0xb8
       CODE:1b7f e6              MOV        A,@R0=>DAT_INTMEM_b8                                       = ??
       CODE:1b80 54 03           ANL        A,#0x3
       CODE:1b82 45 5d           ORL        A,DAT_INTMEM_5d                                            = ??
       CODE:1b84 d2 e5           SETB       ACC.5                                                      = ??
       CODE:1b86 f5 5d           MOV        DAT_INTMEM_5d,A                                            = ??
       CODE:1b88 80 a3           SJMP       LAB_CODE_1b2d
                             LAB_CODE_1b8a                                   XREF[1]:     CODE:1a49(j)  
       CODE:1b8a 12 26 27        LCALL      FUN_CODE_2627                                              undefined FUN_CODE_2627()
       CODE:1b8d 50 cb           JNC        LAB_CODE_1b5a
                             LAB_CODE_1b8f                                   XREF[1]:     CODE:1ab2(j)  
       CODE:1b8f c2 31           CLR        26.1                                                       = ??
       CODE:1b91 30 d5 04        JNB        F0,LAB_CODE_1b98                                           = ??
       CODE:1b94 d2 0a           SETB       21.2                                                       = ??
       CODE:1b96 80 95           SJMP       LAB_CODE_1b2d
                             LAB_CODE_1b98                                   XREF[1]:     CODE:1b91(j)  
       CODE:1b98 78 b8           MOV        R0,#0xb8
       CODE:1b9a e6              MOV        A,@R0=>DAT_INTMEM_b8                                       = ??
       CODE:1b9b 30 56 0b        JNB        2a.6,LAB_CODE_1ba9                                         = ??
       CODE:1b9e 78 ab           MOV        R0,#0xab
       CODE:1ba0 f6              MOV        @R0=>DAT_INTMEM_ab,A                                       = ??
       CODE:1ba1 78 aa           MOV        R0,#0xaa
       CODE:1ba3 76 07           MOV        @R0=>DAT_INTMEM_aa,#0x7                                    = ??
       CODE:1ba5 d2 3c           SETB       27.4                                                       = ??
       CODE:1ba7 80 84           SJMP       LAB_CODE_1b2d
                             LAB_CODE_1ba9                                   XREF[1]:     CODE:1b9b(j)  
       CODE:1ba9 a2 14           MOV        CY,22.4                                                    = ??
       CODE:1bab 72 e0           ORL        CY,ACC.0                                                   = ??
       CODE:1bad 92 14           MOV        22.4,CY                                                    = ??
       CODE:1baf a2 0a           MOV        CY,21.2                                                    = ??
       CODE:1bb1 72 e2           ORL        CY,ACC.2                                                   = ??
       CODE:1bb3 92 0a           MOV        21.2,CY                                                    = ??
       CODE:1bb5 a2 0b           MOV        CY,21.3                                                    = ??
       CODE:1bb7 72 e3           ORL        CY,ACC.3                                                   = ??
       CODE:1bb9 92 0b           MOV        21.3,CY                                                    = ??
       CODE:1bbb 02 1b 2d        LJMP       LAB_CODE_1b2d
                             **************************************************************
                             *                          FUNCTION                          *
                             **************************************************************
                             undefined FUN_CODE_1bbe()
             undefined         ACC:1          <RETURN>
                             FUN_CODE_1bbe                                   XREF[1]:     FUN_CODE_0775:07b6(c)  
       CODE:1bbe 78 81           MOV        R0,#0x81
       CODE:1bc0 e6              MOV        A,@R0=>DAT_INTMEM_81                                       = ??
       CODE:1bc1 60 03           JZ         LAB_CODE_1bc6
       CODE:1bc3 78 81           MOV        R0,#0x81
       CODE:1bc5 16              DEC        @R0=>DAT_INTMEM_81                                         = ??
                             LAB_CODE_1bc6                                   XREF[1]:     CODE:1bc1(j)  
       CODE:1bc6 12 2a c4        LCALL      FUN_CODE_2ac4                                              undefined FUN_CODE_2ac4()
       CODE:1bc9 70 01           JNZ        LAB_CODE_1bcc
       CODE:1bcb 22              RET
                             LAB_CODE_1bcc                                   XREF[1]:     CODE:1bc9(j)  
       CODE:1bcc 85 2f f0        MOV        B,DAT_INTMEM_2f                                            = ??
       CODE:1bcf 30 f5 01        JNB        B.5,LAB_CODE_1bd3                                          = ??
       CODE:1bd2 22              RET
                             LAB_CODE_1bd3                                   XREF[1]:     CODE:1bcf(j)  
       CODE:1bd3 20 e6 24        JB         ACC.6,LAB_CODE_1bfa                                        = ??
       CODE:1bd6 b4 07 1b        CJNE       A,#0x7,LAB_CODE_1bf4
       CODE:1bd9 c2 d5           CLR        F0                                                         = ??
       CODE:1bdb 78 80           MOV        R0,#0x80
       CODE:1bdd e6              MOV        A,@R0=>DAT_INTMEM_80                                       = ??
       CODE:1bde 78 80           MOV        R0,#0x80
       CODE:1be0 a6 f0           MOV        @R0=>DAT_INTMEM_80,B                                       = ??
       CODE:1be2 b5 f0 07        CJNE       A,B,LAB_CODE_1bec
       CODE:1be5 78 81           MOV        R0,#0x81
       CODE:1be7 e6              MOV        A,@R0=>DAT_INTMEM_81                                       = ??
       CODE:1be8 60 02           JZ         LAB_CODE_1bec
       CODE:1bea d2 d5           SETB       F0                                                         = ??
                             LAB_CODE_1bec                                   XREF[2]:     CODE:1be2(j), CODE:1be8(j)  
       CODE:1bec 74 07           MOV        A,#0x7
       CODE:1bee 78 81           MOV        R0,#0x81
       CODE:1bf0 76 0d           MOV        @R0=>DAT_INTMEM_81,#0xd                                    = ??
       CODE:1bf2 80 1e           SJMP       LAB_CODE_1c12
                             LAB_CODE_1bf4                                   XREF[1]:     CODE:1bd6(j)  
       CODE:1bf4 78 80           MOV        R0,#0x80
       CODE:1bf6 76 00           MOV        @R0=>DAT_INTMEM_80,#0x0                                    = ??
       CODE:1bf8 80 5b           SJMP       LAB_CODE_1c55
                             LAB_CODE_1bfa                                   XREF[1]:     CODE:1bd3(j)  
       CODE:1bfa 30 00 07        JNB        20.0,LAB_CODE_1c04
       CODE:1bfd c2 00           CLR        20.0
       CODE:1bff a2 e7           MOV        CY,ACC.7                                                   = ??
       CODE:1c01 b3              CPL        CY
       CODE:1c02 92 01           MOV        20.1,CY                                                    = ??
                             LAB_CODE_1c04                                   XREF[1]:     CODE:1bfa(j)  
       CODE:1c04 a2 01           MOV        CY,20.1                                                    = ??
       CODE:1c06 92 d5           MOV        F0,CY                                                      = ??
       CODE:1c08 20 e7 02        JB         ACC.7,LAB_CODE_1c0d                                        = ??
       CODE:1c0b b2 d5           CPL        F0                                                         = ??
                             LAB_CODE_1c0d                                   XREF[1]:     CODE:1c08(j)  
       CODE:1c0d 20 d5 02        JB         F0,LAB_CODE_1c12                                           = ??
       CODE:1c10 b2 01           CPL        20.1                                                       = ??
                             LAB_CODE_1c12                                   XREF[2]:     CODE:1bf2(j), CODE:1c0d(j)  
       CODE:1c12 30 02 03        JNB        20.2,LAB_CODE_1c18                                         = ??
       CODE:1c15 20 d5 54        JB         F0,LAB_CODE_1c6c                                           = ??
                             LAB_CODE_1c18                                   XREF[1]:     CODE:1c12(j)  
       CODE:1c18 c2 02           CLR        20.2                                                       = ??
       CODE:1c1a ba 0c 06        CJNE       R2,#0xc,LAB_CODE_1c23
       CODE:1c1d 20 d5 4c        JB         F0,LAB_CODE_1c6c                                           = ??
       CODE:1c20 d2 20           SETB       24.0                                                       = ??
       CODE:1c22 22              RET
                             LAB_CODE_1c23                                   XREF[1]:     CODE:1c1a(j)  
       CODE:1c23 ba 28 06        CJNE       R2,#0x28,LAB_CODE_1c2c
       CODE:1c26 20 d5 43        JB         F0,LAB_CODE_1c6c                                           = ??
       CODE:1c29 d2 23           SETB       24.3                                                       = ??
       CODE:1c2b 22              RET
                             LAB_CODE_1c2c                                   XREF[1]:     CODE:1c23(j)  
       CODE:1c2c 20 1f 0b        JB         23.7,LAB_CODE_1c3a                                         = ??
       CODE:1c2f ba 29 06        CJNE       R2,#0x29,LAB_CODE_1c38
       CODE:1c32 20 d5 37        JB         F0,LAB_CODE_1c6c                                           = ??
       CODE:1c35 d2 20           SETB       24.0                                                       = ??
       CODE:1c37 22              RET
                             LAB_CODE_1c38                                   XREF[1]:     CODE:1c2f(j)  
       CODE:1c38 80 1b           SJMP       LAB_CODE_1c55
                             LAB_CODE_1c3a                                   XREF[1]:     CODE:1c2c(j)  
       CODE:1c3a ba 0d 06        CJNE       R2,#0xd,LAB_CODE_1c43
       CODE:1c3d 20 d5 2c        JB         F0,LAB_CODE_1c6c                                           = ??
       CODE:1c40 d2 22           SETB       24.2                                                       = ??
       CODE:1c42 22              RET
                             LAB_CODE_1c43                                   XREF[1]:     CODE:1c3a(j)  
       CODE:1c43 ba 64 06        CJNE       R2,#0x64,LAB_CODE_1c4c
       CODE:1c46 20 d5 23        JB         F0,LAB_CODE_1c6c                                           = ??
       CODE:1c49 d2 21           SETB       24.1                                                       = ??
       CODE:1c4b 22              RET
                             LAB_CODE_1c4c                                   XREF[1]:     CODE:1c43(j)  
       CODE:1c4c ba 2a 06        CJNE       R2,#0x2a,LAB_CODE_1c55
       CODE:1c4f 20 d5 1a        JB         F0,LAB_CODE_1c6c                                           = ??
       CODE:1c52 d2 20           SETB       24.0                                                       = ??
       CODE:1c54 22              RET
                             LAB_CODE_1c55                                   XREF[3]:     CODE:1bf8(j), CODE:1c38(j), 
                                                                                          CODE:1c4c(j)  
       CODE:1c55 8a f0           MOV        B,R2
       CODE:1c57 78 ab           MOV        R0,#0xab
       CODE:1c59 a6 f0           MOV        @R0=>DAT_INTMEM_ab,B                                       = ??
       CODE:1c5b 8b f0           MOV        B,R3
       CODE:1c5d 78 ac           MOV        R0,#0xac
       CODE:1c5f a6 f0           MOV        @R0=>DAT_INTMEM_ac,B                                       = ??
       CODE:1c61 8c f0           MOV        B,R4
       CODE:1c63 78 ad           MOV        R0,#0xad
       CODE:1c65 a6 f0           MOV        @R0=>DAT_INTMEM_ad,B                                       = ??
       CODE:1c67 78 aa           MOV        R0,#0xaa
       CODE:1c69 f6              MOV        @R0=>DAT_INTMEM_aa,A                                       = ??
       CODE:1c6a d2 3c           SETB       27.4                                                       = ??
                             LAB_CODE_1c6c                                   XREF[7]:     CODE:1c15(j), CODE:1c1d(j), 
                                                                                          CODE:1c26(j), CODE:1c32(j), 
                                                                                          CODE:1c3d(j), CODE:1c46(j), 
                                                                                          CODE:1c4f(j)  
       CODE:1c6c 22              RET
                             LAB_CODE_1c6d                                   XREF[7]:     CODE:1cae(j), CODE:1cb3(j), 
                                                                                          CODE:1cd6(j), CODE:1cf7(j), 
                                                                                          CODE:1d01(j), CODE:1d07(j), 
                                                                                          CODE:1d0c(j)  
       CODE:1c6d 78 a6           MOV        R0,#0xa6
       CODE:1c6f 76 00           MOV        @R0=>DAT_INTMEM_a6,#0x0                                    = ??
       CODE:1c71 22              RET
                             LAB_CODE_1c72                                   XREF[1]:     CODE:1ca9(j)  
       CODE:1c72 78 a6           MOV        R0,#0xa6
       CODE:1c74 76 01           MOV        @R0=>DAT_INTMEM_a6,#0x1                                    = ??
       CODE:1c76 22              RET
                             LAB_CODE_1c77                                   XREF[5]:     CODE:1cb5(j), CODE:1ccd(j), 
                                                                                          CODE:1cd2(j), CODE:1cdb(j), 
                                                                                          CODE:1ce0(j)  
       CODE:1c77 78 a6           MOV        R0,#0xa6
       CODE:1c79 76 02           MOV        @R0=>DAT_INTMEM_a6,#0x2                                    = ??
       CODE:1c7b 22              RET
                             LAB_CODE_1c7c                                   XREF[1]:     CODE:1cc5(j)  
       CODE:1c7c 78 a6           MOV        R0,#0xa6
       CODE:1c7e 76 03           MOV        @R0=>DAT_INTMEM_a6,#0x3                                    = ??
       CODE:1c80 22              RET
                             LAB_CODE_1c81                                   XREF[1]:     CODE:1cc8(j)  
       CODE:1c81 78 a6           MOV        R0,#0xa6
       CODE:1c83 76 04           MOV        @R0=>DAT_INTMEM_a6,#0x4                                    = ??
       CODE:1c85 22              RET
                             LAB_CODE_1c86                                   XREF[3]:     CODE:1ca2(j), CODE:1ca7(j), 
                                                                                          CODE:1cc2(j)  
       CODE:1c86 22              RET
                             **************************************************************
                             *                          FUNCTION                          *
                             **************************************************************
                             undefined powerejectsw_sm_exec()
             undefined         ACC:1          <RETURN>
                             powerejectsw_sm_exec                            XREF[1]:     FUN_CODE_0775:07aa(c)  
       CODE:1c87 78 a6           MOV        R0,#0xa6
       CODE:1c89 e6              MOV        A,@R0=>DAT_INTMEM_a6                                       = ??
       CODE:1c8a 26              ADD        A,@R0=>DAT_INTMEM_a6                                       = ??
       CODE:1c8b 26              ADD        A,@R0=>DAT_INTMEM_a6                                       = ??
       CODE:1c8c 90 1c 90        MOV        DPTR,#0x1c90
       CODE:1c8f 73              JMP        @A+DPTR
       CODE:1c90 02 1c 9f        LJMP       LAB_CODE_1c9f
       CODE:1c93 02 1c ab        LJMP       LAB_CODE_1cab
       CODE:1c96 02 1c b7        LJMP       LAB_CODE_1cb7
       CODE:1c99 02 1c ca        LJMP       LAB_CODE_1cca                                              state 3 - powerswitch pushed
       CODE:1c9c 02 1c d8        LJMP       LAB_CODE_1cd8                                              state 4 - ejectswitch pushed
                             LAB_CODE_1c9f                                   XREF[1]:     CODE:1c90(j)  
       CODE:1c9f 12 25 9e        LCALL      powersw_read                                               if either pushed, short circuit
       CODE:1ca2 40 e2           JC         LAB_CODE_1c86
       CODE:1ca4 12 25 a2        LCALL      ejectsw_read                                               undefined ejectsw_read()
       CODE:1ca7 40 dd           JC         LAB_CODE_1c86
       CODE:1ca9 80 c7           SJMP       LAB_CODE_1c72                                              else go next state
                             LAB_CODE_1cab                                   XREF[1]:     CODE:1c93(j)  
       CODE:1cab 12 25 9e        LCALL      powersw_read                                               second pass to debounce inputs
       CODE:1cae 40 bd           JC         LAB_CODE_1c6d
       CODE:1cb0 12 25 a2        LCALL      ejectsw_read                                               undefined ejectsw_read()
       CODE:1cb3 40 b8           JC         LAB_CODE_1c6d
       CODE:1cb5 80 c0           SJMP       LAB_CODE_1c77
                             LAB_CODE_1cb7                                   XREF[1]:     CODE:1c96(j)  
       CODE:1cb7 e4              CLR        A
       CODE:1cb8 12 25 9e        LCALL      powersw_read                                               update status of these things
       CODE:1cbb 92 e0           MOV        ACC.0,CY                                                   ACC.0 = is powersw pushed?
       CODE:1cbd 12 25 a2        LCALL      ejectsw_read                                               undefined ejectsw_read()
       CODE:1cc0 92 e1           MOV        ACC.1,CY                                                   ACC.1 = is ejectsw pushed?
       CODE:1cc2 30 d0 c1        JNB        P,LAB_CODE_1c86                                            one must be pushed;
                                                                                                       not both
       CODE:1cc5 20 e0 b4        JB         ACC.0,LAB_CODE_1c7c                                        if powerswitch pushed,
                                                                                                       go to state 3
       CODE:1cc8 80 b7           SJMP       LAB_CODE_1c81                                              otherwise, assume eject
                                                                                                       was pressed and go to
                                                                                                       state 4
                             LAB_CODE_1cca                                   XREF[1]:     CODE:1c99(j)  
       CODE:1cca 12 25 a2        LCALL      ejectsw_read                                               undefined ejectsw_read()
       CODE:1ccd 40 a8           JC         LAB_CODE_1c77
       CODE:1ccf 12 25 9e        LCALL      powersw_read                                               undefined powersw_read()
       CODE:1cd2 50 a3           JNC        LAB_CODE_1c77
       CODE:1cd4 d2 08           SETB       g_powerswitch_pushed                                       = ??
       CODE:1cd6 80 95           SJMP       LAB_CODE_1c6d                                              handled it - back to state 0
                             LAB_CODE_1cd8                                   XREF[1]:     CODE:1c9c(j)  
       CODE:1cd8 12 25 9e        LCALL      powersw_read                                               if powerswitch is suddenly pushed
       CODE:1cdb 40 9a           JC         LAB_CODE_1c77                                              go back to state 2
       CODE:1cdd 12 25 a2        LCALL      ejectsw_read                                               if ejectswitch suddenly released
       CODE:1ce0 50 95           JNC        LAB_CODE_1c77                                              go back to state 2
       CODE:1ce2 78 af           MOV        R0,#0xaf
       CODE:1ce4 e6              MOV        A,@R0=>DAT_INTMEM_af                                       load whatever is here
       CODE:1ce5 60 23           JZ         LAB_CODE_1d0a
       CODE:1ce7 12 25 a6        LCALL      FUN_CODE_25a6                                              undefined FUN_CODE_25a6()
       CODE:1cea 50 1e           JNC        LAB_CODE_1d0a
       CODE:1cec d2 48           SETB       29.0                                                       = ??
       CODE:1cee d2 33           SETB       26.3                                                       = ??
       CODE:1cf0 e5 5a           MOV        A,DAT_INTMEM_5a                                            = ??
       CODE:1cf2 70 06           JNZ        LAB_CODE_1cfa
       CODE:1cf4 75 5a 40        MOV        DAT_INTMEM_5a,#0x40                                        = ??
       CODE:1cf7 02 1c 6d        LJMP       LAB_CODE_1c6d
                             LAB_CODE_1cfa                                   XREF[1]:     CODE:1cf2(j)  
       CODE:1cfa 20 e0 07        JB         ACC.0,LAB_CODE_1d04                                        = ??
       CODE:1cfd 03              RR         A
       CODE:1cfe 03              RR         A
       CODE:1cff f5 5a           MOV        DAT_INTMEM_5a,A                                            = ??
       CODE:1d01 02 1c 6d        LJMP       LAB_CODE_1c6d
                             LAB_CODE_1d04                                   XREF[1]:     CODE:1cfa(j)  
       CODE:1d04 75 5a 00        MOV        DAT_INTMEM_5a,#0x0                                         = ??
       CODE:1d07 02 1c 6d        LJMP       LAB_CODE_1c6d
                             LAB_CODE_1d0a                                   XREF[2]:     CODE:1ce5(j), CODE:1cea(j)  
       CODE:1d0a d2 09           SETB       g_ejectswitch_pushed?                                      = ??
       CODE:1d0c 02 1c 6d        LJMP       LAB_CODE_1c6d
                             **************************************************************
                             *                          FUNCTION                          *
                             **************************************************************
                             undefined FUN_CODE_1d0f()
             undefined         ACC:1          <RETURN>
                             FUN_CODE_1d0f                                   XREF[1]:     FUN_CODE_0775:07a4(c)  
       CODE:1d0f 30 17 05        JNB        22.7,LAB_CODE_1d17                                         = ??
       CODE:1d12 12 23 ce        LCALL      FUN_CODE_23ce                                              check 12v power good signal
       CODE:1d15 50 2c           JNC        LAB_CODE_1d43
                             LAB_CODE_1d17                                   XREF[1]:     CODE:1d0f(j)  
       CODE:1d17 30 18 05        JNB        23.0,LAB_CODE_1d1f                                         = ??
       CODE:1d1a 12 23 eb        LCALL      FUN_CODE_23eb                                              undefined FUN_CODE_23eb()
       CODE:1d1d 50 34           JNC        LAB_CODE_1d53
                             LAB_CODE_1d1f                                   XREF[1]:     CODE:1d17(j)  
       CODE:1d1f 30 19 05        JNB        23.1,LAB_CODE_1d27                                         = ??
       CODE:1d22 12 00 58        LCALL      FUN_CODE_0058                                              check CPU powergood signal
       CODE:1d25 50 3c           JNC        LAB_CODE_1d63
                             LAB_CODE_1d27                                   XREF[1]:     CODE:1d1f(j)  
       CODE:1d27 30 1a 05        JNB        23.2,LAB_CODE_1d2f                                         = ??
       CODE:1d2a 12 00 36        LCALL      FUN_CODE_0036                                              check GPU powergood signal
       CODE:1d2d 50 44           JNC        LAB_CODE_1d73
                             LAB_CODE_1d2f                                   XREF[1]:     CODE:1d27(j)  
       CODE:1d2f 20 12 04        JB         22.2,LAB_CODE_1d36                                         = ??
       CODE:1d32 c2 1b           CLR        23.3                                                       = ??
       CODE:1d34 80 0c           SJMP       LAB_CODE_1d42
                             LAB_CODE_1d36                                   XREF[1]:     CODE:1d2f(j)  
       CODE:1d36 20 1b 09        JB         23.3,LAB_CODE_1d42                                         = ??
       CODE:1d39 12 00 76        LCALL      FUN_CODE_0076                                              undefined FUN_CODE_0076()
       CODE:1d3c 50 04           JNC        LAB_CODE_1d42
       CODE:1d3e d2 1b           SETB       23.3                                                       = ??
       CODE:1d40 d2 49           SETB       29.1                                                       = ??
                             LAB_CODE_1d42                                   XREF[3]:     CODE:1d34(j), CODE:1d36(j), 
                                                                                          CODE:1d3c(j)  
       CODE:1d42 22              RET
                             LAB_CODE_1d43                                   XREF[1]:     CODE:1d15(j)  
       CODE:1d43 d2 1c           SETB       23.4                                                       = ??
       CODE:1d45 75 59 01        MOV        DAT_INTMEM_59,#0x1                                         RRoD 0001
       CODE:1d48 75 5b 01        MOV        DAT_INTMEM_5b,#0x1                                         = ??
       CODE:1d4b 75 5a 00        MOV        DAT_INTMEM_5a,#0x0                                         = ??
       CODE:1d4e d2 46           SETB       28.6                                                       = ??
       CODE:1d50 d2 33           SETB       26.3                                                       = ??
       CODE:1d52 22              RET
                             LAB_CODE_1d53                                   XREF[1]:     CODE:1d1d(j)  
       CODE:1d53 d2 1c           SETB       23.4                                                       = ??
       CODE:1d55 75 59 0d        MOV        DAT_INTMEM_59,#0xd                                         RRoD 0031??
       CODE:1d58 75 5b 0d        MOV        DAT_INTMEM_5b,#0xd                                         = ??
       CODE:1d5b 75 5a 00        MOV        DAT_INTMEM_5a,#0x0                                         = ??
       CODE:1d5e d2 46           SETB       28.6                                                       = ??
       CODE:1d60 d2 33           SETB       26.3                                                       = ??
       CODE:1d62 22              RET
                             LAB_CODE_1d63                                   XREF[1]:     CODE:1d25(j)  
       CODE:1d63 d2 1c           SETB       23.4                                                       = ??
       CODE:1d65 75 59 02        MOV        DAT_INTMEM_59,#0x2                                         RRoD 0002
       CODE:1d68 75 5b 02        MOV        DAT_INTMEM_5b,#0x2                                         = ??
       CODE:1d6b 75 5a 00        MOV        DAT_INTMEM_5a,#0x0                                         = ??
       CODE:1d6e d2 46           SETB       28.6                                                       = ??
       CODE:1d70 d2 33           SETB       26.3                                                       = ??
       CODE:1d72 22              RET
                             LAB_CODE_1d73                                   XREF[1]:     CODE:1d2d(j)  
       CODE:1d73 d2 1c           SETB       23.4                                                       = ??
       CODE:1d75 75 59 03        MOV        DAT_INTMEM_59,#0x3                                         RRoD 0003
       CODE:1d78 75 5b 03        MOV        DAT_INTMEM_5b,#0x3                                         = ??
       CODE:1d7b 75 5a 00        MOV        DAT_INTMEM_5a,#0x0                                         = ??
       CODE:1d7e d2 46           SETB       28.6                                                       = ??
       CODE:1d80 d2 33           SETB       26.3                                                       = ??
       CODE:1d82 22              RET
                             LAB_CODE_1d83                                   XREF[3]:     CODE:1d9b(j), CODE:1da3(j), 
                                                                                          CODE:1dba(j)  
       CODE:1d83 78 a7           MOV        R0,#0xa7
       CODE:1d85 76 00           MOV        @R0=>DAT_INTMEM_a7,#0x0                                    = ??
       CODE:1d87 22              RET
                             LAB_CODE_1d88                                   XREF[2]:     CODE:1da6(j), CODE:1dab(j)  
       CODE:1d88 78 a7           MOV        R0,#0xa7
       CODE:1d8a 76 01           MOV        @R0=>DAT_INTMEM_a7,#0x1                                    = ??
       CODE:1d8c 22              RET
                             LAB_CODE_1d8d                                   XREF[3]:     CODE:1d99(j), CODE:1db3(j), 
                                                                                          CODE:1db8(j)  
       CODE:1d8d 78 a7           MOV        R0,#0xa7
       CODE:1d8f 76 02           MOV        @R0=>DAT_INTMEM_a7,#0x2                                    = ??
       CODE:1d91 22              RET
       CODE:1d92 22              RET
                             LAB_CODE_1d93                                   XREF[1]:     CODE:1dc5(j)  
       CODE:1d93 12 24 1b        LCALL      FUN_CODE_241b                                              undefined FUN_CODE_241b()
       CODE:1d96 12 0d 43        LCALL      FUN_CODE_0d43                                              undefined FUN_CODE_0d43()
       CODE:1d99 40 f2           JC         LAB_CODE_1d8d
       CODE:1d9b 30 35 e5        JNB        26.5,LAB_CODE_1d83                                         = ??
       CODE:1d9e c2 36           CLR        26.6                                                       = ??
       CODE:1da0 12 08 3e        LCALL      ipc_handle_messages                                        undefined ipc_handle_messages()
       CODE:1da3 30 35 dd        JNB        26.5,LAB_CODE_1d83                                         = ??
       CODE:1da6 20 36 df        JB         26.6,LAB_CODE_1d88                                         = ??
       CODE:1da9 80 03           SJMP       LAB_CODE_1dae
                             LAB_CODE_1dab                                   XREF[1]:     CODE:1dc8(j)  
       CODE:1dab 20 36 da        JB         26.6,LAB_CODE_1d88                                         = ??
                             LAB_CODE_1dae                                   XREF[1]:     CODE:1da9(j)  
       CODE:1dae 12 24 39        LCALL      FUN_CODE_2439                                              undefined FUN_CODE_2439()
       CODE:1db1 c2 35           CLR        26.5                                                       = ??
       CODE:1db3 80 d8           SJMP       LAB_CODE_1d8d
                             LAB_CODE_1db5                                   XREF[1]:     CODE:1dcb(j)  
       CODE:1db5 12 24 3d        LCALL      FUN_CODE_243d                                              undefined FUN_CODE_243d()
       CODE:1db8 50 d3           JNC        LAB_CODE_1d8d
       CODE:1dba 80 c7           SJMP       LAB_CODE_1d83
                             **************************************************************
                             *                          FUNCTION                          *
                             **************************************************************
                             undefined FUN_CODE_1dbc()
             undefined         ACC:1          <RETURN>
                             FUN_CODE_1dbc                                   XREF[1]:     FUN_CODE_0775:07dd(c)  
       CODE:1dbc 78 a7           MOV        R0,#0xa7
       CODE:1dbe e6              MOV        A,@R0=>DAT_INTMEM_a7                                       = ??
       CODE:1dbf 26              ADD        A,@R0=>DAT_INTMEM_a7                                       = ??
       CODE:1dc0 26              ADD        A,@R0=>DAT_INTMEM_a7                                       = ??
       CODE:1dc1 90 1d c5        MOV        DPTR,#0x1dc5
       CODE:1dc4 73              JMP        @A+DPTR
       CODE:1dc5 02 1d 93        LJMP       LAB_CODE_1d93
       CODE:1dc8 02 1d ab        LJMP       LAB_CODE_1dab
       CODE:1dcb 02 1d b5        LJMP       LAB_CODE_1db5
                             **************************************************************
                             *                          FUNCTION                          *
                             **************************************************************
                             undefined FUN_CODE_1dce()
             undefined         ACC:1          <RETURN>
                             FUN_CODE_1dce                                   XREF[1]:     FUN_CODE_0775:07c5(c)  
       CODE:1dce 12 23 34        LCALL      FUN_CODE_2334                                              undefined FUN_CODE_2334()
       CODE:1dd1 78 7d           MOV        R0,#0x7d
       CODE:1dd3 e6              MOV        A,@R0=>DAT_INTMEM_7d                                       = ??
       CODE:1dd4 26              ADD        A,@R0=>DAT_INTMEM_7d                                       = ??
       CODE:1dd5 26              ADD        A,@R0=>DAT_INTMEM_7d                                       = ??
       CODE:1dd6 90 1d da        MOV        DPTR,#0x1dda
       CODE:1dd9 73              JMP        @A+DPTR
       CODE:1dda 02 1e 95        LJMP       sm1dce_exec_state_0                                        state 0 - check if a bit is set
                                                                                                       if so go to state 1
       CODE:1ddd 02 1d ef        LJMP       sm1dce_exec_state_1                                        state 1 - wait for something that
                                                                                                       powers the system on to happen
       CODE:1de0 02 1f 37        LJMP       sm1dce_exec_state_2                                        state 2 - if powerup sequence
                                                                                                       prematurely aborted, stop,
                                                                                                       otherwise wait for powerup to
                                                                                                       complete and then start
                                                                                                       the watchdog
       CODE:1de3 02 1e 9a        LJMP       sm1dce_exec_state_3
       CODE:1de6 02 1f 4a        LJMP       sm1dce_exec_state_4
       CODE:1de9 02 20 04        LJMP       LAB_CODE_2004                                              state 5 - wait for reset to
                                                                                                       be acknowledged then start
                                                                                                       powering things down
       CODE:1dec 02 1e 8a        LJMP       LAB_CODE_1e8a                                              state 6 - wait for poweroff
                                                                                                       to complete, reset things, then
                                                                                                       go back to state 0
                             sm1dce_exec_state_1                             XREF[1]:     CODE:1ddd(j)  
       CODE:1def 75 3b 80        MOV        DAT_INTMEM_3b,#0x80                                        = ??
       CODE:1df2 d2 1f           SETB       23.7                                                       = ??
       CODE:1df4 75 37 62        MOV        DAT_INTMEM_37,#0x62                                        = ??
       CODE:1df7 20 03 28        JB         20.3,LAB_CODE_1e22                                         = ??
       CODE:1dfa 20 09 2a        JB         g_ejectswitch_pushed?,LAB_CODE_1e27                        = ??
       CODE:1dfd 20 23 2f        JB         24.3,LAB_CODE_1e2f                                         = ??
       CODE:1e00 20 08 34        JB         g_powerswitch_pushed,powerswitch_was_pushed                = ??
       CODE:1e03 20 20 36        JB         24.0,LAB_CODE_1e3c                                         = ??
       CODE:1e06 20 21 38        JB         24.1,LAB_CODE_1e41                                         = ??
       CODE:1e09 20 22 3a        JB         24.2,LAB_CODE_1e46                                         = ??
       CODE:1e0c 20 0a 3c        JB         21.2,LAB_CODE_1e4b                                         = ??
       CODE:1e0f 20 4c 3e        JB         g_wireless_controller_powered_system_on,LAB_CODE_1e50      = ??
       CODE:1e12 12 2c b4        LCALL      FUN_CODE_2cb4                                              check USB powerup cause
       CODE:1e15 70 3e           JNZ        LAB_CODE_1e55                                              if present jump down
       CODE:1e17 20 58 05        JB         2b.0,LAB_CODE_1e1f                                         = ??
       CODE:1e1a 12 2c b7        LCALL      FUN_CODE_2cb7                                              check all this shit
       CODE:1e1d 40 3a           JC         LAB_CODE_1e59                                              and jump if a condition is met
                             LAB_CODE_1e1f                                   XREF[1]:     CODE:1e17(j)  
       CODE:1e1f 02 1f 36        LJMP       LAB_CODE_1f36                                              otherwise do nothing
                             LAB_CODE_1e22                                   XREF[1]:     CODE:1df7(j)  
       CODE:1e22 75 62 30        MOV        g_power_up_cause,#0x30                                     undocumented
       CODE:1e25 80 3b           SJMP       LAB_CODE_1e62
                             LAB_CODE_1e27                                   XREF[1]:     CODE:1dfa(j)  
       CODE:1e27 75 37 60        MOV        DAT_INTMEM_37,#0x60                                        = ??
       CODE:1e2a 75 62 12        MOV        g_power_up_cause,#0x12                                     eject switch
       CODE:1e2d 80 33           SJMP       LAB_CODE_1e62
                             LAB_CODE_1e2f                                   XREF[1]:     CODE:1dfd(j)  
       CODE:1e2f 75 37 60        MOV        DAT_INTMEM_37,#0x60                                        = ??
       CODE:1e32 75 62 21        MOV        g_power_up_cause,#0x21                                     undocumented
       CODE:1e35 80 2b           SJMP       LAB_CODE_1e62
                             powerswitch_was_pushed                          XREF[1]:     CODE:1e00(j)  
       CODE:1e37 75 62 11        MOV        g_power_up_cause,#0x11                                     power switch
       CODE:1e3a 80 26           SJMP       LAB_CODE_1e62
                             LAB_CODE_1e3c                                   XREF[1]:     CODE:1e03(j)  
       CODE:1e3c 75 62 20        MOV        g_power_up_cause,#0x20                                     IR remote power button
       CODE:1e3f 80 21           SJMP       LAB_CODE_1e62
                             LAB_CODE_1e41                                   XREF[1]:     CODE:1e06(j)  
       CODE:1e41 75 62 22        MOV        g_power_up_cause,#0x22                                     IR remote X button
       CODE:1e44 80 1c           SJMP       LAB_CODE_1e62
                             LAB_CODE_1e46                                   XREF[1]:     CODE:1e09(j)  
       CODE:1e46 75 62 24        MOV        g_power_up_cause,#0x24                                     IR remote Windows button
       CODE:1e49 80 17           SJMP       LAB_CODE_1e62
                             LAB_CODE_1e4b                                   XREF[1]:     CODE:1e0c(j)  
       CODE:1e4b 75 62 41        MOV        g_power_up_cause,#0x41                                     Kiosk/debug pin
       CODE:1e4e 80 12           SJMP       LAB_CODE_1e62
                             LAB_CODE_1e50                                   XREF[1]:     CODE:1e0f(j)  
       CODE:1e50 75 62 55        MOV        g_power_up_cause,#0x55                                     Wireless controller
       CODE:1e53 80 0d           SJMP       LAB_CODE_1e62
                             LAB_CODE_1e55                                   XREF[1]:     CODE:1e15(j)  
       CODE:1e55 f5 62           MOV        g_power_up_cause,A                                         great, more spaghetti code
       CODE:1e57 80 09           SJMP       LAB_CODE_1e62
                             LAB_CODE_1e59                                   XREF[1]:     CODE:1e1d(j)  
       CODE:1e59 c2 57           CLR        2a.7                                                       = ??
       CODE:1e5b d2 45           SETB       28.5                                                       = ??
       CODE:1e5d 75 62 15        MOV        g_power_up_cause,#0x15                                     undocumented
       CODE:1e60 c2 25           CLR        24.5                                                       = ??
                             LAB_CODE_1e62                                   XREF[10]:    CODE:1e25(j), CODE:1e2d(j), 
                                                                                          CODE:1e35(j), CODE:1e3a(j), 
                                                                                          CODE:1e3f(j), CODE:1e44(j), 
                                                                                          CODE:1e49(j), CODE:1e4e(j), 
                                                                                          CODE:1e53(j), CODE:1e57(j)  
       CODE:1e62 c2 03           CLR        20.3                                                       clear all these bits
       CODE:1e64 c2 09           CLR        g_ejectswitch_pushed?                                      = ??
       CODE:1e66 c2 23           CLR        24.3                                                       = ??
       CODE:1e68 c2 08           CLR        g_powerswitch_pushed                                       = ??
       CODE:1e6a c2 20           CLR        24.0                                                       = ??
       CODE:1e6c c2 21           CLR        24.1                                                       = ??
       CODE:1e6e c2 0a           CLR        21.2                                                       = ??
       CODE:1e70 c2 0b           CLR        21.3                                                       = ??
       CODE:1e72 c2 4c           CLR        g_wireless_controller_powered_system_on                    = ??
       CODE:1e74 c2 1f           CLR        23.7                                                       = ??
       CODE:1e76 d2 02           SETB       20.2                                                       = ??
       CODE:1e78 75 61 81        MOV        DAT_INTMEM_61,#0x81                                        = ??
       CODE:1e7b d2 47           SETB       28.7                                                       = ??
       CODE:1e7d d2 48           SETB       29.0                                                       = ??
       CODE:1e7f 20 1c 05        JB         23.4,LAB_CODE_1e87                                         if this bit is set,
                                                                                                       abandon the reset
       CODE:1e82 d2 0d           SETB       g_powerup_sm_should_run                                    otherwise, start powering up
       CODE:1e84 02 1f 1d        LJMP       LAB_CODE_1f1d                                              and go to state 2
                             LAB_CODE_1e87                                   XREF[1]:     CODE:1e7f(j)  
       CODE:1e87 02 20 12        LJMP       LAB_CODE_2012
                             LAB_CODE_1e8a                                   XREF[1]:     CODE:1dec(j)  
       CODE:1e8a 20 10 2b        JB         g_powerdown_sm_should_run,LAB_CODE_1eb8                    wait for powerdown sequence
                                                                                                       to finish before doing this
       CODE:1e8d 12 08 0d        LCALL      FUN_CODE_080d                                              reset a few things
       CODE:1e90 d2 0c           SETB       21.4                                                       start 0x1196 statemachine
       CODE:1e92 02 1f 13        LJMP       LAB_CODE_1f13                                              go to state 0
                             sm1dce_exec_state_0                             XREF[1]:     CODE:1dda(j)  
       CODE:1e95 20 0c 20        JB         21.4,LAB_CODE_1eb8                                         bit must be clear before
                                                                                                       starting the bulk of this
                                                                                                       statemachine's logic
       CODE:1e98 80 7e           SJMP       LAB_CODE_1f18                                              else go state 1
                             sm1dce_exec_state_3                             XREF[1]:     CODE:1de3(j)  
       CODE:1e9a 75 3b aa        MOV        DAT_INTMEM_3b,#0xaa                                        = ??
       CODE:1e9d 75 3a 00        MOV        DAT_INTMEM_3a,#0x0                                         = ??
       CODE:1ea0 20 1c 6d        JB         23.4,LAB_CODE_1f10                                         abort if either of
                                                                                                       these bits are set
       CODE:1ea3 20 1d 6a        JB         23.5,LAB_CODE_1f10                                         = ??
       CODE:1ea6 30 0e 50        JNB        g_sysreset_watchdog_should_run,LAB_CODE_1ef9               if watchdog is stopped
                                                                                                       do whatever this is
       CODE:1ea9 20 09 0e        JB         g_ejectswitch_pushed?,LAB_CODE_1eba                        = ??
       CODE:1eac 20 23 25        JB         24.3,LAB_CODE_1ed4                                         = ??
       CODE:1eaf 20 12 06        JB         22.2,LAB_CODE_1eb8                                         = ??
       CODE:1eb2 20 08 39        JB         g_powerswitch_pushed,LAB_CODE_1eee                         = ??
       CODE:1eb5 20 20 36        JB         24.0,LAB_CODE_1eee                                         = ??
                             LAB_CODE_1eb8                                   XREF[3]:     CODE:1e8a(j), CODE:1e95(j), 
                                                                                          CODE:1eaf(j)  
       CODE:1eb8 80 7c           SJMP       LAB_CODE_1f36
                             LAB_CODE_1eba                                   XREF[1]:     CODE:1ea9(j)  
       CODE:1eba c2 09           CLR        g_ejectswitch_pushed?                                      = ??
       CODE:1ebc e5 37           MOV        A,DAT_INTMEM_37                                            = ??
       CODE:1ebe 75 37 60        MOV        DAT_INTMEM_37,#0x60                                        = ??
       CODE:1ec1 b4 60 05        CJNE       A,#0x60,LAB_CODE_1ec9
       CODE:1ec4 75 37 62        MOV        DAT_INTMEM_37,#0x62                                        = ??
       CODE:1ec7 80 09           SJMP       LAB_CODE_1ed2
                             LAB_CODE_1ec9                                   XREF[1]:     CODE:1ec1(j)  
       CODE:1ec9 b4 65 06        CJNE       A,#0x65,LAB_CODE_1ed2
       CODE:1ecc 20 28 03        JB         25.0,LAB_CODE_1ed2                                         = ??
       CODE:1ecf 75 37 62        MOV        DAT_INTMEM_37,#0x62                                        = ??
                             LAB_CODE_1ed2                                   XREF[3]:     CODE:1ec7(j), CODE:1ec9(j), 
                                                                                          CODE:1ecc(j)  
       CODE:1ed2 80 62           SJMP       LAB_CODE_1f36
                             LAB_CODE_1ed4                                   XREF[1]:     CODE:1eac(j)  
       CODE:1ed4 c2 23           CLR        24.3                                                       = ??
       CODE:1ed6 e5 37           MOV        A,DAT_INTMEM_37                                            = ??
       CODE:1ed8 75 37 60        MOV        DAT_INTMEM_37,#0x60                                        = ??
       CODE:1edb b4 60 05        CJNE       A,#0x60,LAB_CODE_1ee3
       CODE:1ede 75 37 62        MOV        DAT_INTMEM_37,#0x62                                        = ??
       CODE:1ee1 80 09           SJMP       LAB_CODE_1eec
                             LAB_CODE_1ee3                                   XREF[1]:     CODE:1edb(j)  
       CODE:1ee3 b4 65 06        CJNE       A,#0x65,LAB_CODE_1eec
       CODE:1ee6 20 28 03        JB         25.0,LAB_CODE_1eec                                         = ??
       CODE:1ee9 75 37 62        MOV        DAT_INTMEM_37,#0x62                                        = ??
                             LAB_CODE_1eec                                   XREF[3]:     CODE:1ee1(j), CODE:1ee3(j), 
                                                                                          CODE:1ee6(j)  
       CODE:1eec 80 48           SJMP       LAB_CODE_1f36
                             LAB_CODE_1eee                                   XREF[2]:     CODE:1eb2(j), CODE:1eb5(j)  
       CODE:1eee c2 0d           CLR        g_powerup_sm_should_run                                    = ??
       CODE:1ef0 c2 10           CLR        g_powerdown_sm_should_run                                  = ??
       CODE:1ef2 c2 0e           CLR        g_sysreset_watchdog_should_run                             = ??
       CODE:1ef4 c2 0f           CLR        g_requesting_reset                                         = ??
       CODE:1ef6 02 1f c4        LJMP       LAB_CODE_1fc4
                             LAB_CODE_1ef9                                   XREF[1]:     CODE:1ea6(j)  
       CODE:1ef9 90 1f 0a        MOV        DPTR,#0x1f0a
       CODE:1efc e5 3e           MOV        A,g_num_boot_tries                                         additional wait delay
                                                                                                       on failed boots
       CODE:1efe 93              MOVC       A,@A+DPTR=>DAT_CODE_1f0a
       CODE:1eff f5 3a           MOV        DAT_INTMEM_3a,A                                            = ??
       CODE:1f01 d2 37           SETB       26.7                                                       = ??
       CODE:1f03 d2 3e           SETB       27.6                                                       = ??
       CODE:1f05 75 3d 00        MOV        DAT_INTMEM_3d,#0x0                                         = ??
       CODE:1f08 80 1d           SJMP       LAB_CODE_1f27
                             DAT_CODE_1f0a                                   XREF[1]:     CODE:1efe(*)  
       CODE:1f0a 00              ??         00h
       CODE:1f0b 80              ??         80h
       CODE:1f0c a0              ??         A0h
       CODE:1f0d a8              ??         A8h
       CODE:1f0e aa              ??         AAh
       CODE:1f0f ff              ??         FFh
                             LAB_CODE_1f10                                   XREF[6]:     CODE:1ea0(j), CODE:1ea3(j), 
                                                                                          CODE:1f3a(j), CODE:1f3d(j), 
                                                                                          CODE:1f4d(j), CODE:1f50(j)  
       CODE:1f10 02 20 12        LJMP       LAB_CODE_2012
                             LAB_CODE_1f13                                   XREF[1]:     CODE:1e92(j)  
       CODE:1f13 78 7d           MOV        R0,#0x7d
       CODE:1f15 76 00           MOV        @R0=>DAT_INTMEM_7d,#0x0                                    = ??
       CODE:1f17 22              RET
                             LAB_CODE_1f18                                   XREF[1]:     CODE:1e98(j)  
       CODE:1f18 78 7d           MOV        R0,#0x7d
       CODE:1f1a 76 01           MOV        @R0=>DAT_INTMEM_7d,#0x1                                    = ??
       CODE:1f1c 22              RET
                             LAB_CODE_1f1d                                   XREF[1]:     CODE:1e84(j)  
       CODE:1f1d 78 7d           MOV        R0,#0x7d
       CODE:1f1f 76 02           MOV        @R0=>DAT_INTMEM_7d,#0x2                                    = ??
       CODE:1f21 22              RET
                             LAB_CODE_1f22                                   XREF[2]:     CODE:1f48(j), CODE:2001(j)  
       CODE:1f22 78 7d           MOV        R0,#0x7d
       CODE:1f24 76 03           MOV        @R0=>DAT_INTMEM_7d,#0x3                                    = ??
       CODE:1f26 22              RET
                             LAB_CODE_1f27                                   XREF[7]:     CODE:1f08(j), CODE:1f7b(j), 
                                                                                          CODE:1f7d(j), CODE:1f8a(j), 
                                                                                          CODE:1f8c(j), CODE:1fa4(j), 
                                                                                          CODE:1fbc(j)  
       CODE:1f27 78 7d           MOV        R0,#0x7d
       CODE:1f29 76 04           MOV        @R0=>DAT_INTMEM_7d,#0x4                                    = ??
       CODE:1f2b 22              RET
                             LAB_CODE_1f2c                                   XREF[1]:     CODE:1fd0(j)  
       CODE:1f2c 78 7d           MOV        R0,#0x7d
       CODE:1f2e 76 05           MOV        @R0=>DAT_INTMEM_7d,#0x5                                    = ??
       CODE:1f30 22              RET
                             LAB_CODE_1f31                                   XREF[1]:     CODE:200c(j)  
       CODE:1f31 78 7d           MOV        R0,#0x7d
       CODE:1f33 76 06           MOV        @R0=>DAT_INTMEM_7d,#0x6                                    = ??
       CODE:1f35 22              RET
                             LAB_CODE_1f36                                   XREF[6]:     CODE:1e1f(j), CODE:1eb8(j), 
                                                                                          CODE:1ed2(j), CODE:1eec(j), 
                                                                                          CODE:1f40(j), CODE:200f(j)  
       CODE:1f36 22              RET
                             sm1dce_exec_state_2                             XREF[1]:     CODE:1de0(j)  
       CODE:1f37 75 3b aa        MOV        DAT_INTMEM_3b,#0xaa                                        = ??
       CODE:1f3a 20 1c d3        JB         23.4,LAB_CODE_1f10                                         if whatever this bit is set,
                                                                                                       abandon the reset
       CODE:1f3d 20 1d d0        JB         23.5,LAB_CODE_1f10                                         same goes with this guy
       CODE:1f40 20 0d f3        JB         g_powerup_sm_should_run,LAB_CODE_1f36                      wait for powerup sequence
                                                                                                       to complete
       CODE:1f43 d2 0e           SETB       g_sysreset_watchdog_should_run                             setup reset watchdog
       CODE:1f45 75 3e 00        MOV        g_num_boot_tries,#0x0                                      = ??
       CODE:1f48 80 d8           SJMP       LAB_CODE_1f22                                              go to state 3
                             sm1dce_exec_state_4                             XREF[1]:     CODE:1de6(j)  
       CODE:1f4a 75 3b fe        MOV        DAT_INTMEM_3b,#0xfe                                        = ??
       CODE:1f4d 20 1c c0        JB         23.4,LAB_CODE_1f10                                         = ??
       CODE:1f50 20 1d bd        JB         23.5,LAB_CODE_1f10                                         = ??
       CODE:1f53 e5 3d           MOV        A,DAT_INTMEM_3d                                            = ??
       CODE:1f55 70 26           JNZ        LAB_CODE_1f7d
       CODE:1f57 20 04 6a        JB         20.4,LAB_CODE_1fc4                                         = ??
       CODE:1f5a 20 03 67        JB         20.3,LAB_CODE_1fc4                                         = ??
       CODE:1f5d 20 14 22        JB         22.4,LAB_CODE_1f82                                         = ??
       CODE:1f60 20 08 1f        JB         g_powerswitch_pushed,LAB_CODE_1f82                         = ??
       CODE:1f63 20 20 1c        JB         24.0,LAB_CODE_1f82                                         = ??
       CODE:1f66 20 0b 19        JB         21.3,LAB_CODE_1f82                                         = ??
       CODE:1f69 30 58 05        JNB        2b.0,LAB_CODE_1f71                                         = ??
       CODE:1f6c 12 2c b7        LCALL      FUN_CODE_2cb7                                              undefined FUN_CODE_2cb7()
       CODE:1f6f 40 62           JC         LAB_CODE_1fd3
                             LAB_CODE_1f71                                   XREF[1]:     CODE:1f69(j)  
       CODE:1f71 e5 65           MOV        A,DAT_INTMEM_65                                            = ??
       CODE:1f73 70 17           JNZ        LAB_CODE_1f8c
       CODE:1f75 20 09 19        JB         g_ejectswitch_pushed?,LAB_CODE_1f91                        = ??
       CODE:1f78 20 23 1a        JB         24.3,LAB_CODE_1f95                                         = ??
       CODE:1f7b 80 aa           SJMP       LAB_CODE_1f27
                             LAB_CODE_1f7d                                   XREF[1]:     CODE:1f55(j)  
       CODE:1f7d d5 3d a7        DJNZ       DAT_INTMEM_3d,LAB_CODE_1f27                                = ??
       CODE:1f80 80 3d           SJMP       LAB_CODE_1fbf
                             LAB_CODE_1f82                                   XREF[4]:     CODE:1f5d(j), CODE:1f60(j), 
                                                                                          CODE:1f63(j), CODE:1f66(j)  
       CODE:1f82 30 13 3a        JNB        g_has_getpoweroncause_arrived,LAB_CODE_1fbf                = ??
       CODE:1f85 d2 3a           SETB       27.2                                                       = ??
       CODE:1f87 75 3d 0d        MOV        DAT_INTMEM_3d,#0xd                                         = ??
       CODE:1f8a 80 9b           SJMP       LAB_CODE_1f27                                              go to state 4
                                                                                                       (if we aren't already there)
                             LAB_CODE_1f8c                                   XREF[1]:     CODE:1f73(j)  
       CODE:1f8c d5 65 98        DJNZ       DAT_INTMEM_65,LAB_CODE_1f27                                = ??
       CODE:1f8f 80 15           SJMP       LAB_CODE_1fa6
                             LAB_CODE_1f91                                   XREF[1]:     CODE:1f75(j)  
       CODE:1f91 c2 09           CLR        g_ejectswitch_pushed?                                      = ??
       CODE:1f93 80 02           SJMP       LAB_CODE_1f97
                             LAB_CODE_1f95                                   XREF[1]:     CODE:1f78(j)  
       CODE:1f95 c2 23           CLR        24.3                                                       = ??
                             LAB_CODE_1f97                                   XREF[1]:     CODE:1f93(j)  
       CODE:1f97 30 13 0c        JNB        g_has_getpoweroncause_arrived,LAB_CODE_1fa6                = ??
       CODE:1f9a e5 36           MOV        A,DAT_INTMEM_36                                            = ??
       CODE:1f9c b4 62 07        CJNE       A,#0x62,LAB_CODE_1fa6
       CODE:1f9f d2 3d           SETB       27.5                                                       = ??
       CODE:1fa1 75 65 02        MOV        DAT_INTMEM_65,#0x2                                         = ??
       CODE:1fa4 80 81           SJMP       LAB_CODE_1f27
                             LAB_CODE_1fa6                                   XREF[3]:     CODE:1f8f(j), CODE:1f97(j), 
                                                                                          CODE:1f9c(j)  
       CODE:1fa6 e5 37           MOV        A,DAT_INTMEM_37                                            = ??
       CODE:1fa8 75 37 60        MOV        DAT_INTMEM_37,#0x60                                        = ??
       CODE:1fab b4 60 05        CJNE       A,#0x60,LAB_CODE_1fb3
       CODE:1fae 75 37 62        MOV        DAT_INTMEM_37,#0x62                                        = ??
       CODE:1fb1 80 09           SJMP       LAB_CODE_1fbc
                             LAB_CODE_1fb3                                   XREF[1]:     CODE:1fab(j)  
       CODE:1fb3 b4 65 06        CJNE       A,#0x65,LAB_CODE_1fbc
       CODE:1fb6 20 28 03        JB         25.0,LAB_CODE_1fbc                                         = ??
       CODE:1fb9 75 37 62        MOV        DAT_INTMEM_37,#0x62                                        = ??
                             LAB_CODE_1fbc                                   XREF[3]:     CODE:1fb1(j), CODE:1fb3(j), 
                                                                                          CODE:1fb6(j)  
       CODE:1fbc 02 1f 27        LJMP       LAB_CODE_1f27
                             LAB_CODE_1fbf                                   XREF[2]:     CODE:1f80(j), CODE:1f82(j)  
       CODE:1fbf 20 14 20        JB         22.4,LAB_CODE_1fe2                                         = ??
       CODE:1fc2 80 00           SJMP       LAB_CODE_1fc4
                             LAB_CODE_1fc4                                   XREF[4]:     CODE:1ef6(j), CODE:1f57(j), 
                                                                                          CODE:1f5a(j), CODE:1fc2(j)  
       CODE:1fc4 75 61 00        MOV        DAT_INTMEM_61,#0x0                                         = ??
       CODE:1fc7 d2 47           SETB       28.7                                                       = ??
       CODE:1fc9 75 37 62        MOV        DAT_INTMEM_37,#0x62                                        = ??
                             LAB_CODE_1fcc                                   XREF[1]:     CODE:2027(j)  
       CODE:1fcc d2 02           SETB       20.2                                                       = ??
       CODE:1fce d2 0f           SETB       g_requesting_reset                                         start a statemachine we
                                                                                                       just stopped??????
       CODE:1fd0 02 1f 2c        LJMP       LAB_CODE_1f2c
                             LAB_CODE_1fd3                                   XREF[1]:     CODE:1f6f(j)  
       CODE:1fd3 c2 57           CLR        2a.7                                                       = ??
       CODE:1fd5 75 66 00        MOV        DAT_INTMEM_66,#0x0                                         = ??
       CODE:1fd8 75 67 00        MOV        DAT_INTMEM_67,#0x0                                         = ??
       CODE:1fdb 75 62 16        MOV        g_power_up_cause,#0x16                                     undocumented
       CODE:1fde d2 14           SETB       22.4                                                       = ??
       CODE:1fe0 80 03           SJMP       LAB_CODE_1fe5
                             LAB_CODE_1fe2                                   XREF[1]:     CODE:1fbf(j)  
       CODE:1fe2 75 62 31        MOV        g_power_up_cause,#0x31                                     undocumented
                             LAB_CODE_1fe5                                   XREF[1]:     CODE:1fe0(j)  
       CODE:1fe5 c2 4e           CLR        29.6                                                       = ??
       CODE:1fe7 20 16 03        JB         22.6,LAB_CODE_1fed                                         = ??
       CODE:1fea 53 61 c3        ANL        DAT_INTMEM_61,#0xc3                                        = ??
                             LAB_CODE_1fed                                   XREF[1]:     CODE:1fe7(j)  
       CODE:1fed c2 16           CLR        22.6                                                       = ??
       CODE:1fef 78 af           MOV        R0,#0xaf                                                   setup invisible ring of light
                                                                                                       error pattern???
                                                                                                       or just clear it??
       CODE:1ff1 76 00           MOV        @R0=>DAT_INTMEM_af,#0x0                                    = ??
       CODE:1ff3 d2 47           SETB       28.7                                                       = ??
       CODE:1ff5 d2 48           SETB       29.0                                                       = ??
       CODE:1ff7 30 15 02        JNB        22.5,LAB_CODE_1ffc                                         = ??
       CODE:1ffa d2 4a           SETB       29.2                                                       = ??
                             LAB_CODE_1ffc                                   XREF[1]:     CODE:1ff7(j)  
       CODE:1ffc d2 0e           SETB       g_sysreset_watchdog_should_run                             = ??
       CODE:1ffe 75 3e 00        MOV        g_num_boot_tries,#0x0                                      = ??
       CODE:2001 02 1f 22        LJMP       LAB_CODE_1f22
                             LAB_CODE_2004                                   XREF[1]:     CODE:1de9(j)  
       CODE:2004 75 3b aa        MOV        DAT_INTMEM_3b,#0xaa                                        = ??
       CODE:2007 20 0f 05        JB         g_requesting_reset,LAB_CODE_200f                           if reset statemachine still doing
                                                                                                       its thing, keep waiting
       CODE:200a d2 10           SETB       g_powerdown_sm_should_run                                  otherwise, start the
                                                                                                       powerdown statemachine
       CODE:200c 02 1f 31        LJMP       LAB_CODE_1f31
                             LAB_CODE_200f                                   XREF[1]:     CODE:2007(j)  
       CODE:200f 02 1f 36        LJMP       LAB_CODE_1f36
                             LAB_CODE_2012                                   XREF[2]:     CODE:1e87(j), CODE:1f10(j)  
       CODE:2012 c2 0d           CLR        g_powerup_sm_should_run                                    kill all statemachines
       CODE:2014 c2 10           CLR        g_powerdown_sm_should_run                                  = ??
       CODE:2016 c2 0e           CLR        g_sysreset_watchdog_should_run                             = ??
       CODE:2018 c2 0f           CLR        g_requesting_reset                                         this has no effect
                                                                                                       see 1fcc as to why
       CODE:201a 78 af           MOV        R0,#0xaf                                                   change some other
                                                                                                       statemachine's state
       CODE:201c 76 0d           MOV        @R0=>DAT_INTMEM_af,#00001101b                              = ??
       CODE:201e 20 1c 04        JB         23.4,LAB_CODE_2025                                         = ??
       CODE:2021 78 af           MOV        R0,#0xaf
       CODE:2023 76 0a           MOV        @R0=>DAT_INTMEM_af,#00001010b                              = ??
                             LAB_CODE_2025                                   XREF[1]:     CODE:201e(j)  
       CODE:2025 d2 48           SETB       29.0                                                       = ??
       CODE:2027 80 a3           SJMP       LAB_CODE_1fcc
                             **************************************************************
                             *                          FUNCTION                          *
                             **************************************************************
                             undefined FUN_CODE_2029()
             undefined         ACC:1          <RETURN>
                             FUN_CODE_2029                                   XREF[1]:     FUN_CODE_0775:07bc(c)  
       CODE:2029 30 17 17        JNB        22.7,LAB_CODE_2043                                         = ??
       CODE:202c 20 4d 08        JB         29.5,LAB_CODE_2037                                         = ??
       CODE:202f d5 53 05        DJNZ       DAT_INTMEM_53,LAB_CODE_2037                                = ??
       CODE:2032 75 53 10        MOV        DAT_INTMEM_53,#0x10                                        = ??
       CODE:2035 d2 32           SETB       26.2                                                       = ??
                             LAB_CODE_2037                                   XREF[2]:     CODE:202c(j), CODE:202f(j)  
       CODE:2037 30 51 15        JNB        2a.1,LAB_CODE_204f                                         = ??
       CODE:203a 30 52 12        JNB        2a.2,LAB_CODE_204f                                         = ??
       CODE:203d 30 53 0f        JNB        2a.3,LAB_CODE_204f                                         = ??
       CODE:2040 30 54 0c        JNB        2a.4,LAB_CODE_204f                                         = ??
                             LAB_CODE_2043                                   XREF[1]:     CODE:2029(j)  
       CODE:2043 c2 51           CLR        2a.1                                                       = ??
       CODE:2045 c2 52           CLR        2a.2                                                       = ??
       CODE:2047 c2 53           CLR        2a.3                                                       = ??
       CODE:2049 c2 54           CLR        2a.4                                                       = ??
       CODE:204b 75 54 fa        MOV        DAT_INTMEM_54,#0xfa                                        = ??
                             LAB_CODE_204e                                   XREF[1]:     CODE:204f(j)  
       CODE:204e 22              RET
                             LAB_CODE_204f                                   XREF[4]:     CODE:2037(j), CODE:203a(j), 
                                                                                          CODE:203d(j), CODE:2040(j)  
       CODE:204f d5 54 fc        DJNZ       DAT_INTMEM_54,LAB_CODE_204e                                = ??
       CODE:2052 d2 1c           SETB       23.4                                                       = ??
       CODE:2054 75 59 0c        MOV        DAT_INTMEM_59,#0xc                                         = ??
       CODE:2057 75 5b 0c        MOV        DAT_INTMEM_5b,#0xc                                         = ??
       CODE:205a 75 5a 00        MOV        DAT_INTMEM_5a,#0x0                                         = ??
       CODE:205d d2 46           SETB       28.6                                                       = ??
       CODE:205f d2 33           SETB       26.3                                                       = ??
       CODE:2061 22              RET
                             LAB_CODE_2062                                   XREF[3]:     CODE:207d(j), CODE:2084(j), 
                                                                                          CODE:20a9(j)  
       CODE:2062 78 7e           MOV        R0,#0x7e
       CODE:2064 76 00           MOV        @R0=>DAT_INTMEM_7e,#0x0                                    = ??
       CODE:2066 22              RET
                             LAB_CODE_2067                                   XREF[2]:     CODE:207f(j), CODE:2086(j)  
       CODE:2067 78 7e           MOV        R0,#0x7e
       CODE:2069 76 01           MOV        @R0=>DAT_INTMEM_7e,#0x1                                    = ??
       CODE:206b 22              RET
                             LAB_CODE_206c                                   XREF[3]:     CODE:208f(j), CODE:2097(j), 
                                                                                          CODE:209e(j)  
       CODE:206c 78 7e           MOV        R0,#0x7e
       CODE:206e 76 02           MOV        @R0=>DAT_INTMEM_7e,#0x2                                    = ??
       CODE:2070 22              RET
                             LAB_CODE_2071                                   XREF[2]:     CODE:2099(j), CODE:20a0(j)  
       CODE:2071 78 7e           MOV        R0,#0x7e
       CODE:2073 76 03           MOV        @R0=>DAT_INTMEM_7e,#0x3                                    = ??
       CODE:2075 22              RET
       CODE:2076 22              RET
                             LAB_CODE_2077                                   XREF[1]:     CODE:20b4(j)  
       CODE:2077 75 64 04        MOV        DAT_INTMEM_64,#0x4                                         = ??
       CODE:207a 12 25 aa        LCALL      FUN_CODE_25aa                                              undefined FUN_CODE_25aa()
       CODE:207d 50 e3           JNC        LAB_CODE_2062
       CODE:207f 80 e6           SJMP       LAB_CODE_2067
                             LAB_CODE_2081                                   XREF[1]:     CODE:20b7(j)  
       CODE:2081 12 25 aa        LCALL      FUN_CODE_25aa                                              undefined FUN_CODE_25aa()
       CODE:2084 50 dc           JNC        LAB_CODE_2062
       CODE:2086 d5 64 de        DJNZ       DAT_INTMEM_64,LAB_CODE_2067                                = ??
       CODE:2089 d2 05           SETB       20.5                                                       = ??
       CODE:208b d2 39           SETB       27.1                                                       = ??
       CODE:208d d2 43           SETB       28.3                                                       = ??
       CODE:208f 80 db           SJMP       LAB_CODE_206c
                             LAB_CODE_2091                                   XREF[1]:     CODE:20ba(j)  
       CODE:2091 75 64 19        MOV        DAT_INTMEM_64,#0x19                                        = ??
       CODE:2094 12 25 aa        LCALL      FUN_CODE_25aa                                              undefined FUN_CODE_25aa()
       CODE:2097 40 d3           JC         LAB_CODE_206c
       CODE:2099 80 d6           SJMP       LAB_CODE_2071
                             LAB_CODE_209b                                   XREF[1]:     CODE:20bd(j)  
       CODE:209b 12 25 aa        LCALL      FUN_CODE_25aa                                              undefined FUN_CODE_25aa()
       CODE:209e 40 cc           JC         LAB_CODE_206c
       CODE:20a0 d5 64 ce        DJNZ       DAT_INTMEM_64,LAB_CODE_2071                                = ??
       CODE:20a3 c2 05           CLR        20.5                                                       = ??
       CODE:20a5 d2 39           SETB       27.1                                                       = ??
       CODE:20a7 d2 43           SETB       28.3                                                       = ??
       CODE:20a9 80 b7           SJMP       LAB_CODE_2062
                             **************************************************************
                             *                          FUNCTION                          *
                             **************************************************************
                             undefined FUN_CODE_20ab()
             undefined         ACC:1          <RETURN>
                             FUN_CODE_20ab                                   XREF[1]:     FUN_CODE_0775:07b0(c)  
       CODE:20ab 78 7e           MOV        R0,#0x7e
       CODE:20ad e6              MOV        A,@R0=>DAT_INTMEM_7e                                       = ??
       CODE:20ae 26              ADD        A,@R0=>DAT_INTMEM_7e                                       = ??
       CODE:20af 26              ADD        A,@R0=>DAT_INTMEM_7e                                       = ??
       CODE:20b0 90 20 b4        MOV        DPTR,#0x20b4
       CODE:20b3 73              JMP        @A+DPTR
       CODE:20b4 02 20 77        LJMP       LAB_CODE_2077
       CODE:20b7 02 20 81        LJMP       LAB_CODE_2081
       CODE:20ba 02 20 91        LJMP       LAB_CODE_2091
       CODE:20bd 02 20 9b        LJMP       LAB_CODE_209b
                             LAB_CODE_20c0                                   XREF[1]:     CODE:2247(j)  
       CODE:20c0 30 25 10        JNB        24.5,LAB_CODE_20d3                                         = ??
       CODE:20c3 c2 25           CLR        24.5                                                       = ??
       CODE:20c5 e5 36           MOV        A,DAT_INTMEM_36                                            = ??
       CODE:20c7 b4 62 09        CJNE       A,#0x62,LAB_CODE_20d3
       CODE:20ca 75 35 04        MOV        DAT_INTMEM_35,#0x4                                         = ??
       CODE:20cd 12 00 d4        LCALL      FUN_CODE_00d4                                              undefined FUN_CODE_00d4()
       CODE:20d0 02 21 60        LJMP       LAB_CODE_2160
                             LAB_CODE_20d3                                   XREF[2]:     CODE:20c0(j), CODE:20c7(j)  
       CODE:20d3 e5 37           MOV        A,DAT_INTMEM_37                                            = ??
       CODE:20d5 b4 65 03        CJNE       A,#0x65,LAB_CODE_20db
       CODE:20d8 02 21 5b        LJMP       LAB_CODE_215b
                             LAB_CODE_20db                                   XREF[1]:     CODE:20d5(j)  
       CODE:20db b5 36 1a        CJNE       A,DAT_INTMEM_36,LAB_CODE_20f8                              = ??
       CODE:20de 12 00 c6        LCALL      FUN_CODE_00c6                                              undefined FUN_CODE_00c6()
       CODE:20e1 40 78           JC         LAB_CODE_215b
       CODE:20e3 e5 36           MOV        A,DAT_INTMEM_36                                            = ??
       CODE:20e5 b4 62 0d        CJNE       A,#0x62,LAB_CODE_20f5
       CODE:20e8 75 36 65        MOV        DAT_INTMEM_36,#0x65                                        = ??
       CODE:20eb 12 22 5c        LCALL      FUN_CODE_225c                                              undefined FUN_CODE_225c()
       CODE:20ee 75 37 65        MOV        DAT_INTMEM_37,#0x65                                        = ??
       CODE:20f1 d2 28           SETB       25.0                                                       = ??
       CODE:20f3 80 66           SJMP       LAB_CODE_215b
                             LAB_CODE_20f5                                   XREF[1]:     CODE:20e5(j)  
       CODE:20f5 75 37 62        MOV        DAT_INTMEM_37,#0x62                                        = ??
                             LAB_CODE_20f8                                   XREF[1]:     CODE:20db(j)  
       CODE:20f8 c2 26           CLR        24.6                                                       = ??
       CODE:20fa e5 36           MOV        A,DAT_INTMEM_36                                            = ??
       CODE:20fc b4 62 02        CJNE       A,#0x62,LAB_CODE_2101
       CODE:20ff d2 26           SETB       24.6                                                       = ??
                             LAB_CODE_2101                                   XREF[1]:     CODE:20fc(j)  
       CODE:2101 75 35 04        MOV        DAT_INTMEM_35,#0x4                                         = ??
       CODE:2104 12 00 d4        LCALL      FUN_CODE_00d4                                              undefined FUN_CODE_00d4()
       CODE:2107 e5 37           MOV        A,DAT_INTMEM_37                                            = ??
       CODE:2109 b4 62 08        CJNE       A,#0x62,LAB_CODE_2114
       CODE:210c 75 36 64        MOV        DAT_INTMEM_36,#0x64                                        = ??
       CODE:210f 12 22 5c        LCALL      FUN_CODE_225c                                              undefined FUN_CODE_225c()
       CODE:2112 80 51           SJMP       LAB_CODE_2165
                             LAB_CODE_2114                                   XREF[1]:     CODE:2109(j)  
       CODE:2114 75 36 63        MOV        DAT_INTMEM_36,#0x63                                        = ??
       CODE:2117 12 22 5c        LCALL      FUN_CODE_225c                                              undefined FUN_CODE_225c()
       CODE:211a 80 49           SJMP       LAB_CODE_2165
                             LAB_CODE_211c                                   XREF[1]:     CODE:223e(j)  
       CODE:211c d5 35 2d        DJNZ       DAT_INTMEM_35,LAB_CODE_214c                                = ??
       CODE:211f 12 00 c6        LCALL      FUN_CODE_00c6                                              undefined FUN_CODE_00c6()
       CODE:2122 50 05           JNC        LAB_CODE_2129
       CODE:2124 75 36 62        MOV        DAT_INTMEM_36,#0x62                                        = ??
       CODE:2127 80 32           SJMP       LAB_CODE_215b
                             LAB_CODE_2129                                   XREF[1]:     CODE:2122(j)  
       CODE:2129 75 35 02        MOV        DAT_INTMEM_35,#0x2                                         = ??
       CODE:212c 12 00 d4        LCALL      FUN_CODE_00d4                                              undefined FUN_CODE_00d4()
       CODE:212f 80 20           SJMP       LAB_CODE_2151
                             LAB_CODE_2131                                   XREF[1]:     CODE:2241(j)  
       CODE:2131 d5 35 45        DJNZ       DAT_INTMEM_35,LAB_CODE_2179                                = ??
       CODE:2134 12 00 c6        LCALL      FUN_CODE_00c6                                              undefined FUN_CODE_00c6()
       CODE:2137 40 0b           JC         LAB_CODE_2144
       CODE:2139 12 00 d4        LCALL      FUN_CODE_00d4                                              undefined FUN_CODE_00d4()
       CODE:213c 75 36 65        MOV        DAT_INTMEM_36,#0x65                                        = ??
       CODE:213f 75 35 05        MOV        DAT_INTMEM_35,#0x5                                         = ??
       CODE:2142 80 12           SJMP       LAB_CODE_2156
                             LAB_CODE_2144                                   XREF[1]:     CODE:2137(j)  
       CODE:2144 75 36 60        MOV        DAT_INTMEM_36,#0x60                                        = ??
       CODE:2147 75 35 03        MOV        DAT_INTMEM_35,#0x3                                         = ??
       CODE:214a 80 0a           SJMP       LAB_CODE_2156
                             LAB_CODE_214c                                   XREF[1]:     CODE:211c(j)  
       CODE:214c 78 a8           MOV        R0,#0xa8
       CODE:214e 76 00           MOV        @R0=>DAT_INTMEM_a8,#0x0                                    = ??
       CODE:2150 22              RET
                             LAB_CODE_2151                                   XREF[1]:     CODE:212f(j)  
       CODE:2151 78 a8           MOV        R0,#0xa8
       CODE:2153 76 01           MOV        @R0=>DAT_INTMEM_a8,#0x1                                    = ??
       CODE:2155 22              RET
                             LAB_CODE_2156                                   XREF[3]:     CODE:2142(j), CODE:214a(j), 
                                                                                          CODE:2188(j)  
       CODE:2156 78 a8           MOV        R0,#0xa8
       CODE:2158 76 02           MOV        @R0=>DAT_INTMEM_a8,#0x2                                    = ??
       CODE:215a 22              RET
                             LAB_CODE_215b                                   XREF[9]:     CODE:20d8(j), CODE:20e1(j), 
                                                                                          CODE:20f3(j), CODE:2127(j), 
                                                                                          CODE:217d(j), CODE:21c4(j), 
                                                                                          CODE:21dd(j), CODE:21fd(j), 
                                                                                          CODE:220d(j)  
       CODE:215b 78 a8           MOV        R0,#0xa8
       CODE:215d 76 03           MOV        @R0=>DAT_INTMEM_a8,#0x3                                    = ??
       CODE:215f 22              RET
                             LAB_CODE_2160                                   XREF[1]:     CODE:20d0(j)  
       CODE:2160 78 a8           MOV        R0,#0xa8
       CODE:2162 76 04           MOV        @R0=>DAT_INTMEM_a8,#0x4                                    = ??
       CODE:2164 22              RET
                             LAB_CODE_2165                                   XREF[2]:     CODE:2112(j), CODE:211a(j)  
       CODE:2165 78 a8           MOV        R0,#0xa8
       CODE:2167 76 05           MOV        @R0=>DAT_INTMEM_a8,#0x5                                    = ??
       CODE:2169 22              RET
                             LAB_CODE_216a                                   XREF[2]:     CODE:2198(j), CODE:219d(j)  
       CODE:216a 78 a8           MOV        R0,#0xa8
       CODE:216c 76 06           MOV        @R0=>DAT_INTMEM_a8,#0x6                                    = ??
       CODE:216e 22              RET
                             LAB_CODE_216f                                   XREF[1]:     CODE:21ad(j)  
       CODE:216f 78 a8           MOV        R0,#0xa8
       CODE:2171 76 07           MOV        @R0=>DAT_INTMEM_a8,#0x7                                    = ??
       CODE:2173 22              RET
                             LAB_CODE_2174                                   XREF[1]:     CODE:21b0(j)  
       CODE:2174 78 a8           MOV        R0,#0xa8
       CODE:2176 76 08           MOV        @R0=>DAT_INTMEM_a8,#0x8                                    = ??
       CODE:2178 22              RET
                             LAB_CODE_2179                                   XREF[8]:     CODE:2131(j), CODE:217a(j), 
                                                                                          CODE:217f(j), CODE:218a(j), 
                                                                                          CODE:219f(j), CODE:21c6(j), 
                                                                                          CODE:21d1(j), CODE:2259(j)  
       CODE:2179 22              RET
                             LAB_CODE_217a                                   XREF[1]:     CODE:2244(j)  
       CODE:217a d5 35 fc        DJNZ       DAT_INTMEM_35,LAB_CODE_2179                                = ??
       CODE:217d 80 dc           SJMP       LAB_CODE_215b
                             LAB_CODE_217f                                   XREF[1]:     CODE:224a(j)  
       CODE:217f d5 35 f7        DJNZ       DAT_INTMEM_35,LAB_CODE_2179                                = ??
       CODE:2182 12 00 d1        LCALL      FUN_CODE_00d1                                              undefined FUN_CODE_00d1()
       CODE:2185 75 35 03        MOV        DAT_INTMEM_35,#0x3                                         = ??
       CODE:2188 80 cc           SJMP       LAB_CODE_2156
                             LAB_CODE_218a                                   XREF[1]:     CODE:224d(j)  
       CODE:218a d5 35 ec        DJNZ       DAT_INTMEM_35,LAB_CODE_2179                                = ??
       CODE:218d 75 35 03        MOV        DAT_INTMEM_35,#0x3                                         = ??
       CODE:2190 e5 36           MOV        A,DAT_INTMEM_36                                            = ??
       CODE:2192 b4 64 05        CJNE       A,#0x64,LAB_CODE_219a
       CODE:2195 12 00 d1        LCALL      FUN_CODE_00d1                                              undefined FUN_CODE_00d1()
       CODE:2198 80 d0           SJMP       LAB_CODE_216a
                             LAB_CODE_219a                                   XREF[1]:     CODE:2192(j)  
       CODE:219a 12 00 ce        LCALL      FUN_CODE_00ce                                              undefined FUN_CODE_00ce()
       CODE:219d 80 cb           SJMP       LAB_CODE_216a
                             LAB_CODE_219f                                   XREF[1]:     CODE:2250(j)  
       CODE:219f d5 35 d7        DJNZ       DAT_INTMEM_35,LAB_CODE_2179                                = ??
       CODE:21a2 75 35 fa        MOV        DAT_INTMEM_35,#0xfa                                        = ??
       CODE:21a5 20 26 03        JB         24.6,LAB_CODE_21ab                                         = ??
       CODE:21a8 75 35 7d        MOV        DAT_INTMEM_35,#0x7d                                        = ??
                             LAB_CODE_21ab                                   XREF[1]:     CODE:21a5(j)  
       CODE:21ab e5 36           MOV        A,DAT_INTMEM_36                                            = ??
       CODE:21ad b4 64 bf        CJNE       A,#0x64,LAB_CODE_216f
       CODE:21b0 80 c2           SJMP       LAB_CODE_2174
                             LAB_CODE_21b2                                   XREF[1]:     CODE:2253(j)  
       CODE:21b2 e5 37           MOV        A,DAT_INTMEM_37                                            = ??
       CODE:21b4 b4 60 0b        CJNE       A,#0x60,LAB_CODE_21c2
       CODE:21b7 12 00 c6        LCALL      FUN_CODE_00c6                                              undefined FUN_CODE_00c6()
       CODE:21ba 50 0a           JNC        LAB_CODE_21c6
       CODE:21bc 75 36 60        MOV        DAT_INTMEM_36,#0x60                                        = ??
       CODE:21bf 12 22 5c        LCALL      FUN_CODE_225c                                              undefined FUN_CODE_225c()
                             LAB_CODE_21c2                                   XREF[2]:     CODE:21b4(j), CODE:21e9(j)  
       CODE:21c2 c2 27           CLR        24.7                                                       = ??
       CODE:21c4 80 95           SJMP       LAB_CODE_215b
                             LAB_CODE_21c6                                   XREF[1]:     CODE:21ba(j)  
       CODE:21c6 d5 35 b0        DJNZ       DAT_INTMEM_35,LAB_CODE_2179                                = ??
       CODE:21c9 30 26 07        JNB        24.6,LAB_CODE_21d3                                         = ??
       CODE:21cc c2 26           CLR        24.6                                                       = ??
       CODE:21ce 75 35 7d        MOV        DAT_INTMEM_35,#0x7d                                        = ??
       CODE:21d1 80 a6           SJMP       LAB_CODE_2179
                             LAB_CODE_21d3                                   XREF[1]:     CODE:21c9(j)  
       CODE:21d3 20 27 0a        JB         24.7,LAB_CODE_21e0                                         = ??
       CODE:21d6 75 37 62        MOV        DAT_INTMEM_37,#0x62                                        = ??
       CODE:21d9 d2 28           SETB       25.0                                                       = ??
       CODE:21db d2 27           SETB       24.7                                                       = ??
       CODE:21dd 02 21 5b        LJMP       LAB_CODE_215b
                             LAB_CODE_21e0                                   XREF[1]:     CODE:21d3(j)  
       CODE:21e0 75 36 65        MOV        DAT_INTMEM_36,#0x65                                        = ??
       CODE:21e3 12 22 5c        LCALL      FUN_CODE_225c                                              undefined FUN_CODE_225c()
       CODE:21e6 75 37 65        MOV        DAT_INTMEM_37,#0x65                                        = ??
       CODE:21e9 80 d7           SJMP       LAB_CODE_21c2
                             LAB_CODE_21eb                                   XREF[1]:     CODE:2256(j)  
       CODE:21eb e5 37           MOV        A,DAT_INTMEM_37                                            = ??
       CODE:21ed b4 62 0b        CJNE       A,#0x62,LAB_CODE_21fb
       CODE:21f0 12 00 c6        LCALL      FUN_CODE_00c6                                              undefined FUN_CODE_00c6()
       CODE:21f3 50 0b           JNC        LAB_CODE_2200
       CODE:21f5 75 36 62        MOV        DAT_INTMEM_36,#0x62                                        = ??
       CODE:21f8 12 22 5c        LCALL      FUN_CODE_225c                                              undefined FUN_CODE_225c()
                             LAB_CODE_21fb                                   XREF[2]:     CODE:21ed(j), CODE:2219(j)  
       CODE:21fb c2 27           CLR        24.7                                                       = ??
       CODE:21fd 02 21 5b        LJMP       LAB_CODE_215b
                             LAB_CODE_2200                                   XREF[1]:     CODE:21f3(j)  
       CODE:2200 d5 35 56        DJNZ       DAT_INTMEM_35,LAB_CODE_2259                                = ??
       CODE:2203 20 27 0a        JB         24.7,LAB_CODE_2210                                         = ??
       CODE:2206 75 37 60        MOV        DAT_INTMEM_37,#0x60                                        = ??
       CODE:2209 c2 28           CLR        25.0                                                       = ??
       CODE:220b d2 27           SETB       24.7                                                       = ??
       CODE:220d 02 21 5b        LJMP       LAB_CODE_215b
                             LAB_CODE_2210                                   XREF[1]:     CODE:2203(j)  
       CODE:2210 75 36 65        MOV        DAT_INTMEM_36,#0x65                                        = ??
       CODE:2213 12 22 5c        LCALL      FUN_CODE_225c                                              undefined FUN_CODE_225c()
       CODE:2216 75 37 65        MOV        DAT_INTMEM_37,#0x65                                        = ??
       CODE:2219 80 e0           SJMP       LAB_CODE_21fb
                             **************************************************************
                             *                          FUNCTION                          *
                             **************************************************************
                             undefined FUN_CODE_221b()
             undefined         ACC:1          <RETURN>
                             FUN_CODE_221b                                   XREF[1]:     FUN_CODE_0775:07b9(c)  
       CODE:221b 20 24 08        JB         24.4,LAB_CODE_2226                                         = ??
       CODE:221e 75 35 12        MOV        DAT_INTMEM_35,#0x12                                        = ??
       CODE:2221 78 a8           MOV        R0,#0xa8
       CODE:2223 76 00           MOV        @R0=>DAT_INTMEM_a8,#0x0                                    = ??
       CODE:2225 22              RET
                             LAB_CODE_2226                                   XREF[1]:     CODE:221b(j)  
       CODE:2226 e5 36           MOV        A,DAT_INTMEM_36                                            = ??
       CODE:2228 64 62           XRL        A,#0x62
       CODE:222a 60 09           JZ         LAB_CODE_2235
       CODE:222c 75 65 00        MOV        DAT_INTMEM_65,#0x0                                         = ??
       CODE:222f a2 14           MOV        CY,22.4                                                    = ??
       CODE:2231 72 29           ORL        CY,25.1                                                    = ??
       CODE:2233 92 14           MOV        22.4,CY                                                    = ??
                             LAB_CODE_2235                                   XREF[1]:     CODE:222a(j)  
       CODE:2235 78 a8           MOV        R0,#0xa8
       CODE:2237 e6              MOV        A,@R0=>DAT_INTMEM_a8                                       = ??
       CODE:2238 26              ADD        A,@R0=>DAT_INTMEM_a8                                       = ??
       CODE:2239 26              ADD        A,@R0=>DAT_INTMEM_a8                                       = ??
       CODE:223a 90 22 3e        MOV        DPTR,#0x223e
       CODE:223d 73              JMP        @A+DPTR
       CODE:223e 02 21 1c        LJMP       LAB_CODE_211c
       CODE:2241 02 21 31        LJMP       LAB_CODE_2131
       CODE:2244 02 21 7a        LJMP       LAB_CODE_217a
       CODE:2247 02 20 c0        LJMP       LAB_CODE_20c0
       CODE:224a 02 21 7f        LJMP       LAB_CODE_217f
       CODE:224d 02 21 8a        LJMP       LAB_CODE_218a
       CODE:2250 02 21 9f        LJMP       LAB_CODE_219f
       CODE:2253 02 21 b2        LJMP       LAB_CODE_21b2
       CODE:2256 02 21 eb        LJMP       LAB_CODE_21eb
                             LAB_CODE_2259                                   XREF[1]:     CODE:2200(j)  
       CODE:2259 02 21 79        LJMP       LAB_CODE_2179
                             **************************************************************
                             *                          FUNCTION                          *
                             **************************************************************
                             undefined FUN_CODE_225c()
             undefined         ACC:1          <RETURN>
                             FUN_CODE_225c                                   XREF[7]:     CODE:20eb(c), CODE:210f(c), 
                                                                                          CODE:2117(c), CODE:21bf(c), 
                                                                                          CODE:21e3(c), CODE:21f8(c), 
                                                                                          CODE:2213(c)  
       CODE:225c d2 3e           SETB       27.6                                                       = ??
       CODE:225e e5 36           MOV        A,DAT_INTMEM_36                                            = ??
       CODE:2260 b4 60 02        CJNE       A,#0x60,LAB_CODE_2265
       CODE:2263 80 03           SJMP       LAB_CODE_2268
                             LAB_CODE_2265                                   XREF[1]:     CODE:2260(j)  
       CODE:2265 b4 62 0b        CJNE       A,#0x62,LAB_CODE_2273
                             LAB_CODE_2268                                   XREF[1]:     CODE:2263(j)  
       CODE:2268 e5 61           MOV        A,DAT_INTMEM_61                                            = ??
       CODE:226a d2 e0           SETB       ACC.0                                                      = ??
       CODE:226c c2 e1           CLR        ACC.1                                                      = ??
       CODE:226e f5 61           MOV        DAT_INTMEM_61,A                                            = ??
       CODE:2270 d2 47           SETB       28.7                                                       = ??
       CODE:2272 22              RET
                             LAB_CODE_2273                                   XREF[1]:     CODE:2265(j)  
       CODE:2273 e5 61           MOV        A,DAT_INTMEM_61                                            = ??
       CODE:2275 d2 e0           SETB       ACC.0                                                      = ??
       CODE:2277 d2 e1           SETB       ACC.1                                                      = ??
       CODE:2279 f5 61           MOV        DAT_INTMEM_61,A                                            = ??
       CODE:227b d2 47           SETB       28.7                                                       = ??
       CODE:227d 22              RET
                             LAB_CODE_227e                                   XREF[3]:     CODE:228c(j), CODE:2299(j), 
                                                                                          CODE:22a5(j)  
       CODE:227e 78 a9           MOV        R0,#0xa9
       CODE:2280 76 00           MOV        @R0=>DAT_INTMEM_a9,#0x0                                    = ??
       CODE:2282 22              RET
                             LAB_CODE_2283                                   XREF[2]:     CODE:229d(j), CODE:229f(j)  
       CODE:2283 78 a9           MOV        R0,#0xa9
       CODE:2285 76 01           MOV        @R0=>DAT_INTMEM_a9,#0x1                                    = ??
       CODE:2287 22              RET
       CODE:2288 22              RET
                             LAB_CODE_2289                                   XREF[1]:     CODE:22b0(j)  
       CODE:2289 12 00 f4        LCALL      FUN_CODE_00f4                                              undefined FUN_CODE_00f4()
       CODE:228c 50 f0           JNC        LAB_CODE_227e
       CODE:228e 12 23 fc        LCALL      FUN_CODE_23fc                                              undefined FUN_CODE_23fc()
       CODE:2291 50 08           JNC        LAB_CODE_229b
       CODE:2293 12 08 3e        LCALL      ipc_handle_messages                                        undefined ipc_handle_messages()
       CODE:2296 12 24 17        LCALL      FUN_CODE_2417                                              undefined FUN_CODE_2417()
       CODE:2299 80 e3           SJMP       LAB_CODE_227e
                             LAB_CODE_229b                                   XREF[1]:     CODE:2291(j)  
       CODE:229b d2 35           SETB       26.5                                                       = ??
       CODE:229d 80 e4           SJMP       LAB_CODE_2283
                             LAB_CODE_229f                                   XREF[1]:     CODE:22b3(j)  
       CODE:229f 20 35 e1        JB         26.5,LAB_CODE_2283                                         = ??
       CODE:22a2 12 24 17        LCALL      FUN_CODE_2417                                              undefined FUN_CODE_2417()
       CODE:22a5 80 d7           SJMP       LAB_CODE_227e
                             **************************************************************
                             *                          FUNCTION                          *
                             **************************************************************
                             undefined FUN_CODE_22a7()
             undefined         ACC:1          <RETURN>
                             FUN_CODE_22a7                                   XREF[1]:     FUN_CODE_0775:07da(c)  
       CODE:22a7 78 a9           MOV        R0,#0xa9
       CODE:22a9 e6              MOV        A,@R0=>DAT_INTMEM_a9                                       = ??
       CODE:22aa 26              ADD        A,@R0=>DAT_INTMEM_a9                                       = ??
       CODE:22ab 26              ADD        A,@R0=>DAT_INTMEM_a9                                       = ??
       CODE:22ac 90 22 b0        MOV        DPTR,#0x22b0
       CODE:22af 73              JMP        @A+DPTR
       CODE:22b0 02 22 89        LJMP       LAB_CODE_2289
       CODE:22b3 02 22 9f        LJMP       LAB_CODE_229f
                             **************************************************************
                             *                          FUNCTION                          *
                             **************************************************************
                             undefined FUN_CODE_22b6()
             undefined         ACC:1          <RETURN>
                             FUN_CODE_22b6                                   XREF[2]:     CODE:0759(c), 
                                                                                          FUN_CODE_0775:0778(c)  
       CODE:22b6 c2 d3           CLR        RS0                                                        = ??
       CODE:22b8 c2 d4           CLR        RS1                                                        = ??
       CODE:22ba 53 8f f9        ANL        FADDR,#0xf9                                                = ??
       CODE:22bd 22              RET
                             **************************************************************
                             *                          FUNCTION                          *
                             **************************************************************
                             undefined FUN_CODE_22be()
             undefined         ACC:1          <RETURN>
                             FUN_CODE_22be                                   XREF[2]:     CODE:075f(c), CODE:1154(c)  
       CODE:22be 75 bf 01        MOV        DAT_SFR_bf,#0x1                                            = ??
       CODE:22c1 75 bc ff        MOV        DAT_SFR_bc,#0xff                                           = ??
       CODE:22c4 75 bd ff        MOV        DAT_SFR_bd,#0xff                                           = ??
       CODE:22c7 75 be ff        MOV        SPH,#0xff                                                  = ??
       CODE:22ca 75 b9 00        MOV        SADEN,#0x0                                                 = ??
       CODE:22cd 75 ba 00        MOV        DAT_SFR_ba,#0x0                                            = ??
       CODE:22d0 75 bb 00        MOV        DAT_SFR_bb,#0x0                                            = ??
       CODE:22d3 75 a8 00        MOV        IE,#0x0                                                    = ??
       CODE:22d6 75 b8 00        MOV        IP,#0x0                                                    = ??
       CODE:22d9 75 c1 00        MOV        FIFLG1,#0x0                                                = ??
       CODE:22dc 75 c2 00        MOV        DAT_SFR_c2,#0x0                                            = ??
       CODE:22df 75 c3 1f        MOV        DAT_SFR_c3,#0x1f                                           = ??
       CODE:22e2 75 c4 00        MOV        DAT_SFR_c4,#0x0                                            = ??
       CODE:22e5 75 c5 c9        MOV        DAT_SFR_c5,#0xc9                                           = ??
       CODE:22e8 75 c6 d5        MOV        DAT_SFR_c6,#0xd5                                           = ??
       CODE:22eb 75 c7 d9        MOV        EPCONFIG,#0xd9                                             = ??
       CODE:22ee 75 c9 ce        MOV        T2MOD,#0xce                                                = ??
       CODE:22f1 75 ca d4        MOV        RCAP2L,#0xd4                                               = ??
       CODE:22f4 75 cb ff        MOV        RCAP2H,#0xff                                               = ??
       CODE:22f7 75 cc ff        MOV        TL2,#0xff                                                  = ??
       CODE:22fa 75 cd ff        MOV        TH2,#0xff                                                  = ??
       CODE:22fd 75 ce ff        MOV        DAT_SFR_ce,#0xff                                           = ??
       CODE:2300 75 cf ff        MOV        HPCON,#0xff                                                = ??
       CODE:2303 75 d1 ff        MOV        PSW1,#0xff                                                 = ??
       CODE:2306 75 d2 ff        MOV        SOFL,#0xff                                                 = ??
       CODE:2309 75 d3 ff        MOV        DAT_SFR_d3,#0xff                                           = ??
       CODE:230c 75 d4 ff        MOV        HPINDEX,#0xff                                              = ??
       CODE:230f 22              RET
                             **************************************************************
                             *                          FUNCTION                          *
                             **************************************************************
                             undefined FUN_CODE_2310()
             undefined         ACC:1          <RETURN>
                             FUN_CODE_2310                                   XREF[2]:     CODE:0762(c), CODE:1169(c)  
       CODE:2310 75 76 00        MOV        DAT_INTMEM_76,#0x0                                         = ??
       CODE:2313 53 bc 7f        ANL        DAT_SFR_bc,#0x7f                                           = ??
       CODE:2316 53 bf fe        ANL        DAT_SFR_bf,#0xfe                                           = ??
       CODE:2319 22              RET
       CODE:231a e5 76           MOV        A,DAT_INTMEM_76                                            = ??
       CODE:231c 22              RET
                             **************************************************************
                             *                          FUNCTION                          *
                             **************************************************************
                             undefined have_20ms_elapsed()
             undefined         ACC:1          <RETURN>
                             have_20ms_elapsed                               XREF[1]:     FUN_CODE_0775:07e3(c)  
       CODE:231d e5 76           MOV        A,DAT_INTMEM_76                                            = ??
       CODE:231f 24 eb           ADD        A,#0xeb
       CODE:2321 40 02           JC         LAB_CODE_2325
       CODE:2323 c3              CLR        CY
       CODE:2324 22              RET
                             LAB_CODE_2325                                   XREF[1]:     CODE:2321(j)  
       CODE:2325 43 bf 01        ORL        DAT_SFR_bf,#0x1                                            = ??
       CODE:2328 e5 76           MOV        A,DAT_INTMEM_76                                            = ??
       CODE:232a c3              CLR        CY
       CODE:232b 94 14           SUBB       A,#0x14
       CODE:232d f5 76           MOV        DAT_INTMEM_76,A                                            = ??
       CODE:232f d3              SETB       CY
       CODE:2330 53 bf fe        ANL        DAT_SFR_bf,#0xfe                                           = ??
       CODE:2333 22              RET
                             **************************************************************
                             *                          FUNCTION                          *
                             **************************************************************
                             undefined FUN_CODE_2334()
             undefined         ACC:1          <RETURN>
                             FUN_CODE_2334                                   XREF[2]:     CODE:0765(c), 
                                                                                          FUN_CODE_1dce:1dce(c)  
       CODE:2334 75 fe 00        MOV        CCAP4H,#0x0                                                = ??
       CODE:2337 75 ff 00        MOV        DAT_SFR_ff,#0x0
       CODE:233a 75 fe 00        MOV        CCAP4H,#0x0                                                = ??
       CODE:233d 22              RET
                             **************************************************************
                             *                          FUNCTION                          *
                             **************************************************************
                             undefined dbgled_read()
             undefined         ACC:1          <RETURN>
                             dbgled_read                                     XREF[1]:     CODE:1157(c)  
       CODE:233e 43 a5 01        ORL        DAT_SFR_a5,#0x1                                            = ??
       CODE:2341 a2 c0           MOV        CY,FIFLG.0                                                 = ??
       CODE:2343 92 11           MOV        22.1,CY                                                    = ??
       CODE:2345 22              RET
                             **************************************************************
                             *                          FUNCTION                          *
                             **************************************************************
                             undefined FUN_CODE_2346()
             undefined         ACC:1          <RETURN>
                             FUN_CODE_2346                                   XREF[1]:     CODE:115a(c)  
       CODE:2346 43 a2 80        ORL        FIE,#0x80                                                  = ??
       CODE:2349 43 a3 47        ORL        FIE1,#0x47                                                 = ??
       CODE:234c 43 a4 b0        ORL        DAT_SFR_a4,#0xb0                                           = ??
       CODE:234f 43 a5 f6        ORL        DAT_SFR_a5,#0xf6                                           = ??
       CODE:2352 43 a6 6f        ORL        WDTRST,#0x6f                                               = ??
       CODE:2355 75 9d 0c        MOV        DAT_SFR_9d,#0xc                                            = ??
       CODE:2358 75 9e 00        MOV        DAT_SFR_9e,#0x0                                            = ??
       CODE:235b 75 9f 04        MOV        DAT_SFR_9f,#0x4                                            = ??
       CODE:235e 75 a1 00        MOV        HIE,#0x0                                                   = ??
       CODE:2361 75 a7 00        MOV        WCON,#0x0                                                  = ??
       CODE:2364 75 80 00        MOV        P0,#0x0                                                    = ??
       CODE:2367 75 90 10        MOV        P1,#0x10                                                   = ??
       CODE:236a 75 a0 04        MOV        P2,#0x4                                                    = ??
       CODE:236d 75 c0 00        MOV        FIFLG,#0x0                                                 = ??
       CODE:2370 75 c8 10        MOV        T2CON,#0x10                                                = ??
       CODE:2373 75 a2 80        MOV        FIE,#0x80                                                  = ??
       CODE:2376 75 a3 47        MOV        FIE1,#0x47                                                 = ??
       CODE:2379 75 a4 b0        MOV        DAT_SFR_a4,#0xb0                                           = ??
       CODE:237c 75 a5 f6        MOV        DAT_SFR_a5,#0xf6                                           = ??
       CODE:237f 75 a6 6f        MOV        WDTRST,#0x6f                                               = ??
       CODE:2382 22              RET
                             **************************************************************
                             *                          FUNCTION                          *
                             **************************************************************
                             undefined FUN_CODE_2383()
             undefined         ACC:1          <RETURN>
                             FUN_CODE_2383                                   XREF[1]:     CODE:1160(c)  
       CODE:2383 c2 62           CLR        2c.2                                                       = ??
       CODE:2385 12 04 96        LCALL      FUN_CODE_0496                                              undefined FUN_CODE_0496()
       CODE:2388 12 02 ad        LCALL      FUN_CODE_02ad                                              undefined FUN_CODE_02ad()
       CODE:238b c2 64           CLR        2c.4                                                       = ??
       CODE:238d c2 63           CLR        2c.3                                                       = ??
       CODE:238f 75 68 00        MOV        DAT_INTMEM_68,#0x0                                         = ??
       CODE:2392 75 96 00        MOV        DAT_SFR_96,#0x0                                            = ??
       CODE:2395 75 92 64        MOV        DAT_SFR_92,#0x64                                           = ??
       CODE:2398 75 94 64        MOV        DAT_SFR_94,#0x64                                           = ??
       CODE:239b 75 88 00        MOV        TCON,#0x0                                                  = ??
       CODE:239e 75 98 00        MOV        SCON,#0x0                                                  = ??
       CODE:23a1 75 95 88        MOV        DAT_SFR_95,#0x88                                           = ??
       CODE:23a4 c2 6b           CLR        2d.3                                                       = ??
       CODE:23a6 c2 6c           CLR        2d.4                                                       = ??
       CODE:23a8 c2 6d           CLR        2d.5                                                       = ??
       CODE:23aa 75 1f 00        MOV        BANK3_R7,#0x0                                              = ??
       CODE:23ad 75 e8 00        MOV        HIFLG,#0x0                                                 = ??
       CODE:23b0 43 c2 40        ORL        DAT_SFR_c2,#0x40                                           = ??
       CODE:23b3 43 87 80        ORL        PCON,#0x80                                                 = ??
       CODE:23b6 22              RET
                             **************************************************************
                             *                          FUNCTION                          *
                             **************************************************************
                             undefined argon_disable()
             undefined         ACC:1          <RETURN>
                             argon_disable                                   XREF[2]:     CODE:075c(c), CODE:1151(c)  
       CODE:23b7 c2 5b           CLR        2b.3                                                       = ??
       CODE:23b9 22              RET
                             **************************************************************
                             *                          FUNCTION                          *
                             **************************************************************
                             undefined argon_enable()
             undefined         ACC:1          <RETURN>
                             argon_enable                                    XREF[1]:     CODE:116c(c)  
       CODE:23ba d2 5b           SETB       2b.3                                                       = ??
       CODE:23bc 22              RET
                             **************************************************************
                             *                          FUNCTION                          *
                             **************************************************************
                             undefined FUN_CODE_23bd()
             undefined         ACC:1          <RETURN>
                             FUN_CODE_23bd                                   XREF[2]:     thunk_FUN_CODE_23bd:0137(T), 
                                                                                          thunk_FUN_CODE_23bd:0137(j), 
                                                                                          CODE:1174(c)  
       CODE:23bd 43 bf 01        ORL        DAT_SFR_bf,#0x1                                            = ??
       CODE:23c0 75 ff 00        MOV        DAT_SFR_ff,#0x0
       CODE:23c3 75 fe ff        MOV        CCAP4H,#0xff                                               = ??
                             LAB_CODE_23c6                                   XREF[1]:     CODE:23c6(j)  
       CODE:23c6 80 fe           SJMP       LAB_CODE_23c6
                             **************************************************************
                             *                          FUNCTION                          *
                             **************************************************************
                             undefined psu_enable_12v()
             undefined         ACC:1          <RETURN>
                             psu_enable_12v                                  XREF[1]:     CODE:0fd8(c)  
       CODE:23c8 d2 a1           SETB       P2.1                                                       = ??
       CODE:23ca 22              RET
                             **************************************************************
                             *                          FUNCTION                          *
                             **************************************************************
                             undefined psu_kill_12v()
             undefined         ACC:1          <RETURN>
                             psu_kill_12v                                    XREF[1]:     CODE:0f70(c)  
       CODE:23cb c2 a1           CLR        P2.1                                                       = ??
       CODE:23cd 22              RET
                             **************************************************************
                             *                          FUNCTION                          *
                             **************************************************************
                             undefined FUN_CODE_23ce()
             undefined         ACC:1          <RETURN>
                             FUN_CODE_23ce                                   XREF[3]:     CODE:0fe3(c), CODE:1000(c), 
                                                                                          FUN_CODE_1d0f:1d12(c)  
       CODE:23ce a2 a5           MOV        CY,P2.5                                                    = ??
       CODE:23d0 20 17 03        JB         22.7,LAB_CODE_23d6                                         = ??
       CODE:23d3 c2 a9           CLR        ET0                                                        = ??
       CODE:23d5 22              RET
                             LAB_CODE_23d6                                   XREF[1]:     CODE:23d0(j)  
       CODE:23d6 b0 a9           ANL        CY,/ET0                                                    = ??
       CODE:23d8 22              RET
                             **************************************************************
                             *                          FUNCTION                          *
                             **************************************************************
                             undefined vreg_5vp0_enable()
             undefined         ACC:1          <RETURN>
                             vreg_5vp0_enable                                XREF[1]:     CODE:1027(c)  
       CODE:23d9 d2 95           SETB       P1.5                                                       = ??
       CODE:23db 22              RET
                             **************************************************************
                             *                          FUNCTION                          *
                             **************************************************************
                             undefined vreg_5vp0_kill()
             undefined         ACC:1          <RETURN>
                             vreg_5vp0_kill                                  XREF[1]:     CODE:0f3f(c)  
       CODE:23dc c2 95           CLR        P1.5                                                       = ??
       CODE:23de 22              RET
                             **************************************************************
                             *                          FUNCTION                          *
                             **************************************************************
                             undefined FUN_CODE_23df()
             undefined         ACC:1          <RETURN>
                             FUN_CODE_23df                                   XREF[1]:     CODE:103f(c)  
       CODE:23df c2 94           CLR        P1.4                                                       = ??
       CODE:23e1 22              RET
                             **************************************************************
                             *                          FUNCTION                          *
                             **************************************************************
                             undefined FUN_CODE_23e2()
             undefined         ACC:1          <RETURN>
                             FUN_CODE_23e2                                   XREF[1]:     CODE:0ef8(c)  
       CODE:23e2 d2 94           SETB       P1.4                                                       = ??
       CODE:23e4 22              RET
                             **************************************************************
                             *                          FUNCTION                          *
                             **************************************************************
                             undefined FUN_CODE_23e5()
             undefined         ACC:1          <RETURN>
                             FUN_CODE_23e5                                   XREF[1]:     CODE:102a(c)  
       CODE:23e5 d2 93           SETB       P1.3                                                       = ??
       CODE:23e7 22              RET
                             **************************************************************
                             *                          FUNCTION                          *
                             **************************************************************
                             undefined FUN_CODE_23e8()
             undefined         ACC:1          <RETURN>
                             FUN_CODE_23e8                                   XREF[1]:     CODE:0f3a(c)  
       CODE:23e8 c2 93           CLR        P1.3                                                       = ??
       CODE:23ea 22              RET
                             **************************************************************
                             *                          FUNCTION                          *
                             **************************************************************
                             undefined FUN_CODE_23eb()
             undefined         ACC:1          <RETURN>
                             FUN_CODE_23eb                                   XREF[2]:     CODE:1032(c), 
                                                                                          FUN_CODE_1d0f:1d1a(c)  
       CODE:23eb a2 c1           MOV        CY,FIFLG.1                                                 = ??
       CODE:23ed 20 18 03        JB         23.0,LAB_CODE_23f3                                         = ??
       CODE:23f0 c2 aa           CLR        EX1                                                        = ??
       CODE:23f2 22              RET
                             LAB_CODE_23f3                                   XREF[1]:     CODE:23ed(j)  
       CODE:23f3 b0 aa           ANL        CY,/EX1                                                    = ??
       CODE:23f5 22              RET
                             **************************************************************
                             *                          FUNCTION                          *
                             **************************************************************
                             undefined FUN_CODE_23f6()
             undefined         ACC:1          <RETURN>
                             FUN_CODE_23f6                                   XREF[1]:     CODE:103a(c)  
       CODE:23f6 d2 a6           SETB       P2.6                                                       = ??
       CODE:23f8 22              RET
                             **************************************************************
                             *                          FUNCTION                          *
                             **************************************************************
                             undefined FUN_CODE_23f9()
             undefined         ACC:1          <RETURN>
                             FUN_CODE_23f9                                   XREF[1]:     CODE:0efb(c)  
       CODE:23f9 c2 a6           CLR        P2.6                                                       = ??
       CODE:23fb 22              RET
                             **************************************************************
                             *                          FUNCTION                          *
                             **************************************************************
                             undefined FUN_CODE_23fc()
             undefined         ACC:1          <RETURN>
                             FUN_CODE_23fc                                   XREF[2]:     ipc_handle_messages:083e(c), 
                                                                                          CODE:228e(c)  
       CODE:23fc 75 e0 00        MOV        A,#0x0
       CODE:23ff d2 e4           SETB       ACC.4                                                      = ??
       CODE:2401 f5 e2           MOV        RXSTAT,A                                                   = ??
       CODE:2403 e5 e1           MOV        A,EPCON                                                    = ??
       CODE:2405 a2 e7           MOV        CY,ACC.7                                                   = ??
       CODE:2407 22              RET
                             **************************************************************
                             *                          FUNCTION                          *
                             **************************************************************
                             undefined FUN_CODE_2408()
             undefined         ACC:1          <RETURN>
                             FUN_CODE_2408                                   XREF[21]:    ipc_handle_messages:097f(c), 
                                                                                          ipc_handle_messages:0a23(c), 
                                                                                          ipc_handle_messages:0a50(c), 
                                                                                          ipc_handle_messages:0a9d(c), 
                                                                                          ipc_handle_messages:0b32(c), 
                                                                                          ipc_handle_messages:0b95(c), 
                                                                                          ipc_handle_messages:0bb8(c), 
                                                                                          ipc_handle_messages:0bf1(c), 
                                                                                          ipc_handle_messages:0c08(c), 
                                                                                          ipc_handle_messages:0c13(c), 
                                                                                          ipc_handle_messages:0c1e(c), 
                                                                                          ipc_handle_messages:0c55(c), 
                                                                                          ipc_handle_messages:0c7a(c), 
                                                                                          ipc_handle_messages:0c96(c), 
                                                                                          ipc_handle_messages:0ca9(c), 
                                                                                          ipc_handle_messages:0cc3(c), 
                                                                                          ipc_handle_messages:0cdc(c), 
                                                                                          ipc_handle_messages:0d19(c), 
                                                                                          ipc_handle_messages:0d2b(c), 
                                                                                          ipc_handle_messages:0d38(c), 
                                                                                          [more]
       CODE:2408 d2 e4           SETB       ACC.4                                                      = ??
       CODE:240a f5 e2           MOV        RXSTAT,A                                                   = ??
       CODE:240c 22              RET
                             **************************************************************
                             *                          FUNCTION                          *
                             **************************************************************
                             undefined ipc_fifo_read()
             undefined         ACC:1          <RETURN>
                             ipc_fifo_read                                   XREF[44]:    ipc_handle_messages:0982(c), 
                                                                                          ipc_handle_messages:0986(c), 
                                                                                          ipc_handle_messages:098a(c), 
                                                                                          ipc_handle_messages:098e(c), 
                                                                                          ipc_handle_messages:0992(c), 
                                                                                          ipc_handle_messages:0a26(c), 
                                                                                          ipc_handle_messages:0a53(c), 
                                                                                          ipc_handle_messages:0aa7(c), 
                                                                                          ipc_handle_messages:0b35(c), 
                                                                                          ipc_handle_messages:0b39(c), 
                                                                                          ipc_handle_messages:0b3d(c), 
                                                                                          ipc_handle_messages:0b41(c), 
                                                                                          ipc_handle_messages:0b98(c), 
                                                                                          ipc_handle_messages:0b9c(c), 
                                                                                          ipc_handle_messages:0ba0(c), 
                                                                                          ipc_handle_messages:0ba4(c), 
                                                                                          ipc_handle_messages:0ba8(c), 
                                                                                          ipc_handle_messages:0bbb(c), 
                                                                                          ipc_handle_messages:0bbf(c), 
                                                                                          ipc_handle_messages:0bc3(c), 
                                                                                          [more]
       CODE:240d e5 e1           MOV        A,EPCON                                                    = ??
       CODE:240f 22              RET
                             **************************************************************
                             *                          FUNCTION                          *
                             **************************************************************
                             undefined FUN_CODE_2410()
             undefined         ACC:1          <RETURN>
                             FUN_CODE_2410                                   XREF[3]:     ipc_handle_messages:0d32(c), 
                                                                                          ipc_handle_messages:0d3f(c), 
                                                                                          CODE:2414(j)  
       CODE:2410 e5 e1           MOV        A,EPCON                                                    = ??
       CODE:2412 f6              MOV        @R0,A
       CODE:2413 08              INC        R0
       CODE:2414 da fa           DJNZ       R2,FUN_CODE_2410
       CODE:2416 22              RET
                             **************************************************************
                             *                          FUNCTION                          *
                             **************************************************************
                             undefined FUN_CODE_2417()
             undefined         ACC:1          <RETURN>
                             FUN_CODE_2417                                   XREF[2]:     CODE:2296(c), CODE:22a2(c)  
       CODE:2417 75 e2 00        MOV        RXSTAT,#0x0                                                = ??
       CODE:241a 22              RET
                             **************************************************************
                             *                          FUNCTION                          *
                             **************************************************************
                             undefined FUN_CODE_241b()
             undefined         ACC:1          <RETURN>
                             FUN_CODE_241b                                   XREF[1]:     CODE:1d93(c)  
       CODE:241b e4              CLR        A
       CODE:241c d2 e4           SETB       ACC.4                                                      = ??
       CODE:241e f5 d6           MOV        DAT_SFR_d6,A                                               = ??
       CODE:2420 7a 10           MOV        R2,#0x10
                             LAB_CODE_2422                                   XREF[1]:     CODE:2427(j)  
       CODE:2422 75 d5 00        MOV        HPSC,#0x0                                                  = ??
       CODE:2425 e5 d6           MOV        A,DAT_SFR_d6                                               = ??
       CODE:2427 da f9           DJNZ       R2,LAB_CODE_2422
       CODE:2429 22              RET
                             **************************************************************
                             *                          FUNCTION                          *
                             **************************************************************
                             undefined FUN_CODE_242a()
             undefined         ACC:1          <RETURN>
                             FUN_CODE_242a                                   XREF[32]:    ipc_handle_messages:084a(c), 
                                                                                          ipc_handle_messages:08a6(c), 
                                                                                          ipc_handle_messages:08d0(c), 
                                                                                          ipc_handle_messages:0903(c), 
                                                                                          ipc_handle_messages:0936(c), 
                                                                                          ipc_handle_messages:0941(c), 
                                                                                          ipc_handle_messages:0950(c), 
                                                                                          ipc_handle_messages:0962(c), 
                                                                                          ipc_handle_messages:09aa(c), 
                                                                                          ipc_handle_messages:09ba(c), 
                                                                                          ipc_handle_messages:09c8(c), 
                                                                                          ipc_handle_messages:09f9(c), 
                                                                                          ipc_handle_messages:0a04(c), 
                                                                                          ipc_handle_messages:0a7e(c), 
                                                                                          ipc_handle_messages:0aa2(c), 
                                                                                          ipc_handle_messages:0ab2(c), 
                                                                                          ipc_handle_messages:0abf(c), 
                                                                                          FUN_CODE_0d43:0d8a(c), 
                                                                                          FUN_CODE_0d43:0da8(c), 
                                                                                          CODE:1ae6(c), [more]
       CODE:242a d2 e4           SETB       ACC.4                                                      = ??
       CODE:242c f5 d6           MOV        DAT_SFR_d6,A                                               = ??
       CODE:242e 22              RET
                             **************************************************************
                             *                          FUNCTION                          *
                             **************************************************************
                             undefined ipc_fifo_write()
             undefined         ACC:1          <RETURN>
                             ipc_fifo_write                                  XREF[66]:    ipc_handle_messages:084f(c), 
                                                                                          ipc_handle_messages:08ab(c), 
                                                                                          ipc_handle_messages:08b0(c), 
                                                                                          ipc_handle_messages:08b5(c), 
                                                                                          ipc_handle_messages:08ba(c), 
                                                                                          ipc_handle_messages:08d4(c), 
                                                                                          ipc_handle_messages:08d8(c), 
                                                                                          ipc_handle_messages:08dc(c), 
                                                                                          ipc_handle_messages:08e0(c), 
                                                                                          ipc_handle_messages:08e4(c), 
                                                                                          ipc_handle_messages:08e9(c), 
                                                                                          ipc_handle_messages:08ee(c), 
                                                                                          ipc_handle_messages:08f3(c), 
                                                                                          ipc_handle_messages:08f8(c), 
                                                                                          ipc_handle_messages:08fd(c), 
                                                                                          ipc_handle_messages:0908(c), 
                                                                                          ipc_handle_messages:090d(c), 
                                                                                          ipc_handle_messages:0912(c), 
                                                                                          ipc_handle_messages:0917(c), 
                                                                                          CODE:1aeb(c), [more]
       CODE:242f f5 d5           MOV        HPSC,A                                                     = ??
       CODE:2431 22              RET
                             **************************************************************
                             *                          FUNCTION                          *
                             **************************************************************
                             undefined FUN_CODE_2432()
             undefined         ACC:1          <RETURN>
                             FUN_CODE_2432                                   XREF[3]:     ipc_handle_messages:0ab9(c), 
                                                                                          ipc_handle_messages:0ac6(c), 
                                                                                          CODE:2436(j)  
       CODE:2432 e6              MOV        A,@R0
       CODE:2433 f5 d5           MOV        HPSC,A                                                     = ??
       CODE:2435 08              INC        R0
       CODE:2436 da fa           DJNZ       R2,FUN_CODE_2432
       CODE:2438 22              RET
                             **************************************************************
                             *                          FUNCTION                          *
                             **************************************************************
                             undefined FUN_CODE_2439()
             undefined         ACC:1          <RETURN>
                             FUN_CODE_2439                                   XREF[2]:     FUN_CODE_0d43:0d92(c), 
                                                                                          CODE:1dae(c)  
       CODE:2439 75 d6 00        MOV        DAT_SFR_d6,#0x0                                            = ??
       CODE:243c 22              RET
                             **************************************************************
                             *                          FUNCTION                          *
                             **************************************************************
                             undefined FUN_CODE_243d()
             undefined         ACC:1          <RETURN>
                             FUN_CODE_243d                                   XREF[1]:     CODE:1db5(c)  
       CODE:243d e5 d6           MOV        A,DAT_SFR_d6                                               = ??
       CODE:243f a2 e4           MOV        CY,ACC.4                                                   = ??
       CODE:2441 22              RET
                             **************************************************************
                             *                          FUNCTION                          *
                             **************************************************************
                             undefined FUN_CODE_2442()
             undefined         ACC:1          <RETURN>
                             FUN_CODE_2442                                   XREF[2]:     CODE:116f(c), CODE:11ba(c)  
       CODE:2442 90 24 66        MOV        DPTR,#0x2466
       CODE:2445 12 2c e8        LCALL      FUN_CODE_2ce8                                              undefined FUN_CODE_2ce8()
       CODE:2448 e5 e3           MOV        A,RXDAT                                                    = ??
       CODE:244a c4              SWAP       A
       CODE:244b 54 03           ANL        A,#0x3
       CODE:244d 75 f0 03        MOV        B,#0x3
       CODE:2450 a4              MUL        AB
       CODE:2451 fa              MOV        R2,A
       CODE:2452 90 24 99        MOV        DPTR,#0x2499
       CODE:2455 93              MOVC       A,@A+DPTR=>DAT_CODE_2499
       CODE:2456 f5 ed           MOV        CCAP3L,A                                                   = ??
       CODE:2458 0a              INC        R2
       CODE:2459 ea              MOV        A,R2
       CODE:245a 93              MOVC       A,@A+DPTR=>DAT_CODE_2499
       CODE:245b f5 ec           MOV        CCAP2L,A                                                   = ??
       CODE:245d 0a              INC        R2
       CODE:245e ea              MOV        A,R2
       CODE:245f 93              MOVC       A,@A+DPTR=>DAT_CODE_2499
       CODE:2460 f5 eb           MOV        CCAP1L,A                                                   = ??
       CODE:2462 75 f5 02        MOV        TXFLG,#0x2                                                 = ??
       CODE:2465 22              RET
       CODE:2466 57              ??         57h    W
       CODE:2467 e4              ??         E4h
       CODE:2468 58              ??         58h    X
       CODE:2469 e4              ??         E4h
       CODE:246a e3              ??         E3h
       CODE:246b 57              ??         57h    W
       CODE:246c e4              ??         E4h
       CODE:246d 2a              ??         2Ah    *
       CODE:246e e5              ??         E5h
       CODE:246f be              ??         BEh
       CODE:2470 e6              ??         E6h
       CODE:2471 8a              ??         8Ah
       CODE:2472 e7              ??         E7h
       CODE:2473 4b              ??         4Bh    K
       CODE:2474 e8              ??         E8h
       CODE:2475 f1              ??         F1h
       CODE:2476 e9              ??         E9h
       CODE:2477 74              ??         74h    t
       CODE:2478 ea              ??         EAh
       CODE:2479 b9              ??         B9h
       CODE:247a eb              ??         EBh
       CODE:247b 4b              ??         4Bh    K
       CODE:247c ec              ??         ECh
       CODE:247d f1              ??         F1h
       CODE:247e ed              ??         EDh
       CODE:247f 74              ??         74h    t
       CODE:2480 ee              ??         EEh
       CODE:2481 b9              ??         B9h
       CODE:2482 ef              ??         EFh
       CODE:2483 4a              ??         4Ah    J
       CODE:2484 f0              ??         F0h
       CODE:2485 b4              ??         B4h
       CODE:2486 f1              ??         F1h
       CODE:2487 75              ??         75h    u
       CODE:2488 f2              ??         F2h
       CODE:2489 6a              ??         6Ah    j
       CODE:248a e2              ??         E2h
       CODE:248b 03              ??         03h
       CODE:248c 4d              ??         4Dh    M
       CODE:248d 50              ??         50h    P
       CODE:248e 4e              ??         4Eh    N
       CODE:248f 61              ??         61h    a
       CODE:2490 4f              ??         4Fh    O
       CODE:2491 64              ??         64h    d
       CODE:2492 50              ??         50h    P
       CODE:2493 64              ??         64h    d
       CODE:2494 51              ??         51h    Q
       CODE:2495 6e              ??         6Eh    n
       CODE:2496 52              ??         52h    R
       CODE:2497 75              ??         75h    u
       CODE:2498 00              ??         00h
                             DAT_CODE_2499                                   XREF[3]:     FUN_CODE_2442:2455(*), 
                                                                                          FUN_CODE_2442:245a(*), 
                                                                                          FUN_CODE_2442:245f(*)  
       CODE:2499 00              ??         00h
       CODE:249a 7b              ??         7Bh    {
       CODE:249b e0              ??         E0h
       CODE:249c 00              ??         00h
       CODE:249d f7              ??         F7h
       CODE:249e c0              ??         C0h
       CODE:249f 01              ??         01h
       CODE:24a0 ef              ??         EFh
       CODE:24a1 c0              ??         C0h
       CODE:24a2 03              ??         03h
       CODE:24a3 df              ??         DFh
       CODE:24a4 c0              ??         C0h
                             **************************************************************
                             *                          FUNCTION                          *
                             **************************************************************
                             undefined FUN_CODE_24a5()
             undefined         ACC:1          <RETURN>
                             FUN_CODE_24a5                                   XREF[2]:     CODE:1177(c), CODE:11c9(c)  
       CODE:24a5 c2 59           CLR        2b.1                                                       = ??
       CODE:24a7 e5 ee           MOV        A,CCAP4L                                                   = ??
       CODE:24a9 20 e0 04        JB         ACC.0,LAB_CODE_24b0                                        = ??
       CODE:24ac 54 b0           ANL        A,#0xb0
       CODE:24ae 60 06           JZ         LAB_CODE_24b6
                             LAB_CODE_24b0                                   XREF[3]:     CODE:24a9(j), CODE:24c1(j), 
                                                                                          CODE:2507(j)  
       CODE:24b0 20 11 02        JB         22.1,LAB_CODE_24b5                                         = ??
       CODE:24b3 d2 59           SETB       2b.1                                                       = ??
                             LAB_CODE_24b5                                   XREF[1]:     CODE:24b0(j)  
       CODE:24b5 22              RET
                             LAB_CODE_24b6                                   XREF[1]:     CODE:24ae(j)  
       CODE:24b6 75 eb 00        MOV        CCAP1L,#0x0                                                = ??
       CODE:24b9 75 ea 0c        MOV        CCAP0L,#0xc                                                = ??
       CODE:24bc 75 f5 00        MOV        TXFLG,#0x0                                                 = ??
       CODE:24bf e5 f3           MOV        A,TXDAT                                                    = ??
       CODE:24c1 b4 04 ec        CJNE       A,#0x4,LAB_CODE_24b0
       CODE:24c4 75 ea 00        MOV        CCAP0L,#0x0                                                = ??
       CODE:24c7 75 f5 00        MOV        TXFLG,#0x0                                                 = ??
       CODE:24ca aa f1           MOV        R2,EPINDEX                                                 = ??
       CODE:24cc ab f2           MOV        R3,TXSTAT                                                  = ??
       CODE:24ce 7c 3f           MOV        R4,#0x3f
       CODE:24d0 75 ea 10        MOV        CCAP0L,#0x10                                               = ??
                             LAB_CODE_24d3                                   XREF[1]:     CODE:24fd(j)  
       CODE:24d3 75 f5 00        MOV        TXFLG,#0x0                                                 = ??
       CODE:24d6 75 f0 00        MOV        B,#0x0
       CODE:24d9 ea              MOV        A,R2
       CODE:24da 25 f1           ADD        A,EPINDEX                                                  = ??
       CODE:24dc 92 f0           MOV        B.0,CY                                                     = ??
       CODE:24de 25 f2           ADD        A,TXSTAT                                                   = ??
       CODE:24e0 92 f1           MOV        B.1,CY                                                     = ??
       CODE:24e2 25 f3           ADD        A,TXDAT                                                    = ??
       CODE:24e4 92 f2           MOV        B.2,CY                                                     = ??
       CODE:24e6 25 f4           ADD        A,TXCON                                                    = ??
       CODE:24e8 92 f3           MOV        B.3,CY                                                     = ??
       CODE:24ea fa              MOV        R2,A
       CODE:24eb eb              MOV        A,R3
       CODE:24ec a2 f0           MOV        CY,B.0                                                     = ??
       CODE:24ee 34 00           ADDC       A,#0x0
       CODE:24f0 a2 f1           MOV        CY,B.1                                                     = ??
       CODE:24f2 34 00           ADDC       A,#0x0
       CODE:24f4 a2 f2           MOV        CY,B.2                                                     = ??
       CODE:24f6 34 00           ADDC       A,#0x0
       CODE:24f8 a2 f3           MOV        CY,B.3                                                     = ??
       CODE:24fa 34 00           ADDC       A,#0x0
       CODE:24fc fb              MOV        R3,A
       CODE:24fd dc d4           DJNZ       R4,LAB_CODE_24d3
       CODE:24ff ea              MOV        A,R2
       CODE:2500 24 01           ADD        A,#0x1
       CODE:2502 fa              MOV        R2,A
       CODE:2503 eb              MOV        A,R3
       CODE:2504 34 00           ADDC       A,#0x0
       CODE:2506 4a              ORL        A,R2
       CODE:2507 70 a7           JNZ        LAB_CODE_24b0
       CODE:2509 75 eb 00        MOV        CCAP1L,#0x0                                                = ??
       CODE:250c 75 ea 14        MOV        CCAP0L,#0x14                                               = ??
       CODE:250f 75 f5 00        MOV        TXFLG,#0x0                                                 = ??
       CODE:2512 e5 f1           MOV        A,EPINDEX                                                  = ??
       CODE:2514 20 e1 7a        JB         ACC.1,LAB_CODE_2591                                        = ??
       CODE:2517 75 ea 10        MOV        CCAP0L,#0x10                                               = ??
       CODE:251a 75 f5 00        MOV        TXFLG,#0x0                                                 = ??
       CODE:251d 85 f2 57        MOV        DAT_INTMEM_57,TXSTAT                                       = ??
       CODE:2520 85 f3 58        MOV        DAT_INTMEM_58,TXDAT                                        = ??
       CODE:2523 75 ea 18        MOV        CCAP0L,#0x18                                               = ??
       CODE:2526 75 f5 00        MOV        TXFLG,#0x0                                                 = ??
       CODE:2529 78 e3           MOV        R0,#0xe3
       CODE:252b a6 f2           MOV        @R0=>DAT_INTMEM_e3,TXSTAT                                  = ??
       CODE:252d 08              INC        R0
       CODE:252e a6 f1           MOV        @R0=>DAT_INTMEM_e4,EPINDEX                                 = ??
       CODE:2530 08              INC        R0
       CODE:2531 a6 f4           MOV        @R0=>DAT_INTMEM_e5,TXCON                                   = ??
       CODE:2533 08              INC        R0
       CODE:2534 a6 f3           MOV        @R0=>DAT_INTMEM_e6,TXDAT                                   = ??
       CODE:2536 75 ea 1c        MOV        CCAP0L,#0x1c                                               = ??
       CODE:2539 75 f5 00        MOV        TXFLG,#0x0                                                 = ??
       CODE:253c 78 e7           MOV        R0,#0xe7
       CODE:253e a6 f2           MOV        @R0=>DAT_INTMEM_e7,TXSTAT                                  = ??
       CODE:2540 08              INC        R0
       CODE:2541 a6 f1           MOV        @R0=>DAT_INTMEM_e8,EPINDEX                                 = ??
       CODE:2543 08              INC        R0
       CODE:2544 a6 f4           MOV        @R0=>DAT_INTMEM_e9,TXCON                                   = ??
       CODE:2546 08              INC        R0
       CODE:2547 a6 f3           MOV        @R0=>DAT_INTMEM_ea,TXDAT                                   = ??
       CODE:2549 75 ea 20        MOV        CCAP0L,#0x20                                               = ??
       CODE:254c 75 f5 00        MOV        TXFLG,#0x0                                                 = ??
       CODE:254f 78 eb           MOV        R0,#0xeb
       CODE:2551 a6 f2           MOV        @R0=>DAT_INTMEM_eb,TXSTAT                                  = ??
       CODE:2553 08              INC        R0
       CODE:2554 a6 f1           MOV        @R0=>DAT_INTMEM_ec,EPINDEX                                 = ??
       CODE:2556 08              INC        R0
       CODE:2557 a6 f4           MOV        @R0=>DAT_INTMEM_ed,TXCON                                   = ??
       CODE:2559 08              INC        R0
       CODE:255a a6 f3           MOV        @R0=>DAT_INTMEM_ee,TXDAT                                   = ??
       CODE:255c 75 ea 24        MOV        CCAP0L,#0x24                                               = ??
       CODE:255f 75 f5 00        MOV        TXFLG,#0x0                                                 = ??
       CODE:2562 78 ef           MOV        R0,#0xef
       CODE:2564 a6 f2           MOV        @R0=>DAT_INTMEM_ef,TXSTAT                                  = ??
       CODE:2566 08              INC        R0
       CODE:2567 a6 f1           MOV        @R0=>DAT_INTMEM_f0,EPINDEX                                 = ??
       CODE:2569 08              INC        R0
       CODE:256a a6 f4           MOV        @R0=>DAT_INTMEM_f1,TXCON                                   = ??
       CODE:256c 08              INC        R0
       CODE:256d a6 f3           MOV        @R0=>DAT_INTMEM_f2,TXDAT                                   = ??
       CODE:256f 75 ea 28        MOV        CCAP0L,#0x28                                               = ??
       CODE:2572 75 f5 00        MOV        TXFLG,#0x0                                                 = ??
       CODE:2575 78 e2           MOV        R0,#0xe2
       CODE:2577 a6 f1           MOV        @R0=>DAT_INTMEM_e2,EPINDEX                                 = ??
       CODE:2579 85 f2 4d        MOV        DAT_INTMEM_4d,TXSTAT                                       = ??
       CODE:257c 85 f3 4e        MOV        DAT_INTMEM_4e,TXDAT                                        = ??
       CODE:257f 85 f4 4f        MOV        DAT_INTMEM_4f,TXCON                                        = ??
       CODE:2582 75 ea 2c        MOV        CCAP0L,#0x2c                                               = ??
       CODE:2585 75 f5 00        MOV        TXFLG,#0x0                                                 = ??
       CODE:2588 85 f1 50        MOV        DAT_INTMEM_50,EPINDEX                                      = ??
       CODE:258b 85 f2 51        MOV        DAT_INTMEM_51,TXSTAT                                       = ??
       CODE:258e 85 f3 52        MOV        DAT_INTMEM_52,TXDAT                                        = ??
                             LAB_CODE_2591                                   XREF[1]:     CODE:2514(j)  
       CODE:2591 22              RET
                             **************************************************************
                             *                          FUNCTION                          *
                             **************************************************************
                             undefined FUN_CODE_2592()
             undefined         ACC:1          <RETURN>
                             FUN_CODE_2592                                   XREF[1]:     CODE:1329(c)  
       CODE:2592 c2 cc           CLR        TCLK                                                       = ??
       CODE:2594 22              RET
                             **************************************************************
                             *                          FUNCTION                          *
                             **************************************************************
                             undefined FUN_CODE_2595()
             undefined         ACC:1          <RETURN>
                             FUN_CODE_2595                                   XREF[2]:     CODE:10b4(c), CODE:1321(c)  
       CODE:2595 d2 cc           SETB       TCLK                                                       = ??
       CODE:2597 22              RET
                             **************************************************************
                             *                          FUNCTION                          *
                             **************************************************************
                             undefined FUN_CODE_2598()
             undefined         ACC:1          <RETURN>
                             FUN_CODE_2598                                   XREF[1]:     FUN_CODE_14ba:15b1(c)  
       CODE:2598 f5 91           MOV        DAT_SFR_91,A                                               = ??
       CODE:259a 22              RET
                             **************************************************************
                             *                          FUNCTION                          *
                             **************************************************************
                             undefined FUN_CODE_259b()
             undefined         ACC:1          <RETURN>
                             FUN_CODE_259b                                   XREF[1]:     FUN_CODE_14ba:15ad(c)  
       CODE:259b f5 93           MOV        DPX,A                                                      = ??
       CODE:259d 22              RET
                             **************************************************************
                             *                          FUNCTION                          *
                             **************************************************************
                             undefined powersw_read()
             undefined         ACC:1          <RETURN>
                             powersw_read                                    XREF[5]:     CODE:1c9f(c), CODE:1cab(c), 
                                                                                          CODE:1cb8(c), CODE:1ccf(c), 
                                                                                          CODE:1cd8(c)  
       CODE:259e a2 a7           MOV        CY,P2.7                                                    = ??
       CODE:25a0 b3              CPL        CY                                                         NOT of CY
                                                                                                       returns 1 if pushed, 0 otherwise
       CODE:25a1 22              RET
                             **************************************************************
                             *                          FUNCTION                          *
                             **************************************************************
                             undefined ejectsw_read()
             undefined         ACC:1          <RETURN>
                             ejectsw_read                                    XREF[5]:     CODE:1ca4(c), CODE:1cb0(c), 
                                                                                          CODE:1cbd(c), CODE:1cca(c), 
                                                                                          CODE:1cdd(c)  
       CODE:25a2 a2 90           MOV        CY,P1.0                                                    = ??
       CODE:25a4 b3              CPL        CY                                                         NOT of CY
                                                                                                       returns 1 if pushed, 0 otherwise
       CODE:25a5 22              RET
                             **************************************************************
                             *                          FUNCTION                          *
                             **************************************************************
                             undefined FUN_CODE_25a6()
             undefined         ACC:1          <RETURN>
                             FUN_CODE_25a6                                   XREF[5]:     CODE:139a(c), CODE:13a1(c), 
                                                                                          CODE:13a8(c), CODE:13af(c), 
                                                                                          CODE:1ce7(c)  
       CODE:25a6 a2 92           MOV        CY,P1.2                                                    = ??
       CODE:25a8 b3              CPL        CY
       CODE:25a9 22              RET
                             **************************************************************
                             *                          FUNCTION                          *
                             **************************************************************
                             undefined FUN_CODE_25aa()
             undefined         ACC:1          <RETURN>
                             FUN_CODE_25aa                                   XREF[4]:     CODE:207a(c), CODE:2081(c), 
                                                                                          CODE:2094(c), CODE:209b(c)  
       CODE:25aa a2 a8           MOV        CY,EX0                                                     = ??
       CODE:25ac c2 a8           CLR        EX0                                                        = ??
       CODE:25ae 40 03           JC         LAB_CODE_25b3
       CODE:25b0 a2 91           MOV        CY,P1.1                                                    = ??
       CODE:25b2 b3              CPL        CY
                             LAB_CODE_25b3                                   XREF[1]:     CODE:25ae(j)  
       CODE:25b3 22              RET
                             **************************************************************
                             *                          FUNCTION                          *
                             **************************************************************
                             undefined FUN_CODE_25b4()
             undefined         ACC:1          <RETURN>
                             FUN_CODE_25b4                                   XREF[2]:     CODE:130e(c), CODE:1331(c)  
       CODE:25b4 e4              CLR        A
       CODE:25b5 a2 c2           MOV        CY,FIFLG.2                                                 = ??
       CODE:25b7 92 e6           MOV        ACC.6,CY                                                   = ??
       CODE:25b9 a2 c7           MOV        CY,FIFLG.7                                                 = ??
       CODE:25bb 92 e4           MOV        ACC.4,CY                                                   = ??
       CODE:25bd a2 c6           MOV        CY,FIFLG.6                                                 = ??
       CODE:25bf 92 e3           MOV        ACC.3,CY                                                   = ??
       CODE:25c1 a2 c5           MOV        CY,FIFLG.5                                                 = ??
       CODE:25c3 92 e2           MOV        ACC.2,CY                                                   = ??
       CODE:25c5 a2 c4           MOV        CY,FIFLG.4                                                 = ??
       CODE:25c7 92 e1           MOV        ACC.1,CY                                                   = ??
       CODE:25c9 a2 cb           MOV        CY,EXEN2                                                   = ??
       CODE:25cb 92 e0           MOV        ACC.0,CY                                                   = ??
       CODE:25cd 22              RET
                             **************************************************************
                             *                          FUNCTION                          *
                             **************************************************************
                             undefined FUN_CODE_25ce()
             undefined         ACC:1          <RETURN>
                             FUN_CODE_25ce                                   XREF[2]:     CODE:1410(c), CODE:1441(c)  
       CODE:25ce 75 77 00        MOV        DAT_INTMEM_77,#0x0                                         = ??
       CODE:25d1 22              RET
                             **************************************************************
                             *                          FUNCTION                          *
                             **************************************************************
                             undefined FUN_CODE_25d2()
             undefined         ACC:1          <RETURN>
                             FUN_CODE_25d2                                   XREF[3]:     CODE:0770(c), CODE:140b(c), 
                                                                                          CODE:1425(c)  
       CODE:25d2 e5 77           MOV        A,DAT_INTMEM_77                                            = ??
       CODE:25d4 a2 cd           MOV        CY,RCLK                                                    = ??
       CODE:25d6 b3              CPL        CY
       CODE:25d7 22              RET
                             **************************************************************
                             *                          FUNCTION                          *
                             **************************************************************
                             undefined FUN_CODE_25d8()
             undefined         ACC:1          <RETURN>
                             FUN_CODE_25d8                                   XREF[3]:     FUN_CODE_0775:0780(c), 
                                                                                          ipc_handle_messages:08c0(c), 
                                                                                          FUN_CODE_2cb7:2cb7(c)  
       CODE:25d8 43 af 01        ORL        DAT_SFR_af,#0x1                                            = ??
       CODE:25db ae ae           MOV        R6,HSTAT                                                   = ??
       CODE:25dd ad ad           MOV        R5,DAT_SFR_ad                                              = ??
       CODE:25df ac ac           MOV        R4,DAT_SFR_ac                                              = ??
       CODE:25e1 ab ab           MOV        R3,DAT_SFR_ab                                              = ??
       CODE:25e3 aa aa           MOV        R2,DAT_SFR_aa                                              = ??
       CODE:25e5 22              RET
                             **************************************************************
                             *                          FUNCTION                          *
                             **************************************************************
                             undefined FUN_CODE_25e6()
             undefined         ACC:1          <RETURN>
                             FUN_CODE_25e6                                   XREF[1]:     ipc_handle_messages:0bac(c)  
       CODE:25e6 8e ae           MOV        HSTAT,R6                                                   = ??
       CODE:25e8 8d ad           MOV        DAT_SFR_ad,R5                                              = ??
       CODE:25ea 8c ac           MOV        DAT_SFR_ac,R4                                              = ??
       CODE:25ec 8b ab           MOV        DAT_SFR_ab,R3                                              = ??
       CODE:25ee 8a aa           MOV        DAT_SFR_aa,R2                                              = ??
       CODE:25f0 43 af 02        ORL        DAT_SFR_af,#0x2                                            = ??
       CODE:25f3 22              RET
                             **************************************************************
                             *                          FUNCTION                          *
                             **************************************************************
                             undefined FUN_CODE_25f4()
             undefined         ACC:1          <RETURN>
                             FUN_CODE_25f4                                   XREF[1]:     CODE:1a5c(c)  
       CODE:25f4 75 78 00        MOV        DAT_INTMEM_78,#0x0                                         = ??
       CODE:25f7 75 7a 01        MOV        DAT_INTMEM_7a,#0x1                                         = ??
       CODE:25fa 80 26           SJMP       LAB_CODE_2622
                             **************************************************************
                             *                          FUNCTION                          *
                             **************************************************************
                             undefined FUN_CODE_25fc()
             undefined         ACC:1          <RETURN>
                             FUN_CODE_25fc                                   XREF[1]:     CODE:1a6a(c)  
       CODE:25fc 75 78 03        MOV        DAT_INTMEM_78,#0x3                                         = ??
       CODE:25ff 80 1e           SJMP       FUN_CODE_261f                                              undefined FUN_CODE_261f()
                             -- Flow Override: CALL_RETURN (CALL_TERMINATOR)
                             **************************************************************
                             *                          FUNCTION                          *
                             **************************************************************
                             undefined FUN_CODE_2601()
             undefined         ACC:1          <RETURN>
                             FUN_CODE_2601                                   XREF[1]:     CODE:1a79(c)  
       CODE:2601 75 78 3a        MOV        DAT_INTMEM_78,#0x3a                                        = ??
       CODE:2604 80 19           SJMP       FUN_CODE_261f                                              undefined FUN_CODE_261f()
                             -- Flow Override: CALL_RETURN (CALL_TERMINATOR)
                             **************************************************************
                             *                          FUNCTION                          *
                             **************************************************************
                             undefined FUN_CODE_2606()
             undefined         ACC:1          <RETURN>
                             FUN_CODE_2606                                   XREF[1]:     CODE:1a88(c)  
       CODE:2606 75 78 48        MOV        DAT_INTMEM_78,#0x48                                        = ??
       CODE:2609 80 14           SJMP       FUN_CODE_261f                                              undefined FUN_CODE_261f()
                             -- Flow Override: CALL_RETURN (CALL_TERMINATOR)
                             **************************************************************
                             *                          FUNCTION                          *
                             **************************************************************
                             undefined FUN_CODE_260b()
             undefined         ACC:1          <RETURN>
                             FUN_CODE_260b                                   XREF[1]:     CODE:1a9a(c)  
       CODE:260b 75 78 5c        MOV        DAT_INTMEM_78,#0x5c                                        = ??
       CODE:260e 80 0f           SJMP       FUN_CODE_261f                                              undefined FUN_CODE_261f()
                             -- Flow Override: CALL_RETURN (CALL_TERMINATOR)
                             **************************************************************
                             *                          FUNCTION                          *
                             **************************************************************
                             undefined FUN_CODE_2610()
             undefined         ACC:1          <RETURN>
                             FUN_CODE_2610                                   XREF[1]:     CODE:1aa9(c)  
       CODE:2610 75 78 5e        MOV        DAT_INTMEM_78,#0x5e                                        = ??
       CODE:2613 80 0a           SJMP       FUN_CODE_261f                                              undefined FUN_CODE_261f()
                             -- Flow Override: CALL_RETURN (CALL_TERMINATOR)
                             **************************************************************
                             *                          FUNCTION                          *
                             **************************************************************
                             undefined FUN_CODE_2615()
             undefined         ACC:1          <RETURN>
                             FUN_CODE_2615                                   XREF[1]:     CODE:1ab8(c)  
       CODE:2615 75 78 8e        MOV        DAT_INTMEM_78,#0x8e                                        = ??
       CODE:2618 80 05           SJMP       FUN_CODE_261f                                              undefined FUN_CODE_261f()
                             -- Flow Override: CALL_RETURN (CALL_TERMINATOR)
                             **************************************************************
                             *                          FUNCTION                          *
                             **************************************************************
                             undefined FUN_CODE_261a()
             undefined         ACC:1          <RETURN>
                             FUN_CODE_261a                                   XREF[1]:     CODE:1aca(c)  
       CODE:261a 75 78 99        MOV        DAT_INTMEM_78,#0x99                                        = ??
       CODE:261d 80 00           SJMP       FUN_CODE_261f                                              undefined FUN_CODE_261f()
                             -- Flow Override: CALL_RETURN (CALL_TERMINATOR)
                             **************************************************************
                             *                          FUNCTION                          *
                             **************************************************************
                             undefined FUN_CODE_261f()
             undefined         ACC:1          <RETURN>
                             FUN_CODE_261f                                   XREF[7]:     FUN_CODE_25fc:25ff(c), 
                                                                                          FUN_CODE_2601:2604(c), 
                                                                                          FUN_CODE_2606:2609(c), 
                                                                                          FUN_CODE_260b:260e(c), 
                                                                                          FUN_CODE_2610:2613(c), 
                                                                                          FUN_CODE_2615:2618(c), 
                                                                                          FUN_CODE_261a:261d(c)  
       CODE:261f 75 7a 03        MOV        DAT_INTMEM_7a,#0x3                                         = ??
                             LAB_CODE_2622                                   XREF[1]:     FUN_CODE_25f4:25fa(j)  
       CODE:2622 85 78 79        MOV        DAT_INTMEM_79,DAT_INTMEM_78                                = ??
       CODE:2625 80 35           SJMP       FUN_CODE_265c                                              undefined FUN_CODE_265c()
                             -- Flow Override: CALL_RETURN (CALL_TERMINATOR)
                             **************************************************************
                             *                          FUNCTION                          *
                             **************************************************************
                             undefined FUN_CODE_2627()
             undefined         ACC:1          <RETURN>
                             FUN_CODE_2627                                   XREF[8]:     CODE:1adb(c), CODE:1afd(c), 
                                                                                          CODE:1b18(c), CODE:1b24(c), 
                                                                                          CODE:1b5b(c), CODE:1b67(c), 
                                                                                          CODE:1b70(c), CODE:1b8a(c)  
       CODE:2627 30 60 02        JNB        2c.0,LAB_CODE_262c                                         = ??
       CODE:262a 80 2c           SJMP       LAB_CODE_2658
                             LAB_CODE_262c                                   XREF[1]:     CODE:2627(j)  
       CODE:262c 30 da 09        JNB        CCF.2,LAB_CODE_2638                                        = ??
       CODE:262f 12 29 c8        LCALL      FUN_CODE_29c8                                              undefined FUN_CODE_29c8()
       CODE:2632 30 da 03        JNB        CCF.2,LAB_CODE_2638                                        = ??
       CODE:2635 12 29 c8        LCALL      FUN_CODE_29c8                                              undefined FUN_CODE_29c8()
                             LAB_CODE_2638                                   XREF[2]:     CODE:262c(j), CODE:2632(j)  
       CODE:2638 30 61 21        JNB        2c.1,FUN_CODE_265c                                         = ??
                             LAB_CODE_263b                                   XREF[4]:     FUN_CODE_2666:2673(j), 
                                                                                          FUN_CODE_2755:2770(j), 
                                                                                          FUN_CODE_2850:285a(j), 
                                                                                          FUN_CODE_285d:2875(j)  
       CODE:263b d5 7a 07        DJNZ       DAT_INTMEM_7a,LAB_CODE_2645                                = ??
       CODE:263e d2 d5           SETB       F0                                                         = ??
                             LAB_CODE_2640                                   XREF[1]:     FUN_CODE_2686:2688(j)  
       CODE:2640 12 02 ad        LCALL      FUN_CODE_02ad                                              undefined FUN_CODE_02ad()
       CODE:2643 d3              SETB       CY
       CODE:2644 22              RET
                             LAB_CODE_2645                                   XREF[1]:     CODE:263b(j)  
       CODE:2645 85 78 79        MOV        DAT_INTMEM_79,DAT_INTMEM_78                                = ??
       CODE:2648 c2 61           CLR        2c.1                                                       = ??
       CODE:264a 80 0c           SJMP       LAB_CODE_2658
                             **************************************************************
                             *                          FUNCTION                          *
                             **************************************************************
                             undefined i2c_send_message_common()
             undefined         ACC:1          <RETURN>
                             i2c_send_message_common                         XREF[8]:     FUN_CODE_268e:26d3(c), 
                                                                                          FUN_CODE_26d6:26f6(c), 
                                                                                          FUN_CODE_26f9:2729(c), 
                                                                                          FUN_CODE_272c:2752(c), 
                                                                                          FUN_CODE_2755:279a(c), 
                                                                                          FUN_CODE_2836:284d(c), 
                                                                                          CODE:288e(c), CODE:28d6(c)  
       CODE:264c d2 61           SETB       2c.1                                                       = ??
       CODE:264e d2 60           SETB       2c.0                                                       = ??
       CODE:2650 75 10 00        MOV        BANK2_R0,#0x0                                              = ??
       CODE:2653 d2 d9           SETB       CCF.1                                                      = ??
       CODE:2655 53 bc f7        ANL        DAT_SFR_bc,#0xf7                                           = ??
                             LAB_CODE_2658                                   XREF[2]:     FUN_CODE_2627:262a(j), 
                                                                                          FUN_CODE_2627:264a(j)  
       CODE:2658 c2 d5           CLR        F0                                                         = ??
       CODE:265a c3              CLR        CY
       CODE:265b 22              RET
                             **************************************************************
                             *                          FUNCTION                          *
                             **************************************************************
                             undefined FUN_CODE_265c()
             undefined         ACC:1          <RETURN>
                             FUN_CODE_265c                                   XREF[12]:    FUN_CODE_261f:2625(c), 
                                                                                          FUN_CODE_2627:2638(j), 
                                                                                          FUN_CODE_2666:2684(c), 
                                                                                          thunk_FUN_CODE_265c:268a(T), 
                                                                                          thunk_FUN_CODE_265c:268c(c), 
                                                                                          FUN_CODE_26f9:2726(c), 
                                                                                          FUN_CODE_2755:276a(c), 
                                                                                          CODE:27e7(c), CODE:2810(c), 
                                                                                          FUN_CODE_2813:2833(c), 
                                                                                          FUN_CODE_2850:2857(c), 
                                                                                          FUN_CODE_285d:2872(c), 
                                                                                          FUN_CODE_285d:2885(c)  
       CODE:265c 90 29 07        MOV        DPTR,#0x2907
       CODE:265f e5 79           MOV        A,DAT_INTMEM_79                                            = ??
       CODE:2661 93              MOVC       A,@A+DPTR=>i2c_message_table
       CODE:2662 90 28 d9        MOV        DPTR,#0x28d9
       CODE:2665 73              JMP        @A+DPTR
                             **************************************************************
                             *                          FUNCTION                          *
                             **************************************************************
                             undefined FUN_CODE_2666()
             undefined         ACC:1          <RETURN>
                             FUN_CODE_2666                                   XREF[1]:     CODE:28d9(c)  
       CODE:2666 12 02 ad        LCALL      FUN_CODE_02ad                                              undefined FUN_CODE_02ad()
       CODE:2669 12 29 d8        LCALL      FUN_CODE_29d8                                              undefined FUN_CODE_29d8()
       CODE:266c 50 07           JNC        LAB_CODE_2675
       CODE:266e 12 29 f2        LCALL      FUN_CODE_29f2                                              undefined FUN_CODE_29f2()
       CODE:2671 50 02           JNC        LAB_CODE_2675
       CODE:2673 80 c6           SJMP       LAB_CODE_263b
                             LAB_CODE_2675                                   XREF[2]:     CODE:266c(j), CODE:2671(j)  
       CODE:2675 c2 c9           CLR        CT2                                                        = ??
       CODE:2677 12 29 c8        LCALL      FUN_CODE_29c8                                              undefined FUN_CODE_29c8()
       CODE:267a d2 c9           SETB       CT2                                                        = ??
       CODE:267c 12 29 c8        LCALL      FUN_CODE_29c8                                              undefined FUN_CODE_29c8()
       CODE:267f 12 29 dc        LCALL      FUN_CODE_29dc                                              undefined FUN_CODE_29dc()
       CODE:2682 05 79           INC        DAT_INTMEM_79                                              = ??
       CODE:2684 80 d6           SJMP       FUN_CODE_265c                                              undefined FUN_CODE_265c()
                             -- Flow Override: CALL_RETURN (CALL_TERMINATOR)
                             **************************************************************
                             *                          FUNCTION                          *
                             **************************************************************
                             undefined FUN_CODE_2686()
             undefined         ACC:1          <RETURN>
                             FUN_CODE_2686                                   XREF[1]:     CODE:28dc(c)  
       CODE:2686 c2 d5           CLR        F0                                                         = ??
       CODE:2688 80 b6           SJMP       LAB_CODE_2640
                             **************************************************************
                             *                       THUNK FUNCTION                       *
                             **************************************************************
                             thunk undefined thunk_FUN_CODE_265c()
                               Thunked-Function: FUN_CODE_265c
             undefined         ACC:1          <RETURN>
                             thunk_FUN_CODE_265c                             XREF[1]:     CODE:28df(c)  
       CODE:268a 05 79           INC        DAT_INTMEM_79                                              = ??
       CODE:268c 80 ce           SJMP       FUN_CODE_265c                                              undefined FUN_CODE_265c()
                             -- Flow Override: CALL_RETURN (CALL_TERMINATOR)
                             **************************************************************
                             *                          FUNCTION                          *
                             **************************************************************
                             undefined FUN_CODE_268e()
             undefined         ACC:1          <RETURN>
                             FUN_CODE_268e                                   XREF[1]:     CODE:28e4(c)  
       CODE:268e d2 5d           SETB       2b.5                                                       i2c message waiting, i guess?
       CODE:2690 75 11 e0        MOV        BANK2_R1,#0xe0                                             = ??
       CODE:2693 75 12 06        MOV        BANK2_R2,#0x6                                              = ??
       CODE:2696 c2 5e           CLR        2b.6                                                       kill these two thingies
       CODE:2698 c2 5f           CLR        2b.7                                                       = ??
       CODE:269a 90 29 07        MOV        DPTR,#0x2907                                               setup pointer to table
       CODE:269d 05 79           INC        DAT_INTMEM_79                                              = ??
       CODE:269f e5 79           MOV        A,DAT_INTMEM_79                                            = ??
       CODE:26a1 93              MOVC       A,@A+DPTR=>i2c_message_table
       CODE:26a2 f5 1a           MOV        BANK3_R2,A                                                 which register to write
       CODE:26a4 75 19 04        MOV        BANK3_R1,#0x4                                              4 bytes
       CODE:26a7 05 79           INC        DAT_INTMEM_79                                              = ??
       CODE:26a9 e5 79           MOV        A,DAT_INTMEM_79                                            bytes are stored in i2c table
                                                                                                       in reverse order
                                                                                                       so this code reverses them
       CODE:26ab 93              MOVC       A,@A+DPTR=>i2c_message_table
       CODE:26ac f5 15           MOV        BANK2_R5,A                                                 = ??
       CODE:26ae 05 79           INC        DAT_INTMEM_79                                              = ??
       CODE:26b0 e5 79           MOV        A,DAT_INTMEM_79                                            = ??
       CODE:26b2 93              MOVC       A,@A+DPTR=>i2c_message_table
       CODE:26b3 f5 16           MOV        BANK2_R6,A                                                 = ??
       CODE:26b5 05 79           INC        DAT_INTMEM_79                                              = ??
       CODE:26b7 e5 79           MOV        A,DAT_INTMEM_79                                            = ??
       CODE:26b9 93              MOVC       A,@A+DPTR=>i2c_message_table
       CODE:26ba f5 17           MOV        BANK2_R7,A                                                 = ??
       CODE:26bc e5 1a           MOV        A,BANK3_R2                                                 = ??
       CODE:26be b4 db 07        CJNE       A,#0xdb,LAB_CODE_26c8
       CODE:26c1 78 e2           MOV        R0,#0xe2
       CODE:26c3 e6              MOV        A,@R0=>DAT_INTMEM_e2                                       = ??
       CODE:26c4 f5 18           MOV        BANK3_R0,A                                                 = ??
       CODE:26c6 80 07           SJMP       LAB_CODE_26cf
                             LAB_CODE_26c8                                   XREF[1]:     CODE:26be(j)  
       CODE:26c8 05 79           INC        DAT_INTMEM_79                                              = ??
       CODE:26ca e5 79           MOV        A,DAT_INTMEM_79                                            = ??
       CODE:26cc 93              MOVC       A,@A+DPTR=>i2c_message_table
       CODE:26cd f5 18           MOV        BANK3_R0,A                                                 = ??
                             LAB_CODE_26cf                                   XREF[1]:     CODE:26c6(j)  
       CODE:26cf c2 5c           CLR        2b.4                                                       = ??
       CODE:26d1 05 79           INC        DAT_INTMEM_79                                              = ??
       CODE:26d3 02 26 4c        LJMP       i2c_send_message_common                                    undefined i2c_send_message_common()
                             -- Flow Override: CALL_RETURN (CALL_TERMINATOR)
                             **************************************************************
                             *                          FUNCTION                          *
                             **************************************************************
                             undefined FUN_CODE_26d6()
             undefined         ACC:1          <RETURN>
                             FUN_CODE_26d6                                   XREF[1]:     CODE:28e7(c)  
       CODE:26d6 d2 5d           SETB       2b.5                                                       = ??
       CODE:26d8 75 11 e0        MOV        BANK2_R1,#0xe0                                             = ??
       CODE:26db 75 12 01        MOV        BANK2_R2,#0x1                                              = ??
       CODE:26de c2 5e           CLR        2b.6                                                       = ??
       CODE:26e0 d2 5f           SETB       2b.7                                                       = ??
       CODE:26e2 75 13 e1        MOV        BANK2_R3,#0xe1                                             = ??
       CODE:26e5 75 14 05        MOV        BANK2_R4,#0x5                                              = ??
       CODE:26e8 90 29 07        MOV        DPTR,#0x2907
       CODE:26eb 05 79           INC        DAT_INTMEM_79                                              = ??
       CODE:26ed e5 79           MOV        A,DAT_INTMEM_79                                            = ??
       CODE:26ef 93              MOVC       A,@A+DPTR=>i2c_message_table
       CODE:26f0 f5 15           MOV        BANK2_R5,A                                                 = ??
       CODE:26f2 c2 5c           CLR        2b.4                                                       = ??
       CODE:26f4 05 79           INC        DAT_INTMEM_79                                              = ??
       CODE:26f6 02 26 4c        LJMP       i2c_send_message_common                                    undefined i2c_send_message_common()
                             -- Flow Override: CALL_RETURN (CALL_TERMINATOR)
                             **************************************************************
                             *                          FUNCTION                          *
                             **************************************************************
                             undefined FUN_CODE_26f9()
             undefined         ACC:1          <RETURN>
                             FUN_CODE_26f9                                   XREF[1]:     CODE:28ea(c)  
       CODE:26f9 d2 5d           SETB       2b.5                                                       = ??
       CODE:26fb 75 11 72        MOV        BANK2_R1,#0x72                                             = ??
       CODE:26fe c2 5e           CLR        2b.6                                                       = ??
       CODE:2700 c2 5f           CLR        2b.7                                                       = ??
       CODE:2702 90 29 07        MOV        DPTR,#0x2907
       CODE:2705 05 79           INC        DAT_INTMEM_79                                              = ??
       CODE:2707 e5 79           MOV        A,DAT_INTMEM_79                                            = ??
       CODE:2709 93              MOVC       A,@A+DPTR=>i2c_message_table
       CODE:270a f5 12           MOV        BANK2_R2,A                                                 = ??
       CODE:270c 24 15           ADD        A,#0x15
       CODE:270e f8              MOV        R0,A
                             LAB_CODE_270f                                   XREF[1]:     CODE:2716(j)  
       CODE:270f 18              DEC        R0
       CODE:2710 05 79           INC        DAT_INTMEM_79                                              = ??
       CODE:2712 e5 79           MOV        A,DAT_INTMEM_79                                            = ??
       CODE:2714 93              MOVC       A,@A+DPTR=>i2c_message_table
       CODE:2715 f6              MOV        @R0,A
       CODE:2716 b8 15 f6        CJNE       R0,#0x15,LAB_CODE_270f
       CODE:2719 05 79           INC        DAT_INTMEM_79                                              = ??
       CODE:271b e5 79           MOV        A,DAT_INTMEM_79                                            = ??
       CODE:271d 93              MOVC       A,@A+DPTR=>i2c_message_table
       CODE:271e d2 77           SETB       2e.7                                                       = ??
       CODE:2720 c2 5c           CLR        2b.4                                                       = ??
       CODE:2722 05 79           INC        DAT_INTMEM_79                                              = ??
       CODE:2724 70 03           JNZ        LAB_CODE_2729
       CODE:2726 02 26 5c        LJMP       FUN_CODE_265c                                              undefined FUN_CODE_265c()
                             -- Flow Override: CALL_RETURN (CALL_TERMINATOR)
                             LAB_CODE_2729                                   XREF[1]:     CODE:2724(j)  
       CODE:2729 02 26 4c        LJMP       i2c_send_message_common                                    undefined i2c_send_message_common()
                             -- Flow Override: CALL_RETURN (CALL_TERMINATOR)
                             **************************************************************
                             *                          FUNCTION                          *
                             **************************************************************
                             undefined FUN_CODE_272c()
             undefined         ACC:1          <RETURN>
                             FUN_CODE_272c                                   XREF[1]:     CODE:28ed(c)  
       CODE:272c d2 5d           SETB       2b.5                                                       = ??
       CODE:272e 75 11 72        MOV        BANK2_R1,#0x72                                             = ??
       CODE:2731 75 12 01        MOV        BANK2_R2,#0x1                                              = ??
       CODE:2734 c2 5e           CLR        2b.6                                                       = ??
       CODE:2736 d2 5f           SETB       2b.7                                                       = ??
       CODE:2738 75 13 73        MOV        BANK2_R3,#0x73                                             = ??
       CODE:273b 90 29 07        MOV        DPTR,#0x2907
       CODE:273e 05 79           INC        DAT_INTMEM_79                                              = ??
       CODE:2740 e5 79           MOV        A,DAT_INTMEM_79                                            = ??
       CODE:2742 93              MOVC       A,@A+DPTR=>i2c_message_table
       CODE:2743 f5 14           MOV        BANK2_R4,A                                                 = ??
       CODE:2745 05 79           INC        DAT_INTMEM_79                                              = ??
       CODE:2747 e5 79           MOV        A,DAT_INTMEM_79                                            = ??
       CODE:2749 93              MOVC       A,@A+DPTR=>i2c_message_table
       CODE:274a f5 15           MOV        BANK2_R5,A                                                 = ??
       CODE:274c d2 77           SETB       2e.7                                                       = ??
       CODE:274e c2 5c           CLR        2b.4                                                       = ??
       CODE:2750 05 79           INC        DAT_INTMEM_79                                              = ??
       CODE:2752 02 26 4c        LJMP       i2c_send_message_common                                    undefined i2c_send_message_common()
                             -- Flow Override: CALL_RETURN (CALL_TERMINATOR)
                             **************************************************************
                             *                          FUNCTION                          *
                             **************************************************************
                             undefined FUN_CODE_2755()
             undefined         ACC:1          <RETURN>
                             FUN_CODE_2755                                   XREF[1]:     CODE:28f0(c)  
       CODE:2755 20 77 1b        JB         2e.7,LAB_CODE_2773                                         = ??
       CODE:2758 e5 15           MOV        A,BANK2_R5                                                 = ??
       CODE:275a 54 10           ANL        A,#0x10
       CODE:275c 70 0f           JNZ        LAB_CODE_276d
       CODE:275e 75 98 00        MOV        SCON,#0x0                                                  = ??
       CODE:2761 e5 15           MOV        A,BANK2_R5                                                 = ??
       CODE:2763 54 fb           ANL        A,#0xfb
       CODE:2765 b4 00 08        CJNE       A,#0x0,LAB_CODE_2770
       CODE:2768 05 79           INC        DAT_INTMEM_79                                              = ??
       CODE:276a 02 26 5c        LJMP       FUN_CODE_265c                                              undefined FUN_CODE_265c()
                             -- Flow Override: CALL_RETURN (CALL_TERMINATOR)
                             LAB_CODE_276d                                   XREF[1]:     CODE:275c(j)  
       CODE:276d 30 9f 11        JNB        SM0,LAB_CODE_2781                                          = ??
                             LAB_CODE_2770                                   XREF[1]:     CODE:2765(j)  
       CODE:2770 02 26 3b        LJMP       LAB_CODE_263b
                             LAB_CODE_2773                                   XREF[1]:     CODE:2755(j)  
       CODE:2773 75 98 00        MOV        SCON,#0x0                                                  = ??
       CODE:2776 75 95 88        MOV        DAT_SFR_95,#0x88                                           = ??
       CODE:2779 75 9b 4f        MOV        DAT_SFR_9b,#0x4f                                           = ??
       CODE:277c 75 9c ff        MOV        DAT_SFR_9c,#0xff                                           = ??
       CODE:277f d2 9a           SETB       RB8                                                        = ??
                             LAB_CODE_2781                                   XREF[1]:     CODE:276d(j)  
       CODE:2781 c2 77           CLR        2e.7                                                       = ??
       CODE:2783 d2 5d           SETB       2b.5                                                       = ??
       CODE:2785 75 11 72        MOV        BANK2_R1,#0x72                                             = ??
       CODE:2788 75 12 01        MOV        BANK2_R2,#0x1                                              = ??
       CODE:278b 75 15 f2        MOV        BANK2_R5,#0xf2                                             = ??
       CODE:278e c2 5e           CLR        2b.6                                                       = ??
       CODE:2790 d2 5f           SETB       2b.7                                                       = ??
       CODE:2792 75 13 73        MOV        BANK2_R3,#0x73                                             = ??
       CODE:2795 75 14 01        MOV        BANK2_R4,#0x1                                              = ??
       CODE:2798 c2 5c           CLR        2b.4                                                       = ??
       CODE:279a 02 26 4c        LJMP       i2c_send_message_common                                    undefined i2c_send_message_common()
                             -- Flow Override: CALL_RETURN (CALL_TERMINATOR)
                             **************************************************************
                             *                          FUNCTION                          *
                             **************************************************************
                             undefined FUN_CODE_279d()
             undefined         ACC:1          <RETURN>
                             FUN_CODE_279d                                   XREF[1]:     CODE:28f3(c)  
       CODE:279d e5 18           MOV        A,BANK3_R0                                                 = ??
       CODE:279f 45 17           ORL        A,BANK2_R7                                                 = ??
       CODE:27a1 60 1e           JZ         LAB_CODE_27c1
       CODE:27a3 d2 53           SETB       2a.3                                                       = ??
       CODE:27a5 85 44 4c        MOV        DAT_INTMEM_4c,DAT_INTMEM_44                                = ??
       CODE:27a8 85 43 4b        MOV        DAT_INTMEM_4b,DAT_INTMEM_43                                = ??
       CODE:27ab 78 18           MOV        R0,#0x18
       CODE:27ad 79 ee           MOV        R1,#0xee
       CODE:27af c2 d5           CLR        F0                                                         = ??
       CODE:27b1 12 2a 5b        LCALL      FUN_CODE_2a5b                                              undefined FUN_CODE_2a5b()
       CODE:27b4 78 18           MOV        R0,#0x18
       CODE:27b6 79 ec           MOV        R1,#0xec
       CODE:27b8 12 2a 75        LCALL      FUN_CODE_2a75                                              undefined FUN_CODE_2a75()
       CODE:27bb 85 17 44        MOV        DAT_INTMEM_44,BANK2_R7                                     = ??
       CODE:27be 85 18 43        MOV        DAT_INTMEM_43,BANK3_R0                                     = ??
                             LAB_CODE_27c1                                   XREF[1]:     CODE:27a1(j)  
       CODE:27c1 e5 16           MOV        A,BANK2_R6                                                 = ??
       CODE:27c3 45 15           ORL        A,BANK2_R5                                                 = ??
       CODE:27c5 60 1e           JZ         LAB_CODE_27e5
       CODE:27c7 d2 52           SETB       2a.2                                                       = ??
       CODE:27c9 85 42 4a        MOV        DAT_INTMEM_4a,DAT_INTMEM_42                                = ??
       CODE:27cc 85 41 49        MOV        DAT_INTMEM_49,DAT_INTMEM_41                                = ??
       CODE:27cf 78 16           MOV        R0,#0x16
       CODE:27d1 79 ea           MOV        R1,#0xea
       CODE:27d3 c2 d5           CLR        F0                                                         = ??
       CODE:27d5 12 2a 5b        LCALL      FUN_CODE_2a5b                                              undefined FUN_CODE_2a5b()
       CODE:27d8 78 16           MOV        R0,#0x16
       CODE:27da 79 e8           MOV        R1,#0xe8
       CODE:27dc 12 2a 75        LCALL      FUN_CODE_2a75                                              undefined FUN_CODE_2a75()
       CODE:27df 85 15 42        MOV        DAT_INTMEM_42,BANK2_R5                                     = ??
       CODE:27e2 85 16 41        MOV        DAT_INTMEM_41,BANK2_R6                                     = ??
                             LAB_CODE_27e5                                   XREF[1]:     CODE:27c5(j)  
       CODE:27e5 05 79           INC        DAT_INTMEM_79                                              = ??
       CODE:27e7 02 26 5c        LJMP       FUN_CODE_265c                                              undefined FUN_CODE_265c()
                             -- Flow Override: CALL_RETURN (CALL_TERMINATOR)
                             LAB_CODE_27ea                                   XREF[1]:     FUN_CODE_28f6:28f6(j)  
       CODE:27ea e5 18           MOV        A,BANK3_R0                                                 = ??
       CODE:27ec 45 17           ORL        A,BANK2_R7                                                 = ??
       CODE:27ee 60 1e           JZ         LAB_CODE_280e
       CODE:27f0 d2 51           SETB       2a.1                                                       = ??
       CODE:27f2 85 40 48        MOV        DAT_INTMEM_48,DAT_INTMEM_40                                = ??
       CODE:27f5 85 3f 47        MOV        DAT_INTMEM_47,DAT_INTMEM_3f                                = ??
       CODE:27f8 78 18           MOV        R0,#0x18
       CODE:27fa 79 e6           MOV        R1,#0xe6
       CODE:27fc d2 d5           SETB       F0                                                         = ??
       CODE:27fe 12 2a 5b        LCALL      FUN_CODE_2a5b                                              undefined FUN_CODE_2a5b()
       CODE:2801 78 18           MOV        R0,#0x18
       CODE:2803 79 e4           MOV        R1,#0xe4
       CODE:2805 12 2a 75        LCALL      FUN_CODE_2a75                                              undefined FUN_CODE_2a75()
       CODE:2808 85 17 40        MOV        DAT_INTMEM_40,BANK2_R7                                     = ??
       CODE:280b 85 18 3f        MOV        DAT_INTMEM_3f,BANK3_R0                                     = ??
                             LAB_CODE_280e                                   XREF[1]:     CODE:27ee(j)  
       CODE:280e 05 79           INC        DAT_INTMEM_79                                              = ??
       CODE:2810 02 26 5c        LJMP       FUN_CODE_265c                                              undefined FUN_CODE_265c()
                             -- Flow Override: CALL_RETURN (CALL_TERMINATOR)
                             **************************************************************
                             *                          FUNCTION                          *
                             **************************************************************
                             undefined FUN_CODE_2813()
             undefined         ACC:1          <RETURN>
                             FUN_CODE_2813                                   XREF[1]:     CODE:28f9(c)  
       CODE:2813 e5 18           MOV        A,BANK3_R0                                                 = ??
       CODE:2815 45 17           ORL        A,BANK2_R7                                                 = ??
       CODE:2817 60 18           JZ         LAB_CODE_2831
       CODE:2819 d2 54           SETB       2a.4                                                       = ??
       CODE:281b 78 18           MOV        R0,#0x18
       CODE:281d 79 f2           MOV        R1,#0xf2
       CODE:281f c2 d5           CLR        F0                                                         = ??
       CODE:2821 12 2a 5b        LCALL      FUN_CODE_2a5b                                              undefined FUN_CODE_2a5b()
       CODE:2824 78 18           MOV        R0,#0x18
       CODE:2826 79 f0           MOV        R1,#0xf0
       CODE:2828 12 2a 75        LCALL      FUN_CODE_2a75                                              undefined FUN_CODE_2a75()
       CODE:282b 85 17 46        MOV        DAT_INTMEM_46,BANK2_R7                                     = ??
       CODE:282e 85 18 45        MOV        DAT_INTMEM_45,BANK3_R0                                     = ??
                             LAB_CODE_2831                                   XREF[1]:     CODE:2817(j)  
       CODE:2831 05 79           INC        DAT_INTMEM_79                                              = ??
       CODE:2833 02 26 5c        LJMP       FUN_CODE_265c                                              undefined FUN_CODE_265c()
                             -- Flow Override: CALL_RETURN (CALL_TERMINATOR)
                             **************************************************************
                             *                          FUNCTION                          *
                             **************************************************************
                             undefined FUN_CODE_2836()
             undefined         ACC:1          <RETURN>
                             FUN_CODE_2836                                   XREF[1]:     CODE:28fc(c)  
       CODE:2836 e5 78           MOV        A,DAT_INTMEM_78                                            = ??
       CODE:2838 b4 5c 05        CJNE       A,#0x5c,LAB_CODE_2840
       CODE:283b 75 15 00        MOV        BANK2_R5,#0x0                                              = ??
       CODE:283e 80 0b           SJMP       LAB_CODE_284b
                             LAB_CODE_2840                                   XREF[1]:     CODE:2838(j)  
       CODE:2840 b4 5d 05        CJNE       A,#0x5d,LAB_CODE_2848
       CODE:2843 75 15 02        MOV        BANK2_R5,#0x2                                              = ??
       CODE:2846 80 03           SJMP       LAB_CODE_284b
                             LAB_CODE_2848                                   XREF[1]:     CODE:2840(j)  
       CODE:2848 75 15 01        MOV        BANK2_R5,#0x1                                              = ??
                             LAB_CODE_284b                                   XREF[2]:     CODE:283e(j), CODE:2846(j)  
       CODE:284b 05 79           INC        DAT_INTMEM_79                                              = ??
       CODE:284d 02 26 4c        LJMP       i2c_send_message_common                                    undefined i2c_send_message_common()
                             -- Flow Override: CALL_RETURN (CALL_TERMINATOR)
                             **************************************************************
                             *                          FUNCTION                          *
                             **************************************************************
                             undefined FUN_CODE_2850()
             undefined         ACC:1          <RETURN>
                             FUN_CODE_2850                                   XREF[1]:     CODE:28ff(c)  
       CODE:2850 e5 15           MOV        A,BANK2_R5                                                 = ??
       CODE:2852 b4 05 05        CJNE       A,#0x5,LAB_CODE_285a
       CODE:2855 05 79           INC        DAT_INTMEM_79                                              = ??
       CODE:2857 02 26 5c        LJMP       FUN_CODE_265c                                              undefined FUN_CODE_265c()
                             -- Flow Override: CALL_RETURN (CALL_TERMINATOR)
                             LAB_CODE_285a                                   XREF[1]:     CODE:2852(j)  
       CODE:285a 02 26 3b        LJMP       LAB_CODE_263b
                             **************************************************************
                             *                          FUNCTION                          *
                             **************************************************************
                             undefined FUN_CODE_285d()
             undefined         ACC:1          <RETURN>
                             FUN_CODE_285d                                   XREF[1]:     CODE:2902(c)  
       CODE:285d e5 78           MOV        A,DAT_INTMEM_78                                            = ??
       CODE:285f b4 5c 16        CJNE       A,#0x5c,LAB_CODE_2878
       CODE:2862 e5 18           MOV        A,BANK3_R0                                                 = ??
       CODE:2864 b4 ca 0e        CJNE       A,#0xca,LAB_CODE_2875
       CODE:2867 e5 17           MOV        A,BANK2_R7                                                 = ??
       CODE:2869 b4 8d 09        CJNE       A,#0x8d,LAB_CODE_2875
       CODE:286c 75 78 5d        MOV        DAT_INTMEM_78,#0x5d                                        = ??
       CODE:286f 85 78 79        MOV        DAT_INTMEM_79,DAT_INTMEM_78                                = ??
       CODE:2872 02 26 5c        LJMP       FUN_CODE_265c                                              undefined FUN_CODE_265c()
                             -- Flow Override: CALL_RETURN (CALL_TERMINATOR)
                             LAB_CODE_2875                                   XREF[2]:     CODE:2864(j), CODE:2869(j)  
       CODE:2875 02 26 3b        LJMP       LAB_CODE_263b
                             LAB_CODE_2878                                   XREF[1]:     CODE:285f(j)  
       CODE:2878 e5 18           MOV        A,BANK3_R0                                                 = ??
       CODE:287a 78 b8           MOV        R0,#0xb8
       CODE:287c f6              MOV        @R0=>DAT_INTMEM_b8,A                                       = ??
       CODE:287d e5 17           MOV        A,BANK2_R7                                                 = ??
       CODE:287f a2 e0           MOV        CY,ACC.0                                                   = ??
       CODE:2881 92 56           MOV        2a.6,CY                                                    = ??
       CODE:2883 05 79           INC        DAT_INTMEM_79                                              = ??
       CODE:2885 02 26 5c        LJMP       FUN_CODE_265c                                              undefined FUN_CODE_265c()
                             -- Flow Override: CALL_RETURN (CALL_TERMINATOR)
       CODE:2888 e5 59           MOV        A,DAT_INTMEM_59                                            = ??
       CODE:288a f5 15           MOV        BANK2_R5,A                                                 = ??
       CODE:288c 05 79           INC        DAT_INTMEM_79                                              = ??
       CODE:288e 02 26 4c        LJMP       i2c_send_message_common                                    undefined i2c_send_message_common()
                             -- Flow Override: CALL_RETURN (CALL_TERMINATOR)
                             LAB_CODE_2891                                   XREF[1]:     CODE:28e2(j)  
       CODE:2891 74 01           MOV        A,#0x1
       CODE:2893 12 24 08        LCALL      FUN_CODE_2408                                              undefined FUN_CODE_2408()
       CODE:2896 12 24 0d        LCALL      ipc_fifo_read                                              undefined ipc_fifo_read()
       CODE:2899 c4              SWAP       A
       CODE:289a 54 0f           ANL        A,#0xf
       CODE:289c f5 12           MOV        BANK2_R2,A                                                 = ??
       CODE:289e 12 24 0d        LCALL      ipc_fifo_read                                              undefined ipc_fifo_read()
       CODE:28a1 f5 14           MOV        BANK2_R4,A                                                 = ??
       CODE:28a3 53 14 0f        ANL        BANK2_R4,#0xf                                              = ??
       CODE:28a6 c4              SWAP       A
       CODE:28a7 f5 16           MOV        BANK2_R6,A                                                 = ??
       CODE:28a9 53 16 0f        ANL        BANK2_R6,#0xf                                              = ??
       CODE:28ac 12 24 0d        LCALL      ipc_fifo_read                                              undefined ipc_fifo_read()
       CODE:28af a2 e7           MOV        CY,ACC.7                                                   = ??
       CODE:28b1 92 5d           MOV        2b.5,CY                                                    = ??
       CODE:28b3 c3              CLR        CY
       CODE:28b4 33              RLC        A
       CODE:28b5 f5 11           MOV        BANK2_R1,A                                                 = ??
       CODE:28b7 12 24 0d        LCALL      ipc_fifo_read                                              undefined ipc_fifo_read()
       CODE:28ba a2 e7           MOV        CY,ACC.7                                                   = ??
       CODE:28bc 92 5e           MOV        2b.6,CY                                                    = ??
       CODE:28be c3              CLR        CY
       CODE:28bf 33              RLC        A
       CODE:28c0 f5 15           MOV        BANK2_R5,A                                                 = ??
       CODE:28c2 12 24 0d        LCALL      ipc_fifo_read                                              undefined ipc_fifo_read()
       CODE:28c5 a2 e7           MOV        CY,ACC.7                                                   = ??
       CODE:28c7 92 5f           MOV        2b.7,CY                                                    = ??
       CODE:28c9 d3              SETB       CY
       CODE:28ca 33              RLC        A
       CODE:28cb f5 13           MOV        BANK2_R3,A                                                 = ??
       CODE:28cd 74 03           MOV        A,#0x3
       CODE:28cf 12 24 2a        LCALL      FUN_CODE_242a                                              undefined FUN_CODE_242a()
       CODE:28d2 d2 5c           SETB       2b.4                                                       = ??
       CODE:28d4 05 79           INC        DAT_INTMEM_79                                              = ??
       CODE:28d6 02 26 4c        LJMP       i2c_send_message_common                                    undefined i2c_send_message_common()
                             -- Flow Override: CALL_RETURN (CALL_TERMINATOR)
       CODE:28d9 02 26 66        LJMP       FUN_CODE_2666                                              undefined FUN_CODE_2666()
                             -- Flow Override: CALL_RETURN (CALL_TERMINATOR)
       CODE:28dc 02 26 86        LJMP       FUN_CODE_2686                                              undefined FUN_CODE_2686()
                             -- Flow Override: CALL_RETURN (CALL_TERMINATOR)
       CODE:28df 02 26 8a        LJMP       thunk_FUN_CODE_265c                                        undefined thunk_FUN_CODE_265c()
                             -- Flow Override: CALL_RETURN (CALL_TERMINATOR)
       CODE:28e2 80 ad           SJMP       LAB_CODE_2891
       CODE:28e4 02 26 8e        LJMP       FUN_CODE_268e                                              undefined FUN_CODE_268e()
                             -- Flow Override: CALL_RETURN (CALL_TERMINATOR)
       CODE:28e7 02 26 d6        LJMP       FUN_CODE_26d6                                              undefined FUN_CODE_26d6()
                             -- Flow Override: CALL_RETURN (CALL_TERMINATOR)
       CODE:28ea 02 26 f9        LJMP       FUN_CODE_26f9                                              undefined FUN_CODE_26f9()
                             -- Flow Override: CALL_RETURN (CALL_TERMINATOR)
       CODE:28ed 02 27 2c        LJMP       FUN_CODE_272c                                              undefined FUN_CODE_272c()
                             -- Flow Override: CALL_RETURN (CALL_TERMINATOR)
       CODE:28f0 02 27 55        LJMP       FUN_CODE_2755                                              undefined FUN_CODE_2755()
                             -- Flow Override: CALL_RETURN (CALL_TERMINATOR)
       CODE:28f3 02 27 9d        LJMP       FUN_CODE_279d                                              undefined FUN_CODE_279d()
                             -- Flow Override: CALL_RETURN (CALL_TERMINATOR)
                             **************************************************************
                             *                          FUNCTION                          *
                             **************************************************************
                             undefined FUN_CODE_28f6()
             undefined         ACC:1          <RETURN>
                             FUN_CODE_28f6
       CODE:28f6 02 27 ea        LJMP       LAB_CODE_27ea
       CODE:28f9 02 28 13        LJMP       FUN_CODE_2813                                              undefined FUN_CODE_2813()
                             -- Flow Override: CALL_RETURN (CALL_TERMINATOR)
       CODE:28fc 02 28 36        LJMP       FUN_CODE_2836                                              undefined FUN_CODE_2836()
                             -- Flow Override: CALL_RETURN (CALL_TERMINATOR)
       CODE:28ff 02 28 50        LJMP       FUN_CODE_2850                                              undefined FUN_CODE_2850()
                             -- Flow Override: CALL_RETURN (CALL_TERMINATOR)
       CODE:2902 02 28 5d        LJMP       FUN_CODE_285d                                              undefined FUN_CODE_285d()
                             -- Flow Override: CALL_RETURN (CALL_TERMINATOR)
       CODE:2905 80              ??         80h
       CODE:2906 81              ??         81h
                             i2c_message_table                               XREF[12]:    FUN_CODE_265c:2661(*), 
                                                                                          FUN_CODE_268e:26a1(*), 
                                                                                          FUN_CODE_268e:26ab(*), 
                                                                                          FUN_CODE_268e:26b2(*), 
                                                                                          FUN_CODE_268e:26b9(*), 
                                                                                          FUN_CODE_268e:26cc(*), 
                                                                                          FUN_CODE_26d6:26ef(*), 
                                                                                          FUN_CODE_26f9:2709(*), 
                                                                                          FUN_CODE_26f9:2714(*), 
                                                                                          FUN_CODE_26f9:271d(*), 
                                                                                          FUN_CODE_272c:2742(*), 
                                                                                          FUN_CODE_272c:2749(*)  
       CODE:2907 00              ??         00h
       CODE:2908 09              ??         09h
       CODE:2909 03              ??         03h
       CODE:290a 00              ??         00h
       CODE:290b 0b              ??         0Bh
       CODE:290c e4              ??         E4h
       CODE:290d 00              ??         00h
       CODE:290e 00              ??         00h
       CODE:290f 00              ??         00h
       CODE:2910 1b              ??         1Bh
       CODE:2911 0b              ??         0Bh
       CODE:2912 e3              ??         E3h
       CODE:2913 0f              ??         0Fh
       CODE:2914 ff              ??         FFh
       CODE:2915 ff              ??         FFh
       CODE:2916 ff              ??         FFh
       CODE:2917 0b              ??         0Bh
       CODE:2918 db              ??         DBh
       CODE:2919 00              ??         00h
       CODE:291a 00              ??         00h
       CODE:291b 00              ??         00h
       CODE:291c 0b              ??         0Bh
       CODE:291d d5              ??         D5h
       CODE:291e 00              ??         00h
       CODE:291f 00              ??         00h
       CODE:2920 00              ??         00h
       CODE:2921 00              ??         00h
       CODE:2922 0b              ??         0Bh
       CODE:2923 d9              ??         D9h
       CODE:2924 00              ??         00h
       CODE:2925 00              ??         00h
       CODE:2926 00              ??         00h
       CODE:2927 08              ??         08h
       CODE:2928 0b              ??         0Bh
       CODE:2929 d4              ??         D4h
       CODE:292a 09              ??         09h
       CODE:292b 90              ??         90h
       CODE:292c e0              ??         E0h
       CODE:292d 0e              ??         0Eh
       CODE:292e 0b              ??         0Bh
       CODE:292f ce              ??         CEh
       CODE:2930 08              ??         08h
       CODE:2931 e8              ??         E8h
       CODE:2932 40              ??         40h    @
       CODE:2933 14              ??         14h
       CODE:2934 0b              ??         0Bh
       CODE:2935 dc              ??         DCh
       CODE:2936 00              ??         00h
       CODE:2937 00              ??         00h
       CODE:2938 42              ??         42h    B
       CODE:2939 aa              ??         AAh
       CODE:293a 0b              ??         0Bh
       CODE:293b df              ??         DFh
       CODE:293c 00              ??         00h
       CODE:293d 00              ??         00h
       CODE:293e 00              ??         00h
       CODE:293f 00              ??         00h
       CODE:2940 03              ??         03h
       CODE:2941 00              ??         00h
       CODE:2942 0b              ??         0Bh
       CODE:2943 d9              ??         D9h
       CODE:2944 00              ??         00h
       CODE:2945 00              ??         00h
       CODE:2946 00              ??         00h
       CODE:2947 20              ??         20h     
       CODE:2948 0b              ??         0Bh
       CODE:2949 e3              ??         E3h
       CODE:294a 84              ??         84h
       CODE:294b 36              ??         36h    6
       CODE:294c f6              ??         F6h
       CODE:294d 66              ??         66h    f
       CODE:294e 03              ??         03h
       CODE:294f 00              ??         00h
       CODE:2950 0b              ??         0Bh
       CODE:2951 e3              ??         E3h
       CODE:2952 0f              ??         0Fh
       CODE:2953 ff              ??         FFh
       CODE:2954 ff              ??         FFh
       CODE:2955 ff              ??         FFh
       CODE:2956 0b              ??         0Bh
       CODE:2957 d9              ??         D9h
       CODE:2958 00              ??         00h
       CODE:2959 00              ??         00h
       CODE:295a 00              ??         00h
       CODE:295b 08              ??         08h
       CODE:295c 0b              ??         0Bh
       CODE:295d df              ??         DFh
       CODE:295e 00              ??         00h
       CODE:295f 00              ??         00h
       CODE:2960 00              ??         00h
       CODE:2961 00              ??         00h
       CODE:2962 03              ??         03h
       CODE:2963 06              ??         06h
       CODE:2964 06              ??         06h
       CODE:2965 00              ??         00h
       CODE:2966 11              ??         11h
       CODE:2967 02              ??         02h
       CODE:2968 f3              ??         F3h
       CODE:2969 0f              ??         0Fh
       CODE:296a 01              ??         01h
       CODE:296b 11              ??         11h
       CODE:296c 02              ??         02h
       CODE:296d f3              ??         F3h
       CODE:296e 0a              ??         0Ah
       CODE:296f 01              ??         01h
       CODE:2970 11              ??         11h
       CODE:2971 02              ??         02h
       CODE:2972 ec              ??         ECh
       CODE:2973 90              ??         90h
       CODE:2974 01              ??         01h
       CODE:2975 11              ??         11h
       CODE:2976 05              ??         05h
       CODE:2977 ec              ??         ECh
       CODE:2978 00              ??         00h
       CODE:2979 90              ??         90h
       CODE:297a 00              ??         00h
       CODE:297b 00              ??         00h
       CODE:297c 00              ??         00h
       CODE:297d 23              ??         23h    #
       CODE:297e 11              ??         11h
       CODE:297f 05              ??         05h
       CODE:2980 f0              ??         F0h
       CODE:2981 05              ??         05h
       CODE:2982 00              ??         00h
       CODE:2983 00              ??         00h
       CODE:2984 09              ??         09h
       CODE:2985 01              ??         01h
       CODE:2986 11              ??         11h
       CODE:2987 02              ??         02h
       CODE:2988 f3              ??         F3h
       CODE:2989 02              ??         02h
       CODE:298a 01              ??         01h
       CODE:298b 17              ??         17h
       CODE:298c 14              ??         14h
       CODE:298d 01              ??         01h
       CODE:298e f5              ??         F5h
       CODE:298f 26              ??         26h    &
       CODE:2990 14              ??         14h
       CODE:2991 05              ??         05h
       CODE:2992 f4              ??         F4h
       CODE:2993 29              ??         29h    )
       CODE:2994 03              ??         03h
       CODE:2995 00              ??         00h
       CODE:2996 0e              ??         0Eh
       CODE:2997 e0              ??         E0h
       CODE:2998 1a              ??         1Ah
       CODE:2999 0e              ??         0Eh
       CODE:299a e1              ??         E1h
       CODE:299b 1d              ??         1Dh
       CODE:299c 0e              ??         0Eh
       CODE:299d e2              ??         E2h
       CODE:299e 20              ??         20h     
       CODE:299f 03              ??         03h
       CODE:29a0 00              ??         00h
       CODE:29a1 11              ??         11h
       CODE:29a2 02              ??         02h
       CODE:29a3 f3              ??         F3h
       CODE:29a4 0f              ??         0Fh
       CODE:29a5 01              ??         01h
       CODE:29a6 11              ??         11h
       CODE:29a7 02              ??         02h
       CODE:29a8 f3              ??         F3h
       CODE:29a9 0a              ??         0Ah
       CODE:29aa 01              ??         01h
       CODE:29ab 11              ??         11h
       CODE:29ac 02              ??         02h
       CODE:29ad ec              ??         ECh
       CODE:29ae 90              ??         90h
       CODE:29af 01              ??         01h
       CODE:29b0 11              ??         11h
       CODE:29b1 05              ??         05h
       CODE:29b2 ec              ??         ECh
       CODE:29b3 00              ??         00h
       CODE:29b4 60              ??         60h    `
       CODE:29b5 00              ??         00h
       CODE:29b6 00              ??         00h
       CODE:29b7 00              ??         00h
       CODE:29b8 2c              ??         2Ch    ,
       CODE:29b9 11              ??         11h
       CODE:29ba 05              ??         05h
       CODE:29bb f0              ??         F0h
       CODE:29bc 00              ??         00h
       CODE:29bd 00              ??         00h
       CODE:29be 00              ??         00h
       CODE:29bf 09              ??         09h
       CODE:29c0 01              ??         01h
       CODE:29c1 11              ??         11h
       CODE:29c2 02              ??         02h
       CODE:29c3 f3              ??         F3h
       CODE:29c4 06              ??         06h
       CODE:29c5 01              ??         01h
       CODE:29c6 17              ??         17h
       CODE:29c7 03              ??         03h
                             **************************************************************
                             *                          FUNCTION                          *
                             **************************************************************
                             undefined FUN_CODE_29c8()
             undefined         ACC:1          <RETURN>
                             FUN_CODE_29c8                                   XREF[6]:     FUN_CODE_2627:262f(c), 
                                                                                          FUN_CODE_2627:2635(c), 
                                                                                          FUN_CODE_2666:2677(c), 
                                                                                          FUN_CODE_2666:267c(c), 
                                                                                          FUN_CODE_29f2:29f7(c), 
                                                                                          FUN_CODE_29f2:29fc(c)  
       CODE:29c8 f2              MOVX       @R0,A
       CODE:29c9 f2              MOVX       @R0,A
       CODE:29ca f2              MOVX       @R0,A
       CODE:29cb f2              MOVX       @R0,A
       CODE:29cc f2              MOVX       @R0,A
       CODE:29cd f2              MOVX       @R0,A
       CODE:29ce f2              MOVX       @R0,A
       CODE:29cf f2              MOVX       @R0,A
       CODE:29d0 f2              MOVX       @R0,A
       CODE:29d1 f2              MOVX       @R0,A
       CODE:29d2 f2              MOVX       @R0,A
       CODE:29d3 f2              MOVX       @R0,A
       CODE:29d4 f2              MOVX       @R0,A
       CODE:29d5 f2              MOVX       @R0,A
       CODE:29d6 f2              MOVX       @R0,A
       CODE:29d7 22              RET
                             **************************************************************
                             *                          FUNCTION                          *
                             **************************************************************
                             undefined FUN_CODE_29d8()
             undefined         ACC:1          <RETURN>
                             FUN_CODE_29d8                                   XREF[2]:     FUN_CODE_2666:2669(c), 
                                                                                          FUN_CODE_29f2:29ff(c)  
       CODE:29d8 a2 c9           MOV        CY,CT2                                                     = ??
       CODE:29da b3              CPL        CY
       CODE:29db 22              RET
                             **************************************************************
                             *                          FUNCTION                          *
                             **************************************************************
                             undefined FUN_CODE_29dc()
             undefined         ACC:1          <RETURN>
                             FUN_CODE_29dc                                   XREF[1]:     FUN_CODE_2666:267f(c)  
       CODE:29dc 75 db 00        MOV        CCAPM1,#0x0                                                = ??
       CODE:29df 75 dc 00        MOV        CCAPM2,#0x0                                                = ??
       CODE:29e2 75 dd e1        MOV        CCAPM3,#0xe1                                               = ??
       CODE:29e5 75 de 83        MOV        CCAPM4,#0x83                                               = ??
       CODE:29e8 75 d8 b0        MOV        CCON,#0xb0                                                 = ??
       CODE:29eb 75 88 00        MOV        TCON,#0x0                                                  = ??
       CODE:29ee 75 95 88        MOV        DAT_SFR_95,#0x88                                           = ??
       CODE:29f1 22              RET
                             **************************************************************
                             *                          FUNCTION                          *
                             **************************************************************
                             undefined FUN_CODE_29f2()
             undefined         ACC:1          <RETURN>
                             FUN_CODE_29f2                                   XREF[1]:     FUN_CODE_2666:266e(c)  
       CODE:29f2 75 15 09        MOV        BANK2_R5,#0x9                                              = ??
                             LAB_CODE_29f5                                   XREF[1]:     CODE:2a06(j)  
       CODE:29f5 c2 c8           CLR        CPRL2                                                      = ??
       CODE:29f7 12 29 c8        LCALL      FUN_CODE_29c8                                              undefined FUN_CODE_29c8()
       CODE:29fa d2 c8           SETB       CPRL2                                                      = ??
       CODE:29fc 12 29 c8        LCALL      FUN_CODE_29c8                                              undefined FUN_CODE_29c8()
       CODE:29ff 12 29 d8        LCALL      FUN_CODE_29d8                                              undefined FUN_CODE_29d8()
       CODE:2a02 40 02           JC         LAB_CODE_2a06
       CODE:2a04 c3              CLR        CY
       CODE:2a05 22              RET
                             LAB_CODE_2a06                                   XREF[1]:     CODE:2a02(j)  
       CODE:2a06 d5 15 ec        DJNZ       BANK2_R5,LAB_CODE_29f5                                     = ??
       CODE:2a09 d3              SETB       CY
       CODE:2a0a 22              RET
                             **************************************************************
                             *                          FUNCTION                          *
                             **************************************************************
                             undefined FUN_CODE_2a0b()
             undefined         ACC:1          <RETURN>
                             FUN_CODE_2a0b                                   XREF[1]:     argon_sm_exec:19e7(c)  
       CODE:2a0b c3              CLR        CY
       CODE:2a0c e4              CLR        A
       CODE:2a0d 30 63 04        JNB        2c.3,LAB_CODE_2a14                                         = ??
       CODE:2a10 e5 6b           MOV        A,DAT_INTMEM_6b                                            = ??
       CODE:2a12 c2 63           CLR        2c.3                                                       = ??
                             LAB_CODE_2a14                                   XREF[1]:     CODE:2a0d(j)  
       CODE:2a14 22              RET
                             **************************************************************
                             *                          FUNCTION                          *
                             **************************************************************
                             undefined FUN_CODE_2a15()
             undefined         ACC:1          <RETURN>
                             FUN_CODE_2a15                                   XREF[18]:    CODE:1755(c), CODE:1765(c), 
                                                                                          CODE:179f(c), CODE:17b0(c), 
                                                                                          CODE:17bc(c), CODE:17d1(c), 
                                                                                          CODE:17ef(c), CODE:184f(c), 
                                                                                          CODE:1859(c), CODE:1875(c), 
                                                                                          CODE:1891(c), CODE:18dd(c), 
                                                                                          CODE:18e6(c), CODE:1916(c), 
                                                                                          CODE:1929(c), CODE:193d(c), 
                                                                                          CODE:1980(c), CODE:19e1(c)  
       CODE:2a15 f5 6c           MOV        DAT_INTMEM_6c,A                                            stash a/b somewhere
       CODE:2a17 85 f0 6d        MOV        DAT_INTMEM_6d,B                                            = ??
       CODE:2a1a 78 e1           MOV        R0,#0xe1
       CODE:2a1c f6              MOV        @R0=>DAT_INTMEM_e1,A                                       write A places
       CODE:2a1d 75 7c 03        MOV        DAT_INTMEM_7c,#0x3                                         = ??
       CODE:2a20 75 6e 00        MOV        DAT_INTMEM_6e,#0x0                                         = ??
                             LAB_CODE_2a23                                   XREF[1]:     FUN_CODE_2a3e:2a59(j)  
       CODE:2a23 c2 66           CLR        2c.6                                                       = ??
       CODE:2a25 c2 67           CLR        2c.7                                                       = ??
       CODE:2a27 d2 65           SETB       2c.5                                                       = ??
       CODE:2a29 e5 6c           MOV        A,DAT_INTMEM_6c                                            read state bits back
                                                                                                       (they may have been updated
                                                                                                        by another function)
       CODE:2a2b 20 e7 06        JB         ACC.7,LAB_CODE_2a34                                        for red LEDs A = 1011xxxx
       CODE:2a2e 20 e6 06        JB         ACC.6,LAB_CODE_2a37                                        = ??
       CODE:2a31 20 e5 05        JB         ACC.5,LAB_CODE_2a39                                        = ??
                             LAB_CODE_2a34                                   XREF[1]:     CODE:2a2b(j)  
       CODE:2a34 d2 64           SETB       2c.4                                                       = ??
       CODE:2a36 22              RET
                             LAB_CODE_2a37                                   XREF[1]:     CODE:2a2e(j)  
       CODE:2a37 d2 67           SETB       2c.7                                                       = ??
                             LAB_CODE_2a39                                   XREF[1]:     CODE:2a31(j)  
       CODE:2a39 d2 66           SETB       2c.6                                                       = ??
       CODE:2a3b d2 64           SETB       2c.4                                                       = ??
       CODE:2a3d 22              RET
                             **************************************************************
                             *                          FUNCTION                          *
                             **************************************************************
                             undefined FUN_CODE_2a3e()
             undefined         ACC:1          <RETURN>
                             FUN_CODE_2a3e                                   XREF[8]:     CODE:18ed(c), CODE:18f4(c), 
                                                                                          CODE:191b(c), CODE:192e(c), 
                                                                                          CODE:1970(c), CODE:1985(c), 
                                                                                          CODE:199d(c), CODE:19b2(c)  
       CODE:2a3e c3              CLR        CY
       CODE:2a3f 20 64 08        JB         2c.4,LAB_CODE_2a4a                                         if this set return false
       CODE:2a42 20 65 06        JB         2c.5,LAB_CODE_2a4b                                         = ??
       CODE:2a45 d3              SETB       CY                                                         seems like this is the happy path
       CODE:2a46 c2 d5           CLR        F0                                                         = ??
       CODE:2a48 e5 6d           MOV        A,DAT_INTMEM_6d                                            = ??
                             LAB_CODE_2a4a                                   XREF[1]:     CODE:2a3f(j)  
       CODE:2a4a 22              RET
                             LAB_CODE_2a4b                                   XREF[1]:     CODE:2a42(j)  
       CODE:2a4b d5 7c 04        DJNZ       DAT_INTMEM_7c,LAB_CODE_2a52                                = ??
       CODE:2a4e d3              SETB       CY
       CODE:2a4f d2 d5           SETB       F0                                                         = ??
       CODE:2a51 22              RET
                             LAB_CODE_2a52                                   XREF[1]:     CODE:2a4b(j)  
       CODE:2a52 78 e1           MOV        R0,#0xe1
       CODE:2a54 86 6c           MOV        DAT_INTMEM_6c,@R0=>DAT_INTMEM_e1                           = ??
       CODE:2a56 75 6e 14        MOV        DAT_INTMEM_6e,#0x14                                        = ??
       CODE:2a59 80 c8           SJMP       LAB_CODE_2a23
                             **************************************************************
                             *                          FUNCTION                          *
                             **************************************************************
                             undefined FUN_CODE_2a5b()
             undefined         ACC:1          <RETURN>
                             FUN_CODE_2a5b                                   XREF[4]:     FUN_CODE_279d:27b1(c), 
                                                                                          FUN_CODE_279d:27d5(c), 
                                                                                          CODE:27fe(c), 
                                                                                          FUN_CODE_2813:2821(c)  
       CODE:2a5b c3              CLR        CY
       CODE:2a5c e6              MOV        A,@R0
       CODE:2a5d 97              SUBB       A,@R1
       CODE:2a5e 30 d5 01        JNB        F0,LAB_CODE_2a62                                           = ??
       CODE:2a61 f4              CPL        A
                             LAB_CODE_2a62                                   XREF[1]:     CODE:2a5e(j)  
       CODE:2a62 f6              MOV        @R0,A
       CODE:2a63 18              DEC        R0
       CODE:2a64 19              DEC        R1
       CODE:2a65 e6              MOV        A,@R0
       CODE:2a66 97              SUBB       A,@R1
       CODE:2a67 30 d5 02        JNB        F0,LAB_CODE_2a6c                                           = ??
       CODE:2a6a f4              CPL        A
       CODE:2a6b b3              CPL        CY
                             LAB_CODE_2a6c                                   XREF[1]:     CODE:2a67(j)  
       CODE:2a6c f6              MOV        @R0,A
       CODE:2a6d 50 05           JNC        LAB_CODE_2a74
       CODE:2a6f 76 00           MOV        @R0,#0x0
       CODE:2a71 08              INC        R0
       CODE:2a72 76 00           MOV        @R0,#0x0
                             LAB_CODE_2a74                                   XREF[1]:     CODE:2a6d(j)  
       CODE:2a74 22              RET
                             **************************************************************
                             *                          FUNCTION                          *
                             **************************************************************
                             undefined FUN_CODE_2a75()
             undefined         ACC:1          <RETURN>
                             FUN_CODE_2a75                                   XREF[4]:     FUN_CODE_279d:27b8(c), 
                                                                                          FUN_CODE_279d:27dc(c), 
                                                                                          CODE:2805(c), 
                                                                                          FUN_CODE_2813:2828(c)  
       CODE:2a75 e6              MOV        A,@R0
       CODE:2a76 87 f0           MOV        B,@R1
       CODE:2a78 a4              MUL        AB
       CODE:2a79 aa f0           MOV        R2,B
       CODE:2a7b 18              DEC        R0
       CODE:2a7c e6              MOV        A,@R0
       CODE:2a7d 87 f0           MOV        B,@R1
       CODE:2a7f a4              MUL        AB
       CODE:2a80 2a              ADD        A,R2
       CODE:2a81 fa              MOV        R2,A
       CODE:2a82 e5 f0           MOV        A,B
       CODE:2a84 34 00           ADDC       A,#0x0
       CODE:2a86 fb              MOV        R3,A
       CODE:2a87 08              INC        R0
       CODE:2a88 19              DEC        R1
       CODE:2a89 e6              MOV        A,@R0
       CODE:2a8a 87 f0           MOV        B,@R1
       CODE:2a8c a4              MUL        AB
       CODE:2a8d 2a              ADD        A,R2
       CODE:2a8e fa              MOV        R2,A
       CODE:2a8f e5 f0           MOV        A,B
       CODE:2a91 3b              ADDC       A,R3
       CODE:2a92 fb              MOV        R3,A
       CODE:2a93 74 00           MOV        A,#0x0
       CODE:2a95 34 00           ADDC       A,#0x0
       CODE:2a97 fc              MOV        R4,A
       CODE:2a98 18              DEC        R0
       CODE:2a99 e6              MOV        A,@R0
       CODE:2a9a 87 f0           MOV        B,@R1
       CODE:2a9c a4              MUL        AB
       CODE:2a9d 2b              ADD        A,R3
       CODE:2a9e fb              MOV        R3,A
       CODE:2a9f e5 f0           MOV        A,B
       CODE:2aa1 3c              ADDC       A,R4
       CODE:2aa2 fc              MOV        R4,A
       CODE:2aa3 7d 03           MOV        R5,#0x3
                             LAB_CODE_2aa5                                   XREF[1]:     CODE:2ab0(j)  
       CODE:2aa5 ea              MOV        A,R2
       CODE:2aa6 33              RLC        A
       CODE:2aa7 fa              MOV        R2,A
       CODE:2aa8 eb              MOV        A,R3
       CODE:2aa9 33              RLC        A
       CODE:2aaa fb              MOV        R3,A
       CODE:2aab ec              MOV        A,R4
       CODE:2aac 33              RLC        A
       CODE:2aad fc              MOV        R4,A
       CODE:2aae 40 0e           JC         LAB_CODE_2abe
       CODE:2ab0 dd f3           DJNZ       R5,LAB_CODE_2aa5
       CODE:2ab2 ec              MOV        A,R4
       CODE:2ab3 70 04           JNZ        LAB_CODE_2ab9
       CODE:2ab5 74 01           MOV        A,#0x1
       CODE:2ab7 7b 00           MOV        R3,#0x0
                             LAB_CODE_2ab9                                   XREF[2]:     CODE:2ab3(j), CODE:2ac2(j)  
       CODE:2ab9 f6              MOV        @R0,A
       CODE:2aba 08              INC        R0
       CODE:2abb eb              MOV        A,R3
       CODE:2abc f6              MOV        @R0,A
       CODE:2abd 22              RET
                             LAB_CODE_2abe                                   XREF[1]:     CODE:2aae(j)  
       CODE:2abe 74 ff           MOV        A,#0xff
       CODE:2ac0 7b ff           MOV        R3,#0xff
       CODE:2ac2 80 f5           SJMP       LAB_CODE_2ab9
                             **************************************************************
                             *                          FUNCTION                          *
                             **************************************************************
                             undefined FUN_CODE_2ac4()
             undefined         ACC:1          <RETURN>
                             FUN_CODE_2ac4                                   XREF[1]:     FUN_CODE_1bbe:1bc6(c)  
       CODE:2ac4 30 62 1d        JNB        2c.2,LAB_CODE_2ae4                                         = ??
       CODE:2ac7 e5 70           MOV        A,DAT_INTMEM_70                                            = ??
       CODE:2ac9 70 1b           JNZ        LAB_CODE_2ae6
       CODE:2acb e5 71           MOV        A,DAT_INTMEM_71                                            = ??
       CODE:2acd a2 e3           MOV        CY,ACC.3                                                   = ??
       CODE:2acf 92 d5           MOV        F0,CY                                                      = ??
       CODE:2ad1 12 2c 9b        LCALL      FUN_CODE_2c9b                                              undefined FUN_CODE_2c9b()
       CODE:2ad4 50 0c           JNC        LAB_CODE_2ae2
       CODE:2ad6 e4              CLR        A
       CODE:2ad7 d2 e6           SETB       ACC.6                                                      = ??
       CODE:2ad9 a2 d5           MOV        CY,F0                                                      = ??
       CODE:2adb 92 e7           MOV        ACC.7,CY                                                   = ??
       CODE:2add aa 72           MOV        R2,DAT_INTMEM_72                                           = ??
                             LAB_CODE_2adf                                   XREF[3]:     CODE:2af7(j), CODE:2b2b(j), 
                                                                                          CODE:2b3f(j)  
       CODE:2adf c2 62           CLR        2c.2                                                       = ??
       CODE:2ae1 22              RET
                             LAB_CODE_2ae2                                   XREF[7]:     CODE:2ad4(j), CODE:2aec(j), 
                                                                                          CODE:2af1(j), CODE:2aff(j), 
                                                                                          CODE:2b04(j), CODE:2b30(j), 
                                                                                          CODE:2b35(j)  
       CODE:2ae2 c2 62           CLR        2c.2                                                       = ??
                             LAB_CODE_2ae4                                   XREF[1]:     CODE:2ac4(j)  
       CODE:2ae4 e4              CLR        A
       CODE:2ae5 22              RET
                             LAB_CODE_2ae6                                   XREF[1]:     CODE:2ac9(j)  
       CODE:2ae6 b4 07 10        CJNE       A,#0x7,LAB_CODE_2af9
       CODE:2ae9 12 2b 41        LCALL      FUN_CODE_2b41                                              undefined FUN_CODE_2b41()
       CODE:2aec 70 f4           JNZ        LAB_CODE_2ae2
       CODE:2aee 12 2c 97        LCALL      FUN_CODE_2c97                                              undefined FUN_CODE_2c97()
       CODE:2af1 50 ef           JNC        LAB_CODE_2ae2
       CODE:2af3 e5 70           MOV        A,DAT_INTMEM_70                                            = ??
       CODE:2af5 aa 74           MOV        R2,DAT_INTMEM_74                                           = ??
       CODE:2af7 80 e6           SJMP       LAB_CODE_2adf
                             LAB_CODE_2af9                                   XREF[1]:     CODE:2ae6(j)  
       CODE:2af9 b4 01 31        CJNE       A,#0x1,LAB_CODE_2b2d
       CODE:2afc 12 2b 84        LCALL      FUN_CODE_2b84                                              undefined FUN_CODE_2b84()
       CODE:2aff 70 e1           JNZ        LAB_CODE_2ae2
       CODE:2b01 12 2c 97        LCALL      FUN_CODE_2c97                                              undefined FUN_CODE_2c97()
       CODE:2b04 50 dc           JNC        LAB_CODE_2ae2
       CODE:2b06 e5 74           MOV        A,DAT_INTMEM_74                                            = ??
       CODE:2b08 33              RLC        A
       CODE:2b09 f5 74           MOV        DAT_INTMEM_74,A                                            = ??
       CODE:2b0b e5 73           MOV        A,DAT_INTMEM_73                                            = ??
       CODE:2b0d 33              RLC        A
       CODE:2b0e f5 73           MOV        DAT_INTMEM_73,A                                            = ??
       CODE:2b10 e5 72           MOV        A,DAT_INTMEM_72                                            = ??
       CODE:2b12 33              RLC        A
       CODE:2b13 f5 72           MOV        DAT_INTMEM_72,A                                            = ??
       CODE:2b15 e5 74           MOV        A,DAT_INTMEM_74                                            = ??
       CODE:2b17 23              RL         A
       CODE:2b18 23              RL         A
       CODE:2b19 54 03           ANL        A,#0x3
       CODE:2b1b fc              MOV        R4,A
       CODE:2b1c e5 73           MOV        A,DAT_INTMEM_73                                            = ??
       CODE:2b1e a2 e7           MOV        CY,ACC.7                                                   = ??
       CODE:2b20 c2 e7           CLR        ACC.7                                                      = ??
       CODE:2b22 fb              MOV        R3,A
       CODE:2b23 e5 72           MOV        A,DAT_INTMEM_72                                            = ??
       CODE:2b25 33              RLC        A
       CODE:2b26 c2 e7           CLR        ACC.7                                                      = ??
       CODE:2b28 fa              MOV        R2,A
       CODE:2b29 e5 70           MOV        A,DAT_INTMEM_70                                            = ??
       CODE:2b2b 80 b2           SJMP       LAB_CODE_2adf
                             LAB_CODE_2b2d                                   XREF[1]:     CODE:2af9(j)  
       CODE:2b2d 12 2b fe        LCALL      FUN_CODE_2bfe                                              undefined FUN_CODE_2bfe()
       CODE:2b30 70 b0           JNZ        LAB_CODE_2ae2
       CODE:2b32 12 2c 97        LCALL      FUN_CODE_2c97                                              undefined FUN_CODE_2c97()
       CODE:2b35 50 ab           JNC        LAB_CODE_2ae2
       CODE:2b37 e5 70           MOV        A,DAT_INTMEM_70                                            = ??
       CODE:2b39 aa 72           MOV        R2,DAT_INTMEM_72                                           = ??
       CODE:2b3b ab 73           MOV        R3,DAT_INTMEM_73                                           = ??
       CODE:2b3d ac 74           MOV        R4,DAT_INTMEM_74                                           = ??
       CODE:2b3f 80 9e           SJMP       LAB_CODE_2adf
                             **************************************************************
                             *                          FUNCTION                          *
                             **************************************************************
                             undefined FUN_CODE_2b41()
             undefined         ACC:1          <RETURN>
                             FUN_CODE_2b41                                   XREF[1]:     FUN_CODE_2ac4:2ae9(c)  
       CODE:2b41 e4              CLR        A
       CODE:2b42 85 71 f0        MOV        B,DAT_INTMEM_71                                            = ??
       CODE:2b45 30 f7 02        JNB        B.7,LAB_CODE_2b4a                                          = ??
       CODE:2b48 64 0f           XRL        A,#0xf
                             LAB_CODE_2b4a                                   XREF[1]:     CODE:2b45(j)  
       CODE:2b4a 30 f6 02        JNB        B.6,LAB_CODE_2b4f                                          = ??
       CODE:2b4d 64 0e           XRL        A,#0xe
                             LAB_CODE_2b4f                                   XREF[1]:     CODE:2b4a(j)  
       CODE:2b4f 30 f5 02        JNB        B.5,LAB_CODE_2b54                                          = ??
       CODE:2b52 64 0d           XRL        A,#0xd
                             LAB_CODE_2b54                                   XREF[1]:     CODE:2b4f(j)  
       CODE:2b54 85 74 f0        MOV        B,DAT_INTMEM_74                                            = ??
       CODE:2b57 30 f7 02        JNB        B.7,LAB_CODE_2b5c                                          = ??
       CODE:2b5a 64 0c           XRL        A,#0xc
                             LAB_CODE_2b5c                                   XREF[1]:     CODE:2b57(j)  
       CODE:2b5c 30 f6 02        JNB        B.6,LAB_CODE_2b61                                          = ??
       CODE:2b5f 64 0b           XRL        A,#0xb
                             LAB_CODE_2b61                                   XREF[1]:     CODE:2b5c(j)  
       CODE:2b61 30 f5 02        JNB        B.5,LAB_CODE_2b66                                          = ??
       CODE:2b64 64 0a           XRL        A,#0xa
                             LAB_CODE_2b66                                   XREF[1]:     CODE:2b61(j)  
       CODE:2b66 30 f4 02        JNB        B.4,LAB_CODE_2b6b                                          = ??
       CODE:2b69 64 09           XRL        A,#0x9
                             LAB_CODE_2b6b                                   XREF[1]:     CODE:2b66(j)  
       CODE:2b6b 30 f3 02        JNB        B.3,LAB_CODE_2b70                                          = ??
       CODE:2b6e 64 07           XRL        A,#0x7
                             LAB_CODE_2b70                                   XREF[1]:     CODE:2b6b(j)  
       CODE:2b70 30 f2 02        JNB        B.2,LAB_CODE_2b75                                          = ??
       CODE:2b73 64 06           XRL        A,#0x6
                             LAB_CODE_2b75                                   XREF[1]:     CODE:2b70(j)  
       CODE:2b75 30 f1 02        JNB        B.1,LAB_CODE_2b7a                                          = ??
       CODE:2b78 64 05           XRL        A,#0x5
                             LAB_CODE_2b7a                                   XREF[1]:     CODE:2b75(j)  
       CODE:2b7a 30 f0 02        JNB        B.0,LAB_CODE_2b7f                                          = ??
       CODE:2b7d 64 03           XRL        A,#0x3
                             LAB_CODE_2b7f                                   XREF[1]:     CODE:2b7a(j)  
       CODE:2b7f 65 71           XRL        A,DAT_INTMEM_71                                            = ??
       CODE:2b81 54 1f           ANL        A,#0x1f
       CODE:2b83 22              RET
                             **************************************************************
                             *                          FUNCTION                          *
                             **************************************************************
                             undefined FUN_CODE_2b84()
             undefined         ACC:1          <RETURN>
                             FUN_CODE_2b84                                   XREF[1]:     FUN_CODE_2ac4:2afc(c)  
       CODE:2b84 e5 74           MOV        A,DAT_INTMEM_74                                            = ??
       CODE:2b86 f4              CPL        A
       CODE:2b87 65 71           XRL        A,DAT_INTMEM_71                                            = ??
       CODE:2b89 54 1f           ANL        A,#0x1f
       CODE:2b8b 70 70           JNZ        LAB_CODE_2bfd
       CODE:2b8d e4              CLR        A
       CODE:2b8e 85 71 f0        MOV        B,DAT_INTMEM_71                                            = ??
       CODE:2b91 30 f7 02        JNB        B.7,LAB_CODE_2b96                                          = ??
       CODE:2b94 64 18           XRL        A,#0x18
                             LAB_CODE_2b96                                   XREF[1]:     CODE:2b91(j)  
       CODE:2b96 30 f6 02        JNB        B.6,LAB_CODE_2b9b                                          = ??
       CODE:2b99 64 17           XRL        A,#0x17
                             LAB_CODE_2b9b                                   XREF[1]:     CODE:2b96(j)  
       CODE:2b9b 30 f5 02        JNB        B.5,LAB_CODE_2ba0                                          = ??
       CODE:2b9e 64 16           XRL        A,#0x16
                             LAB_CODE_2ba0                                   XREF[1]:     CODE:2b9b(j)  
       CODE:2ba0 85 72 f0        MOV        B,DAT_INTMEM_72                                            = ??
       CODE:2ba3 30 f4 02        JNB        B.4,LAB_CODE_2ba8                                          = ??
       CODE:2ba6 64 15           XRL        A,#0x15
                             LAB_CODE_2ba8                                   XREF[1]:     CODE:2ba3(j)  
       CODE:2ba8 30 f3 02        JNB        B.3,LAB_CODE_2bad                                          = ??
       CODE:2bab 64 14           XRL        A,#0x14
                             LAB_CODE_2bad                                   XREF[1]:     CODE:2ba8(j)  
       CODE:2bad 30 f2 02        JNB        B.2,LAB_CODE_2bb2                                          = ??
       CODE:2bb0 64 13           XRL        A,#0x13
                             LAB_CODE_2bb2                                   XREF[1]:     CODE:2bad(j)  
       CODE:2bb2 30 f1 02        JNB        B.1,LAB_CODE_2bb7                                          = ??
       CODE:2bb5 64 12           XRL        A,#0x12
                             LAB_CODE_2bb7                                   XREF[1]:     CODE:2bb2(j)  
       CODE:2bb7 30 f0 02        JNB        B.0,LAB_CODE_2bbc                                          = ??
       CODE:2bba 64 11           XRL        A,#0x11
                             LAB_CODE_2bbc                                   XREF[1]:     CODE:2bb7(j)  
       CODE:2bbc 85 73 f0        MOV        B,DAT_INTMEM_73                                            = ??
       CODE:2bbf 30 f7 02        JNB        B.7,LAB_CODE_2bc4                                          = ??
       CODE:2bc2 64 0f           XRL        A,#0xf
                             LAB_CODE_2bc4                                   XREF[1]:     CODE:2bbf(j)  
       CODE:2bc4 30 f6 02        JNB        B.6,LAB_CODE_2bc9                                          = ??
       CODE:2bc7 64 0e           XRL        A,#0xe
                             LAB_CODE_2bc9                                   XREF[1]:     CODE:2bc4(j)  
       CODE:2bc9 30 f5 02        JNB        B.5,LAB_CODE_2bce                                          = ??
       CODE:2bcc 64 0d           XRL        A,#0xd
                             LAB_CODE_2bce                                   XREF[1]:     CODE:2bc9(j)  
       CODE:2bce 30 f4 02        JNB        B.4,LAB_CODE_2bd3                                          = ??
       CODE:2bd1 64 0c           XRL        A,#0xc
                             LAB_CODE_2bd3                                   XREF[1]:     CODE:2bce(j)  
       CODE:2bd3 30 f3 02        JNB        B.3,LAB_CODE_2bd8                                          = ??
       CODE:2bd6 64 0b           XRL        A,#0xb
                             LAB_CODE_2bd8                                   XREF[1]:     CODE:2bd3(j)  
       CODE:2bd8 30 f2 02        JNB        B.2,LAB_CODE_2bdd                                          = ??
       CODE:2bdb 64 0a           XRL        A,#0xa
                             LAB_CODE_2bdd                                   XREF[1]:     CODE:2bd8(j)  
       CODE:2bdd 30 f1 02        JNB        B.1,LAB_CODE_2be2                                          = ??
       CODE:2be0 64 09           XRL        A,#0x9
                             LAB_CODE_2be2                                   XREF[1]:     CODE:2bdd(j)  
       CODE:2be2 30 f0 02        JNB        B.0,LAB_CODE_2be7                                          = ??
       CODE:2be5 64 07           XRL        A,#0x7
                             LAB_CODE_2be7                                   XREF[1]:     CODE:2be2(j)  
       CODE:2be7 85 74 f0        MOV        B,DAT_INTMEM_74                                            = ??
       CODE:2bea 30 f7 02        JNB        B.7,LAB_CODE_2bef                                          = ??
       CODE:2bed 64 06           XRL        A,#0x6
                             LAB_CODE_2bef                                   XREF[1]:     CODE:2bea(j)  
       CODE:2bef 30 f6 02        JNB        B.6,LAB_CODE_2bf4                                          = ??
       CODE:2bf2 64 05           XRL        A,#0x5
                             LAB_CODE_2bf4                                   XREF[1]:     CODE:2bef(j)  
       CODE:2bf4 30 f5 02        JNB        B.5,LAB_CODE_2bf9                                          = ??
       CODE:2bf7 64 03           XRL        A,#0x3
                             LAB_CODE_2bf9                                   XREF[1]:     CODE:2bf4(j)  
       CODE:2bf9 65 71           XRL        A,DAT_INTMEM_71                                            = ??
       CODE:2bfb 54 1f           ANL        A,#0x1f
                             LAB_CODE_2bfd                                   XREF[1]:     CODE:2b8b(j)  
       CODE:2bfd 22              RET
                             **************************************************************
                             *                          FUNCTION                          *
                             **************************************************************
                             undefined FUN_CODE_2bfe()
             undefined         ACC:1          <RETURN>
                             FUN_CODE_2bfe                                   XREF[1]:     FUN_CODE_2ac4:2b2d(c)  
       CODE:2bfe e4              CLR        A
       CODE:2bff 85 71 f0        MOV        B,DAT_INTMEM_71                                            = ??
       CODE:2c02 30 f7 02        JNB        B.7,LAB_CODE_2c07                                          = ??
       CODE:2c05 64 1f           XRL        A,#0x1f
                             LAB_CODE_2c07                                   XREF[1]:     CODE:2c02(j)  
       CODE:2c07 30 f6 02        JNB        B.6,LAB_CODE_2c0c                                          = ??
       CODE:2c0a 64 1f           XRL        A,#0x1f
                             LAB_CODE_2c0c                                   XREF[1]:     CODE:2c07(j)  
       CODE:2c0c 30 f5 02        JNB        B.5,LAB_CODE_2c11                                          = ??
       CODE:2c0f 64 1e           XRL        A,#0x1e
                             LAB_CODE_2c11                                   XREF[1]:     CODE:2c0c(j)  
       CODE:2c11 85 72 f0        MOV        B,DAT_INTMEM_72                                            = ??
       CODE:2c14 30 f7 02        JNB        B.7,LAB_CODE_2c19                                          = ??
       CODE:2c17 64 1d           XRL        A,#0x1d
                             LAB_CODE_2c19                                   XREF[1]:     CODE:2c14(j)  
       CODE:2c19 30 f6 02        JNB        B.6,LAB_CODE_2c1e                                          = ??
       CODE:2c1c 64 1c           XRL        A,#0x1c
                             LAB_CODE_2c1e                                   XREF[1]:     CODE:2c19(j)  
       CODE:2c1e 30 f5 02        JNB        B.5,LAB_CODE_2c23                                          = ??
       CODE:2c21 64 1b           XRL        A,#0x1b
                             LAB_CODE_2c23                                   XREF[1]:     CODE:2c1e(j)  
       CODE:2c23 30 f4 02        JNB        B.4,LAB_CODE_2c28                                          = ??
       CODE:2c26 64 1a           XRL        A,#0x1a
                             LAB_CODE_2c28                                   XREF[1]:     CODE:2c23(j)  
       CODE:2c28 30 f3 02        JNB        B.3,LAB_CODE_2c2d                                          = ??
       CODE:2c2b 64 19           XRL        A,#0x19
                             LAB_CODE_2c2d                                   XREF[1]:     CODE:2c28(j)  
       CODE:2c2d 30 f2 02        JNB        B.2,LAB_CODE_2c32                                          = ??
       CODE:2c30 64 18           XRL        A,#0x18
                             LAB_CODE_2c32                                   XREF[1]:     CODE:2c2d(j)  
       CODE:2c32 30 f1 02        JNB        B.1,LAB_CODE_2c37                                          = ??
       CODE:2c35 64 17           XRL        A,#0x17
                             LAB_CODE_2c37                                   XREF[1]:     CODE:2c32(j)  
       CODE:2c37 30 f0 02        JNB        B.0,LAB_CODE_2c3c                                          = ??
       CODE:2c3a 64 16           XRL        A,#0x16
                             LAB_CODE_2c3c                                   XREF[1]:     CODE:2c37(j)  
       CODE:2c3c 85 73 f0        MOV        B,DAT_INTMEM_73                                            = ??
       CODE:2c3f 30 f7 02        JNB        B.7,LAB_CODE_2c44                                          = ??
       CODE:2c42 64 15           XRL        A,#0x15
                             LAB_CODE_2c44                                   XREF[1]:     CODE:2c3f(j)  
       CODE:2c44 30 f6 02        JNB        B.6,LAB_CODE_2c49                                          = ??
       CODE:2c47 64 14           XRL        A,#0x14
                             LAB_CODE_2c49                                   XREF[1]:     CODE:2c44(j)  
       CODE:2c49 30 f5 02        JNB        B.5,LAB_CODE_2c4e                                          = ??
       CODE:2c4c 64 13           XRL        A,#0x13
                             LAB_CODE_2c4e                                   XREF[1]:     CODE:2c49(j)  
       CODE:2c4e 30 f4 02        JNB        B.4,LAB_CODE_2c53                                          = ??
       CODE:2c51 64 12           XRL        A,#0x12
                             LAB_CODE_2c53                                   XREF[1]:     CODE:2c4e(j)  
       CODE:2c53 30 f3 02        JNB        B.3,LAB_CODE_2c58                                          = ??
       CODE:2c56 64 11           XRL        A,#0x11
                             LAB_CODE_2c58                                   XREF[1]:     CODE:2c53(j)  
       CODE:2c58 30 f2 02        JNB        B.2,LAB_CODE_2c5d                                          = ??
       CODE:2c5b 64 0f           XRL        A,#0xf
                             LAB_CODE_2c5d                                   XREF[1]:     CODE:2c58(j)  
       CODE:2c5d 30 f1 02        JNB        B.1,LAB_CODE_2c62                                          = ??
       CODE:2c60 64 0e           XRL        A,#0xe
                             LAB_CODE_2c62                                   XREF[1]:     CODE:2c5d(j)  
       CODE:2c62 30 f0 02        JNB        B.0,LAB_CODE_2c67                                          = ??
       CODE:2c65 64 0d           XRL        A,#0xd
                             LAB_CODE_2c67                                   XREF[1]:     CODE:2c62(j)  
       CODE:2c67 85 74 f0        MOV        B,DAT_INTMEM_74                                            = ??
       CODE:2c6a 30 f7 02        JNB        B.7,LAB_CODE_2c6f                                          = ??
       CODE:2c6d 64 0c           XRL        A,#0xc
                             LAB_CODE_2c6f                                   XREF[1]:     CODE:2c6a(j)  
       CODE:2c6f 30 f6 02        JNB        B.6,LAB_CODE_2c74                                          = ??
       CODE:2c72 64 0b           XRL        A,#0xb
                             LAB_CODE_2c74                                   XREF[1]:     CODE:2c6f(j)  
       CODE:2c74 30 f5 02        JNB        B.5,LAB_CODE_2c79                                          = ??
       CODE:2c77 64 0a           XRL        A,#0xa
                             LAB_CODE_2c79                                   XREF[1]:     CODE:2c74(j)  
       CODE:2c79 30 f4 02        JNB        B.4,LAB_CODE_2c7e                                          = ??
       CODE:2c7c 64 09           XRL        A,#0x9
                             LAB_CODE_2c7e                                   XREF[1]:     CODE:2c79(j)  
       CODE:2c7e 30 f3 02        JNB        B.3,LAB_CODE_2c83                                          = ??
       CODE:2c81 64 07           XRL        A,#0x7
                             LAB_CODE_2c83                                   XREF[1]:     CODE:2c7e(j)  
       CODE:2c83 30 f2 02        JNB        B.2,LAB_CODE_2c88                                          = ??
       CODE:2c86 64 06           XRL        A,#0x6
                             LAB_CODE_2c88                                   XREF[1]:     CODE:2c83(j)  
       CODE:2c88 30 f1 02        JNB        B.1,LAB_CODE_2c8d                                          = ??
       CODE:2c8b 64 05           XRL        A,#0x5
                             LAB_CODE_2c8d                                   XREF[1]:     CODE:2c88(j)  
       CODE:2c8d 30 f0 02        JNB        B.0,LAB_CODE_2c92                                          = ??
       CODE:2c90 64 03           XRL        A,#0x3
                             LAB_CODE_2c92                                   XREF[1]:     CODE:2c8d(j)  
       CODE:2c92 65 71           XRL        A,DAT_INTMEM_71                                            = ??
       CODE:2c94 54 1f           ANL        A,#0x1f
       CODE:2c96 22              RET
                             **************************************************************
                             *                          FUNCTION                          *
                             **************************************************************
                             undefined FUN_CODE_2c97()
             undefined         ACC:1          <RETURN>
                             FUN_CODE_2c97                                   XREF[3]:     FUN_CODE_2ac4:2aee(c), 
                                                                                          FUN_CODE_2ac4:2b01(c), 
                                                                                          FUN_CODE_2ac4:2b32(c)  
       CODE:2c97 e5 71           MOV        A,DAT_INTMEM_71                                            = ??
       CODE:2c99 c4              SWAP       A
       CODE:2c9a 03              RR         A
                             **************************************************************
                             *                          FUNCTION                          *
                             **************************************************************
                             undefined FUN_CODE_2c9b()
             undefined         ACC:1          <RETURN>
                             FUN_CODE_2c9b                                   XREF[1]:     FUN_CODE_2ac4:2ad1(c)  
       CODE:2c9b 78 7f           MOV        R0,#0x7f
       CODE:2c9d 86 f0           MOV        B,@R0=>DAT_INTMEM_7f                                       = ??
       CODE:2c9f 20 f3 03        JB         B.3,LAB_CODE_2ca5                                          = ??
       CODE:2ca2 a2 f0           MOV        CY,B.0                                                     = ??
       CODE:2ca4 22              RET
                             LAB_CODE_2ca5                                   XREF[1]:     CODE:2c9f(j)  
       CODE:2ca5 54 07           ANL        A,#0x7
       CODE:2ca7 b4 07 02        CJNE       A,#0x7,LAB_CODE_2cac
                             LAB_CODE_2caa                                   XREF[1]:     CODE:2cb0(j)  
       CODE:2caa d3              SETB       CY
       CODE:2cab 22              RET
                             LAB_CODE_2cac                                   XREF[1]:     CODE:2ca7(j)  
       CODE:2cac 65 f0           XRL        A,B
       CODE:2cae 54 07           ANL        A,#0x7
       CODE:2cb0 60 f8           JZ         LAB_CODE_2caa
       CODE:2cb2 c3              CLR        CY
       CODE:2cb3 22              RET
                             **************************************************************
                             *                          FUNCTION                          *
                             **************************************************************
                             undefined FUN_CODE_2cb4()
             undefined         ACC:1          <RETURN>
                             FUN_CODE_2cb4                                   XREF[1]:     CODE:1e12(c)  
       CODE:2cb4 e5 1f           MOV        A,BANK3_R7                                                 = ??
       CODE:2cb6 22              RET
                             **************************************************************
                             *                          FUNCTION                          *
                             **************************************************************
                             undefined FUN_CODE_2cb7()
             undefined         ACC:1          <RETURN>
                             FUN_CODE_2cb7                                   XREF[2]:     CODE:1e1a(c), CODE:1f6c(c)  
       CODE:2cb7 12 25 d8        LCALL      FUN_CODE_25d8                                              undefined FUN_CODE_25d8()
       CODE:2cba c3              CLR        CY
       CODE:2cbb 20 57 01        JB         2a.7,LAB_CODE_2cbf                                         = ??
       CODE:2cbe 22              RET
                             LAB_CODE_2cbf                                   XREF[1]:     CODE:2cbb(j)  
       CODE:2cbf ee              MOV        A,R6
       CODE:2cc0 95 30           SUBB       A,DAT_INTMEM_30                                            = ??
       CODE:2cc2 40 16           JC         LAB_CODE_2cda
       CODE:2cc4 70 14           JNZ        LAB_CODE_2cda
       CODE:2cc6 c3              CLR        CY
       CODE:2cc7 ed              MOV        A,R5
       CODE:2cc8 95 31           SUBB       A,DAT_INTMEM_31                                            = ??
       CODE:2cca 40 0e           JC         LAB_CODE_2cda
       CODE:2ccc 70 0c           JNZ        LAB_CODE_2cda
       CODE:2cce c3              CLR        CY
       CODE:2ccf ec              MOV        A,R4
       CODE:2cd0 95 32           SUBB       A,DAT_INTMEM_32                                            = ??
       CODE:2cd2 40 06           JC         LAB_CODE_2cda
       CODE:2cd4 70 04           JNZ        LAB_CODE_2cda
       CODE:2cd6 c3              CLR        CY
       CODE:2cd7 eb              MOV        A,R3
       CODE:2cd8 95 33           SUBB       A,DAT_INTMEM_33                                            = ??
                             LAB_CODE_2cda                                   XREF[6]:     CODE:2cc2(j), CODE:2cc4(j), 
                                                                                          CODE:2cca(j), CODE:2ccc(j), 
                                                                                          CODE:2cd2(j), CODE:2cd4(j)  
       CODE:2cda b3              CPL        CY
       CODE:2cdb 22              RET
                             **************************************************************
                             *                          FUNCTION                          *
                             **************************************************************
                             undefined zero_memory_range()
             undefined         ACC:1          <RETURN>
                             zero_memory_range                               XREF[5]:     FUN_CODE_07ea:07ee(c), 
                                                                                          FUN_CODE_07ea:07f5(c), 
                                                                                          FUN_CODE_080d:0811(c), 
                                                                                          FUN_CODE_080d:0818(c), 
                                                                                          CODE:2cdf(j)  
       CODE:2cdc 76 00           MOV        @R0,#0x0
       CODE:2cde 08              INC        R0
       CODE:2cdf da fb           DJNZ       R2,zero_memory_range
       CODE:2ce1 22              RET
                             LAB_CODE_2ce2                                   XREF[1]:     CODE:2cea(j)  
       CODE:2ce2 f9              MOV        R1,A
       CODE:2ce3 a3              INC        DPTR
       CODE:2ce4 e4              CLR        A
       CODE:2ce5 93              MOVC       A,@A+DPTR
       CODE:2ce6 f7              MOV        @R1,A
       CODE:2ce7 a3              INC        DPTR
                             **************************************************************
                             *                          FUNCTION                          *
                             **************************************************************
                             undefined FUN_CODE_2ce8()
             undefined         ACC:1          <RETURN>
                             FUN_CODE_2ce8                                   XREF[1]:     FUN_CODE_2442:2445(c)  
       CODE:2ce8 e4              CLR        A
       CODE:2ce9 93              MOVC       A,@A+DPTR
       CODE:2cea 70 f6           JNZ        LAB_CODE_2ce2
       CODE:2cec 22              RET
                             **************************************************************
                             *                          FUNCTION                          *
                             **************************************************************
                             undefined FUN_CODE_2ced()
             undefined         ACC:1          <RETURN>
                             FUN_CODE_2ced                                   XREF[3]:     FUN_CODE_07ea:07fc(c), 
                                                                                          FUN_CODE_080d:081f(c), 
                                                                                          CODE:2d00(j)  
       CODE:2ced e8              MOV        A,R0
       CODE:2cee 75 f0 08        MOV        B,#0x8
       CODE:2cf1 84              DIV        AB
       CODE:2cf2 24 20           ADD        A,#0x20
       CODE:2cf4 f9              MOV        R1,A
       CODE:2cf5 05 f0           INC        B
       CODE:2cf7 74 7f           MOV        A,#0x7f
                             LAB_CODE_2cf9                                   XREF[1]:     CODE:2cfa(j)  
       CODE:2cf9 23              RL         A
       CODE:2cfa d5 f0 fc        DJNZ       B,LAB_CODE_2cf9
       CODE:2cfd 57              ANL        A,@R1
       CODE:2cfe f7              MOV        @R1,A
       CODE:2cff 08              INC        R0
       CODE:2d00 da eb           DJNZ       R2,FUN_CODE_2ced
       CODE:2d02 22              RET
       CODE:2d03 00              ??         00h
       CODE:2d04 00              ??         00h
       CODE:2d05 00              ??         00h
       CODE:2d06 00              ??         00h
       CODE:2d07 00              ??         00h
       CODE:2d08 00              ??         00h
       CODE:2d09 00              ??         00h
       CODE:2d0a 00              ??         00h
       CODE:2d0b 00              ??         00h
       CODE:2d0c 00              ??         00h
       CODE:2d0d 00              ??         00h
       CODE:2d0e 00              ??         00h
       CODE:2d0f 00              ??         00h
       CODE:2d10 00              ??         00h
       CODE:2d11 00              ??         00h
       CODE:2d12 00              ??         00h
       CODE:2d13 00              ??         00h
       CODE:2d14 00              ??         00h
       CODE:2d15 00              ??         00h
       CODE:2d16 00              ??         00h
       CODE:2d17 00              ??         00h
       CODE:2d18 00              ??         00h
       CODE:2d19 00              ??         00h
       CODE:2d1a 00              ??         00h
       CODE:2d1b 00              ??         00h
       CODE:2d1c 00              ??         00h
       CODE:2d1d 00              ??         00h
       CODE:2d1e 00              ??         00h
       CODE:2d1f 00              ??         00h
       CODE:2d20 00              ??         00h
       CODE:2d21 00              ??         00h
       CODE:2d22 00              ??         00h
       CODE:2d23 00              ??         00h
       CODE:2d24 00              ??         00h
       CODE:2d25 00              ??         00h
       CODE:2d26 00              ??         00h
       CODE:2d27 00              ??         00h
       CODE:2d28 00              ??         00h
       CODE:2d29 00              ??         00h
       CODE:2d2a 00              ??         00h
       CODE:2d2b 00              ??         00h
       CODE:2d2c 00              ??         00h
       CODE:2d2d 00              ??         00h
       CODE:2d2e 00              ??         00h
       CODE:2d2f 00              ??         00h
       CODE:2d30 00              ??         00h
       CODE:2d31 00              ??         00h
       CODE:2d32 00              ??         00h
       CODE:2d33 00              ??         00h
       CODE:2d34 00              ??         00h
       CODE:2d35 00              ??         00h
       CODE:2d36 00              ??         00h
       CODE:2d37 00              ??         00h
       CODE:2d38 00              ??         00h
       CODE:2d39 00              ??         00h
       CODE:2d3a 00              ??         00h
       CODE:2d3b 00              ??         00h
       CODE:2d3c 00              ??         00h
       CODE:2d3d 00              ??         00h
       CODE:2d3e 00              ??         00h
       CODE:2d3f 00              ??         00h
       CODE:2d40 00              ??         00h
       CODE:2d41 00              ??         00h
       CODE:2d42 00              ??         00h
       CODE:2d43 00              ??         00h
       CODE:2d44 00              ??         00h
       CODE:2d45 00              ??         00h
       CODE:2d46 00              ??         00h
       CODE:2d47 00              ??         00h
       CODE:2d48 00              ??         00h
       CODE:2d49 00              ??         00h
       CODE:2d4a 00              ??         00h
       CODE:2d4b 00              ??         00h
       CODE:2d4c 00              ??         00h
       CODE:2d4d 00              ??         00h
       CODE:2d4e 00              ??         00h
       CODE:2d4f 00              ??         00h
       CODE:2d50 00              ??         00h
       CODE:2d51 00              ??         00h
       CODE:2d52 00              ??         00h
       CODE:2d53 00              ??         00h
       CODE:2d54 00              ??         00h
       CODE:2d55 00              ??         00h
       CODE:2d56 00              ??         00h
       CODE:2d57 00              ??         00h
       CODE:2d58 00              ??         00h
       CODE:2d59 00              ??         00h
       CODE:2d5a 00              ??         00h
       CODE:2d5b 00              ??         00h
       CODE:2d5c 00              ??         00h
       CODE:2d5d 00              ??         00h
       CODE:2d5e 00              ??         00h
       CODE:2d5f 00              ??         00h
       CODE:2d60 00              ??         00h
       CODE:2d61 00              ??         00h
       CODE:2d62 00              ??         00h
       CODE:2d63 00              ??         00h
       CODE:2d64 00              ??         00h
       CODE:2d65 00              ??         00h
       CODE:2d66 00              ??         00h
       CODE:2d67 00              ??         00h
       CODE:2d68 00              ??         00h
       CODE:2d69 00              ??         00h
       CODE:2d6a 00              ??         00h
       CODE:2d6b 00              ??         00h
       CODE:2d6c 00              ??         00h
       CODE:2d6d 00              ??         00h
       CODE:2d6e 00              ??         00h
       CODE:2d6f 00              ??         00h
       CODE:2d70 00              ??         00h
       CODE:2d71 00              ??         00h
       CODE:2d72 00              ??         00h
       CODE:2d73 00              ??         00h
       CODE:2d74 00              ??         00h
       CODE:2d75 00              ??         00h
       CODE:2d76 00              ??         00h
       CODE:2d77 00              ??         00h
       CODE:2d78 00              ??         00h
       CODE:2d79 00              ??         00h
       CODE:2d7a 00              ??         00h
       CODE:2d7b 00              ??         00h
       CODE:2d7c 00              ??         00h
       CODE:2d7d 00              ??         00h
       CODE:2d7e 00              ??         00h
       CODE:2d7f 00              ??         00h
       CODE:2d80 00              ??         00h
       CODE:2d81 00              ??         00h
       CODE:2d82 00              ??         00h
       CODE:2d83 00              ??         00h
       CODE:2d84 00              ??         00h
       CODE:2d85 00              ??         00h
       CODE:2d86 00              ??         00h
       CODE:2d87 00              ??         00h
       CODE:2d88 00              ??         00h
       CODE:2d89 00              ??         00h
       CODE:2d8a 00              ??         00h
       CODE:2d8b 00              ??         00h
       CODE:2d8c 00              ??         00h
       CODE:2d8d 00              ??         00h
       CODE:2d8e 00              ??         00h
       CODE:2d8f 00              ??         00h
       CODE:2d90 00              ??         00h
       CODE:2d91 00              ??         00h
       CODE:2d92 00              ??         00h
       CODE:2d93 00              ??         00h
       CODE:2d94 00              ??         00h
       CODE:2d95 00              ??         00h
       CODE:2d96 00              ??         00h
       CODE:2d97 00              ??         00h
       CODE:2d98 00              ??         00h
       CODE:2d99 00              ??         00h
       CODE:2d9a 00              ??         00h
       CODE:2d9b 00              ??         00h
       CODE:2d9c 00              ??         00h
       CODE:2d9d 00              ??         00h
       CODE:2d9e 00              ??         00h
       CODE:2d9f 00              ??         00h
       CODE:2da0 00              ??         00h
       CODE:2da1 00              ??         00h
       CODE:2da2 00              ??         00h
       CODE:2da3 00              ??         00h
       CODE:2da4 00              ??         00h
       CODE:2da5 00              ??         00h
       CODE:2da6 00              ??         00h
       CODE:2da7 00              ??         00h
       CODE:2da8 00              ??         00h
       CODE:2da9 00              ??         00h
       CODE:2daa 00              ??         00h
       CODE:2dab 00              ??         00h
       CODE:2dac 00              ??         00h
       CODE:2dad 00              ??         00h
       CODE:2dae 00              ??         00h
       CODE:2daf 00              ??         00h
       CODE:2db0 00              ??         00h
       CODE:2db1 00              ??         00h
       CODE:2db2 00              ??         00h
       CODE:2db3 00              ??         00h
       CODE:2db4 00              ??         00h
       CODE:2db5 00              ??         00h
       CODE:2db6 00              ??         00h
       CODE:2db7 00              ??         00h
       CODE:2db8 00              ??         00h
       CODE:2db9 00              ??         00h
       CODE:2dba 00              ??         00h
       CODE:2dbb 00              ??         00h
       CODE:2dbc 00              ??         00h
       CODE:2dbd 00              ??         00h
       CODE:2dbe 00              ??         00h
       CODE:2dbf 00              ??         00h
       CODE:2dc0 00              ??         00h
       CODE:2dc1 00              ??         00h
       CODE:2dc2 00              ??         00h
       CODE:2dc3 00              ??         00h
       CODE:2dc4 00              ??         00h
       CODE:2dc5 00              ??         00h
       CODE:2dc6 00              ??         00h
       CODE:2dc7 00              ??         00h
       CODE:2dc8 00              ??         00h
       CODE:2dc9 00              ??         00h
       CODE:2dca 00              ??         00h
       CODE:2dcb 00              ??         00h
       CODE:2dcc 00              ??         00h
       CODE:2dcd 00              ??         00h
       CODE:2dce 00              ??         00h
       CODE:2dcf 00              ??         00h
       CODE:2dd0 00              ??         00h
       CODE:2dd1 00              ??         00h
       CODE:2dd2 00              ??         00h
       CODE:2dd3 00              ??         00h
       CODE:2dd4 00              ??         00h
       CODE:2dd5 00              ??         00h
       CODE:2dd6 00              ??         00h
       CODE:2dd7 00              ??         00h
       CODE:2dd8 00              ??         00h
       CODE:2dd9 00              ??         00h
       CODE:2dda 00              ??         00h
       CODE:2ddb 00              ??         00h
       CODE:2ddc 00              ??         00h
       CODE:2ddd 00              ??         00h
       CODE:2dde 00              ??         00h
       CODE:2ddf 00              ??         00h
       CODE:2de0 00              ??         00h
       CODE:2de1 00              ??         00h
       CODE:2de2 00              ??         00h
       CODE:2de3 00              ??         00h
       CODE:2de4 00              ??         00h
       CODE:2de5 00              ??         00h
       CODE:2de6 00              ??         00h
       CODE:2de7 00              ??         00h
       CODE:2de8 00              ??         00h
       CODE:2de9 00              ??         00h
       CODE:2dea 00              ??         00h
       CODE:2deb 00              ??         00h
       CODE:2dec 00              ??         00h
       CODE:2ded 00              ??         00h
       CODE:2dee 00              ??         00h
       CODE:2def 00              ??         00h
       CODE:2df0 00              ??         00h
       CODE:2df1 00              ??         00h
       CODE:2df2 00              ??         00h
       CODE:2df3 00              ??         00h
       CODE:2df4 00              ??         00h
       CODE:2df5 00              ??         00h
       CODE:2df6 00              ??         00h
       CODE:2df7 00              ??         00h
       CODE:2df8 00              ??         00h
       CODE:2df9 00              ??         00h
       CODE:2dfa 00              ??         00h
       CODE:2dfb 00              ??         00h
       CODE:2dfc 00              ??         00h
       CODE:2dfd 00              ??         00h
       CODE:2dfe 00              ??         00h
       CODE:2dff 00              ??         00h
       CODE:2e00 00              ??         00h
       CODE:2e01 00              ??         00h
       CODE:2e02 00              ??         00h
       CODE:2e03 00              ??         00h
       CODE:2e04 00              ??         00h
       CODE:2e05 00              ??         00h
       CODE:2e06 00              ??         00h
       CODE:2e07 00              ??         00h
       CODE:2e08 00              ??         00h
       CODE:2e09 00              ??         00h
       CODE:2e0a 00              ??         00h
       CODE:2e0b 00              ??         00h
       CODE:2e0c 00              ??         00h
       CODE:2e0d 00              ??         00h
       CODE:2e0e 00              ??         00h
       CODE:2e0f 00              ??         00h
       CODE:2e10 00              ??         00h
       CODE:2e11 00              ??         00h
       CODE:2e12 00              ??         00h
       CODE:2e13 00              ??         00h
       CODE:2e14 00              ??         00h
       CODE:2e15 00              ??         00h
       CODE:2e16 00              ??         00h
       CODE:2e17 00              ??         00h
       CODE:2e18 00              ??         00h
       CODE:2e19 00              ??         00h
       CODE:2e1a 00              ??         00h
       CODE:2e1b 00              ??         00h
       CODE:2e1c 00              ??         00h
       CODE:2e1d 00              ??         00h
       CODE:2e1e 00              ??         00h
       CODE:2e1f 00              ??         00h
       CODE:2e20 00              ??         00h
       CODE:2e21 00              ??         00h
       CODE:2e22 00              ??         00h
       CODE:2e23 00              ??         00h
       CODE:2e24 00              ??         00h
       CODE:2e25 00              ??         00h
       CODE:2e26 00              ??         00h
       CODE:2e27 00              ??         00h
       CODE:2e28 00              ??         00h
       CODE:2e29 00              ??         00h
       CODE:2e2a 00              ??         00h
       CODE:2e2b 00              ??         00h
       CODE:2e2c 00              ??         00h
       CODE:2e2d 00              ??         00h
       CODE:2e2e 00              ??         00h
       CODE:2e2f 00              ??         00h
       CODE:2e30 00              ??         00h
       CODE:2e31 00              ??         00h
       CODE:2e32 00              ??         00h
       CODE:2e33 00              ??         00h
       CODE:2e34 00              ??         00h
       CODE:2e35 00              ??         00h
       CODE:2e36 00              ??         00h
       CODE:2e37 00              ??         00h
       CODE:2e38 00              ??         00h
       CODE:2e39 00              ??         00h
       CODE:2e3a 00              ??         00h
       CODE:2e3b 00              ??         00h
       CODE:2e3c 00              ??         00h
       CODE:2e3d 00              ??         00h
       CODE:2e3e 00              ??         00h
       CODE:2e3f 00              ??         00h
       CODE:2e40 00              ??         00h
       CODE:2e41 00              ??         00h
       CODE:2e42 00              ??         00h
       CODE:2e43 00              ??         00h
       CODE:2e44 00              ??         00h
       CODE:2e45 00              ??         00h
       CODE:2e46 00              ??         00h
       CODE:2e47 00              ??         00h
       CODE:2e48 00              ??         00h
       CODE:2e49 00              ??         00h
       CODE:2e4a 00              ??         00h
       CODE:2e4b 00              ??         00h
       CODE:2e4c 00              ??         00h
       CODE:2e4d 00              ??         00h
       CODE:2e4e 00              ??         00h
       CODE:2e4f 00              ??         00h
       CODE:2e50 00              ??         00h
       CODE:2e51 00              ??         00h
       CODE:2e52 00              ??         00h
       CODE:2e53 00              ??         00h
       CODE:2e54 00              ??         00h
       CODE:2e55 00              ??         00h
       CODE:2e56 00              ??         00h
       CODE:2e57 00              ??         00h
       CODE:2e58 00              ??         00h
       CODE:2e59 00              ??         00h
       CODE:2e5a 00              ??         00h
       CODE:2e5b 00              ??         00h
       CODE:2e5c 00              ??         00h
       CODE:2e5d 00              ??         00h
       CODE:2e5e 00              ??         00h
       CODE:2e5f 00              ??         00h
       CODE:2e60 00              ??         00h
       CODE:2e61 00              ??         00h
       CODE:2e62 00              ??         00h
       CODE:2e63 00              ??         00h
       CODE:2e64 00              ??         00h
       CODE:2e65 00              ??         00h
       CODE:2e66 00              ??         00h
       CODE:2e67 00              ??         00h
       CODE:2e68 00              ??         00h
       CODE:2e69 00              ??         00h
       CODE:2e6a 00              ??         00h
       CODE:2e6b 00              ??         00h
       CODE:2e6c 00              ??         00h
       CODE:2e6d 00              ??         00h
       CODE:2e6e 00              ??         00h
       CODE:2e6f 00              ??         00h
       CODE:2e70 00              ??         00h
       CODE:2e71 00              ??         00h
       CODE:2e72 00              ??         00h
       CODE:2e73 00              ??         00h
       CODE:2e74 00              ??         00h
       CODE:2e75 00              ??         00h
       CODE:2e76 00              ??         00h
       CODE:2e77 00              ??         00h
       CODE:2e78 00              ??         00h
       CODE:2e79 00              ??         00h
       CODE:2e7a 00              ??         00h
       CODE:2e7b 00              ??         00h
       CODE:2e7c 00              ??         00h
       CODE:2e7d 00              ??         00h
       CODE:2e7e 00              ??         00h
       CODE:2e7f 00              ??         00h
       CODE:2e80 00              ??         00h
       CODE:2e81 00              ??         00h
       CODE:2e82 00              ??         00h
       CODE:2e83 00              ??         00h
       CODE:2e84 00              ??         00h
       CODE:2e85 00              ??         00h
       CODE:2e86 00              ??         00h
       CODE:2e87 00              ??         00h
       CODE:2e88 00              ??         00h
       CODE:2e89 00              ??         00h
       CODE:2e8a 00              ??         00h
       CODE:2e8b 00              ??         00h
       CODE:2e8c 00              ??         00h
       CODE:2e8d 00              ??         00h
       CODE:2e8e 00              ??         00h
       CODE:2e8f 00              ??         00h
       CODE:2e90 00              ??         00h
       CODE:2e91 00              ??         00h
       CODE:2e92 00              ??         00h
       CODE:2e93 00              ??         00h
       CODE:2e94 00              ??         00h
       CODE:2e95 00              ??         00h
       CODE:2e96 00              ??         00h
       CODE:2e97 00              ??         00h
       CODE:2e98 00              ??         00h
       CODE:2e99 00              ??         00h
       CODE:2e9a 00              ??         00h
       CODE:2e9b 00              ??         00h
       CODE:2e9c 00              ??         00h
       CODE:2e9d 00              ??         00h
       CODE:2e9e 00              ??         00h
       CODE:2e9f 00              ??         00h
       CODE:2ea0 00              ??         00h
       CODE:2ea1 00              ??         00h
       CODE:2ea2 00              ??         00h
       CODE:2ea3 00              ??         00h
       CODE:2ea4 00              ??         00h
       CODE:2ea5 00              ??         00h
       CODE:2ea6 00              ??         00h
       CODE:2ea7 00              ??         00h
       CODE:2ea8 00              ??         00h
       CODE:2ea9 00              ??         00h
       CODE:2eaa 00              ??         00h
       CODE:2eab 00              ??         00h
       CODE:2eac 00              ??         00h
       CODE:2ead 00              ??         00h
       CODE:2eae 00              ??         00h
       CODE:2eaf 00              ??         00h
       CODE:2eb0 00              ??         00h
       CODE:2eb1 00              ??         00h
       CODE:2eb2 00              ??         00h
       CODE:2eb3 00              ??         00h
       CODE:2eb4 00              ??         00h
       CODE:2eb5 00              ??         00h
       CODE:2eb6 00              ??         00h
       CODE:2eb7 00              ??         00h
       CODE:2eb8 00              ??         00h
       CODE:2eb9 00              ??         00h
       CODE:2eba 00              ??         00h
       CODE:2ebb 00              ??         00h
       CODE:2ebc 00              ??         00h
       CODE:2ebd 00              ??         00h
       CODE:2ebe 00              ??         00h
       CODE:2ebf 00              ??         00h
       CODE:2ec0 00              ??         00h
       CODE:2ec1 00              ??         00h
       CODE:2ec2 00              ??         00h
       CODE:2ec3 00              ??         00h
       CODE:2ec4 00              ??         00h
       CODE:2ec5 00              ??         00h
       CODE:2ec6 00              ??         00h
       CODE:2ec7 00              ??         00h
       CODE:2ec8 00              ??         00h
       CODE:2ec9 00              ??         00h
       CODE:2eca 00              ??         00h
       CODE:2ecb 00              ??         00h
       CODE:2ecc 00              ??         00h
       CODE:2ecd 00              ??         00h
       CODE:2ece 00              ??         00h
       CODE:2ecf 00              ??         00h
       CODE:2ed0 00              ??         00h
       CODE:2ed1 00              ??         00h
       CODE:2ed2 00              ??         00h
       CODE:2ed3 00              ??         00h
       CODE:2ed4 00              ??         00h
       CODE:2ed5 00              ??         00h
       CODE:2ed6 00              ??         00h
       CODE:2ed7 00              ??         00h
       CODE:2ed8 00              ??         00h
       CODE:2ed9 00              ??         00h
       CODE:2eda 00              ??         00h
       CODE:2edb 00              ??         00h
       CODE:2edc 00              ??         00h
       CODE:2edd 00              ??         00h
       CODE:2ede 00              ??         00h
       CODE:2edf 00              ??         00h
       CODE:2ee0 00              ??         00h
       CODE:2ee1 00              ??         00h
       CODE:2ee2 00              ??         00h
       CODE:2ee3 00              ??         00h
       CODE:2ee4 00              ??         00h
       CODE:2ee5 00              ??         00h
       CODE:2ee6 00              ??         00h
       CODE:2ee7 00              ??         00h
       CODE:2ee8 00              ??         00h
       CODE:2ee9 00              ??         00h
       CODE:2eea 00              ??         00h
       CODE:2eeb 00              ??         00h
       CODE:2eec 00              ??         00h
       CODE:2eed 00              ??         00h
       CODE:2eee 00              ??         00h
       CODE:2eef 00              ??         00h
       CODE:2ef0 00              ??         00h
       CODE:2ef1 00              ??         00h
       CODE:2ef2 00              ??         00h
       CODE:2ef3 00              ??         00h
       CODE:2ef4 00              ??         00h
       CODE:2ef5 00              ??         00h
       CODE:2ef6 00              ??         00h
       CODE:2ef7 00              ??         00h
       CODE:2ef8 00              ??         00h
       CODE:2ef9 00              ??         00h
       CODE:2efa 00              ??         00h
       CODE:2efb 00              ??         00h
       CODE:2efc 00              ??         00h
       CODE:2efd 00              ??         00h
       CODE:2efe 00              ??         00h
       CODE:2eff 00              ??         00h
       CODE:2f00 00              ??         00h
       CODE:2f01 00              ??         00h
       CODE:2f02 00              ??         00h
       CODE:2f03 00              ??         00h
       CODE:2f04 00              ??         00h
       CODE:2f05 00              ??         00h
       CODE:2f06 00              ??         00h
       CODE:2f07 00              ??         00h
       CODE:2f08 00              ??         00h
       CODE:2f09 00              ??         00h
       CODE:2f0a 00              ??         00h
       CODE:2f0b 00              ??         00h
       CODE:2f0c 00              ??         00h
       CODE:2f0d 00              ??         00h
       CODE:2f0e 00              ??         00h
       CODE:2f0f 00              ??         00h
       CODE:2f10 00              ??         00h
       CODE:2f11 00              ??         00h
       CODE:2f12 00              ??         00h
       CODE:2f13 00              ??         00h
       CODE:2f14 00              ??         00h
       CODE:2f15 00              ??         00h
       CODE:2f16 00              ??         00h
       CODE:2f17 00              ??         00h
       CODE:2f18 00              ??         00h
       CODE:2f19 00              ??         00h
       CODE:2f1a 00              ??         00h
       CODE:2f1b 00              ??         00h
       CODE:2f1c 00              ??         00h
       CODE:2f1d 00              ??         00h
       CODE:2f1e 00              ??         00h
       CODE:2f1f 00              ??         00h
       CODE:2f20 00              ??         00h
       CODE:2f21 00              ??         00h
       CODE:2f22 00              ??         00h
       CODE:2f23 00              ??         00h
       CODE:2f24 00              ??         00h
       CODE:2f25 00              ??         00h
       CODE:2f26 00              ??         00h
       CODE:2f27 00              ??         00h
       CODE:2f28 00              ??         00h
       CODE:2f29 00              ??         00h
       CODE:2f2a 00              ??         00h
       CODE:2f2b 00              ??         00h
       CODE:2f2c 00              ??         00h
       CODE:2f2d 00              ??         00h
       CODE:2f2e 00              ??         00h
       CODE:2f2f 00              ??         00h
       CODE:2f30 00              ??         00h
       CODE:2f31 00              ??         00h
       CODE:2f32 00              ??         00h
       CODE:2f33 00              ??         00h
       CODE:2f34 00              ??         00h
       CODE:2f35 00              ??         00h
       CODE:2f36 00              ??         00h
       CODE:2f37 00              ??         00h
       CODE:2f38 00              ??         00h
       CODE:2f39 00              ??         00h
       CODE:2f3a 00              ??         00h
       CODE:2f3b 00              ??         00h
       CODE:2f3c 00              ??         00h
       CODE:2f3d 00              ??         00h
       CODE:2f3e 00              ??         00h
       CODE:2f3f 00              ??         00h
       CODE:2f40 00              ??         00h
       CODE:2f41 00              ??         00h
       CODE:2f42 00              ??         00h
       CODE:2f43 00              ??         00h
       CODE:2f44 00              ??         00h
       CODE:2f45 00              ??         00h
       CODE:2f46 00              ??         00h
       CODE:2f47 00              ??         00h
       CODE:2f48 00              ??         00h
       CODE:2f49 00              ??         00h
       CODE:2f4a 00              ??         00h
       CODE:2f4b 00              ??         00h
       CODE:2f4c 00              ??         00h
       CODE:2f4d 00              ??         00h
       CODE:2f4e 00              ??         00h
       CODE:2f4f 00              ??         00h
       CODE:2f50 00              ??         00h
       CODE:2f51 00              ??         00h
       CODE:2f52 00              ??         00h
       CODE:2f53 00              ??         00h
       CODE:2f54 00              ??         00h
       CODE:2f55 00              ??         00h
       CODE:2f56 00              ??         00h
       CODE:2f57 00              ??         00h
       CODE:2f58 00              ??         00h
       CODE:2f59 00              ??         00h
       CODE:2f5a 00              ??         00h
       CODE:2f5b 00              ??         00h
       CODE:2f5c 00              ??         00h
       CODE:2f5d 00              ??         00h
       CODE:2f5e 00              ??         00h
       CODE:2f5f 00              ??         00h
       CODE:2f60 00              ??         00h
       CODE:2f61 00              ??         00h
       CODE:2f62 00              ??         00h
       CODE:2f63 00              ??         00h
       CODE:2f64 00              ??         00h
       CODE:2f65 00              ??         00h
       CODE:2f66 00              ??         00h
       CODE:2f67 00              ??         00h
       CODE:2f68 00              ??         00h
       CODE:2f69 00              ??         00h
       CODE:2f6a 00              ??         00h
       CODE:2f6b 00              ??         00h
       CODE:2f6c 00              ??         00h
       CODE:2f6d 00              ??         00h
       CODE:2f6e 00              ??         00h
       CODE:2f6f 00              ??         00h
       CODE:2f70 00              ??         00h
       CODE:2f71 00              ??         00h
       CODE:2f72 00              ??         00h
       CODE:2f73 00              ??         00h
       CODE:2f74 00              ??         00h
       CODE:2f75 00              ??         00h
       CODE:2f76 00              ??         00h
       CODE:2f77 00              ??         00h
       CODE:2f78 00              ??         00h
       CODE:2f79 00              ??         00h
       CODE:2f7a 00              ??         00h
       CODE:2f7b 00              ??         00h
       CODE:2f7c 00              ??         00h
       CODE:2f7d 00              ??         00h
       CODE:2f7e 00              ??         00h
       CODE:2f7f 00              ??         00h
       CODE:2f80 00              ??         00h
       CODE:2f81 00              ??         00h
       CODE:2f82 00              ??         00h
       CODE:2f83 00              ??         00h
       CODE:2f84 00              ??         00h
       CODE:2f85 00              ??         00h
       CODE:2f86 00              ??         00h
       CODE:2f87 00              ??         00h
       CODE:2f88 00              ??         00h
       CODE:2f89 00              ??         00h
       CODE:2f8a 00              ??         00h
       CODE:2f8b 00              ??         00h
       CODE:2f8c 00              ??         00h
       CODE:2f8d 00              ??         00h
       CODE:2f8e 00              ??         00h
       CODE:2f8f 00              ??         00h
       CODE:2f90 00              ??         00h
       CODE:2f91 00              ??         00h
       CODE:2f92 00              ??         00h
       CODE:2f93 00              ??         00h
       CODE:2f94 00              ??         00h
       CODE:2f95 00              ??         00h
       CODE:2f96 00              ??         00h
       CODE:2f97 00              ??         00h
       CODE:2f98 00              ??         00h
       CODE:2f99 00              ??         00h
       CODE:2f9a 00              ??         00h
       CODE:2f9b 00              ??         00h
       CODE:2f9c 00              ??         00h
       CODE:2f9d 00              ??         00h
       CODE:2f9e 00              ??         00h
       CODE:2f9f 00              ??         00h
       CODE:2fa0 00              ??         00h
       CODE:2fa1 00              ??         00h
       CODE:2fa2 00              ??         00h
       CODE:2fa3 00              ??         00h
       CODE:2fa4 00              ??         00h
       CODE:2fa5 00              ??         00h
       CODE:2fa6 00              ??         00h
       CODE:2fa7 00              ??         00h
       CODE:2fa8 00              ??         00h
       CODE:2fa9 00              ??         00h
       CODE:2faa 00              ??         00h
       CODE:2fab 00              ??         00h
       CODE:2fac 00              ??         00h
       CODE:2fad 00              ??         00h
       CODE:2fae 00              ??         00h
       CODE:2faf 00              ??         00h
       CODE:2fb0 00              ??         00h
       CODE:2fb1 00              ??         00h
       CODE:2fb2 00              ??         00h
       CODE:2fb3 00              ??         00h
       CODE:2fb4 00              ??         00h
       CODE:2fb5 00              ??         00h
       CODE:2fb6 00              ??         00h
       CODE:2fb7 00              ??         00h
       CODE:2fb8 00              ??         00h
       CODE:2fb9 00              ??         00h
       CODE:2fba 00              ??         00h
       CODE:2fbb 00              ??         00h
       CODE:2fbc 00              ??         00h
       CODE:2fbd 00              ??         00h
       CODE:2fbe 00              ??         00h
       CODE:2fbf 00              ??         00h
       CODE:2fc0 00              ??         00h
       CODE:2fc1 00              ??         00h
       CODE:2fc2 00              ??         00h
       CODE:2fc3 00              ??         00h
       CODE:2fc4 00              ??         00h
       CODE:2fc5 00              ??         00h
       CODE:2fc6 00              ??         00h
       CODE:2fc7 00              ??         00h
       CODE:2fc8 00              ??         00h
       CODE:2fc9 00              ??         00h
       CODE:2fca 00              ??         00h
       CODE:2fcb 00              ??         00h
       CODE:2fcc 00              ??         00h
       CODE:2fcd 00              ??         00h
       CODE:2fce 00              ??         00h
       CODE:2fcf 00              ??         00h
       CODE:2fd0 00              ??         00h
       CODE:2fd1 00              ??         00h
       CODE:2fd2 00              ??         00h
       CODE:2fd3 00              ??         00h
       CODE:2fd4 00              ??         00h
       CODE:2fd5 00              ??         00h
       CODE:2fd6 00              ??         00h
       CODE:2fd7 00              ??         00h
       CODE:2fd8 00              ??         00h
       CODE:2fd9 00              ??         00h
       CODE:2fda 00              ??         00h
       CODE:2fdb 00              ??         00h
       CODE:2fdc 00              ??         00h
       CODE:2fdd 00              ??         00h
       CODE:2fde 00              ??         00h
       CODE:2fdf 00              ??         00h
       CODE:2fe0 00              ??         00h
       CODE:2fe1 00              ??         00h
       CODE:2fe2 00              ??         00h
       CODE:2fe3 00              ??         00h
       CODE:2fe4 00              ??         00h
       CODE:2fe5 00              ??         00h
       CODE:2fe6 00              ??         00h
       CODE:2fe7 00              ??         00h
       CODE:2fe8 00              ??         00h
       CODE:2fe9 00              ??         00h
       CODE:2fea 00              ??         00h
       CODE:2feb 00              ??         00h
       CODE:2fec 00              ??         00h
       CODE:2fed 00              ??         00h
       CODE:2fee 00              ??         00h
       CODE:2fef 00              ??         00h
       CODE:2ff0 00              ??         00h
       CODE:2ff1 00              ??         00h
       CODE:2ff2 00              ??         00h
       CODE:2ff3 00              ??         00h
       CODE:2ff4 00              ??         00h
       CODE:2ff5 00              ??         00h
       CODE:2ff6 00              ??         00h
       CODE:2ff7 00              ??         00h
       CODE:2ff8 e1              ??         E1h
       CODE:2ff9 56              ??         56h    V
       CODE:2ffa 21              ??         21h    !
       CODE:2ffb 3a              ??         3Ah    :
       CODE:2ffc 00              ??         00h
       CODE:2ffd 00              ??         00h
       CODE:2ffe 00              ??         00h
       CODE:2fff 00              ??         00h
                             //
                             // REG_BANK_1 
                             // INTMEM:00-INTMEM:07
                             //
                             BANK0_R0
       INTMEM:00                 ??         ??
                             BANK0_R1
       INTMEM:01                 ??         ??
                             BANK0_R2
       INTMEM:02                 ??         ??
                             BANK0_R3
       INTMEM:03                 ??         ??
                             BANK0_R4
       INTMEM:04                 ??         ??
                             BANK0_R5
       INTMEM:05                 ??         ??
                             BANK0_R6
       INTMEM:06                 ??         ??
                             BANK0_R7
       INTMEM:07                 ??         ??
                             //
                             // REG_BANK_2 
                             // INTMEM:08-INTMEM:0f
                             //
                             BANK1_R0
       INTMEM:08                 ??         ??
                             BANK1_R1
       INTMEM:09                 ??         ??
                             BANK1_R2
       INTMEM:0a                 ??         ??
                             BANK1_R3
       INTMEM:0b                 ??         ??
                             BANK1_R4
       INTMEM:0c                 ??         ??
                             BANK1_R5
       INTMEM:0d                 ??         ??
                             BANK1_R6
       INTMEM:0e                 ??         ??
                             BANK1_R7
       INTMEM:0f                 ??         ??
                             //
                             // REG_BANK_3 
                             // INTMEM:10-INTMEM:17
                             //
                             BANK2_R0                                        XREF[10]:    FUN_CODE_0163:0172(R), 
                                                                                          CODE:01ac(W), CODE:01b1(W), 
                                                                                          CODE:01b6(W), CODE:01cd(W), 
                                                                                          CODE:020a(W), CODE:0218(W), 
                                                                                          CODE:023b(W), CODE:0273(W), 
                                                                                          i2c_send_message_common:2650(W)  
       INTMEM:10                 undefined1 ??
                             BANK2_R1                                        XREF[7]:     CODE:01c5(R), 
                                                                                          FUN_CODE_268e:2690(W), 
                                                                                          FUN_CODE_26d6:26d8(W), 
                                                                                          FUN_CODE_26f9:26fb(W), 
                                                                                          FUN_CODE_272c:272e(W), 
                                                                                          FUN_CODE_2755:2785(W), 
                                                                                          CODE:28b5(W)  
       INTMEM:11                 undefined1 ??
                             BANK2_R2                                        XREF[9]:     CODE:01da(R), CODE:01de(RW), 
                                                                                          CODE:01e5(R), 
                                                                                          FUN_CODE_268e:2693(W), 
                                                                                          FUN_CODE_26d6:26db(W), 
                                                                                          FUN_CODE_26f9:270a(W), 
                                                                                          FUN_CODE_272c:2731(W), 
                                                                                          FUN_CODE_2755:2788(W), 
                                                                                          CODE:289c(W)  
       INTMEM:12                 undefined1 ??
                             BANK2_R3                                        XREF[5]:     CODE:026b(R), 
                                                                                          FUN_CODE_26d6:26e2(W), 
                                                                                          FUN_CODE_272c:2738(W), 
                                                                                          FUN_CODE_2755:2792(W), 
                                                                                          CODE:28cb(W)  
       INTMEM:13                 undefined1 ??
                             BANK2_R4                                        XREF[8]:     CODE:0283(R), CODE:0290(RW), 
                                                                                          CODE:02a1(R), 
                                                                                          FUN_CODE_26d6:26e5(W), 
                                                                                          FUN_CODE_272c:2743(W), 
                                                                                          FUN_CODE_2755:2795(W), 
                                                                                          CODE:28a1(W), CODE:28a3(RW)  
       INTMEM:14                 undefined1 ??
                             BANK2_R5                                        XREF[17]:    CODE:0233(R), 
                                                                                          FUN_CODE_268e:26ac(W), 
                                                                                          FUN_CODE_26d6:26f0(W), 
                                                                                          FUN_CODE_272c:274a(W), 
                                                                                          FUN_CODE_2755:2758(R), 
                                                                                          FUN_CODE_2755:2761(R), 
                                                                                          FUN_CODE_2755:278b(W), 
                                                                                          FUN_CODE_279d:27c3(R), 
                                                                                          FUN_CODE_279d:27df(R), 
                                                                                          FUN_CODE_2836:283b(W), 
                                                                                          FUN_CODE_2836:2843(W), 
                                                                                          FUN_CODE_2836:2848(W), 
                                                                                          FUN_CODE_2850:2850(R), 
                                                                                          CODE:288a(W), CODE:28c0(W), 
                                                                                          FUN_CODE_29f2:29f2(W), 
                                                                                          FUN_CODE_29f2:2a06(RW)  
       INTMEM:15                 undefined1 ??
                             BANK2_R6                                        XREF[7]:     CODE:0248(R), CODE:024f(RW), 
                                                                                          FUN_CODE_268e:26b3(W), 
                                                                                          FUN_CODE_279d:27c1(R), 
                                                                                          FUN_CODE_279d:27e2(R), 
                                                                                          CODE:28a7(W), CODE:28a9(RW)  
       INTMEM:16                 undefined1 ??
                             BANK2_R7                                        XREF[9]:     FUN_CODE_268e:26ba(W), 
                                                                                          FUN_CODE_279d:279f(R), 
                                                                                          FUN_CODE_279d:27bb(R), 
                                                                                          CODE:27ec(R), CODE:2808(R), 
                                                                                          FUN_CODE_2813:2815(R), 
                                                                                          FUN_CODE_2813:282b(R), 
                                                                                          FUN_CODE_285d:2867(R), 
                                                                                          FUN_CODE_285d:287d(R)  
       INTMEM:17                 undefined1 ??
                             //
                             // REG_BANK_4 
                             // INTMEM:18-INTMEM:1f
                             //
                             BANK3_R0                                        XREF[10]:    FUN_CODE_268e:26c4(W), 
                                                                                          FUN_CODE_268e:26cd(W), 
                                                                                          FUN_CODE_279d:279d(R), 
                                                                                          FUN_CODE_279d:27be(R), 
                                                                                          CODE:27ea(R), CODE:280b(R), 
                                                                                          FUN_CODE_2813:2813(R), 
                                                                                          FUN_CODE_2813:282e(R), 
                                                                                          FUN_CODE_285d:2862(R), 
                                                                                          FUN_CODE_285d:2878(R)  
       INTMEM:18                 undefined1 ??
                             BANK3_R1                                        XREF[1]:     FUN_CODE_268e:26a4(W)  
       INTMEM:19                 ??         ??
                             BANK3_R2                                        XREF[2]:     FUN_CODE_268e:26a2(W), 
                                                                                          FUN_CODE_268e:26bc(R)  
       INTMEM:1a                 undefined1 ??
                             BANK3_R3                                        XREF[16]:    CODE:01a3(W), CODE:01c0(R), 
                                                                                          CODE:01ca(W), CODE:01d5(R), 
                                                                                          CODE:01f1(W), CODE:0204(W), 
                                                                                          CODE:021d(R), CODE:022e(R), 
                                                                                          CODE:0238(W), CODE:0243(R), 
                                                                                          CODE:0253(W), CODE:0266(R), 
                                                                                          CODE:0270(W), CODE:027b(R), 
                                                                                          CODE:028d(W), CODE:0295(W)  
       INTMEM:1b                 undefined1 ??
                             BANK3_R4                                        XREF[6]:     FUN_CODE_0648:065e(W), 
                                                                                          FUN_CODE_0648:0666(RW), 
                                                                                          FUN_CODE_0648:0682(W), 
                                                                                          FUN_CODE_0648:068d(RW), 
                                                                                          FUN_CODE_0648:0699(RW), 
                                                                                          FUN_CODE_0648:06a2(W)  
       INTMEM:1c                 ??         ??
                             BANK3_R5                                        XREF[6]:     FUN_CODE_0648:06b6(W), 
                                                                                          FUN_CODE_0648:06be(RW), 
                                                                                          FUN_CODE_0648:06da(W), 
                                                                                          FUN_CODE_0648:06e5(RW), 
                                                                                          FUN_CODE_0648:06f1(RW), 
                                                                                          FUN_CODE_0648:06fa(W)  
       INTMEM:1d                 ??         ??
                             BANK3_R6                                        XREF[6]:     FUN_CODE_0648:070e(W), 
                                                                                          FUN_CODE_0648:0716(RW), 
                                                                                          FUN_CODE_0648:0732(W), 
                                                                                          FUN_CODE_0648:073d(RW), 
                                                                                          FUN_CODE_0648:0749(RW), 
                                                                                          FUN_CODE_0648:0752(W)  
       INTMEM:1e                 ??         ??
                             BANK3_R7                                        XREF[6]:     FUN_CODE_0648:0648(R), 
                                                                                          FUN_CODE_0648:069c(W), 
                                                                                          FUN_CODE_0648:06f4(W), 
                                                                                          FUN_CODE_0648:074c(W), 
                                                                                          FUN_CODE_2383:23aa(W), 
                                                                                          FUN_CODE_2cb4:2cb4(R)  
       INTMEM:1f                 undefined1 ??
                             //
                             // INTMEM 
                             // INTMEM:20-INTMEM:ff
                             //
       INTMEM:20                 ??         ??
       INTMEM:21                 ??         ??
       INTMEM:22                 ??         ??
       INTMEM:23                 ??         ??
       INTMEM:24                 ??         ??
       INTMEM:25                 ??         ??
       INTMEM:26                 ??         ??
       INTMEM:27                 ??         ??
       INTMEM:28                 ??         ??
       INTMEM:29                 ??         ??
       INTMEM:2a                 ??         ??
       INTMEM:2b                 ??         ??
       INTMEM:2c                 ??         ??
       INTMEM:2d                 ??         ??
       INTMEM:2e                 ??         ??
                             DAT_INTMEM_2f                                   XREF[11]:    FUN_CODE_07ea:0807(W), 
                                                                                          FUN_CODE_080d:0835(R), 
                                                                                          FUN_CODE_080d:083b(W), 
                                                                                          ipc_handle_messages:0944(R), 
                                                                                          ipc_handle_messages:096d(R), 
                                                                                          FUN_CODE_0d43:0e04(R), 
                                                                                          CODE:1313(R), CODE:1345(R), 
                                                                                          CODE:1353(W), CODE:1467(R), 
                                                                                          FUN_CODE_1bbe:1bcc(R)  
       INTMEM:2f                 undefined1 ??
                             DAT_INTMEM_30                                   XREF[3]:     ipc_handle_messages:08fb(R), 
                                                                                          ipc_handle_messages:0bd0(W), 
                                                                                          FUN_CODE_2cb7:2cc0(R)  
       INTMEM:30                 undefined1 ??
                             DAT_INTMEM_31                                   XREF[3]:     ipc_handle_messages:08f6(R), 
                                                                                          ipc_handle_messages:0bd2(W), 
                                                                                          FUN_CODE_2cb7:2cc8(R)  
       INTMEM:31                 undefined1 ??
                             DAT_INTMEM_32                                   XREF[3]:     ipc_handle_messages:08f1(R), 
                                                                                          ipc_handle_messages:0bd4(W), 
                                                                                          FUN_CODE_2cb7:2cd0(R)  
       INTMEM:32                 undefined1 ??
                             DAT_INTMEM_33                                   XREF[3]:     ipc_handle_messages:08ec(R), 
                                                                                          ipc_handle_messages:0bd6(W), 
                                                                                          FUN_CODE_2cb7:2cd8(R)  
       INTMEM:33                 undefined1 ??
                             DAT_INTMEM_34                                   XREF[8]:     CODE:0347(RW), 
                                                                                          FUN_CODE_0775:078e(RW), 
                                                                                          FUN_CODE_0775:0793(RW), 
                                                                                          CODE:0fdb(RW), CODE:17df(R), 
                                                                                          CODE:17ea(RW), CODE:182f(R), 
                                                                                          CODE:19d4(RW)  
       INTMEM:34                 undefined1 ??
                             DAT_INTMEM_35                                   XREF[19]:    CODE:20ca(W), CODE:2101(W), 
                                                                                          CODE:211c(RW), CODE:2129(W), 
                                                                                          CODE:2131(RW), CODE:213f(W), 
                                                                                          CODE:2147(W), CODE:217a(RW), 
                                                                                          CODE:217f(RW), CODE:2185(W), 
                                                                                          CODE:218a(RW), CODE:218d(W), 
                                                                                          CODE:219f(RW), CODE:21a2(W), 
                                                                                          CODE:21a8(W), CODE:21c6(RW), 
                                                                                          CODE:21ce(W), CODE:2200(RW), 
                                                                                          FUN_CODE_221b:221e(W)  
       INTMEM:35                 ??         ??
                             DAT_INTMEM_36                                   XREF[23]:    ipc_handle_messages:0939(R), 
                                                                                          ipc_handle_messages:0c25(R), 
                                                                                          FUN_CODE_0d43:0e9c(R), 
                                                                                          CODE:0edc(R), CODE:1f9a(R), 
                                                                                          CODE:20c5(R), CODE:20db(R), 
                                                                                          CODE:20e3(R), CODE:20e8(W), 
                                                                                          CODE:20fa(R), CODE:210c(W), 
                                                                                          CODE:2114(W), CODE:2124(W), 
                                                                                          CODE:213c(W), CODE:2144(W), 
                                                                                          CODE:2190(R), CODE:21ab(R), 
                                                                                          CODE:21bc(W), CODE:21e0(W), 
                                                                                          FUN_CODE_221b:2226(R), [more]
       INTMEM:36                 undefined1 ??
                             DAT_INTMEM_37                                   XREF[28]:    ipc_handle_messages:0c33(W), 
                                                                                          ipc_handle_messages:0c43(W), 
                                                                                          CODE:1df4(W), CODE:1e27(W), 
                                                                                          CODE:1e2f(W), CODE:1ebc(R), 
                                                                                          CODE:1ebe(W), CODE:1ec4(W), 
                                                                                          CODE:1ecf(W), CODE:1ed6(R), 
                                                                                          CODE:1ed8(W), CODE:1ede(W), 
                                                                                          CODE:1ee9(W), CODE:1fa6(R), 
                                                                                          CODE:1fa8(W), CODE:1fae(W), 
                                                                                          CODE:1fb9(W), CODE:1fc9(W), 
                                                                                          CODE:20d3(R), CODE:20ee(W), [more]
       INTMEM:37                 undefined1 ??
                             DAT_INTMEM_38                                   XREF[2]:     CODE:13f2(W), CODE:13f7(RW)  
       INTMEM:38                 ??         ??
                             DAT_INTMEM_39                                   XREF[2]:     FUN_CODE_0775:077e(W), 
                                                                                          CODE:13df(R)  
       INTMEM:39                 undefined1 ??
                             DAT_INTMEM_3a                                   XREF[3]:     CODE:13d1(R), CODE:1e9d(W), 
                                                                                          CODE:1eff(W)  
       INTMEM:3a                 undefined1 ??
                             DAT_INTMEM_3b                                   XREF[6]:     CODE:13c3(R), CODE:1def(W), 
                                                                                          CODE:1e9a(W), CODE:1f37(W), 
                                                                                          CODE:1f4a(W), CODE:2004(W)  
       INTMEM:3b                 undefined1 ??
                             DAT_INTMEM_3c                                   XREF[6]:     FUN_CODE_080d:082b(W), 
                                                                                          CODE:13c5(R), CODE:13d3(R), 
                                                                                          CODE:13e1(R), CODE:13ed(R), 
                                                                                          CODE:13f0(W)  
       INTMEM:3c                 undefined1 ??
                             DAT_INTMEM_3d                                   XREF[28]:    ipc_handle_messages:0b4d(W), 
                                                                                          ipc_handle_messages:0b57(W), 
                                                                                          CODE:0f42(W), CODE:0f5e(RW), 
                                                                                          CODE:0f64(W), CODE:0f86(W), 
                                                                                          CODE:0f8b(RW), CODE:0f90(W), 
                                                                                          CODE:0f96(RW), CODE:0fde(W), 
                                                                                          CODE:0fe8(RW), CODE:102d(W), 
                                                                                          CODE:1037(RW), CODE:11fa(W), 
                                                                                          CODE:1204(RW), CODE:1216(W), 
                                                                                          CODE:125d(RW), CODE:1274(W), 
                                                                                          CODE:127f(RW), CODE:1282(W), 
                                                                                          [more]
       INTMEM:3d                 undefined1 ??
                             g_num_boot_tries                                XREF[6]:     ipc_handle_messages:08b3(R), 
                                                                                          CODE:12a3(RW), CODE:12a5(R), 
                                                                                          CODE:1efc(R), CODE:1f45(W), 
                                                                                          CODE:1ffe(W)  
       INTMEM:3e                 undefined1 ??
                             DAT_INTMEM_3f                                   XREF[3]:     ipc_handle_messages:0906(R), 
                                                                                          CODE:27f5(R), CODE:280b(W)  
       INTMEM:3f                 undefined1 ??
                             DAT_INTMEM_40                                   XREF[5]:     ipc_handle_messages:090b(R), 
                                                                                          FUN_CODE_14ba:14d2(R), 
                                                                                          FUN_CODE_14ba:14ed(R), 
                                                                                          CODE:27f2(R), CODE:2808(W)  
       INTMEM:40                 undefined1 ??
                             DAT_INTMEM_41                                   XREF[3]:     ipc_handle_messages:0910(R), 
                                                                                          FUN_CODE_279d:27cc(R), 
                                                                                          FUN_CODE_279d:27e2(W)  
       INTMEM:41                 undefined1 ??
                             DAT_INTMEM_42                                   XREF[5]:     ipc_handle_messages:0915(R), 
                                                                                          FUN_CODE_14ba:14d8(R), 
                                                                                          FUN_CODE_14ba:14f8(R), 
                                                                                          FUN_CODE_279d:27c9(R), 
                                                                                          FUN_CODE_279d:27df(W)  
       INTMEM:42                 undefined1 ??
                             DAT_INTMEM_43                                   XREF[4]:     CODE:0332(RW), 
                                                                                          ipc_handle_messages:091a(R), 
                                                                                          FUN_CODE_279d:27a8(R), 
                                                                                          FUN_CODE_279d:27be(W)  
       INTMEM:43                 undefined1 ??
                             DAT_INTMEM_44                                   XREF[5]:     ipc_handle_messages:091f(R), 
                                                                                          FUN_CODE_14ba:14de(R), 
                                                                                          FUN_CODE_14ba:1503(R), 
                                                                                          FUN_CODE_279d:27a5(R), 
                                                                                          FUN_CODE_279d:27bb(W)  
       INTMEM:44                 undefined1 ??
                             DAT_INTMEM_45                                   XREF[3]:     ipc_handle_messages:0924(R), 
                                                                                          FUN_CODE_15b5:15df(R), 
                                                                                          FUN_CODE_2813:282e(W)  
       INTMEM:45                 undefined1 ??
                             DAT_INTMEM_46                                   XREF[4]:     FUN_CODE_080d:0828(W), 
                                                                                          ipc_handle_messages:0929(R), 
                                                                                          FUN_CODE_15b5:15b5(R), 
                                                                                          FUN_CODE_2813:282b(W)  
       INTMEM:46                 undefined1 ??
                             DAT_INTMEM_47                                   XREF[1]:     CODE:27f5(W)  
       INTMEM:47                 ??         ??
                             DAT_INTMEM_48                                   XREF[2]:     FUN_CODE_14ba:1523(R), 
                                                                                          CODE:27f2(W)  
       INTMEM:48                 undefined1 ??
                             DAT_INTMEM_49                                   XREF[1]:     FUN_CODE_279d:27cc(W)  
       INTMEM:49                 ??         ??
                             DAT_INTMEM_4a                                   XREF[2]:     FUN_CODE_14ba:1527(R), 
                                                                                          FUN_CODE_279d:27c9(W)  
       INTMEM:4a                 undefined1 ??
                             DAT_INTMEM_4b                                   XREF[1]:     FUN_CODE_279d:27a8(W)  
       INTMEM:4b                 ??         ??
                             DAT_INTMEM_4c                                   XREF[2]:     FUN_CODE_14ba:152b(R), 
                                                                                          FUN_CODE_279d:27a5(W)  
       INTMEM:4c                 undefined1 ??
                             DAT_INTMEM_4d                                   XREF[2]:     FUN_CODE_14ba:1533(R), 
                                                                                          FUN_CODE_24a5:2579(W)  
       INTMEM:4d                 undefined1 ??
                             DAT_INTMEM_4e                                   XREF[2]:     FUN_CODE_14ba:1541(R), 
                                                                                          FUN_CODE_24a5:257c(W)  
       INTMEM:4e                 undefined1 ??
                             DAT_INTMEM_4f                                   XREF[2]:     FUN_CODE_14ba:154f(R), 
                                                                                          FUN_CODE_24a5:257f(W)  
       INTMEM:4f                 undefined1 ??
                             DAT_INTMEM_50                                   XREF[2]:     FUN_CODE_14ba:14ef(R), 
                                                                                          FUN_CODE_24a5:2588(W)  
       INTMEM:50                 ??         ??
                             DAT_INTMEM_51                                   XREF[2]:     FUN_CODE_14ba:14fa(R), 
                                                                                          FUN_CODE_24a5:258b(W)  
       INTMEM:51                 ??         ??
                             DAT_INTMEM_52                                   XREF[2]:     FUN_CODE_14ba:1505(R), 
                                                                                          FUN_CODE_24a5:258e(W)  
       INTMEM:52                 ??         ??
                             DAT_INTMEM_53                                   XREF[3]:     FUN_CODE_080d:0822(W), 
                                                                                          FUN_CODE_2029:202f(RW), 
                                                                                          FUN_CODE_2029:2032(W)  
       INTMEM:53                 ??         ??
                             DAT_INTMEM_54                                   XREF[4]:     FUN_CODE_080d:0825(W), 
                                                                                          ipc_handle_messages:0c02(W), 
                                                                                          FUN_CODE_2029:204b(W), 
                                                                                          FUN_CODE_2029:204f(RW)  
       INTMEM:54                 ??         ??
                             DAT_INTMEM_55                                   XREF[3]:     FUN_CODE_14ba:14c0(W), 
                                                                                          FUN_CODE_14ba:14ca(RW), 
                                                                                          FUN_CODE_14ba:14cd(W)  
       INTMEM:55                 ??         ??
                             DAT_INTMEM_56                                   XREF[10]:    ipc_handle_messages:092e(R), 
                                                                                          FUN_CODE_14ba:14bd(W), 
                                                                                          FUN_CODE_14ba:1575(R), 
                                                                                          FUN_CODE_14ba:1578(W), 
                                                                                          FUN_CODE_14ba:1584(R), 
                                                                                          FUN_CODE_14ba:1598(R), 
                                                                                          FUN_CODE_15b5:15ed(W), 
                                                                                          FUN_CODE_165e:1701(R), 
                                                                                          FUN_CODE_165e:1718(R), 
                                                                                          FUN_CODE_165e:171f(R)  
       INTMEM:56                 undefined1 ??
                             DAT_INTMEM_57                                   XREF[3]:     ipc_handle_messages:0c0e(W), 
                                                                                          FUN_CODE_14ba:1586(R), 
                                                                                          FUN_CODE_24a5:251d(W)  
       INTMEM:57                 undefined1 ??
                             DAT_INTMEM_58                                   XREF[3]:     ipc_handle_messages:0c19(W), 
                                                                                          FUN_CODE_14ba:159a(R), 
                                                                                          FUN_CODE_24a5:2520(W)  
       INTMEM:58                 undefined1 ??
                             DAT_INTMEM_59                                   XREF[19]:    ipc_handle_messages:0cf0(W), 
                                                                                          CODE:0fed(W), CODE:1011(W), 
                                                                                          CODE:1057(W), CODE:11d9(W), 
                                                                                          CODE:1207(W), CODE:1260(W), 
                                                                                          CODE:1290(W), 
                                                                                          FUN_CODE_14ba:1513(W), 
                                                                                          CODE:18bc(R), CODE:18c3(R), 
                                                                                          CODE:18d1(R), CODE:1b09(W), 
                                                                                          FUN_CODE_1d0f:1d45(W), 
                                                                                          FUN_CODE_1d0f:1d55(W), 
                                                                                          FUN_CODE_1d0f:1d65(W), 
                                                                                          FUN_CODE_1d0f:1d75(W), 
                                                                                          FUN_CODE_2029:2054(W), 
                                                                                          CODE:2888(R)  
       INTMEM:59                 undefined1 ??
                             DAT_INTMEM_5a                                   XREF[20]:    ipc_handle_messages:0cf4(W), 
                                                                                          CODE:0ff3(W), CODE:1017(W), 
                                                                                          CODE:105d(W), CODE:11df(W), 
                                                                                          CODE:120d(W), CODE:1266(W), 
                                                                                          CODE:1296(W), 
                                                                                          FUN_CODE_14ba:1517(W), 
                                                                                          CODE:18b3(R), CODE:1b0f(W), 
                                                                                          CODE:1cf0(R), CODE:1cf4(W), 
                                                                                          CODE:1cff(W), CODE:1d04(W), 
                                                                                          FUN_CODE_1d0f:1d4b(W), 
                                                                                          FUN_CODE_1d0f:1d5b(W), 
                                                                                          FUN_CODE_1d0f:1d6b(W), 
                                                                                          FUN_CODE_1d0f:1d7b(W), 
                                                                                          FUN_CODE_2029:205a(W)  
       INTMEM:5a                 undefined1 ??
                             DAT_INTMEM_5b                                   XREF[16]:    ipc_handle_messages:0cf2(W), 
                                                                                          CODE:0ff0(W), CODE:1014(W), 
                                                                                          CODE:105a(W), CODE:11dc(W), 
                                                                                          CODE:120a(W), CODE:1263(W), 
                                                                                          CODE:1293(W), 
                                                                                          FUN_CODE_14ba:1515(W), 
                                                                                          CODE:183f(R), CODE:1b0c(W), 
                                                                                          FUN_CODE_1d0f:1d48(W), 
                                                                                          FUN_CODE_1d0f:1d58(W), 
                                                                                          FUN_CODE_1d0f:1d68(W), 
                                                                                          FUN_CODE_1d0f:1d78(W), 
                                                                                          FUN_CODE_2029:2057(W)  
       INTMEM:5b                 undefined1 ??
                             g_rol_base_error_pattern                        XREF[6]:     ipc_handle_messages:0cfe(W), 
                                                                                          ipc_handle_messages:0d04(W), 
                                                                                          ipc_handle_messages:0d0a(W), 
                                                                                          ipc_handle_messages:0d12(R), 
                                                                                          CODE:12ad(W), CODE:12b2(R)  
       INTMEM:5c                 undefined1 ??
                             DAT_INTMEM_5d                                   XREF[9]:     CODE:1311(W), CODE:1319(R), 
                                                                                          CODE:132e(R), CODE:1334(W), 
                                                                                          CODE:1343(R), CODE:1353(R), 
                                                                                          CODE:1b7a(RW), CODE:1b82(R), 
                                                                                          CODE:1b86(W)  
       INTMEM:5d                 undefined1 ??
                             DAT_INTMEM_5e                                   XREF[3]:     CODE:130b(W), CODE:133c(RW), 
                                                                                          CODE:134b(W)  
       INTMEM:5e                 ??         ??
                             DAT_INTMEM_5f                                   XREF[8]:     CODE:17e7(W), CODE:1841(W), 
                                                                                          CODE:1847(R), CODE:18fd(R), 
                                                                                          CODE:19ba(R), CODE:19cd(R), 
                                                                                          CODE:19d1(R), CODE:19d8(R)  
       INTMEM:5f                 undefined1 ??
                             DAT_INTMEM_60                                   XREF[5]:     FUN_CODE_0775:0798(R), 
                                                                                          FUN_CODE_0775:079c(RW), 
                                                                                          FUN_CODE_0775:079e(R), 
                                                                                          ipc_handle_messages:099d(W), 
                                                                                          ipc_handle_messages:09a5(W)  
       INTMEM:60                 undefined1 ??
                             DAT_INTMEM_61                                   XREF[17]:    FUN_CODE_080d:082e(W), 
                                                                                          ipc_handle_messages:0c50(R), 
                                                                                          ipc_handle_messages:0c6f(W), 
                                                                                          ipc_handle_messages:0c75(R), 
                                                                                          ipc_handle_messages:0c8a(W), 
                                                                                          CODE:176d(R), CODE:1784(W), 
                                                                                          CODE:1864(R), CODE:189e(R), 
                                                                                          CODE:18a9(R), CODE:1e78(W), 
                                                                                          CODE:1fc4(W), CODE:1fea(RW), 
                                                                                          FUN_CODE_225c:2268(R), 
                                                                                          FUN_CODE_225c:226e(W), 
                                                                                          FUN_CODE_225c:2273(R), 
                                                                                          FUN_CODE_225c:2279(W)  
       INTMEM:61                 undefined1 ??
                             g_power_up_cause                                XREF[14]:    ipc_handle_messages:08a9(R), 
                                                                                          CODE:1e22(W), CODE:1e2a(W), 
                                                                                          CODE:1e32(W), CODE:1e37(W), 
                                                                                          CODE:1e3c(W), CODE:1e41(W), 
                                                                                          CODE:1e46(W), CODE:1e4b(W), 
                                                                                          CODE:1e50(W), CODE:1e55(W), 
                                                                                          CODE:1e5d(W), CODE:1fdb(W), 
                                                                                          CODE:1fe2(W)  
       INTMEM:62                 undefined1 ??
                             DAT_INTMEM_63                                   XREF[2]:     ipc_handle_messages:0b8e(W), 
                                                                                          CODE:0f8e(R)  
       INTMEM:63                 undefined1 ??
                             DAT_INTMEM_64                                   XREF[4]:     CODE:2077(W), CODE:2086(RW), 
                                                                                          CODE:2091(W), CODE:20a0(RW)  
       INTMEM:64                 ??         ??
                             DAT_INTMEM_65                                   XREF[8]:     ipc_handle_messages:0c2a(W), 
                                                                                          ipc_handle_messages:0c3a(W), 
                                                                                          CODE:0f45(W), CODE:0f67(RW), 
                                                                                          CODE:1f71(R), CODE:1f8c(RW), 
                                                                                          CODE:1fa1(W), 
                                                                                          FUN_CODE_221b:222c(W)  
       INTMEM:65                 undefined1 ??
                             DAT_INTMEM_66                                   XREF[3]:     ipc_handle_messages:0a90(R), 
                                                                                          ipc_handle_messages:0d24(W), 
                                                                                          CODE:1fd5(W)  
       INTMEM:66                 undefined1 ??
                             DAT_INTMEM_67                                   XREF[3]:     ipc_handle_messages:0a95(R), 
                                                                                          ipc_handle_messages:0d26(W), 
                                                                                          CODE:1fd8(W)  
       INTMEM:67                 undefined1 ??
                             DAT_INTMEM_68                                   XREF[11]:    CODE:0574(W), CODE:0578(W), 
                                                                                          CODE:057c(W), CODE:0580(W), 
                                                                                          CODE:0584(W), CODE:0588(W), 
                                                                                          CODE:058c(W), CODE:0590(W), 
                                                                                          CODE:0594(W), 
                                                                                          FUN_CODE_062f:062f(R), 
                                                                                          FUN_CODE_2383:238f(W)  
       INTMEM:68                 undefined1 ??
                             DAT_INTMEM_69                                   XREF[17]:    CODE:04d0(W), CODE:04f3(W), 
                                                                                          CODE:04f8(RW), CODE:0507(RW), 
                                                                                          CODE:050d(RW), CODE:0515(W), 
                                                                                          CODE:053c(RW), CODE:0559(W), 
                                                                                          CODE:0565(RW), CODE:056f(W), 
                                                                                          CODE:059b(RW), CODE:05c8(W), 
                                                                                          CODE:05d9(RW), CODE:05e0(W), 
                                                                                          CODE:0604(RW), CODE:0615(W), 
                                                                                          CODE:0622(W)  
       INTMEM:69                 ??         ??
                             DAT_INTMEM_6a                                   XREF[6]:     CODE:04f0(W), CODE:0556(W), 
                                                                                          CODE:05a5(RW), CODE:05e3(R), 
                                                                                          CODE:05e5(RW), CODE:0611(R)  
       INTMEM:6a                 undefined1 ??
                             DAT_INTMEM_6b                                   XREF[4]:     CODE:05b5(R), CODE:05cb(R), 
                                                                                          CODE:05d0(W), 
                                                                                          FUN_CODE_2a0b:2a10(R)  
       INTMEM:6b                 undefined1 ??
                             DAT_INTMEM_6c                                   XREF[7]:     CODE:0545(W), CODE:054c(R), 
                                                                                          CODE:05f8(R), CODE:05fb(W), 
                                                                                          FUN_CODE_2a15:2a15(W), 
                                                                                          FUN_CODE_2a15:2a29(R), 
                                                                                          FUN_CODE_2a3e:2a54(W)  
       INTMEM:6c                 undefined1 ??
                             DAT_INTMEM_6d                                   XREF[4]:     CODE:0545(R), CODE:05b5(W), 
                                                                                          FUN_CODE_2a15:2a17(W), 
                                                                                          FUN_CODE_2a3e:2a48(R)  
       INTMEM:6d                 undefined1 ??
                             DAT_INTMEM_6e                                   XREF[4]:     CODE:052c(R), CODE:0535(RW), 
                                                                                          FUN_CODE_2a15:2a20(W), 
                                                                                          FUN_CODE_2a3e:2a56(W)  
       INTMEM:6e                 undefined1 ??
                             DAT_INTMEM_6f                                   XREF[18]:    FUN_CODE_02fe:0321(R), 
                                                                                          FUN_CODE_02fe:03a5(RW), 
                                                                                          FUN_CODE_02fe:03b3(W), 
                                                                                          FUN_CODE_02fe:03c2(W), 
                                                                                          FUN_CODE_02fe:03df(RW), 
                                                                                          FUN_CODE_02fe:03ed(RW), 
                                                                                          FUN_CODE_02fe:03fb(RW), 
                                                                                          FUN_CODE_02fe:03ff(W), 
                                                                                          FUN_CODE_02fe:041f(RW), 
                                                                                          FUN_CODE_02fe:0427(RW), 
                                                                                          FUN_CODE_02fe:0435(RW), 
                                                                                          FUN_CODE_02fe:0459(RW), 
                                                                                          FUN_CODE_02fe:0461(RW), 
                                                                                          FUN_CODE_02fe:0478(W), 
                                                                                          FUN_CODE_02fe:0480(W), 
                                                                                          FUN_CODE_02fe:048a(RW), 
                                                                                          CODE:0492(RW), 
                                                                                          FUN_CODE_0496:04b1(W)  
       INTMEM:6f                 undefined1 ??
                             DAT_INTMEM_70                                   XREF[7]:     FUN_CODE_02fe:0393(W), 
                                                                                          FUN_CODE_02fe:046a(W), 
                                                                                          FUN_CODE_02fe:0470(R), 
                                                                                          FUN_CODE_2ac4:2ac7(R), 
                                                                                          FUN_CODE_2ac4:2af3(R), 
                                                                                          FUN_CODE_2ac4:2b29(R), 
                                                                                          FUN_CODE_2ac4:2b37(R)  
       INTMEM:70                 undefined1 ??
                             DAT_INTMEM_71                                   XREF[12]:    FUN_CODE_02fe:040e(R), 
                                                                                          FUN_CODE_02fe:0411(W), 
                                                                                          FUN_CODE_02fe:046d(W), 
                                                                                          FUN_CODE_2ac4:2acb(R), 
                                                                                          FUN_CODE_2b41:2b42(R), 
                                                                                          FUN_CODE_2b41:2b7f(R), 
                                                                                          FUN_CODE_2b84:2b87(R), 
                                                                                          FUN_CODE_2b84:2b8e(R), 
                                                                                          FUN_CODE_2b84:2bf9(R), 
                                                                                          FUN_CODE_2bfe:2bff(R), 
                                                                                          FUN_CODE_2bfe:2c92(R), 
                                                                                          FUN_CODE_2c97:2c97(R)  
       INTMEM:71                 undefined1 ??
                             DAT_INTMEM_72                                   XREF[11]:    FUN_CODE_02fe:0409(R), 
                                                                                          FUN_CODE_02fe:040c(W), 
                                                                                          FUN_CODE_02fe:0448(R), 
                                                                                          FUN_CODE_02fe:044b(W), 
                                                                                          FUN_CODE_2ac4:2add(R), 
                                                                                          FUN_CODE_2ac4:2b10(R), 
                                                                                          FUN_CODE_2ac4:2b13(W), 
                                                                                          FUN_CODE_2ac4:2b23(R), 
                                                                                          FUN_CODE_2ac4:2b39(R), 
                                                                                          FUN_CODE_2b84:2ba0(R), 
                                                                                          FUN_CODE_2bfe:2c11(R)  
       INTMEM:72                 undefined1 ??
                             DAT_INTMEM_73                                   XREF[9]:     FUN_CODE_02fe:0443(R), 
                                                                                          FUN_CODE_02fe:0446(W), 
                                                                                          FUN_CODE_02fe:046a(R), 
                                                                                          FUN_CODE_2ac4:2b0b(R), 
                                                                                          FUN_CODE_2ac4:2b0e(W), 
                                                                                          FUN_CODE_2ac4:2b1c(R), 
                                                                                          FUN_CODE_2ac4:2b3b(R), 
                                                                                          FUN_CODE_2b84:2bbc(R), 
                                                                                          FUN_CODE_2bfe:2c3c(R)  
       INTMEM:73                 undefined1 ??
                             DAT_INTMEM_74                                   XREF[13]:    FUN_CODE_02fe:0390(W), 
                                                                                          FUN_CODE_02fe:043e(R), 
                                                                                          FUN_CODE_02fe:0441(W), 
                                                                                          FUN_CODE_02fe:046d(R), 
                                                                                          FUN_CODE_2ac4:2af5(R), 
                                                                                          FUN_CODE_2ac4:2b06(R), 
                                                                                          FUN_CODE_2ac4:2b09(W), 
                                                                                          FUN_CODE_2ac4:2b15(R), 
                                                                                          FUN_CODE_2ac4:2b3d(R), 
                                                                                          FUN_CODE_2b41:2b54(R), 
                                                                                          FUN_CODE_2b84:2b84(R), 
                                                                                          FUN_CODE_2b84:2be7(R), 
                                                                                          FUN_CODE_2bfe:2c67(R)  
       INTMEM:74                 undefined1 ??
                             DAT_INTMEM_75                                   XREF[7]:     FUN_CODE_02fe:02e7(RW), 
                                                                                          FUN_CODE_02fe:0311(W), 
                                                                                          FUN_CODE_02fe:0314(R), 
                                                                                          FUN_CODE_02fe:0396(R), 
                                                                                          FUN_CODE_02fe:03c7(R), 
                                                                                          FUN_CODE_02fe:0404(R), 
                                                                                          FUN_CODE_02fe:0439(R)  
       INTMEM:75                 undefined1 ??
                             DAT_INTMEM_76                                   XREF[6]:     CODE:0146(RW), 
                                                                                          FUN_CODE_2310:2310(W), 
                                                                                          CODE:231a(R), 
                                                                                          have_20ms_elapsed:231d(R), 
                                                                                          have_20ms_elapsed:2328(R), 
                                                                                          have_20ms_elapsed:232d(W)  
       INTMEM:76                 undefined1 ??
                             DAT_INTMEM_77                                   XREF[3]:     CODE:0154(RW), 
                                                                                          FUN_CODE_25ce:25ce(W), 
                                                                                          FUN_CODE_25d2:25d2(R)  
       INTMEM:77                 undefined1 ??
                             DAT_INTMEM_78                                   XREF[14]:    FUN_CODE_25f4:25f4(W), 
                                                                                          FUN_CODE_25fc:25fc(W), 
                                                                                          FUN_CODE_2601:2601(W), 
                                                                                          FUN_CODE_2606:2606(W), 
                                                                                          FUN_CODE_260b:260b(W), 
                                                                                          FUN_CODE_2610:2610(W), 
                                                                                          FUN_CODE_2615:2615(W), 
                                                                                          FUN_CODE_261a:261a(W), 
                                                                                          FUN_CODE_261f:2622(R), 
                                                                                          FUN_CODE_2627:2645(R), 
                                                                                          FUN_CODE_2836:2836(R), 
                                                                                          FUN_CODE_285d:285d(R), 
                                                                                          FUN_CODE_285d:286c(W), 
                                                                                          FUN_CODE_285d:286f(R)  
       INTMEM:78                 undefined1 ??
                             DAT_INTMEM_79                                   XREF[41]:    FUN_CODE_261f:2622(W), 
                                                                                          FUN_CODE_2627:2645(W), 
                                                                                          FUN_CODE_265c:265f(R), 
                                                                                          FUN_CODE_2666:2682(RW), 
                                                                                          thunk_FUN_CODE_265c:268a(RW), 
                                                                                          FUN_CODE_268e:269d(RW), 
                                                                                          FUN_CODE_268e:269f(R), 
                                                                                          FUN_CODE_268e:26a7(RW), 
                                                                                          FUN_CODE_268e:26a9(R), 
                                                                                          FUN_CODE_268e:26ae(RW), 
                                                                                          FUN_CODE_268e:26b0(R), 
                                                                                          FUN_CODE_268e:26b5(RW), 
                                                                                          FUN_CODE_268e:26b7(R), 
                                                                                          FUN_CODE_268e:26c8(RW), 
                                                                                          FUN_CODE_268e:26ca(R), 
                                                                                          FUN_CODE_268e:26d1(RW), 
                                                                                          FUN_CODE_26d6:26eb(RW), 
                                                                                          FUN_CODE_26d6:26ed(R), 
                                                                                          FUN_CODE_26d6:26f4(RW), 
                                                                                          CODE:280e(RW), [more]
       INTMEM:79                 undefined1 ??
                             DAT_INTMEM_7a                                   XREF[3]:     FUN_CODE_25f4:25f7(W), 
                                                                                          FUN_CODE_261f:261f(W), 
                                                                                          FUN_CODE_2627:263b(RW)  
       INTMEM:7a                 ??         ??
       INTMEM:7b                 ??         ??
                             DAT_INTMEM_7c                                   XREF[2]:     FUN_CODE_2a15:2a1d(W), 
                                                                                          FUN_CODE_2a3e:2a4b(RW)  
       INTMEM:7c                 ??         ??
                             DAT_INTMEM_7d                                   XREF[10]:    FUN_CODE_1dce:1dd3(R), 
                                                                                          FUN_CODE_1dce:1dd4(R), 
                                                                                          FUN_CODE_1dce:1dd5(R), 
                                                                                          CODE:1f15(W), CODE:1f1a(W), 
                                                                                          CODE:1f1f(W), CODE:1f24(W), 
                                                                                          CODE:1f29(W), CODE:1f2e(W), 
                                                                                          CODE:1f33(W)  
       INTMEM:7d                 undefined1 ??
                             DAT_INTMEM_7e                                   XREF[7]:     CODE:2064(W), CODE:2069(W), 
                                                                                          CODE:206e(W), CODE:2073(W), 
                                                                                          FUN_CODE_20ab:20ad(R), 
                                                                                          FUN_CODE_20ab:20ae(R), 
                                                                                          FUN_CODE_20ab:20af(R)  
       INTMEM:7e                 undefined1 ??
                             DAT_INTMEM_7f                                   XREF[6]:     FUN_CODE_07ea:0801(W), 
                                                                                          ipc_handle_messages:094c(R), 
                                                                                          ipc_handle_messages:0cb6(W), 
                                                                                          CODE:17c6(R), CODE:19af(W), 
                                                                                          FUN_CODE_2c9b:2c9d(R)  
       INTMEM:7f                 undefined1 ??
                             DAT_INTMEM_80                                   XREF[3]:     FUN_CODE_1bbe:1bdd(R), 
                                                                                          FUN_CODE_1bbe:1be0(W), 
                                                                                          FUN_CODE_1bbe:1bf6(W)  
       INTMEM:80                 undefined1 ??
                             DAT_INTMEM_81                                   XREF[5]:     FUN_CODE_07ea:0805(W), 
                                                                                          FUN_CODE_1bbe:1bc0(R), 
                                                                                          FUN_CODE_1bbe:1bc5(RW), 
                                                                                          FUN_CODE_1bbe:1be7(R), 
                                                                                          FUN_CODE_1bbe:1bf0(W)  
       INTMEM:81                 undefined1 ??
       INTMEM:82                 ??         ??
       INTMEM:83                 ??         ??
       INTMEM:84                 ??         ??
       INTMEM:85                 ??         ??
       INTMEM:86                 ??         ??
       INTMEM:87                 ??         ??
       INTMEM:88                 ??         ??
       INTMEM:89                 ??         ??
       INTMEM:8a                 ??         ??
       INTMEM:8b                 ??         ??
       INTMEM:8c                 ??         ??
       INTMEM:8d                 ??         ??
       INTMEM:8e                 ??         ??
       INTMEM:8f                 ??         ??
       INTMEM:90                 ??         ??
       INTMEM:91                 ??         ??
       INTMEM:92                 ??         ??
       INTMEM:93                 ??         ??
       INTMEM:94                 ??         ??
       INTMEM:95                 ??         ??
       INTMEM:96                 ??         ??
       INTMEM:97                 ??         ??
       INTMEM:98                 ??         ??
       INTMEM:99                 ??         ??
                             DAT_INTMEM_9a                                   XREF[8]:     CODE:113e(W), CODE:1143(W), 
                                                                                          CODE:1148(W), CODE:114d(W), 
                                                                                          FUN_CODE_1196:119b(W), 
                                                                                          FUN_CODE_1196:11a0(R), 
                                                                                          FUN_CODE_1196:11a1(R), 
                                                                                          FUN_CODE_1196:11a2(R)  
       INTMEM:9a                 undefined1 ??
                             DAT_INTMEM_9b                                   XREF[14]:    CODE:0fa7(W), CODE:0fac(W), 
                                                                                          CODE:0fb1(W), CODE:0fb6(W), 
                                                                                          CODE:0fbb(W), CODE:0fc0(W), 
                                                                                          CODE:0fc5(W), CODE:0fca(W), 
                                                                                          CODE:0fcf(W), CODE:0fd4(W), 
                                                                                          powerup_sm_exec:1074(W), 
                                                                                          powerup_sm_exec:1079(R), 
                                                                                          powerup_sm_exec:107a(R), 
                                                                                          powerup_sm_exec:107b(R)  
       INTMEM:9b                 undefined1 ??
                             g_sysreset_watchdog_state                       XREF[16]:    CODE:121d(W), CODE:1222(W), 
                                                                                          CODE:1227(W), CODE:122c(W), 
                                                                                          CODE:1231(W), CODE:1236(W), 
                                                                                          CODE:123b(W), CODE:1240(W), 
                                                                                          CODE:1245(W), CODE:124a(W), 
                                                                                          CODE:124f(W), CODE:1254(W), 
                                                                                          sysreset_watchdog_statemachine_e
                                                                                          sysreset_watchdog_statemachine_e
                                                                                          sysreset_watchdog_statemachine_e
                                                                                          sysreset_watchdog_statemachine_e
       INTMEM:9c                 undefined1 ??
                             DAT_INTMEM_9d                                   XREF[7]:     CODE:10a0(W), CODE:10a5(W), 
                                                                                          CODE:10aa(W), 
                                                                                          hw_reset_statemachine_exec:1127(
                                                                                          hw_reset_statemachine_exec:112c(
                                                                                          hw_reset_statemachine_exec:112d(
                                                                                          hw_reset_statemachine_exec:112e(
       INTMEM:9d                 undefined1 ??
                             DAT_INTMEM_9e                                   XREF[15]:    powerdown_sm_exec:0ea9(W), 
                                                                                          powerdown_sm_exec:0eae(R), 
                                                                                          powerdown_sm_exec:0eaf(R), 
                                                                                          powerdown_sm_exec:0eb0(R), 
                                                                                          CODE:0f02(W), CODE:0f07(W), 
                                                                                          CODE:0f0c(W), CODE:0f11(W), 
                                                                                          CODE:0f16(W), CODE:0f1b(W), 
                                                                                          CODE:0f20(W), CODE:0f25(W), 
                                                                                          CODE:0f2a(W), CODE:0f2f(W), 
                                                                                          CODE:0f34(W)  
       INTMEM:9e                 undefined1 ??
                             DAT_INTMEM_9f                                   XREF[6]:     CODE:12fd(W), CODE:1302(W), 
                                                                                          CODE:1307(W), 
                                                                                          FUN_CODE_135e:1360(R), 
                                                                                          FUN_CODE_135e:1361(R), 
                                                                                          FUN_CODE_135e:1362(R)  
       INTMEM:9f                 undefined1 ??
                             DAT_INTMEM_a0                                   XREF[7]:     CODE:1372(W), CODE:1377(W), 
                                                                                          CODE:137c(W), CODE:1381(W), 
                                                                                          FUN_CODE_1385:1387(R), 
                                                                                          FUN_CODE_1385:1388(R), 
                                                                                          FUN_CODE_1385:1389(R)  
       INTMEM:a0                 undefined1 ??
                             DAT_INTMEM_a1                                   XREF[5]:     CODE:13ba(W), CODE:13bf(W), 
                                                                                          dbg_led_statemachine:13fe(R), 
                                                                                          dbg_led_statemachine:13ff(R), 
                                                                                          dbg_led_statemachine:1400(R)  
       INTMEM:a1                 undefined1 ??
                             DAT_INTMEM_a2                                   XREF[6]:     CODE:1417(W), CODE:141c(W), 
                                                                                          CODE:1421(W), 
                                                                                          FUN_CODE_14a5:14a7(R), 
                                                                                          FUN_CODE_14a5:14a8(R), 
                                                                                          FUN_CODE_14a5:14a9(R)  
       INTMEM:a2                 undefined1 ??
       INTMEM:a3                 ??         ??
                             DAT_INTMEM_a4                                   XREF[12]:    CODE:1944(W), CODE:1949(W), 
                                                                                          CODE:194e(W), CODE:1953(W), 
                                                                                          CODE:1958(W), CODE:195d(W), 
                                                                                          CODE:1962(W), CODE:1967(W), 
                                                                                          CODE:196c(W), 
                                                                                          argon_sm_exec:1a0c(R), 
                                                                                          argon_sm_exec:1a0d(R), 
                                                                                          argon_sm_exec:1a0e(R)  
       INTMEM:a4                 undefined1 ??
                             DAT_INTMEM_a5                                   XREF[12]:    FUN_CODE_1a2e:1a30(R), 
                                                                                          FUN_CODE_1a2e:1a31(R), 
                                                                                          FUN_CODE_1a2e:1a32(R), 
                                                                                          CODE:1b2f(W), CODE:1b34(W), 
                                                                                          CODE:1b39(W), CODE:1b3e(W), 
                                                                                          CODE:1b43(W), CODE:1b48(W), 
                                                                                          CODE:1b4d(W), CODE:1b52(W), 
                                                                                          CODE:1b57(W)  
       INTMEM:a5                 undefined1 ??
                             DAT_INTMEM_a6                                   XREF[8]:     CODE:1c6f(W), CODE:1c74(W), 
                                                                                          CODE:1c79(W), CODE:1c7e(W), 
                                                                                          CODE:1c83(W), 
                                                                                          powerejectsw_sm_exec:1c89(R), 
                                                                                          powerejectsw_sm_exec:1c8a(R), 
                                                                                          powerejectsw_sm_exec:1c8b(R)  
       INTMEM:a6                 undefined1 ??
                             DAT_INTMEM_a7                                   XREF[6]:     CODE:1d85(W), CODE:1d8a(W), 
                                                                                          CODE:1d8f(W), 
                                                                                          FUN_CODE_1dbc:1dbe(R), 
                                                                                          FUN_CODE_1dbc:1dbf(R), 
                                                                                          FUN_CODE_1dbc:1dc0(R)  
       INTMEM:a7                 undefined1 ??
                             DAT_INTMEM_a8                                   XREF[13]:    CODE:214e(W), CODE:2153(W), 
                                                                                          CODE:2158(W), CODE:215d(W), 
                                                                                          CODE:2162(W), CODE:2167(W), 
                                                                                          CODE:216c(W), CODE:2171(W), 
                                                                                          CODE:2176(W), 
                                                                                          FUN_CODE_221b:2223(W), 
                                                                                          FUN_CODE_221b:2237(R), 
                                                                                          FUN_CODE_221b:2238(R), 
                                                                                          FUN_CODE_221b:2239(R)  
       INTMEM:a8                 undefined1 ??
                             DAT_INTMEM_a9                                   XREF[5]:     CODE:2280(W), CODE:2285(W), 
                                                                                          FUN_CODE_22a7:22a9(R), 
                                                                                          FUN_CODE_22a7:22aa(R), 
                                                                                          FUN_CODE_22a7:22ab(R)  
       INTMEM:a9                 undefined1 ??
                             DAT_INTMEM_aa                                   XREF[3]:     FUN_CODE_0d43:0e5a(R), 
                                                                                          CODE:1ba3(W), 
                                                                                          FUN_CODE_1bbe:1c69(W)  
       INTMEM:aa                 undefined1 ??
                             DAT_INTMEM_ab                                   XREF[3]:     FUN_CODE_0d43:0e6a(R), 
                                                                                          CODE:1ba0(W), 
                                                                                          FUN_CODE_1bbe:1c59(W)  
       INTMEM:ab                 undefined1 ??
                             DAT_INTMEM_ac                                   XREF[2]:     FUN_CODE_0d43:0e6e(R), 
                                                                                          FUN_CODE_1bbe:1c5f(W)  
       INTMEM:ac                 undefined1 ??
                             DAT_INTMEM_ad                                   XREF[2]:     FUN_CODE_0d43:0e72(R), 
                                                                                          FUN_CODE_1bbe:1c65(W)  
       INTMEM:ad                 undefined1 ??
                             DAT_INTMEM_ae                                   XREF[3]:     ipc_handle_messages:0c90(W), 
                                                                                          CODE:1938(R), CODE:197a(R)  
       INTMEM:ae                 undefined1 ??
                             DAT_INTMEM_af                                   XREF[9]:     ipc_handle_messages:0d12(W), 
                                                                                          CODE:12b2(W), CODE:1773(R), 
                                                                                          CODE:186e(R), CODE:18a6(R), 
                                                                                          CODE:1ce4(R), CODE:1ff1(W), 
                                                                                          CODE:201c(W), CODE:2023(W)  
       INTMEM:af                 undefined1 ??
                             DAT_INTMEM_b0                                   XREF[5]:     ipc_handle_messages:0cd1(W), 
                                                                                          FUN_CODE_0d43:0e3a(R), 
                                                                                          CODE:1881(R), CODE:198f(R), 
                                                                                          CODE:1996(W)  
       INTMEM:b0                 undefined1 ??
                             DAT_INTMEM_b1                                   XREF[4]:     ipc_handle_messages:0cd6(W), 
                                                                                          FUN_CODE_0d43:0e3e(R), 
                                                                                          CODE:187d(R), CODE:198c(W)  
       INTMEM:b1                 undefined1 ??
       INTMEM:b2                 ??         ??
                             DAT_INTMEM_b3                                   XREF[1]:     FUN_CODE_14ba:1577(R)  
       INTMEM:b3                 undefined1 ??
       INTMEM:b4                 ??         ??
       INTMEM:b5                 ??         ??
       INTMEM:b6                 ??         ??
       INTMEM:b7                 ??         ??
                             DAT_INTMEM_b8                                   XREF[3]:     CODE:1b7f(R), CODE:1b9a(R), 
                                                                                          FUN_CODE_285d:287c(W)  
       INTMEM:b8                 undefined1 ??
       INTMEM:b9                 ??         ??
       INTMEM:ba                 ??         ??
       INTMEM:bb                 ??         ??
       INTMEM:bc                 ??         ??
       INTMEM:bd                 ??         ??
       INTMEM:be                 ??         ??
       INTMEM:bf                 ??         ??
       INTMEM:c0                 ??         ??
       INTMEM:c1                 ??         ??
       INTMEM:c2                 ??         ??
       INTMEM:c3                 ??         ??
       INTMEM:c4                 ??         ??
       INTMEM:c5                 ??         ??
       INTMEM:c6                 ??         ??
       INTMEM:c7                 ??         ??
       INTMEM:c8                 ??         ??
       INTMEM:c9                 ??         ??
       INTMEM:ca                 ??         ??
       INTMEM:cb                 ??         ??
       INTMEM:cc                 ??         ??
       INTMEM:cd                 ??         ??
       INTMEM:ce                 ??         ??
       INTMEM:cf                 ??         ??
       INTMEM:d0                 ??         ??
       INTMEM:d1                 ??         ??
       INTMEM:d2                 ??         ??
       INTMEM:d3                 ??         ??
       INTMEM:d4                 ??         ??
       INTMEM:d5                 ??         ??
       INTMEM:d6                 ??         ??
       INTMEM:d7                 ??         ??
       INTMEM:d8                 ??         ??
       INTMEM:d9                 ??         ??
       INTMEM:da                 ??         ??
       INTMEM:db                 ??         ??
       INTMEM:dc                 ??         ??
       INTMEM:dd                 ??         ??
       INTMEM:de                 ??         ??
       INTMEM:df                 ??         ??
       INTMEM:e0                 ??         ??
                             DAT_INTMEM_e1                                   XREF[2]:     FUN_CODE_2a15:2a1c(W), 
                                                                                          FUN_CODE_2a3e:2a54(R)  
       INTMEM:e1                 undefined1 ??
                             DAT_INTMEM_e2                                   XREF[2]:     FUN_CODE_24a5:2577(W), 
                                                                                          FUN_CODE_268e:26c3(R)  
       INTMEM:e2                 undefined1 ??
                             DAT_INTMEM_e3                                   XREF[1]:     FUN_CODE_24a5:252b(W)  
       INTMEM:e3                 undefined1 ??
                             DAT_INTMEM_e4                                   XREF[1]:     FUN_CODE_24a5:252e(W)  
       INTMEM:e4                 undefined1 ??
                             DAT_INTMEM_e5                                   XREF[1]:     FUN_CODE_24a5:2531(W)  
       INTMEM:e5                 undefined1 ??
                             DAT_INTMEM_e6                                   XREF[1]:     FUN_CODE_24a5:2534(W)  
       INTMEM:e6                 undefined1 ??
                             DAT_INTMEM_e7                                   XREF[1]:     FUN_CODE_24a5:253e(W)  
       INTMEM:e7                 undefined1 ??
                             DAT_INTMEM_e8                                   XREF[1]:     FUN_CODE_24a5:2541(W)  
       INTMEM:e8                 undefined1 ??
                             DAT_INTMEM_e9                                   XREF[1]:     FUN_CODE_24a5:2544(W)  
       INTMEM:e9                 undefined1 ??
                             DAT_INTMEM_ea                                   XREF[1]:     FUN_CODE_24a5:2547(W)  
       INTMEM:ea                 undefined1 ??
                             DAT_INTMEM_eb                                   XREF[1]:     FUN_CODE_24a5:2551(W)  
       INTMEM:eb                 undefined1 ??
                             DAT_INTMEM_ec                                   XREF[1]:     FUN_CODE_24a5:2554(W)  
       INTMEM:ec                 undefined1 ??
                             DAT_INTMEM_ed                                   XREF[1]:     FUN_CODE_24a5:2557(W)  
       INTMEM:ed                 undefined1 ??
                             DAT_INTMEM_ee                                   XREF[1]:     FUN_CODE_24a5:255a(W)  
       INTMEM:ee                 undefined1 ??
                             DAT_INTMEM_ef                                   XREF[1]:     FUN_CODE_24a5:2564(W)  
       INTMEM:ef                 undefined1 ??
                             DAT_INTMEM_f0                                   XREF[1]:     FUN_CODE_24a5:2567(W)  
       INTMEM:f0                 undefined1 ??
                             DAT_INTMEM_f1                                   XREF[1]:     FUN_CODE_24a5:256a(W)  
       INTMEM:f1                 undefined1 ??
                             DAT_INTMEM_f2                                   XREF[1]:     FUN_CODE_24a5:256d(W)  
       INTMEM:f2                 undefined1 ??
       INTMEM:f3                 ??         ??
       INTMEM:f4                 ??         ??
       INTMEM:f5                 ??         ??
       INTMEM:f6                 ??         ??
       INTMEM:f7                 ??         ??
       INTMEM:f8                 ??         ??
       INTMEM:f9                 ??         ??
       INTMEM:fa                 ??         ??
       INTMEM:fb                 ??         ??
       INTMEM:fc                 ??         ??
       INTMEM:fd                 ??         ??
       INTMEM:fe                 ??         ??
       INTMEM:ff                 ??         ??
                             //
                             // SFR 
                             // SFR:80-SFR:ff
                             //
                             P0                                              XREF[1]:     FUN_CODE_2346:2364(W)  
          SFR:80                 ??         ??
                             SP                                              XREF[2]:     CODE:0756(W), 
                                                                                          FUN_CODE_0775:0775(W)  
          SFR:81                 ??         ??
                             DPL
          SFR:82                 ??         ??
                             DPH
          SFR:83                 ??         ??
                             DPXL
          SFR:84                 ??         ??
          SFR:85                 ??         ??
          SFR:86                 ??         ??
                             PCON                                            XREF[1]:     FUN_CODE_2383:23b3(RW)  
          SFR:87                 ??         ??
                             TCON                                            XREF[2]:     FUN_CODE_2383:239b(W), 
                                                                                          FUN_CODE_29dc:29eb(W)  
          SFR:88                 ??         ??
                             TMOD
          SFR:89                 ??         ??
                             TL0
          SFR:8a                 ??         ??
                             TL1                                             XREF[1]:     CODE:0187(W)  
          SFR:8b                 ??         ??
                             TH0                                             XREF[1]:     CODE:018a(W)  
          SFR:8c                 ??         ??
                             TH1
          SFR:8d                 ??         ??
          SFR:8e                 ??         ??
                             FADDR                                           XREF[9]:     FUN_CODE_006f:006f(R), 
                                                                                          FUN_CODE_00d7:00d7(R), 
                                                                                          CODE:0143(RW), CODE:0156(RW), 
                                                                                          FUN_CODE_0163:016c(RW), 
                                                                                          CODE:0192(RW), 
                                                                                          FUN_CODE_02fe:02f1(RW), 
                                                                                          FUN_CODE_02fe:0307(RW), 
                                                                                          FUN_CODE_22b6:22ba(RW)  
          SFR:8f                 undefined1 ??
                             P1                                              XREF[1]:     FUN_CODE_2346:2367(W)  
          SFR:90                 ??         ??
                             DAT_SFR_91                                      XREF[1]:     FUN_CODE_2598:2598(W)  
          SFR:91                 ??         ??
                             DAT_SFR_92                                      XREF[1]:     FUN_CODE_2383:2395(W)  
          SFR:92                 ??         ??
                             DPX                                             XREF[1]:     FUN_CODE_259b:259b(W)  
          SFR:93                 ??         ??
                             DAT_SFR_94                                      XREF[1]:     FUN_CODE_2383:2398(W)  
          SFR:94                 ??         ??
                             DAT_SFR_95                                      XREF[3]:     FUN_CODE_2383:23a1(W), 
                                                                                          FUN_CODE_2755:2776(W), 
                                                                                          FUN_CODE_29dc:29ee(W)  
          SFR:95                 ??         ??
                             DAT_SFR_96                                      XREF[1]:     FUN_CODE_2383:2392(W)  
          SFR:96                 ??         ??
                             HADDR
          SFR:97                 ??         ??
                             SCON                                            XREF[3]:     FUN_CODE_2383:239e(W), 
                                                                                          FUN_CODE_2755:275e(W), 
                                                                                          FUN_CODE_2755:2773(W)  
          SFR:98                 ??         ??
                             SBUF
          SFR:99                 ??         ??
          SFR:9a                 ??         ??
                             DAT_SFR_9b                                      XREF[1]:     FUN_CODE_2755:2779(W)  
          SFR:9b                 ??         ??
                             DAT_SFR_9c                                      XREF[1]:     FUN_CODE_2755:277c(W)  
          SFR:9c                 ??         ??
                             DAT_SFR_9d                                      XREF[7]:     CODE:04be(RW), CODE:04c1(RW), 
                                                                                          CODE:04d5(RW), CODE:04d8(RW), 
                                                                                          CODE:051a(RW), CODE:051d(RW), 
                                                                                          FUN_CODE_2346:2355(W)  
          SFR:9d                 ??         ??
                             DAT_SFR_9e                                      XREF[1]:     FUN_CODE_2346:2358(W)  
          SFR:9e                 ??         ??
                             DAT_SFR_9f                                      XREF[1]:     FUN_CODE_2346:235b(W)  
          SFR:9f                 ??         ??
                             P2                                              XREF[1]:     FUN_CODE_2346:236a(W)  
          SFR:a0                 ??         ??
                             HIE                                             XREF[1]:     FUN_CODE_2346:235e(W)  
          SFR:a1                 ??         ??
                             FIE                                             XREF[8]:     CODE:04c4(RW), CODE:04c7(RW), 
                                                                                          CODE:04db(RW), CODE:04de(RW), 
                                                                                          CODE:0520(RW), CODE:0523(RW), 
                                                                                          FUN_CODE_2346:2346(RW), 
                                                                                          FUN_CODE_2346:2373(W)  
          SFR:a2                 ??         ??
                             FIE1                                            XREF[2]:     FUN_CODE_2346:2349(RW), 
                                                                                          FUN_CODE_2346:2376(W)  
          SFR:a3                 ??         ??
                             DAT_SFR_a4                                      XREF[2]:     FUN_CODE_2346:234c(RW), 
                                                                                          FUN_CODE_2346:2379(W)  
          SFR:a4                 ??         ??
                             DAT_SFR_a5                                      XREF[4]:     FUN_CODE_02ad:02b3(RW), 
                                                                                          dbgled_read:233e(RW), 
                                                                                          FUN_CODE_2346:234f(RW), 
                                                                                          FUN_CODE_2346:237c(W)  
          SFR:a5                 ??         ??
                             WDTRST                                          XREF[7]:     FUN_CODE_02ad:02ad(RW), 
                                                                                          FUN_CODE_02ad:02b0(RW), 
                                                                                          FUN_CODE_02ad:02b6(RW), 
                                                                                          FUN_CODE_02ad:02c3(RW), 
                                                                                          FUN_CODE_02ad:02c6(RW), 
                                                                                          FUN_CODE_2346:2352(RW), 
                                                                                          FUN_CODE_2346:237f(W)  
          SFR:a6                 ??         ??
                             WCON                                            XREF[3]:     FUN_CODE_02ad:02b9(RW), 
                                                                                          FUN_CODE_02ad:02bc(RW), 
                                                                                          FUN_CODE_2346:2361(W)  
          SFR:a7                 ??         ??
                             IE                                              XREF[1]:     FUN_CODE_22be:22d3(W)  
          SFR:a8                 ??         ??
                             SADDR                                           XREF[16]:    CODE:0354(R), CODE:0356(R), 
                                                                                          CODE:0358(R), CODE:035a(R), 
                                                                                          CODE:035c(R), CODE:0361(R), 
                                                                                          CODE:0363(R), CODE:0365(R), 
                                                                                          CODE:0367(R), CODE:0369(R), 
                                                                                          CODE:036b(R), CODE:036d(R), 
                                                                                          CODE:036f(R), CODE:0371(R), 
                                                                                          CODE:0373(R), CODE:0375(R)  
          SFR:a9                 undefined1 ??
                             DAT_SFR_aa                                      XREF[2]:     FUN_CODE_25d8:25e3(R), 
                                                                                          FUN_CODE_25e6:25ee(W)  
          SFR:aa                 undefined1 ??
                             DAT_SFR_ab                                      XREF[2]:     FUN_CODE_25d8:25e1(R), 
                                                                                          FUN_CODE_25e6:25ec(W)  
          SFR:ab                 undefined1 ??
                             DAT_SFR_ac                                      XREF[2]:     FUN_CODE_25d8:25df(R), 
                                                                                          FUN_CODE_25e6:25ea(W)  
          SFR:ac                 undefined1 ??
                             DAT_SFR_ad                                      XREF[2]:     FUN_CODE_25d8:25dd(R), 
                                                                                          FUN_CODE_25e6:25e8(W)  
          SFR:ad                 undefined1 ??
                             HSTAT                                           XREF[2]:     FUN_CODE_25d8:25db(R), 
                                                                                          FUN_CODE_25e6:25e6(W)  
          SFR:ae                 undefined1 ??
                             DAT_SFR_af                                      XREF[2]:     FUN_CODE_25d8:25d8(RW), 
                                                                                          FUN_CODE_25e6:25f0(RW)  
          SFR:af                 ??         ??
                             P3                                              XREF[3]:     FUN_CODE_02fe:02ee(W), 
                                                                                          FUN_CODE_02fe:030a(R), 
                                                                                          FUN_CODE_0496:04ab(W)  
          SFR:b0                 undefined1 ??
                             IEN1                                            XREF[2]:     FUN_CODE_0496:049c(W), 
                                                                                          FUN_CODE_0496:04ae(W)  
          SFR:b1                 ??         ??
                             IPL1                                            XREF[2]:     FUN_CODE_0496:049f(W), 
                                                                                          FUN_CODE_0496:04a2(W)  
          SFR:b2                 ??         ??
                             IPH1                                            XREF[1]:     FUN_CODE_0496:04a5(W)  
          SFR:b3                 ??         ??
                             DAT_SFR_b4                                      XREF[1]:     FUN_CODE_0496:04a8(W)  
          SFR:b4                 ??         ??
                             DAT_SFR_b5                                      XREF[1]:     FUN_CODE_02fe:030f(R)  
          SFR:b5                 undefined1 ??
                             DAT_SFR_b6                                      XREF[1]:     FUN_CODE_02fe:0311(R)  
          SFR:b6                 undefined1 ??
                             IPH0                                            XREF[3]:     FUN_CODE_0496:0496(W), 
                                                                                          FUN_CODE_0496:0499(W), 
                                                                                          FUN_CODE_0496:04b4(RW)  
          SFR:b7                 ??         ??
                             IP                                              XREF[1]:     FUN_CODE_22be:22d6(W)  
          SFR:b8                 ??         ??
                             SADEN                                           XREF[2]:     FUN_CODE_0496:04b7(RW), 
                                                                                          FUN_CODE_22be:22ca(W)  
          SFR:b9                 ??         ??
                             DAT_SFR_ba                                      XREF[1]:     FUN_CODE_22be:22cd(W)  
          SFR:ba                 ??         ??
                             DAT_SFR_bb                                      XREF[1]:     FUN_CODE_22be:22d0(W)  
          SFR:bb                 ??         ??
                             DAT_SFR_bc                                      XREF[8]:     FUN_CODE_012d:012d(RW), 
                                                                                          FUN_CODE_0163:016f(RW), 
                                                                                          CODE:018f(RW), CODE:0213(RW), 
                                                                                          FUN_CODE_0496:04ba(RW), 
                                                                                          FUN_CODE_22be:22c1(W), 
                                                                                          FUN_CODE_2310:2313(RW), 
                                                                                          i2c_send_message_common:2655(RW)  
          SFR:bc                 ??         ??
                             DAT_SFR_bd                                      XREF[3]:     FUN_CODE_012d:0130(RW), 
                                                                                          FUN_CODE_012d:0133(RW), 
                                                                                          FUN_CODE_22be:22c4(W)  
          SFR:bd                 ??         ??
                             SPH                                             XREF[1]:     FUN_CODE_22be:22c7(W)  
          SFR:be                 undefined1 ??
                             DAT_SFR_bf                                      XREF[11]:    CODE:013a(RW), CODE:015f(RW), 
                                                                                          FUN_CODE_0163:0163(RW), 
                                                                                          CODE:019b(RW), 
                                                                                          FUN_CODE_02fe:02fa(RW), 
                                                                                          FUN_CODE_02fe:02fe(RW), 
                                                                                          FUN_CODE_22be:22be(W), 
                                                                                          FUN_CODE_2310:2316(RW), 
                                                                                          have_20ms_elapsed:2325(RW), 
                                                                                          have_20ms_elapsed:2330(RW), 
                                                                                          FUN_CODE_23bd:23bd(RW)  
          SFR:bf                 ??         ??
                             FIFLG                                           XREF[1]:     FUN_CODE_2346:236d(W)  
          SFR:c0                 ??         ??
                             FIFLG1                                          XREF[1]:     FUN_CODE_22be:22d9(W)  
          SFR:c1                 ??         ??
                             DAT_SFR_c2                                      XREF[2]:     FUN_CODE_22be:22dc(W), 
                                                                                          FUN_CODE_2383:23b0(RW)  
          SFR:c2                 ??         ??
                             DAT_SFR_c3                                      XREF[1]:     FUN_CODE_22be:22df(W)  
          SFR:c3                 ??         ??
                             DAT_SFR_c4                                      XREF[1]:     FUN_CODE_22be:22e2(W)  
          SFR:c4                 ??         ??
                             DAT_SFR_c5                                      XREF[1]:     FUN_CODE_22be:22e5(W)  
          SFR:c5                 ??         ??
                             DAT_SFR_c6                                      XREF[1]:     FUN_CODE_22be:22e8(W)  
          SFR:c6                 ??         ??
                             EPCONFIG                                        XREF[1]:     FUN_CODE_22be:22eb(W)  
          SFR:c7                 ??         ??
                             T2CON                                           XREF[1]:     FUN_CODE_2346:2370(W)  
          SFR:c8                 ??         ??
                             T2MOD                                           XREF[1]:     FUN_CODE_22be:22ee(W)  
          SFR:c9                 ??         ??
                             RCAP2L                                          XREF[1]:     FUN_CODE_22be:22f1(W)  
          SFR:ca                 ??         ??
                             RCAP2H                                          XREF[1]:     FUN_CODE_22be:22f4(W)  
          SFR:cb                 ??         ??
                             TL2                                             XREF[1]:     FUN_CODE_22be:22f7(W)  
          SFR:cc                 ??         ??
                             TH2                                             XREF[1]:     FUN_CODE_22be:22fa(W)  
          SFR:cd                 ??         ??
                             DAT_SFR_ce                                      XREF[1]:     FUN_CODE_22be:22fd(W)  
          SFR:ce                 ??         ??
                             HPCON                                           XREF[1]:     FUN_CODE_22be:2300(W)  
          SFR:cf                 ??         ??
                             PSW
          SFR:d0                 ??         ??
                             PSW1                                            XREF[1]:     FUN_CODE_22be:2303(W)  
          SFR:d1                 ??         ??
                             SOFL                                            XREF[1]:     FUN_CODE_22be:2306(W)  
          SFR:d2                 ??         ??
                             DAT_SFR_d3                                      XREF[1]:     FUN_CODE_22be:2309(W)  
          SFR:d3                 ??         ??
                             HPINDEX                                         XREF[1]:     FUN_CODE_22be:230c(W)  
          SFR:d4                 ??         ??
                             HPSC                                            XREF[4]:     CODE:02a8(W), 
                                                                                          FUN_CODE_241b:2422(W), 
                                                                                          ipc_fifo_write:242f(W), 
                                                                                          FUN_CODE_2432:2433(W)  
          SFR:d5                 ??         ??
                             DAT_SFR_d6                                      XREF[5]:     FUN_CODE_241b:241e(W), 
                                                                                          FUN_CODE_241b:2425(R), 
                                                                                          FUN_CODE_242a:242c(W), 
                                                                                          FUN_CODE_2439:2439(W), 
                                                                                          FUN_CODE_243d:243d(R)  
          SFR:d6                 undefined1 ??
                             HPSTAT                                          XREF[6]:     FUN_CODE_0648:064d(R), 
                                                                                          FUN_CODE_0648:0652(R), 
                                                                                          FUN_CODE_0648:0657(R), 
                                                                                          FUN_CODE_0648:06a5(R), 
                                                                                          FUN_CODE_0648:06aa(R), 
                                                                                          FUN_CODE_0648:06af(R)  
          SFR:d7                 undefined1 ??
                             CCON                                            XREF[1]:     FUN_CODE_29dc:29e8(W)  
          SFR:d8                 ??         ??
                             CMOD                                            XREF[6]:     CODE:01c2(R), CODE:01d7(R), 
                                                                                          CODE:0230(R), CODE:0245(R), 
                                                                                          CODE:0268(R), CODE:027d(R)  
          SFR:d9                 ??         ??
                             CCAPM0                                          XREF[8]:     CODE:01c5(W), CODE:01e8(W), 
                                                                                          CODE:01ec(W), CODE:0233(W), 
                                                                                          CODE:024c(W), CODE:026b(W), 
                                                                                          CODE:02a4(R), CODE:02a8(R)  
          SFR:da                 undefined1 ??
                             CCAPM1                                          XREF[1]:     FUN_CODE_29dc:29dc(W)  
          SFR:db                 ??         ??
                             CCAPM2                                          XREF[2]:     FUN_CODE_02ad:02c9(W), 
                                                                                          FUN_CODE_29dc:29df(W)  
          SFR:dc                 ??         ??
                             CCAPM3                                          XREF[1]:     FUN_CODE_29dc:29e2(W)  
          SFR:dd                 ??         ??
                             CCAPM4                                          XREF[1]:     FUN_CODE_29dc:29e5(W)  
          SFR:de                 ??         ??
                             PCON1
          SFR:df                 ??         ??
                             ACC
          SFR:e0                 ??         ??
                             EPCON                                           XREF[5]:     CODE:01ec(R), CODE:024c(R), 
                                                                                          FUN_CODE_23fc:2403(R), 
                                                                                          ipc_fifo_read:240d(R), 
                                                                                          FUN_CODE_2410:2410(R)  
          SFR:e1                 undefined1 ??
                             RXSTAT                                          XREF[4]:     FUN_CODE_00f4:00f4(R), 
                                                                                          FUN_CODE_23fc:2401(W), 
                                                                                          FUN_CODE_2408:240a(W), 
                                                                                          FUN_CODE_2417:2417(W)  
          SFR:e2                 undefined1 ??
                             RXDAT                                           XREF[5]:     FUN_CODE_00ad:00ad(W), 
                                                                                          FUN_CODE_00ad:00b0(W), 
                                                                                          FUN_CODE_00ad:00b3(W), 
                                                                                          FUN_CODE_00ad:00b6(W), 
                                                                                          FUN_CODE_2442:2448(R)  
          SFR:e3                 undefined1 ??
                             RXCON
          SFR:e4                 ??         ??
                             RXFLG
          SFR:e5                 ??         ??
                             RXCNTL
          SFR:e6                 ??         ??
                             RXCNTH
          SFR:e7                 ??         ??
                             HIFLG                                           XREF[1]:     FUN_CODE_2383:23ad(W)  
          SFR:e8                 ??         ??
                             CL
          SFR:e9                 ??         ??
                             CCAP0L                                          XREF[11]:    FUN_CODE_24a5:24b9(W), 
                                                                                          FUN_CODE_24a5:24c4(W), 
                                                                                          FUN_CODE_24a5:24d0(W), 
                                                                                          FUN_CODE_24a5:250c(W), 
                                                                                          FUN_CODE_24a5:2517(W), 
                                                                                          FUN_CODE_24a5:2523(W), 
                                                                                          FUN_CODE_24a5:2536(W), 
                                                                                          FUN_CODE_24a5:2549(W), 
                                                                                          FUN_CODE_24a5:255c(W), 
                                                                                          FUN_CODE_24a5:256f(W), 
                                                                                          FUN_CODE_24a5:2582(W)  
          SFR:ea                 ??         ??
                             CCAP1L                                          XREF[3]:     FUN_CODE_2442:2460(W), 
                                                                                          FUN_CODE_24a5:24b6(W), 
                                                                                          FUN_CODE_24a5:2509(W)  
          SFR:eb                 ??         ??
                             CCAP2L                                          XREF[1]:     FUN_CODE_2442:245b(W)  
          SFR:ec                 ??         ??
                             CCAP3L                                          XREF[1]:     FUN_CODE_2442:2456(W)  
          SFR:ed                 ??         ??
                             CCAP4L                                          XREF[1]:     FUN_CODE_24a5:24a7(R)  
          SFR:ee                 undefined1 ??
          SFR:ef                 ??         ??
                             B
          SFR:f0                 ??         ??
                             EPINDEX                                         XREF[9]:     FUN_CODE_24a5:24ca(R), 
                                                                                          FUN_CODE_24a5:24da(R), 
                                                                                          FUN_CODE_24a5:2512(R), 
                                                                                          FUN_CODE_24a5:252e(R), 
                                                                                          FUN_CODE_24a5:2541(R), 
                                                                                          FUN_CODE_24a5:2554(R), 
                                                                                          FUN_CODE_24a5:2567(R), 
                                                                                          FUN_CODE_24a5:2577(R), 
                                                                                          FUN_CODE_24a5:2588(R)  
          SFR:f1                 undefined1 ??
                             TXSTAT                                          XREF[9]:     FUN_CODE_24a5:24cc(R), 
                                                                                          FUN_CODE_24a5:24de(R), 
                                                                                          FUN_CODE_24a5:251d(R), 
                                                                                          FUN_CODE_24a5:252b(R), 
                                                                                          FUN_CODE_24a5:253e(R), 
                                                                                          FUN_CODE_24a5:2551(R), 
                                                                                          FUN_CODE_24a5:2564(R), 
                                                                                          FUN_CODE_24a5:2579(R), 
                                                                                          FUN_CODE_24a5:258b(R)  
          SFR:f2                 undefined1 ??
                             TXDAT                                           XREF[9]:     FUN_CODE_24a5:24bf(R), 
                                                                                          FUN_CODE_24a5:24e2(R), 
                                                                                          FUN_CODE_24a5:2520(R), 
                                                                                          FUN_CODE_24a5:2534(R), 
                                                                                          FUN_CODE_24a5:2547(R), 
                                                                                          FUN_CODE_24a5:255a(R), 
                                                                                          FUN_CODE_24a5:256d(R), 
                                                                                          FUN_CODE_24a5:257c(R), 
                                                                                          FUN_CODE_24a5:258e(R)  
          SFR:f3                 undefined1 ??
                             TXCON                                           XREF[6]:     FUN_CODE_24a5:24e6(R), 
                                                                                          FUN_CODE_24a5:2531(R), 
                                                                                          FUN_CODE_24a5:2544(R), 
                                                                                          FUN_CODE_24a5:2557(R), 
                                                                                          FUN_CODE_24a5:256a(R), 
                                                                                          FUN_CODE_24a5:257f(R)  
          SFR:f4                 undefined1 ??
                             TXFLG                                           XREF[12]:    FUN_CODE_2442:2462(W), 
                                                                                          FUN_CODE_24a5:24bc(W), 
                                                                                          FUN_CODE_24a5:24c7(W), 
                                                                                          FUN_CODE_24a5:24d3(W), 
                                                                                          FUN_CODE_24a5:250f(W), 
                                                                                          FUN_CODE_24a5:251a(W), 
                                                                                          FUN_CODE_24a5:2526(W), 
                                                                                          FUN_CODE_24a5:2539(W), 
                                                                                          FUN_CODE_24a5:254c(W), 
                                                                                          FUN_CODE_24a5:255f(W), 
                                                                                          FUN_CODE_24a5:2572(W), 
                                                                                          FUN_CODE_24a5:2585(W)  
          SFR:f5                 ??         ??
                             TXCNTL
          SFR:f6                 ??         ??
                             TXCNTH
          SFR:f7                 ??         ??
          SFR:f8                 ??         ??
                             CH
          SFR:f9                 ??         ??
                             CCAP0H
          SFR:fa                 ??         ??
                             CCAP1H
          SFR:fb                 ??         ??
                             CCAP2H                                          XREF[1]:     FUN_CODE_0082:0084(W)  
          SFR:fc                 ??         ??
                             CCAP3H                                          XREF[3]:     FUN_CODE_0648:06fd(R), 
                                                                                          FUN_CODE_0648:0702(R), 
                                                                                          FUN_CODE_0648:0707(R)  
          SFR:fd                 undefined1 ??
                             CCAP4H                                          XREF[3]:     FUN_CODE_2334:2334(W), 
                                                                                          FUN_CODE_2334:233a(W), 
                                                                                          FUN_CODE_23bd:23c3(W)  
          SFR:fe                 ??         ??
                             DAT_SFR_ff                                      XREF[2]:     FUN_CODE_2334:2337(W), 
                                                                                          FUN_CODE_23bd:23c0(W)  
          SFR:ff                 ??         ??
                             //
                             // BITS (bitmap[0x0, 0x80, INTMEM:20])
                             // BITS:00-BITS:7f
                             //
                             20.0                                            XREF[3]:     FUN_CODE_07ea:080a(W), 
                                                                                          FUN_CODE_1bbe:1bfa(R), 
                                                                                          FUN_CODE_1bbe:1bfd(W)  
         BITS:00                 ??         ??
                             20.1                                            XREF[3]:     FUN_CODE_1bbe:1c02(W), 
                                                                                          FUN_CODE_1bbe:1c04(R), 
                                                                                          FUN_CODE_1bbe:1c10(RW)  
         BITS:01                 ??         ??
                             20.2                                            XREF[4]:     FUN_CODE_1bbe:1c12(R), 
                                                                                          FUN_CODE_1bbe:1c18(W), 
                                                                                          CODE:1e76(W), CODE:1fcc(W)  
         BITS:02                 ??         ??
                             20.3                                            XREF[5]:     ipc_handle_messages:0b76(W), 
                                                                                          CODE:17a9(R), CODE:1df7(R), 
                                                                                          CODE:1e62(W), CODE:1f5a(R)  
         BITS:03                 ??         ??
                             20.4                                            XREF[3]:     ipc_handle_messages:0b55(W), 
                                                                                          CODE:115d(R), CODE:1f57(R)  
         BITS:04                 ??         ??
                             20.5                                            XREF[5]:     ipc_handle_messages:095c(R), 
                                                                                          FUN_CODE_0d43:0e20(R), 
                                                                                          CODE:175f(R), CODE:2089(W), 
                                                                                          CODE:20a3(W)  
         BITS:05                 ??         ??
                             20.6                                            XREF[2]:     FUN_CODE_0775:0788(R), 
                                                                                          FUN_CODE_0775:0796(W)  
         BITS:06                 ??         ??
                             20.7                                            XREF[2]:     ipc_handle_messages:08c6(R), 
                                                                                          ipc_handle_messages:0baf(W)  
         BITS:07                 ??         ??
                             g_powerswitch_pushed                            XREF[10]:    ipc_handle_messages:0b4b(W), 
                                                                                          ipc_handle_messages:0b82(W), 
                                                                                          FUN_CODE_0d43:0d9c(R), 
                                                                                          CODE:0f55(W), CODE:0f73(R), 
                                                                                          CODE:1cd4(W), CODE:1e00(R), 
                                                                                          CODE:1e68(W), CODE:1eb2(R), 
                                                                                          CODE:1f60(R)  
         BITS:08                 ??         ??
                             g_ejectswitch_pushed?                           XREF[7]:     CODE:1d0a(W), CODE:1dfa(R), 
                                                                                          CODE:1e64(W), CODE:1ea9(R), 
                                                                                          CODE:1eba(W), CODE:1f75(R), 
                                                                                          CODE:1f91(W)  
         BITS:09                 ??         ??
                             21.2                                            XREF[7]:     CODE:0773(W), CODE:146c(W), 
                                                                                          CODE:1b94(W), CODE:1baf(R), 
                                                                                          CODE:1bb3(W), CODE:1e0c(R), 
                                                                                          CODE:1e6e(W)  
         BITS:0a                 ??         ??
                             21.3                                            XREF[9]:     ipc_handle_messages:0b86(W), 
                                                                                          FUN_CODE_0d43:0da2(R), 
                                                                                          CODE:0f59(W), CODE:0f79(R), 
                                                                                          CODE:1497(W), CODE:1bb5(R), 
                                                                                          CODE:1bb9(W), CODE:1e70(W), 
                                                                                          CODE:1f66(R)  
         BITS:0b                 ??         ??
                             21.4                                            XREF[5]:     CODE:076e(W), CODE:1190(W), 
                                                                                          FUN_CODE_1196:1196(R), 
                                                                                          CODE:1e90(W), CODE:1e95(R)  
         BITS:0c                 ??         ??
                             g_powerup_sm_should_run                         XREF[6]:     powerup_sm_exec:106d(R), 
                                                                                          powerup_sm_exec:1070(W), 
                                                                                          CODE:1e82(W), CODE:1eee(W), 
                                                                                          CODE:1f40(R), CODE:2012(W)  
         BITS:0d                 ??         ??
                             g_sysreset_watchdog_should_run                  XREF[8]:     CODE:129f(W), CODE:12b6(W), 
                                                                                          sysreset_watchdog_statemachine_e
                                                                                          CODE:1ea6(R), CODE:1ef2(W), 
                                                                                          CODE:1f43(W), CODE:1ffc(W), 
                                                                                          CODE:2016(W)  
         BITS:0e                 ??         ??
                             g_requesting_reset                              XREF[9]:     CODE:111e(W), 
                                                                                          hw_reset_statemachine_exec:1122(
                                                                                          CODE:11c4(W), CODE:12ba(W), 
                                                                                          CODE:12be(R), CODE:1ef4(W), 
                                                                                          CODE:1fce(W), CODE:2007(R), 
                                                                                          CODE:2018(W)  
         BITS:0f                 ??         ??
                             g_powerdown_sm_should_run                       XREF[6]:     powerdown_sm_exec:0ea4(R), 
                                                                                          CODE:0fa1(W), CODE:1e8a(R), 
                                                                                          CODE:1ef0(W), CODE:200a(W), 
                                                                                          CODE:2014(W)  
         BITS:10                 ??         ??
                             22.1                                            XREF[2]:     dbgled_read:2343(W), 
                                                                                          FUN_CODE_24a5:24b0(R)  
         BITS:11                 ??         ??
                             22.2                                            XREF[4]:     CODE:10bd(W), CODE:126f(W), 
                                                                                          FUN_CODE_1d0f:1d2f(R), 
                                                                                          CODE:1eaf(R)  
         BITS:12                 ??         ??
                             g_has_getpoweroncause_arrived                   XREF[9]:     ipc_handle_messages:08bd(W), 
                                                                                          ipc_handle_messages:0b90(W), 
                                                                                          ipc_handle_messages:0d0d(R), 
                                                                                          FUN_CODE_0d43:0d44(R), 
                                                                                          CODE:10ae(W), CODE:1279(R), 
                                                                                          CODE:1287(R), CODE:1f82(R), 
                                                                                          CODE:1f97(R)  
         BITS:13                 ??         ??
                             22.4                                            XREF[12]:    ipc_handle_messages:0b63(W), 
                                                                                          ipc_handle_messages:0b80(W), 
                                                                                          FUN_CODE_0d43:0d99(R), 
                                                                                          CODE:11b5(R), CODE:11c2(W), 
                                                                                          CODE:1ba9(R), CODE:1bad(W), 
                                                                                          CODE:1f5d(R), CODE:1fbf(R), 
                                                                                          CODE:1fde(W), 
                                                                                          FUN_CODE_221b:222f(R), 
                                                                                          FUN_CODE_221b:2233(W)  
         BITS:14                 ??         ??
                             22.5                                            XREF[4]:     ipc_handle_messages:0b68(W), 
                                                                                          CODE:17ac(R), CODE:17b5(W), 
                                                                                          CODE:1ff7(R)  
         BITS:15                 ??         ??
                             22.6                                            XREF[3]:     ipc_handle_messages:0b6c(W), 
                                                                                          CODE:1fe7(R), CODE:1fed(W)  
         BITS:16                 ??         ??
                             22.7                                            XREF[7]:     FUN_CODE_0775:078b(R), 
                                                                                          CODE:0f6a(W), CODE:1003(W), 
                                                                                          FUN_CODE_14ba:14ba(R), 
                                                                                          FUN_CODE_1d0f:1d0f(R), 
                                                                                          FUN_CODE_2029:2029(R), 
                                                                                          FUN_CODE_23ce:23d0(R)  
         BITS:17                 ??         ??
                             23.0                                            XREF[4]:     CODE:0f38(W), CODE:1035(W), 
                                                                                          FUN_CODE_1d0f:1d17(R), 
                                                                                          FUN_CODE_23eb:23ed(R)  
         BITS:18                 ??         ??
                             23.1                                            XREF[4]:     FUN_CODE_0058:005a(R), 
                                                                                          CODE:0ef1(W), CODE:1069(W), 
                                                                                          FUN_CODE_1d0f:1d1f(R)  
         BITS:19                 ??         ??
                             23.2                                            XREF[4]:     FUN_CODE_0036:0038(R), 
                                                                                          CODE:0f4a(W), CODE:1023(W), 
                                                                                          FUN_CODE_1d0f:1d27(R)  
         BITS:1a                 ??         ??
                             23.3                                            XREF[3]:     FUN_CODE_1d0f:1d32(W), 
                                                                                          FUN_CODE_1d0f:1d36(R), 
                                                                                          FUN_CODE_1d0f:1d3e(W)  
         BITS:1b                 ??         ??
                             23.4                                            XREF[17]:    CODE:0ed6(R), CODE:0f4f(R), 
                                                                                          CODE:0f7c(R), CODE:0feb(W), 
                                                                                          CODE:100f(W), CODE:1055(W), 
                                                                                          CODE:1b07(W), 
                                                                                          FUN_CODE_1d0f:1d43(W), 
                                                                                          FUN_CODE_1d0f:1d53(W), 
                                                                                          FUN_CODE_1d0f:1d63(W), 
                                                                                          FUN_CODE_1d0f:1d73(W), 
                                                                                          CODE:1e7f(R), CODE:1ea0(R), 
                                                                                          CODE:1f3a(R), CODE:1f4d(R), 
                                                                                          CODE:201e(R), 
                                                                                          FUN_CODE_2029:2052(W)  
         BITS:1c                 ??         ??
                             23.5                                            XREF[9]:     CODE:0ed9(R), CODE:0f52(R), 
                                                                                          CODE:0f7f(R), 
                                                                                          FUN_CODE_14ba:150b(R), 
                                                                                          FUN_CODE_14ba:1511(W), 
                                                                                          FUN_CODE_14ba:1581(R), 
                                                                                          CODE:1ea3(R), CODE:1f3d(R), 
                                                                                          CODE:1f50(R)  
         BITS:1d                 ??         ??
                             23.6                                            XREF[5]:     ipc_handle_messages:0cfb(W), 
                                                                                          CODE:11b3(W), CODE:127c(R), 
                                                                                          CODE:128a(R), CODE:12aa(R)  
         BITS:1e                 ??         ??
                             23.7                                            XREF[4]:     FUN_CODE_080d:0833(W), 
                                                                                          FUN_CODE_1bbe:1c2c(R), 
                                                                                          CODE:1df2(W), CODE:1e74(W)  
         BITS:1f                 ??         ??
                             24.0                                            XREF[11]:    ipc_handle_messages:0b84(W), 
                                                                                          FUN_CODE_0d43:0d9f(R), 
                                                                                          CODE:0f57(W), CODE:0f76(R), 
                                                                                          FUN_CODE_1bbe:1c20(W), 
                                                                                          FUN_CODE_1bbe:1c35(W), 
                                                                                          FUN_CODE_1bbe:1c52(W), 
                                                                                          CODE:1e03(R), CODE:1e6a(W), 
                                                                                          CODE:1eb5(R), CODE:1f63(R)  
         BITS:20                 ??         ??
                             24.1                                            XREF[3]:     FUN_CODE_1bbe:1c49(W), 
                                                                                          CODE:1e06(R), CODE:1e6c(W)  
         BITS:21                 ??         ??
                             24.2                                            XREF[2]:     FUN_CODE_1bbe:1c40(W), 
                                                                                          CODE:1e09(R)  
         BITS:22                 ??         ??
                             24.3                                            XREF[7]:     FUN_CODE_1bbe:1c29(W), 
                                                                                          CODE:1dfd(R), CODE:1e66(W), 
                                                                                          CODE:1eac(R), CODE:1ed4(W), 
                                                                                          CODE:1f78(R), CODE:1f95(W)  
         BITS:23                 ??         ??
                             24.4                                            XREF[3]:     CODE:0ee8(W), CODE:1042(W), 
                                                                                          FUN_CODE_221b:221b(R)  
         BITS:24                 ??         ??
                             24.5                                            XREF[5]:     FUN_CODE_080d:0831(W), 
                                                                                          ipc_handle_messages:0c4a(W), 
                                                                                          CODE:1e60(W), CODE:20c0(R), 
                                                                                          CODE:20c3(W)  
         BITS:25                 ??         ??
                             24.6                                            XREF[5]:     CODE:20f8(W), CODE:20ff(W), 
                                                                                          CODE:21a5(R), CODE:21c9(R), 
                                                                                          CODE:21cc(W)  
         BITS:26                 ??         ??
                             24.7                                            XREF[6]:     CODE:21c2(W), CODE:21d3(R), 
                                                                                          CODE:21db(W), CODE:21fb(W), 
                                                                                          CODE:2203(R), CODE:220b(W)  
         BITS:27                 ??         ??
                             25.0                                            XREF[6]:     CODE:1ecc(R), CODE:1ee6(R), 
                                                                                          CODE:1fb6(R), CODE:20f1(W), 
                                                                                          CODE:21d9(W), CODE:2209(W)  
         BITS:28                 ??         ??
                             25.1                                            XREF[4]:     ipc_handle_messages:0c4d(W), 
                                                                                          CODE:10b0(W), CODE:11b8(W), 
                                                                                          FUN_CODE_221b:2231(R)  
         BITS:29                 ??         ??
                             25.2                                            XREF[5]:     CODE:0f82(W), CODE:10c5(W), 
                                                                                          CODE:111c(W), CODE:117a(W), 
                                                                                          CODE:1a54(R)  
         BITS:2a                 ??         ??
                             25.3                                            XREF[4]:     CODE:110e(R), CODE:1113(R), 
                                                                                          CODE:1a52(W), CODE:1ad6(W)  
         BITS:2b                 ??         ??
                             25.4                                            XREF[3]:     ipc_handle_messages:0a77(W), 
                                                                                          CODE:1a59(R), CODE:1ae0(W)  
         BITS:2c                 ??         ??
                             25.5                                            XREF[4]:     CODE:117e(W), CODE:118a(R), 
                                                                                          CODE:1a67(R), CODE:1b02(W)  
         BITS:2d                 ??         ??
                             25.6                                            XREF[3]:     CODE:0ffc(W), CODE:1a76(R), 
                                                                                          CODE:1b1d(W)  
         BITS:2e                 ??         ??
                             25.7                                            XREF[3]:     CODE:0f6c(W), CODE:1a85(R), 
                                                                                          CODE:1b29(W)  
         BITS:2f                 ??         ??
                             26.0                                            XREF[4]:     CODE:133f(W), CODE:1350(R), 
                                                                                          CODE:1a97(R), CODE:1b75(W)  
         BITS:30                 ??         ??
                             26.1                                            XREF[4]:     CODE:1470(W), CODE:149d(R), 
                                                                                          CODE:1aa6(R), CODE:1b8f(W)  
         BITS:31                 ??         ??
                             26.2                                            XREF[3]:     CODE:1ab5(R), CODE:1b60(W), 
                                                                                          FUN_CODE_2029:2035(W)  
         BITS:32                 ??         ??
                             26.3                                            XREF[19]:    CODE:032f(RW), 
                                                                                          ipc_handle_messages:0cf9(W), 
                                                                                          CODE:0ff8(W), CODE:101c(W), 
                                                                                          CODE:1062(W), CODE:11e4(W), 
                                                                                          CODE:1212(W), CODE:126b(W), 
                                                                                          CODE:129b(W), 
                                                                                          FUN_CODE_14ba:151c(W), 
                                                                                          CODE:1ac7(R), CODE:1b14(W), 
                                                                                          CODE:1b6c(W), CODE:1cee(W), 
                                                                                          FUN_CODE_1d0f:1d50(W), 
                                                                                          FUN_CODE_1d0f:1d60(W), 
                                                                                          FUN_CODE_1d0f:1d70(W), 
                                                                                          FUN_CODE_1d0f:1d80(W), 
                                                                                          FUN_CODE_2029:205f(W)  
         BITS:33                 ??         ??
                             26.4                                            XREF[6]:     FUN_CODE_0775:07a2(W), 
                                                                                          ipc_handle_messages:09a3(W), 
                                                                                          ipc_handle_messages:09b6(W), 
                                                                                          ipc_handle_messages:09c3(R), 
                                                                                          CODE:1a94(R), CODE:1ac4(R)  
         BITS:34                 ??         ??
                             26.5                                            XREF[6]:     ipc_handle_messages:089a(W), 
                                                                                          CODE:1d9b(R), CODE:1da3(R), 
                                                                                          CODE:1db1(W), CODE:229b(W), 
                                                                                          CODE:229f(R)  
         BITS:35                 ??         ??
                             26.6                                            XREF[5]:     ipc_handle_messages:0a79(W), 
                                                                                          CODE:1ae2(W), CODE:1d9e(W), 
                                                                                          CODE:1da6(R), CODE:1dab(R)  
         BITS:36                 ??         ??
                             26.7                                            XREF[5]:     FUN_CODE_0d43:0d4b(W), 
                                                                                          FUN_CODE_0d43:0d63(R), 
                                                                                          FUN_CODE_0d43:0df8(W), 
                                                                                          CODE:1356(W), CODE:1f01(W)  
         BITS:37                 ??         ??
                             27.0                                            XREF[4]:     FUN_CODE_0d43:0d4d(W), 
                                                                                          FUN_CODE_0d43:0d69(R), 
                                                                                          FUN_CODE_0d43:0e0c(W), 
                                                                                          CODE:1871(W)  
         BITS:38                 ??         ??
                             27.1                                            XREF[5]:     FUN_CODE_0d43:0d4f(W), 
                                                                                          FUN_CODE_0d43:0d6f(R), 
                                                                                          FUN_CODE_0d43:0e1b(W), 
                                                                                          CODE:208b(W), CODE:20a5(W)  
         BITS:39                 ??         ??
                             27.2                                            XREF[4]:     FUN_CODE_0d43:0d47(W), 
                                                                                          FUN_CODE_0d43:0d58(R), 
                                                                                          FUN_CODE_0d43:0d97(W), 
                                                                                          CODE:1f85(W)  
         BITS:3a                 ??         ??
                             27.3                                            XREF[5]:     ipc_handle_messages:0cbe(R), 
                                                                                          FUN_CODE_0d43:0d51(W), 
                                                                                          FUN_CODE_0d43:0d75(R), 
                                                                                          FUN_CODE_0d43:0e36(W), 
                                                                                          CODE:1997(W)  
         BITS:3b                 ??         ??
                             27.4                                            XREF[5]:     FUN_CODE_0d43:0d53(W), 
                                                                                          FUN_CODE_0d43:0d7b(R), 
                                                                                          FUN_CODE_0d43:0e56(W), 
                                                                                          CODE:1ba5(W), 
                                                                                          FUN_CODE_1bbe:1c6a(W)  
         BITS:3c                 ??         ??
                             27.5                                            XREF[4]:     FUN_CODE_0d43:0d49(W), 
                                                                                          FUN_CODE_0d43:0d5d(R), 
                                                                                          FUN_CODE_0d43:0dea(W), 
                                                                                          CODE:1f9f(W)  
         BITS:3d                 ??         ??
                             27.6                                            XREF[7]:     ipc_handle_messages:0c30(W), 
                                                                                          ipc_handle_messages:0c40(W), 
                                                                                          FUN_CODE_0d43:0d55(W), 
                                                                                          FUN_CODE_0d43:0d81(R), 
                                                                                          FUN_CODE_0d43:0e95(W), 
                                                                                          CODE:1f03(W), 
                                                                                          FUN_CODE_225c:225c(W)  
         BITS:3e                 ??         ??
                             27.7                                            XREF[3]:     CODE:0f84(W), CODE:117c(W), 
                                                                                          CODE:17f7(R)  
         BITS:3f                 ??         ??
                             28.0                                            XREF[4]:     CODE:0f99(R), CODE:0f9e(R), 
                                                                                          CODE:17f5(W), CODE:1838(W)  
         BITS:40                 ??         ??
                             28.1                                            XREF[3]:     CODE:13b4(W), CODE:1825(R), 
                                                                                          CODE:1862(W)  
         BITS:41                 ??         ??
                             28.2                                            XREF[3]:     CODE:1758(W), CODE:17fa(R), 
                                                                                          argon_sm_exec:19fa(W)  
         BITS:42                 ??         ??
                             28.3                                            XREF[7]:     CODE:1180(W), CODE:1358(W), 
                                                                                          CODE:1768(W), CODE:1805(R), 
                                                                                          argon_sm_exec:1a08(W), 
                                                                                          CODE:208d(W), CODE:20a7(W)  
         BITS:43                 ??         ??
                             28.4                                            XREF[4]:     CODE:1184(W), CODE:118d(R), 
                                                                                          CODE:1800(R), CODE:19a2(W)  
         BITS:44                 ??         ??
                             28.5                                            XREF[6]:     ipc_handle_messages:0bb3(W), 
                                                                                          ipc_handle_messages:0bec(W), 
                                                                                          ipc_handle_messages:0cb8(W), 
                                                                                          CODE:17d4(W), CODE:182a(R), 
                                                                                          CODE:1e5b(W)  
         BITS:45                 ??         ??
                             28.6                                            XREF[17]:    ipc_handle_messages:0cf7(W), 
                                                                                          CODE:0ff6(W), CODE:101a(W), 
                                                                                          CODE:1060(W), CODE:11e2(W), 
                                                                                          CODE:1210(W), CODE:1269(W), 
                                                                                          CODE:1299(W), 
                                                                                          FUN_CODE_14ba:151a(W), 
                                                                                          CODE:1816(R), CODE:183d(W), 
                                                                                          CODE:1b12(W), 
                                                                                          FUN_CODE_1d0f:1d4e(W), 
                                                                                          FUN_CODE_1d0f:1d5e(W), 
                                                                                          FUN_CODE_1d0f:1d6e(W), 
                                                                                          FUN_CODE_1d0f:1d7e(W), 
                                                                                          FUN_CODE_2029:205d(W)  
         BITS:46                 ??         ??
                             28.7                                            XREF[10]:    ipc_handle_messages:0c72(W), 
                                                                                          CODE:1186(W), CODE:17a2(W), 
                                                                                          CODE:1810(R), 
                                                                                          argon_sm_exec:1a04(W), 
                                                                                          CODE:1e7b(W), CODE:1fc7(W), 
                                                                                          CODE:1ff3(W), 
                                                                                          FUN_CODE_225c:2270(W), 
                                                                                          FUN_CODE_225c:227b(W)  
         BITS:47                 ??         ??
                             29.0                                            XREF[11]:    ipc_handle_messages:0c91(W), 
                                                                                          ipc_handle_messages:0d14(W), 
                                                                                          CODE:12b4(W), CODE:135a(W), 
                                                                                          CODE:1820(R), CODE:18e0(W), 
                                                                                          CODE:18e9(W), CODE:1cec(W), 
                                                                                          CODE:1e7d(W), CODE:1ff5(W), 
                                                                                          CODE:2025(W)  
         BITS:48                 ??         ??
                             29.1                                            XREF[3]:     CODE:181b(R), CODE:1855(W), 
                                                                                          FUN_CODE_1d0f:1d40(W)  
         BITS:49                 ??         ??
                             29.2                                            XREF[4]:     CODE:1182(W), CODE:17b3(W), 
                                                                                          CODE:180b(R), CODE:1ffa(W)  
         BITS:4a                 ??         ??
                             29.3                                            XREF[4]:     ipc_handle_messages:0cbb(R), 
                                                                                          ipc_handle_messages:0cd7(W), 
                                                                                          CODE:1833(R), CODE:1999(W)  
         BITS:4b                 ??         ??
                             g_wireless_controller_powered_system_on         XREF[3]:     argon_sm_exec:19fe(W), 
                                                                                          CODE:1e0f(R), CODE:1e72(W)  
         BITS:4c                 ??         ??
                             29.5                                            XREF[3]:     ipc_handle_messages:0c00(W), 
                                                                                          FUN_CODE_14ba:157e(R), 
                                                                                          FUN_CODE_2029:202c(R)  
         BITS:4d                 ??         ??
                             29.6                                            XREF[3]:     ipc_handle_messages:0bfb(W), 
                                                                                          FUN_CODE_15b5:15b7(R), 
                                                                                          CODE:1fe5(W)  
         BITS:4e                 ??         ??
                             29.7                                            XREF[3]:     CODE:0f5b(R), 
                                                                                          FUN_CODE_14ba:14d0(W), 
                                                                                          FUN_CODE_14ba:14e4(W)  
         BITS:4f                 ??         ??
                             2a.0                                            XREF[4]:     CODE:0f61(R), 
                                                                                          FUN_CODE_14ba:14e6(W), 
                                                                                          FUN_CODE_14ba:1509(W), 
                                                                                          FUN_CODE_14ba:150e(R)  
         BITS:50                 ??         ??
                             2a.1                                            XREF[3]:     FUN_CODE_2029:2037(R), 
                                                                                          FUN_CODE_2029:2043(W), 
                                                                                          CODE:27f0(W)  
         BITS:51                 ??         ??
                             2a.2                                            XREF[3]:     FUN_CODE_2029:203a(R), 
                                                                                          FUN_CODE_2029:2045(W), 
                                                                                          FUN_CODE_279d:27c7(W)  
         BITS:52                 ??         ??
                             2a.3                                            XREF[3]:     FUN_CODE_2029:203d(R), 
                                                                                          FUN_CODE_2029:2047(W), 
                                                                                          FUN_CODE_279d:27a3(W)  
         BITS:53                 ??         ??
                             2a.4                                            XREF[3]:     FUN_CODE_2029:2040(R), 
                                                                                          FUN_CODE_2029:2049(W), 
                                                                                          FUN_CODE_2813:2819(W)  
         BITS:54                 ??         ??
                             2a.5                                            XREF[4]:     ipc_handle_messages:0ca1(W), 
                                                                                          ipc_handle_messages:0ca4(W), 
                                                                                          CODE:10b2(W), CODE:1326(R)  
         BITS:55                 ??         ??
                             2a.6                                            XREF[2]:     CODE:1b9b(R), 
                                                                                          FUN_CODE_285d:2881(W)  
         BITS:56                 ??         ??
                             2a.7                                            XREF[8]:     ipc_handle_messages:0bb1(W), 
                                                                                          ipc_handle_messages:0bdc(W), 
                                                                                          ipc_handle_messages:0bea(W), 
                                                                                          CODE:17c9(R), CODE:19a9(W), 
                                                                                          CODE:1e59(W), CODE:1fd3(W), 
                                                                                          FUN_CODE_2cb7:2cbb(R)  
         BITS:57                 ??         ??
                             2b.0                                            XREF[5]:     ipc_handle_messages:08ca(R), 
                                                                                          ipc_handle_messages:0bda(W), 
                                                                                          CODE:17cc(R), CODE:1e17(R), 
                                                                                          CODE:1f69(R)  
         BITS:58                 ??         ??
                             2b.1                                            XREF[3]:     ipc_handle_messages:08a0(R), 
                                                                                          FUN_CODE_24a5:24a5(W), 
                                                                                          FUN_CODE_24a5:24b3(W)  
         BITS:59                 ??         ??
                             2b.2
         BITS:5a                 ??         ??
                             2b.3                                            XREF[3]:     CODE:014a(R), 
                                                                                          argon_disable:23b7(W), 
                                                                                          argon_enable:23ba(W)  
         BITS:5b                 ??         ??
                             2b.4                                            XREF[8]:     CODE:01e0(R), CODE:029c(R), 
                                                                                          FUN_CODE_268e:26cf(W), 
                                                                                          FUN_CODE_26d6:26f2(W), 
                                                                                          FUN_CODE_26f9:2720(W), 
                                                                                          FUN_CODE_272c:274e(W), 
                                                                                          FUN_CODE_2755:2798(W), 
                                                                                          CODE:28d2(W)  
         BITS:5c                 ??         ??
                             2b.5                                            XREF[7]:     CODE:01a6(R), 
                                                                                          FUN_CODE_268e:268e(W), 
                                                                                          FUN_CODE_26d6:26d6(W), 
                                                                                          FUN_CODE_26f9:26f9(W), 
                                                                                          FUN_CODE_272c:272c(W), 
                                                                                          FUN_CODE_2755:2783(W), 
                                                                                          CODE:28b1(W)  
         BITS:5d                 ??         ??
                             2b.6                                            XREF[10]:    CODE:01a9(R), CODE:01f6(R), 
                                                                                          CODE:0207(R), CODE:0258(W), 
                                                                                          FUN_CODE_268e:2696(W), 
                                                                                          FUN_CODE_26d6:26de(W), 
                                                                                          FUN_CODE_26f9:26fe(W), 
                                                                                          FUN_CODE_272c:2734(W), 
                                                                                          FUN_CODE_2755:278e(W), 
                                                                                          CODE:28bc(W)  
         BITS:5e                 ??         ??
                             2b.7                                            XREF[8]:     CODE:01f9(R), CODE:025a(R), 
                                                                                          FUN_CODE_268e:2698(W), 
                                                                                          FUN_CODE_26d6:26e0(W), 
                                                                                          FUN_CODE_26f9:2700(W), 
                                                                                          FUN_CODE_272c:2736(W), 
                                                                                          FUN_CODE_2755:2790(W), 
                                                                                          CODE:28c7(W)  
         BITS:5f                 ??         ??
                             2c.0                                            XREF[3]:     CODE:0216(W), 
                                                                                          FUN_CODE_2627:2627(R), 
                                                                                          i2c_send_message_common:264e(W)  
         BITS:60                 ??         ??
                             2c.1                                            XREF[6]:     CODE:01fc(W), CODE:025d(W), 
                                                                                          CODE:0287(W), 
                                                                                          FUN_CODE_2627:2638(R), 
                                                                                          FUN_CODE_2627:2648(W), 
                                                                                          i2c_send_message_common:264c(W)  
         BITS:61                 ??         ??
                             2c.2                                            XREF[6]:     FUN_CODE_02fe:031b(R), 
                                                                                          FUN_CODE_02fe:03d1(W), 
                                                                                          FUN_CODE_2383:2383(W), 
                                                                                          FUN_CODE_2ac4:2ac4(R), 
                                                                                          FUN_CODE_2ac4:2adf(W), 
                                                                                          FUN_CODE_2ac4:2ae2(W)  
         BITS:62                 ??         ??
                             2c.3                                            XREF[6]:     CODE:050a(R), CODE:05ae(W), 
                                                                                          CODE:05c4(W), 
                                                                                          FUN_CODE_2383:238d(W), 
                                                                                          FUN_CODE_2a0b:2a0d(R), 
                                                                                          FUN_CODE_2a0b:2a12(W)  
         BITS:63                 ??         ??
                             2c.4                                            XREF[16]:    CODE:04ec(W), CODE:04fb(W), 
                                                                                          CODE:0530(R), CODE:053f(W), 
                                                                                          CODE:0550(W), CODE:056b(W), 
                                                                                          CODE:05a1(W), CODE:05b8(W), 
                                                                                          CODE:05c0(W), CODE:05dc(W), 
                                                                                          CODE:0607(W), CODE:0627(W), 
                                                                                          FUN_CODE_2383:238b(W), 
                                                                                          FUN_CODE_2a15:2a34(W), 
                                                                                          FUN_CODE_2a15:2a3b(W), 
                                                                                          FUN_CODE_2a3e:2a3f(R)  
         BITS:64                 ??         ??
                             2c.5                                            XREF[5]:     CODE:0552(W), CODE:05ba(W), 
                                                                                          CODE:0629(W), 
                                                                                          FUN_CODE_2a15:2a27(W), 
                                                                                          FUN_CODE_2a3e:2a42(R)  
         BITS:65                 ??         ??
                             2c.6                                            XREF[3]:     CODE:061d(R), 
                                                                                          FUN_CODE_2a15:2a23(W), 
                                                                                          FUN_CODE_2a15:2a39(W)  
         BITS:66                 ??         ??
                             2c.7                                            XREF[4]:     CODE:04e9(R), CODE:0539(R), 
                                                                                          FUN_CODE_2a15:2a25(W), 
                                                                                          FUN_CODE_2a15:2a37(W)  
         BITS:67                 ??         ??
                             2d.0                                            XREF[12]:    CODE:04ca(W), CODE:04e6(R), 
                                                                                          CODE:04ee(W), CODE:0529(R), 
                                                                                          CODE:0568(R), CODE:059e(R), 
                                                                                          CODE:05a8(R), CODE:05bc(W), 
                                                                                          CODE:05c2(W), CODE:061a(R), 
                                                                                          CODE:0620(W), CODE:062b(W)  
         BITS:68                 ??         ??
                             2d.1                                            XREF[7]:     CODE:0543(W), CODE:054a(W), 
                                                                                          CODE:05ab(R), CODE:05b2(R), 
                                                                                          CODE:05d2(W), CODE:05f2(R), 
                                                                                          CODE:05fd(W)  
         BITS:69                 ??         ??
                             2d.2                                            XREF[4]:     CODE:055e(W), CODE:05ea(W), 
                                                                                          CODE:05f6(W), CODE:060b(R)  
         BITS:6a                 ??         ??
                             2d.3                                            XREF[4]:     FUN_CODE_0648:065c(W), 
                                                                                          FUN_CODE_0648:0663(R), 
                                                                                          FUN_CODE_0648:0669(W), 
                                                                                          FUN_CODE_2383:23a4(W)  
         BITS:6b                 ??         ??
                             2d.4                                            XREF[4]:     FUN_CODE_0648:06b4(W), 
                                                                                          FUN_CODE_0648:06bb(R), 
                                                                                          FUN_CODE_0648:06c1(W), 
                                                                                          FUN_CODE_2383:23a6(W)  
         BITS:6c                 ??         ??
                             2d.5                                            XREF[4]:     FUN_CODE_0648:070c(W), 
                                                                                          FUN_CODE_0648:0713(R), 
                                                                                          FUN_CODE_0648:0719(W), 
                                                                                          FUN_CODE_2383:23a8(W)  
         BITS:6d                 ??         ??
                             2d.6                                            XREF[3]:     FUN_CODE_0648:066f(W), 
                                                                                          FUN_CODE_0648:0675(R), 
                                                                                          FUN_CODE_0648:0690(RW)  
         BITS:6e                 ??         ??
                             2d.7                                            XREF[3]:     FUN_CODE_0648:06c7(W), 
                                                                                          FUN_CODE_0648:06cd(R), 
                                                                                          FUN_CODE_0648:06e8(RW)  
         BITS:6f                 ??         ??
                             2e.0                                            XREF[3]:     FUN_CODE_0648:071f(W), 
                                                                                          FUN_CODE_0648:0725(R), 
                                                                                          FUN_CODE_0648:0740(RW)  
         BITS:70                 ??         ??
                             2e.1                                            XREF[4]:     FUN_CODE_0648:066b(W), 
                                                                                          FUN_CODE_0648:0678(R), 
                                                                                          FUN_CODE_0648:067e(W), 
                                                                                          FUN_CODE_0648:0692(W)  
         BITS:71                 ??         ??
                             2e.2                                            XREF[4]:     FUN_CODE_0648:06c3(W), 
                                                                                          FUN_CODE_0648:06d0(R), 
                                                                                          FUN_CODE_0648:06d6(W), 
                                                                                          FUN_CODE_0648:06ea(W)  
         BITS:72                 ??         ??
                             2e.3                                            XREF[4]:     FUN_CODE_0648:071b(W), 
                                                                                          FUN_CODE_0648:0728(R), 
                                                                                          FUN_CODE_0648:072e(W), 
                                                                                          FUN_CODE_0648:0742(W)  
         BITS:73                 ??         ??
                             2e.4                                            XREF[3]:     FUN_CODE_0648:0680(W), 
                                                                                          FUN_CODE_0648:0687(R), 
                                                                                          FUN_CODE_0648:06a0(W)  
         BITS:74                 ??         ??
                             2e.5                                            XREF[3]:     FUN_CODE_0648:06d8(W), 
                                                                                          FUN_CODE_0648:06df(R), 
                                                                                          FUN_CODE_0648:06f8(W)  
         BITS:75                 ??         ??
                             2e.6                                            XREF[3]:     FUN_CODE_0648:0730(W), 
                                                                                          FUN_CODE_0648:0737(R), 
                                                                                          FUN_CODE_0648:0750(W)  
         BITS:76                 ??         ??
                             2e.7                                            XREF[4]:     FUN_CODE_26f9:271e(W), 
                                                                                          FUN_CODE_272c:274c(W), 
                                                                                          FUN_CODE_2755:2755(R), 
                                                                                          FUN_CODE_2755:2781(W)  
         BITS:77                 ??         ??
                             2f.0
         BITS:78                 ??         ??
                             2f.1
         BITS:79                 ??         ??
                             2f.2
         BITS:7a                 ??         ??
                             2f.3
         BITS:7b                 ??         ??
                             2f.4
         BITS:7c                 ??         ??
                             2f.5
         BITS:7d                 ??         ??
                             2f.6
         BITS:7e                 ??         ??
                             2f.7
         BITS:7f                 ??         ??
                             //
                             // SFR-BITS (bitmap[0x0, 0x80, SFR:80])
                             // BITS:80-BITS:ff
                             //
                             P0.0                                            XREF[2]:     cpu_pwrgd_set:0063(W), 
                                                                                          cpu_pwrgd_clear:0066(W)  
         BITS:80                 ??         ??
                             P0.1                                            XREF[2]:     gpu_reset_assert:0041(W), 
                                                                                          FUN_CODE_0044:004c(W)  
         BITS:81                 ??         ??
                             g_argon_clk                                     XREF[9]:     CODE:04cc(W), CODE:04e1(R), 
                                                                                          CODE:04ff(R), CODE:0511(W), 
                                                                                          CODE:0526(R), CODE:0562(R), 
                                                                                          CODE:0598(R), CODE:05d6(R), 
                                                                                          CODE:0601(R)  
         BITS:82                 ??         ??                                                         GPIO P0.2
                             g_argon_data                                    XREF[8]:     CODE:04ce(W), CODE:0502(R), 
                                                                                          CODE:0513(W), CODE:055c(W), 
                                                                                          CODE:05cd(R), CODE:05e8(W), 
                                                                                          CODE:05f4(W), CODE:060e(R)  
         BITS:83                 ??         ??                                                         GPIO P0.3
                             P0.4                                            XREF[2]:     sb_reset_assert:00a7(W), 
                                                                                          sb_reset_deassert:00aa(W)  
         BITS:84                 ??         ??
                             P0.5                                            XREF[2]:     FUN_CODE_0079:0079(W), 
                                                                                          FUN_CODE_007c:007c(W)  
         BITS:85                 ??         ??
                             P0.6                                            XREF[2]:     cpu_reset_assert:0069(W), 
                                                                                          cpu_reset_deassert:006c(W)  
         BITS:86                 ??         ??
                             P0.7                                            XREF[1]:     FUN_CODE_004f:004f(R)  
         BITS:87                 ??         ??
                             IT0
         BITS:88                 ??         ??
                             IE0
         BITS:89                 ??         ??
                             IT1                                             XREF[1]:     CODE:018d(W)  
         BITS:8a                 ??         ??
                             IE1
         BITS:8b                 ??         ??
                             TR0
         BITS:8c                 ??         ??
                             TF0
         BITS:8d                 ??         ??
                             TR1
         BITS:8e                 ??         ??
                             TF1
         BITS:8f                 ??         ??
                             P1.0                                            XREF[1]:     ejectsw_read:25a2(R)  
         BITS:90                 ??         ??
                             P1.1                                            XREF[1]:     FUN_CODE_25aa:25b0(R)  
         BITS:91                 ??         ??
                             P1.2                                            XREF[1]:     FUN_CODE_25a6:25a6(R)  
         BITS:92                 ??         ??
                             P1.3                                            XREF[2]:     FUN_CODE_23e5:23e5(W), 
                                                                                          FUN_CODE_23e8:23e8(W)  
         BITS:93                 ??         ??
                             P1.4                                            XREF[2]:     FUN_CODE_23df:23df(W), 
                                                                                          FUN_CODE_23e2:23e2(W)  
         BITS:94                 ??         ??
                             P1.5                                            XREF[2]:     vreg_5vp0_enable:23d9(W), 
                                                                                          vreg_5vp0_kill:23dc(W)  
         BITS:95                 ??         ??
                             P1.6                                            XREF[1]:     FUN_CODE_0058:0058(R)  
         BITS:96                 ??         ??
                             P1.7                                            XREF[2]:     FUN_CODE_0052:0052(W), 
                                                                                          FUN_CODE_0055:0055(W)  
         BITS:97                 ??         ??
                             RI
         BITS:98                 ??         ??
                             TI
         BITS:99                 ??         ??
                             RB8                                             XREF[1]:     FUN_CODE_2755:277f(W)  
         BITS:9a                 ??         ??
                             TB8
         BITS:9b                 ??         ??
                             REN
         BITS:9c                 ??         ??
                             SM2
         BITS:9d                 ??         ??
                             SM1
         BITS:9e                 ??         ??
                             SM0                                             XREF[1]:     FUN_CODE_2755:276d(R)  
         BITS:9f                 ??         ??
                             P2.0                                            XREF[2]:     FUN_CODE_00ba:00ba(W), 
                                                                                          FUN_CODE_00bd:00bd(W)  
         BITS:a0                 ??         ??
                             P2.1                                            XREF[2]:     psu_enable_12v:23c8(W), 
                                                                                          psu_kill_12v:23cb(W)  
         BITS:a1                 ??         ??
                             P2.2                                            XREF[2]:     gpu_power_enable:0030(W), 
                                                                                          gpu_power_kill:0033(W)  
         BITS:a2                 ??         ??
                             P2.3                                            XREF[2]:     ana_reset_assert:00c0(W), 
                                                                                          ana_reset_deassert:00c3(W)  
         BITS:a3                 ??         ??
                             P2.4                                            XREF[1]:     FUN_CODE_0036:0036(R)  
         BITS:a4                 ??         ??
                             P2.5                                            XREF[1]:     FUN_CODE_23ce:23ce(R)  
         BITS:a5                 ??         ??
                             P2.6                                            XREF[2]:     FUN_CODE_23f6:23f6(W), 
                                                                                          FUN_CODE_23f9:23f9(W)  
         BITS:a6                 ??         ??
                             P2.7                                            XREF[1]:     powersw_read:259e(R)  
         BITS:a7                 ??         ??
                             EX0                                             XREF[3]:     CODE:0352(R), 
                                                                                          FUN_CODE_25aa:25aa(R), 
                                                                                          FUN_CODE_25aa:25ac(W)  
         BITS:a8                 ??         ??
                             ET0                                             XREF[2]:     FUN_CODE_23ce:23d3(W), 
                                                                                          FUN_CODE_23ce:23d6(R)  
         BITS:a9                 ??         ??
                             EX1                                             XREF[2]:     FUN_CODE_23eb:23f0(W), 
                                                                                          FUN_CODE_23eb:23f3(R)  
         BITS:aa                 ??         ??
                             ET1                                             XREF[2]:     FUN_CODE_0058:005d(W), 
                                                                                          FUN_CODE_0058:0060(R)  
         BITS:ab                 ??         ??
                             ES                                              XREF[2]:     FUN_CODE_0036:003b(W), 
                                                                                          FUN_CODE_0036:003e(R)  
         BITS:ac                 ??         ??
                             ET2
         BITS:ad                 ??         ??
                             EC
         BITS:ae                 ??         ??
                             EA
         BITS:af                 ??         ??
                             RXD
         BITS:b0                 ??         ??
                             TXD
         BITS:b1                 ??         ??
                             INT0
         BITS:b2                 ??         ??
                             INT1
         BITS:b3                 ??         ??
                             T0
         BITS:b4                 ??         ??
                             T1
         BITS:b5                 ??         ??
                             WR
         BITS:b6                 ??         ??
                             RD
         BITS:b7                 ??         ??
                             PX0
         BITS:b8                 ??         ??
                             PT0
         BITS:b9                 ??         ??
                             PX1
         BITS:ba                 ??         ??
                             PT1
         BITS:bb                 ??         ??
                             PS
         BITS:bc                 ??         ??
                             PT2
         BITS:bd                 ??         ??
                             PC                                              XREF[2]:     FUN_CODE_007f:007f(W), 
                                                                                          FUN_CODE_0082:00a4(W)  
         BITS:be                 ??         ??
                             IP.7                                            XREF[1]:     CODE:0148(W)  
         BITS:bf                 ??         ??
                             FIFLG.0                                         XREF[3]:     dbg_led_on:00ee(W), 
                                                                                          dbg_led_off:00f1(W), 
                                                                                          dbgled_read:2341(R)  
         BITS:c0                 ??         ??
                             FIFLG.1                                         XREF[1]:     FUN_CODE_23eb:23eb(R)  
         BITS:c1                 ??         ??
                             FIFLG.2                                         XREF[1]:     FUN_CODE_25b4:25b5(R)  
         BITS:c2                 ??         ??
                             FIFLG.3                                         XREF[4]:     FUN_CODE_0044:0044(W), 
                                                                                          FUN_CODE_0044:0046(W), 
                                                                                          FUN_CODE_0044:0048(W), 
                                                                                          FUN_CODE_0044:004a(W)  
         BITS:c3                 ??         ??
                             FIFLG.4                                         XREF[1]:     FUN_CODE_25b4:25c5(R)  
         BITS:c4                 ??         ??
                             FIFLG.5                                         XREF[1]:     FUN_CODE_25b4:25c1(R)  
         BITS:c5                 ??         ??
                             FIFLG.6                                         XREF[1]:     FUN_CODE_25b4:25bd(R)  
         BITS:c6                 ??         ??
                             FIFLG.7                                         XREF[1]:     FUN_CODE_25b4:25b9(R)  
         BITS:c7                 ??         ??
                             CPRL2                                           XREF[3]:     FUN_CODE_02ad:02bf(W), 
                                                                                          FUN_CODE_29f2:29f5(W), 
                                                                                          FUN_CODE_29f2:29fa(W)  
         BITS:c8                 ??         ??
                             CT2                                             XREF[4]:     FUN_CODE_02ad:02c1(W), 
                                                                                          FUN_CODE_2666:2675(W), 
                                                                                          FUN_CODE_2666:267a(W), 
                                                                                          FUN_CODE_29d8:29d8(R)  
         BITS:c9                 ??         ??
                             TR2                                             XREF[1]:     FUN_CODE_0076:0076(R)  
         BITS:ca                 ??         ??
                             EXEN2                                           XREF[1]:     FUN_CODE_25b4:25c9(R)  
         BITS:cb                 ??         ??
                             TCLK                                            XREF[2]:     FUN_CODE_2592:2592(W), 
                                                                                          FUN_CODE_2595:2595(W)  
         BITS:cc                 ??         ??
                             RCLK                                            XREF[2]:     CODE:0151(R), 
                                                                                          FUN_CODE_25d2:25d4(R)  
         BITS:cd                 ??         ??
                             EXF2                                            XREF[1]:     FUN_CODE_00c6:00cb(R)  
         BITS:ce                 ??         ??
                             TF2                                             XREF[4]:     FUN_CODE_00c6:00c7(R), 
                                                                                          FUN_CODE_00ce:00ce(W), 
                                                                                          FUN_CODE_00d1:00d1(W), 
                                                                                          FUN_CODE_00d4:00d4(RW)  
         BITS:cf                 ??         ??
                             P                                               XREF[13]:    FUN_CODE_006f:0073(R), 
                                                                                          FUN_CODE_00d7:00db(R), 
                                                                                          FUN_CODE_02fe:0472(R), 
                                                                                          FUN_CODE_0648:067b(R), 
                                                                                          FUN_CODE_0648:068a(R), 
                                                                                          FUN_CODE_0648:0696(R), 
                                                                                          FUN_CODE_0648:06d3(R), 
                                                                                          FUN_CODE_0648:06e2(R), 
                                                                                          FUN_CODE_0648:06ee(R), 
                                                                                          FUN_CODE_0648:072b(R), 
                                                                                          FUN_CODE_0648:073a(R), 
                                                                                          FUN_CODE_0648:0746(R), 
                                                                                          CODE:1cc2(R)  
         BITS:d0                 ??         ??
                             UD                                              XREF[20]:    CODE:1430(W), CODE:1439(W), 
                                                                                          CODE:143b(RW), CODE:1446(W), 
                                                                                          CODE:144f(W), CODE:1451(RW), 
                                                                                          CODE:1453(R), CODE:1458(W), 
                                                                                          CODE:1461(W), CODE:1463(RW), 
                                                                                          CODE:1476(W), CODE:147f(W), 
                                                                                          CODE:1481(RW), CODE:1483(R), 
                                                                                          CODE:1488(W), CODE:1491(W), 
                                                                                          CODE:1493(RW), 
                                                                                          FUN_CODE_1626:164f(W), 
                                                                                          FUN_CODE_165e:1661(R), 
                                                                                          FUN_CODE_165e:16a8(R)  
         BITS:d1                 ??         ??
                             OV                                              XREF[2]:     FUN_CODE_165e:1704(R), 
                                                                                          FUN_CODE_1726:172d(R)  
         BITS:d2                 ??         ??
                             RS0                                             XREF[7]:     CODE:0141(W), CODE:0159(W), 
                                                                                          FUN_CODE_0163:016a(W), 
                                                                                          CODE:0195(W), 
                                                                                          FUN_CODE_02fe:02f4(W), 
                                                                                          FUN_CODE_02fe:0305(W), 
                                                                                          FUN_CODE_22b6:22b6(W)  
         BITS:d3                 ??         ??
                             RS1                                             XREF[1]:     FUN_CODE_22b6:22b8(W)  
         BITS:d4                 ??         ??
                             F0                                              XREF[70]:    FUN_CODE_15b5:15d7(W), 
                                                                                          FUN_CODE_15b5:15e6(R), 
                                                                                          FUN_CODE_1626:1638(W), 
                                                                                          FUN_CODE_165e:16c4(R), 
                                                                                          FUN_CODE_1bbe:1bd9(W), 
                                                                                          FUN_CODE_1bbe:1bea(W), 
                                                                                          FUN_CODE_1bbe:1c06(W), 
                                                                                          FUN_CODE_1bbe:1c0b(RW), 
                                                                                          FUN_CODE_1bbe:1c0d(R), 
                                                                                          FUN_CODE_1bbe:1c15(R), 
                                                                                          FUN_CODE_1bbe:1c1d(R), 
                                                                                          FUN_CODE_1bbe:1c26(R), 
                                                                                          FUN_CODE_1bbe:1c32(R), 
                                                                                          FUN_CODE_1bbe:1c3d(R), 
                                                                                          FUN_CODE_1bbe:1c46(R), 
                                                                                          FUN_CODE_1bbe:1c4f(R), 
                                                                                          FUN_CODE_2813:281f(W), 
                                                                                          FUN_CODE_2a5b:2a5e(R), 
                                                                                          FUN_CODE_2a5b:2a67(R), 
                                                                                          FUN_CODE_2ac4:2acf(W), [more]
         BITS:d5                 ??         ??
                             AC
         BITS:d6                 ??         ??
                             C
         BITS:d7                 ??         ??
                             CCF.0                                           XREF[2]:     CODE:028b(W), CODE:0293(W)  
         BITS:d8                 ??         ??
                             CCF.1                                           XREF[16]:    CODE:019f(W), CODE:01bd(R), 
                                                                                          CODE:01c8(W), CODE:01d2(R), 
                                                                                          CODE:01ef(W), CODE:0202(W), 
                                                                                          CODE:0211(W), CODE:022b(R), 
                                                                                          CODE:0236(W), CODE:0240(R), 
                                                                                          CODE:0251(W), CODE:0263(R), 
                                                                                          CODE:026e(W), CODE:0278(R), 
                                                                                          CODE:0298(W), 
                                                                                          i2c_send_message_common:2653(W)  
         BITS:d9                 ??         ??
                             CCF.2                                           XREF[3]:     CODE:020f(W), 
                                                                                          FUN_CODE_2627:262c(R), 
                                                                                          FUN_CODE_2627:2632(R)  
         BITS:da                 ??         ??
                             CCF.3                                           XREF[5]:     CODE:01a1(W), CODE:01bb(W), 
                                                                                          CODE:0200(W), CODE:0229(W), 
                                                                                          CODE:0261(W)  
         BITS:db                 ??         ??
                             CCF.4
         BITS:dc                 ??         ??
                             CCON.5
         BITS:dd                 ??         ??
                             CR
         BITS:de                 ??         ??
                             CF                                              XREF[1]:     FUN_CODE_02ad:02cc(W)  
         BITS:df                 ??         ??
                             ACC.0                                           XREF[26]:    FUN_CODE_00c6:00c9(*), 
                                                                                          FUN_CODE_0648:064f(*), 
                                                                                          FUN_CODE_0648:0654(*), 
                                                                                          FUN_CODE_0648:0659(*), 
                                                                                          ipc_handle_messages:0997(*), 
                                                                                          ipc_handle_messages:09d1(*), 
                                                                                          ipc_handle_messages:0b66(*), 
                                                                                          ipc_handle_messages:0bf9(*), 
                                                                                          ipc_handle_messages:0c62(*), 
                                                                                          ipc_handle_messages:0c6b(*), 
                                                                                          ipc_handle_messages:0c86(*), 
                                                                                          CODE:1761(*), CODE:1780(*), 
                                                                                          CODE:17ae(*), 
                                                                                          argon_sm_exec:1a02(*), 
                                                                                          CODE:1bab(*), CODE:1cbb(*), 
                                                                                          CODE:1cc5(*), CODE:1cfa(*), 
                                                                                          FUN_CODE_24a5:24a9(*), [more]
         BITS:e0                 ??         ??
                             ACC.1                                           XREF[13]:    FUN_CODE_0648:066d(*), 
                                                                                          ipc_handle_messages:09a0(*), 
                                                                                          ipc_handle_messages:0b6a(*), 
                                                                                          ipc_handle_messages:0bfd(*), 
                                                                                          ipc_handle_messages:0c66(*), 
                                                                                          ipc_handle_messages:0d07(*), 
                                                                                          CODE:1763(*), 
                                                                                          argon_sm_exec:1a06(*), 
                                                                                          CODE:1cc0(*), 
                                                                                          FUN_CODE_225c:226c(*), 
                                                                                          FUN_CODE_225c:2277(*), 
                                                                                          FUN_CODE_24a5:2514(*), 
                                                                                          FUN_CODE_25b4:25c7(*)  
         BITS:e1                 ??         ??
                             ACC.2                                           XREF[9]:     FUN_CODE_0648:06a7(*), 
                                                                                          FUN_CODE_0648:06ac(*), 
                                                                                          FUN_CODE_0648:06b1(*), 
                                                                                          FUN_CODE_0775:0784(*), 
                                                                                          ipc_handle_messages:09b3(*), 
                                                                                          CODE:178f(*), CODE:1799(*), 
                                                                                          CODE:1bb1(*), 
                                                                                          FUN_CODE_25b4:25c3(*)  
         BITS:e2                 ??         ??
                             ACC.3                                           XREF[10]:    FUN_CODE_02fe:0398(*), 
                                                                                          FUN_CODE_02fe:03c9(*), 
                                                                                          FUN_CODE_02fe:0406(*), 
                                                                                          FUN_CODE_02fe:043b(*), 
                                                                                          FUN_CODE_0648:06c5(*), 
                                                                                          CODE:1793(*), CODE:179d(*), 
                                                                                          CODE:1bb7(*), 
                                                                                          FUN_CODE_25b4:25bf(*), 
                                                                                          FUN_CODE_2ac4:2acd(*)  
         BITS:e3                 ??         ??
                             ACC.4                                           XREF[12]:    FUN_CODE_00d7:00de(*), 
                                                                                          FUN_CODE_00f4:00f6(*), 
                                                                                          FUN_CODE_0648:06ff(*), 
                                                                                          FUN_CODE_0648:0704(*), 
                                                                                          FUN_CODE_0648:0709(*), 
                                                                                          argon_sm_exec:19f7(*), 
                                                                                          FUN_CODE_23fc:23ff(*), 
                                                                                          FUN_CODE_2408:2408(*), 
                                                                                          FUN_CODE_241b:241c(*), 
                                                                                          FUN_CODE_242a:242a(*), 
                                                                                          FUN_CODE_243d:243f(*), 
                                                                                          FUN_CODE_25b4:25bb(*)  
         BITS:e4                 ??         ??
                             ACC.5                                           XREF[7]:     FUN_CODE_0648:071d(*), 
                                                                                          ipc_handle_messages:096f(*), 
                                                                                          CODE:1469(*), CODE:1869(*), 
                                                                                          argon_sm_exec:19f4(*), 
                                                                                          CODE:1b84(*), 
                                                                                          FUN_CODE_2a15:2a31(*)  
         BITS:e5                 ??         ??
                             ACC.6                                           XREF[8]:     ipc_handle_messages:0972(*), 
                                                                                          FUN_CODE_0d43:0e60(*), 
                                                                                          CODE:1992(*), 
                                                                                          argon_sm_exec:19f1(*), 
                                                                                          FUN_CODE_1bbe:1bd3(*), 
                                                                                          FUN_CODE_25b4:25b7(*), 
                                                                                          FUN_CODE_2a15:2a2e(*), 
                                                                                          FUN_CODE_2ac4:2ad7(*)  
         BITS:e6                 ??         ??
                             ACC.7                                           XREF[26]:    ipc_handle_messages:09ec(*), 
                                                                                          ipc_handle_messages:09f0(*), 
                                                                                          ipc_handle_messages:09f4(*), 
                                                                                          ipc_handle_messages:0a15(*), 
                                                                                          ipc_handle_messages:0a43(*), 
                                                                                          FUN_CODE_1626:1636(*), 
                                                                                          FUN_CODE_1626:164d(*), 
                                                                                          FUN_CODE_165e:1707(*), 
                                                                                          FUN_CODE_1726:1730(*), 
                                                                                          FUN_CODE_1726:1736(*), 
                                                                                          CODE:1866(*), CODE:1882(*), 
                                                                                          CODE:19a7(*), 
                                                                                          argon_sm_exec:19ee(*), 
                                                                                          FUN_CODE_1bbe:1bff(*), 
                                                                                          FUN_CODE_1bbe:1c08(*), 
                                                                                          FUN_CODE_2a15:2a2b(*), 
                                                                                          FUN_CODE_2ac4:2adb(*), 
                                                                                          FUN_CODE_2ac4:2b1e(*), 
                                                                                          FUN_CODE_2ac4:2b20(*), [more]
         BITS:e7                 ??         ??
                             HIFLG.0
         BITS:e8                 ??         ??
                             HIFLG.1
         BITS:e9                 ??         ??
                             HIFLG.2
         BITS:ea                 ??         ??
                             HIFLG.3
         BITS:eb                 ??         ??
                             HIFLG.4
         BITS:ec                 ??         ??
                             HIFLG.5
         BITS:ed                 ??         ??
                             HIFLG.6
         BITS:ee                 ??         ??
                             HIFLG.7
         BITS:ef                 ??         ??
                             B.0                                             XREF[16]:    ipc_handle_messages:08a2(*), 
                                                                                          ipc_handle_messages:08c8(*), 
                                                                                          ipc_handle_messages:095e(*), 
                                                                                          ipc_handle_messages:0bd8(*), 
                                                                                          ipc_handle_messages:0c9e(*), 
                                                                                          FUN_CODE_0d43:0e22(*), 
                                                                                          CODE:178d(*), 
                                                                                          FUN_CODE_24a5:24dc(*), 
                                                                                          FUN_CODE_24a5:24ec(*), 
                                                                                          FUN_CODE_2b41:2b7a(*), 
                                                                                          FUN_CODE_2b84:2bb7(*), 
                                                                                          FUN_CODE_2b84:2be2(*), 
                                                                                          FUN_CODE_2bfe:2c37(*), 
                                                                                          FUN_CODE_2bfe:2c62(*), 
                                                                                          FUN_CODE_2bfe:2c8d(*), 
                                                                                          FUN_CODE_2c9b:2ca2(*)  
         BITS:f0                 ??         ??
                             B.1                                             XREF[10]:    ipc_handle_messages:08cc(*), 
                                                                                          CODE:1791(*), 
                                                                                          FUN_CODE_24a5:24e0(*), 
                                                                                          FUN_CODE_24a5:24f0(*), 
                                                                                          FUN_CODE_2b41:2b75(*), 
                                                                                          FUN_CODE_2b84:2bb2(*), 
                                                                                          FUN_CODE_2b84:2bdd(*), 
                                                                                          FUN_CODE_2bfe:2c32(*), 
                                                                                          FUN_CODE_2bfe:2c5d(*), 
                                                                                          FUN_CODE_2bfe:2c88(*)  
         BITS:f1                 ??         ??
                             B.2                                             XREF[11]:    ipc_handle_messages:0c64(*), 
                                                                                          CODE:1787(*), CODE:1797(*), 
                                                                                          FUN_CODE_24a5:24e4(*), 
                                                                                          FUN_CODE_24a5:24f4(*), 
                                                                                          FUN_CODE_2b41:2b70(*), 
                                                                                          FUN_CODE_2b84:2bad(*), 
                                                                                          FUN_CODE_2b84:2bd8(*), 
                                                                                          FUN_CODE_2bfe:2c2d(*), 
                                                                                          FUN_CODE_2bfe:2c58(*), 
                                                                                          FUN_CODE_2bfe:2c83(*)  
         BITS:f2                 ??         ??
                             B.3                                             XREF[12]:    ipc_handle_messages:0c68(*), 
                                                                                          CODE:178a(*), CODE:179b(*), 
                                                                                          FUN_CODE_24a5:24e8(*), 
                                                                                          FUN_CODE_24a5:24f8(*), 
                                                                                          FUN_CODE_2b41:2b6b(*), 
                                                                                          FUN_CODE_2b84:2ba8(*), 
                                                                                          FUN_CODE_2b84:2bd3(*), 
                                                                                          FUN_CODE_2bfe:2c28(*), 
                                                                                          FUN_CODE_2bfe:2c53(*), 
                                                                                          FUN_CODE_2bfe:2c7e(*), 
                                                                                          FUN_CODE_2c9b:2c9f(*)  
         BITS:f3                 ??         ??
                             B.4                                             XREF[9]:     ipc_handle_messages:0c6d(*), 
                                                                                          CODE:1779(*), CODE:1782(*), 
                                                                                          FUN_CODE_2b41:2b66(*), 
                                                                                          FUN_CODE_2b84:2ba3(*), 
                                                                                          FUN_CODE_2b84:2bce(*), 
                                                                                          FUN_CODE_2bfe:2c23(*), 
                                                                                          FUN_CODE_2bfe:2c4e(*), 
                                                                                          FUN_CODE_2bfe:2c79(*)  
         BITS:f4                 ??         ??
                             B.5                                             XREF[13]:    ipc_handle_messages:0c88(*), 
                                                                                          CODE:1776(*), CODE:18ac(*), 
                                                                                          FUN_CODE_1bbe:1bcf(*), 
                                                                                          FUN_CODE_2b41:2b4f(*), 
                                                                                          FUN_CODE_2b41:2b61(*), 
                                                                                          FUN_CODE_2b84:2b9b(*), 
                                                                                          FUN_CODE_2b84:2bc9(*), 
                                                                                          FUN_CODE_2b84:2bf4(*), 
                                                                                          FUN_CODE_2bfe:2c0c(*), 
                                                                                          FUN_CODE_2bfe:2c1e(*), 
                                                                                          FUN_CODE_2bfe:2c49(*), 
                                                                                          FUN_CODE_2bfe:2c74(*)  
         BITS:f5                 ??         ??
                             B.6                                             XREF[10]:    FUN_CODE_15b5:15e9(*), 
                                                                                          FUN_CODE_2b41:2b4a(*), 
                                                                                          FUN_CODE_2b41:2b5c(*), 
                                                                                          FUN_CODE_2b84:2b96(*), 
                                                                                          FUN_CODE_2b84:2bc4(*), 
                                                                                          FUN_CODE_2b84:2bef(*), 
                                                                                          FUN_CODE_2bfe:2c07(*), 
                                                                                          FUN_CODE_2bfe:2c19(*), 
                                                                                          FUN_CODE_2bfe:2c44(*), 
                                                                                          FUN_CODE_2bfe:2c6f(*)  
         BITS:f6                 ??         ??
                             B.7                                             XREF[17]:    FUN_CODE_14ba:1589(*), 
                                                                                          FUN_CODE_14ba:158c(*), 
                                                                                          FUN_CODE_14ba:159d(*), 
                                                                                          FUN_CODE_14ba:15a0(*), 
                                                                                          FUN_CODE_15b5:15e2(*), 
                                                                                          CODE:177d(*), CODE:17cf(*), 
                                                                                          CODE:18a1(*), 
                                                                                          FUN_CODE_2b41:2b45(*), 
                                                                                          FUN_CODE_2b41:2b57(*), 
                                                                                          FUN_CODE_2b84:2b91(*), 
                                                                                          FUN_CODE_2b84:2bbf(*), 
                                                                                          FUN_CODE_2b84:2bea(*), 
                                                                                          FUN_CODE_2bfe:2c02(*), 
                                                                                          FUN_CODE_2bfe:2c14(*), 
                                                                                          FUN_CODE_2bfe:2c3f(*), 
                                                                                          FUN_CODE_2bfe:2c6a(*)  
         BITS:f7                 ??         ??
                             F8.0
         BITS:f8                 ??         ??
                             F8.1
         BITS:f9                 ??         ??
                             F8.2
         BITS:fa                 ??         ??
                             F8.3
         BITS:fb                 ??         ??
                             F8.4
         BITS:fc                 ??         ??
                             F8.5
         BITS:fd                 ??         ??
                             F8.6
         BITS:fe                 ??         ??
                             F8.7
         BITS:ff                 ??         ??
