                             //
                             // CODE 
                             // CODE:0000-CODE:2fff
                             //
       CODE:0000 e1 56           AJMP       FUN_CODE_0756                                              undefined FUN_CODE_0756()
                             -- Flow Override: CALL_RETURN (CALL_TERMINATOR)
       CODE:0002 21 3a           AJMP       FUN_CODE_013a                                              undefined FUN_CODE_013a()
                             -- Flow Override: CALL_RETURN (CALL_TERMINATOR)
       CODE:0004 21 2d           AJMP       FUN_CODE_012d                                              undefined FUN_CODE_012d()
                             -- Flow Override: CALL_RETURN (CALL_TERMINATOR)
       CODE:0006 41 fe           AJMP       FUN_CODE_02fe                                              undefined FUN_CODE_02fe()
                             -- Flow Override: CALL_RETURN (CALL_TERMINATOR)
       CODE:0008 21 2d           AJMP       FUN_CODE_012d                                              undefined FUN_CODE_012d()
                             -- Flow Override: CALL_RETURN (CALL_TERMINATOR)
       CODE:000a 21 63           AJMP       FUN_CODE_0163                                              undefined FUN_CODE_0163()
                             -- Flow Override: CALL_RETURN (CALL_TERMINATOR)
       CODE:000c 21 2d           AJMP       FUN_CODE_012d                                              undefined FUN_CODE_012d()
                             -- Flow Override: CALL_RETURN (CALL_TERMINATOR)
       CODE:000e 21 2d           AJMP       FUN_CODE_012d                                              undefined FUN_CODE_012d()
                             -- Flow Override: CALL_RETURN (CALL_TERMINATOR)
       CODE:0010 21 2d           AJMP       FUN_CODE_012d                                              undefined FUN_CODE_012d()
                             -- Flow Override: CALL_RETURN (CALL_TERMINATOR)
       CODE:0012 21 63           AJMP       FUN_CODE_0163                                              undefined FUN_CODE_0163()
                             -- Flow Override: CALL_RETURN (CALL_TERMINATOR)
       CODE:0014 21 2d           AJMP       FUN_CODE_012d                                              undefined FUN_CODE_012d()
                             -- Flow Override: CALL_RETURN (CALL_TERMINATOR)
       CODE:0016 21 2d           AJMP       FUN_CODE_012d                                              undefined FUN_CODE_012d()
                             -- Flow Override: CALL_RETURN (CALL_TERMINATOR)
       CODE:0018 21 2d           AJMP       FUN_CODE_012d                                              undefined FUN_CODE_012d()
                             -- Flow Override: CALL_RETURN (CALL_TERMINATOR)
       CODE:001a 21 2d           AJMP       FUN_CODE_012d                                              undefined FUN_CODE_012d()
                             -- Flow Override: CALL_RETURN (CALL_TERMINATOR)
       CODE:001c 21 2d           AJMP       FUN_CODE_012d                                              undefined FUN_CODE_012d()
                             -- Flow Override: CALL_RETURN (CALL_TERMINATOR)
       CODE:001e 21 2d           AJMP       FUN_CODE_012d                                              undefined FUN_CODE_012d()
                             -- Flow Override: CALL_RETURN (CALL_TERMINATOR)
       CODE:0020 21 2d           AJMP       FUN_CODE_012d                                              undefined FUN_CODE_012d()
                             -- Flow Override: CALL_RETURN (CALL_TERMINATOR)
       CODE:0022 21 2d           AJMP       FUN_CODE_012d                                              undefined FUN_CODE_012d()
                             -- Flow Override: CALL_RETURN (CALL_TERMINATOR)
       CODE:0024 21 2d           AJMP       FUN_CODE_012d                                              undefined FUN_CODE_012d()
                             -- Flow Override: CALL_RETURN (CALL_TERMINATOR)
       CODE:0026 21 2d           AJMP       FUN_CODE_012d                                              undefined FUN_CODE_012d()
                             -- Flow Override: CALL_RETURN (CALL_TERMINATOR)
       CODE:0028 21 2d           AJMP       FUN_CODE_012d                                              undefined FUN_CODE_012d()
                             -- Flow Override: CALL_RETURN (CALL_TERMINATOR)
       CODE:002a 21 2d           AJMP       FUN_CODE_012d                                              undefined FUN_CODE_012d()
                             -- Flow Override: CALL_RETURN (CALL_TERMINATOR)
       CODE:002c 21 2d           AJMP       FUN_CODE_012d                                              undefined FUN_CODE_012d()
                             -- Flow Override: CALL_RETURN (CALL_TERMINATOR)
       CODE:002e 21 37           AJMP       thunk_FUN_CODE_23d8                                        undefined thunk_FUN_CODE_23d8()
                             -- Flow Override: CALL_RETURN (CALL_TERMINATOR)
                             **************************************************************
                             *                          FUNCTION                          *
                             **************************************************************
                             undefined FUN_CODE_0030()
             undefined         ACC:1          <RETURN>
                             FUN_CODE_0030                                   XREF[1]:     CODE:100a(c)  
       CODE:0030 c2 a2           CLR        P2.2                                                       = ??
       CODE:0032 22              RET
                             **************************************************************
                             *                          FUNCTION                          *
                             **************************************************************
                             undefined FUN_CODE_0033()
             undefined         ACC:1          <RETURN>
                             FUN_CODE_0033                                   XREF[1]:     CODE:0f51(c)  
       CODE:0033 d2 a2           SETB       P2.2                                                       = ??
       CODE:0035 22              RET
                             **************************************************************
                             *                          FUNCTION                          *
                             **************************************************************
                             undefined FUN_CODE_0036()
             undefined         ACC:1          <RETURN>
                             FUN_CODE_0036                                   XREF[3]:     CODE:100f(c), CODE:1025(c), 
                                                                                          FUN_CODE_1d2a:1d45(c)  
       CODE:0036 a2 a4           MOV        CY,P2.4                                                    = ??
       CODE:0038 20 1a 03        JB         23.2,LAB_CODE_003e                                         = ??
       CODE:003b c2 ac           CLR        ES                                                         = ??
       CODE:003d 22              RET
                             LAB_CODE_003e                                   XREF[1]:     CODE:0038(j)  
       CODE:003e b0 ac           ANL        CY,/ES                                                     = ??
       CODE:0040 22              RET
                             **************************************************************
                             *                          FUNCTION                          *
                             **************************************************************
                             undefined FUN_CODE_0041()
             undefined         ACC:1          <RETURN>
                             FUN_CODE_0041                                   XREF[1]:     CODE:10bc(c)  
       CODE:0041 c2 81           CLR        P0.1                                                       = ??
       CODE:0043 22              RET
                             **************************************************************
                             *                          FUNCTION                          *
                             **************************************************************
                             undefined FUN_CODE_0044()
             undefined         ACC:1          <RETURN>
                             FUN_CODE_0044                                   XREF[1]:     CODE:11f5(c)  
       CODE:0044 d2 c3           SETB       FIFLG.3                                                    = ??
       CODE:0046 c2 c3           CLR        FIFLG.3                                                    = ??
       CODE:0048 d2 c3           SETB       FIFLG.3                                                    = ??
       CODE:004a c2 c3           CLR        FIFLG.3                                                    = ??
       CODE:004c d2 81           SETB       P0.1                                                       = ??
       CODE:004e 22              RET
                             **************************************************************
                             *                          FUNCTION                          *
                             **************************************************************
                             undefined FUN_CODE_004f()
             undefined         ACC:1          <RETURN>
                             FUN_CODE_004f                                   XREF[2]:     CODE:11e0(c), CODE:1208(c)  
       CODE:004f a2 87           MOV        CY,P0.7                                                    = ??
       CODE:0051 22              RET
                             **************************************************************
                             *                          FUNCTION                          *
                             **************************************************************
                             undefined FUN_CODE_0052()
             undefined         ACC:1          <RETURN>
                             FUN_CODE_0052                                   XREF[1]:     CODE:1050(c)  
       CODE:0052 d2 97           SETB       P1.7                                                       = ??
       CODE:0054 22              RET
                             **************************************************************
                             *                          FUNCTION                          *
                             **************************************************************
                             undefined FUN_CODE_0055()
             undefined         ACC:1          <RETURN>
                             FUN_CODE_0055                                   XREF[1]:     CODE:0ef8(c)  
       CODE:0055 c2 97           CLR        P1.7                                                       = ??
       CODE:0057 22              RET
                             **************************************************************
                             *                          FUNCTION                          *
                             **************************************************************
                             undefined FUN_CODE_0058()
             undefined         ACC:1          <RETURN>
                             FUN_CODE_0058                                   XREF[3]:     CODE:1055(c), CODE:106b(c), 
                                                                                          FUN_CODE_1d2a:1d3d(c)  
       CODE:0058 a2 96           MOV        CY,P1.6                                                    = ??
       CODE:005a 20 19 03        JB         23.1,LAB_CODE_0060                                         = ??
       CODE:005d c2 ab           CLR        ET1                                                        = ??
       CODE:005f 22              RET
                             LAB_CODE_0060                                   XREF[1]:     CODE:005a(j)  
       CODE:0060 b0 ab           ANL        CY,/ET1                                                    = ??
       CODE:0062 22              RET
                             **************************************************************
                             *                          FUNCTION                          *
                             **************************************************************
                             undefined FUN_CODE_0063()
             undefined         ACC:1          <RETURN>
                             FUN_CODE_0063                                   XREF[1]:     CODE:11c2(c)  
       CODE:0063 d2 80           SETB       P0.0                                                       = ??
       CODE:0065 22              RET
                             **************************************************************
                             *                          FUNCTION                          *
                             **************************************************************
                             undefined FUN_CODE_0066()
             undefined         ACC:1          <RETURN>
                             FUN_CODE_0066                                   XREF[1]:     CODE:1110(c)  
       CODE:0066 c2 80           CLR        P0.0                                                       = ??
       CODE:0068 22              RET
                             **************************************************************
                             *                          FUNCTION                          *
                             **************************************************************
                             undefined FUN_CODE_0069()
             undefined         ACC:1          <RETURN>
                             FUN_CODE_0069                                   XREF[1]:     CODE:10bf(c)  
       CODE:0069 c2 86           CLR        P0.6                                                       = ??
       CODE:006b 22              RET
                             **************************************************************
                             *                          FUNCTION                          *
                             **************************************************************
                             undefined FUN_CODE_006c()
             undefined         ACC:1          <RETURN>
                             FUN_CODE_006c                                   XREF[1]:     CODE:11db(c)  
       CODE:006c 75 97 00        MOV        HADDR,#0x0                                                 = ??
       CODE:006f 75 a9 00        MOV        SADDR,#0x0                                                 = ??
       CODE:0072 75 df 00        MOV        PCON1,#0x0                                                 = ??
       CODE:0075 d2 86           SETB       P0.6                                                       = ??
       CODE:0077 22              RET
                             **************************************************************
                             *                          FUNCTION                          *
                             **************************************************************
                             undefined FUN_CODE_0078()
             undefined         ACC:1          <RETURN>
                             FUN_CODE_0078                                   XREF[1]:     CODE:125d(c)  
       CODE:0078 e5 8f           MOV        A,FADDR                                                    = ??
       CODE:007a 54 30           ANL        A,#0x30
       CODE:007c a2 d0           MOV        CY,P                                                       = ??
       CODE:007e 54 20           ANL        A,#0x20
       CODE:0080 70 01           JNZ        LAB_CODE_0083
       CODE:0082 c3              CLR        CY
                             LAB_CODE_0083                                   XREF[1]:     CODE:0080(j)  
       CODE:0083 22              RET
                             **************************************************************
                             *                          FUNCTION                          *
                             **************************************************************
                             undefined FUN_CODE_0084()
             undefined         ACC:1          <RETURN>
                             FUN_CODE_0084                                   XREF[1]:     CODE:1274(c)  
       CODE:0084 e5 e5           MOV        A,RXFLG                                                    = ??
       CODE:0086 20 e1 05        JB         ACC.1,LAB_CODE_008e                                        = ??
       CODE:0089 e5 df           MOV        A,PCON1                                                    = ??
       CODE:008b a2 e2           MOV        CY,ACC.2                                                   = ??
       CODE:008d 22              RET
                             LAB_CODE_008e                                   XREF[1]:     CODE:0086(j)  
       CODE:008e e5 97           MOV        A,HADDR                                                    = ??
       CODE:0090 a2 e0           MOV        CY,ACC.0                                                   = ??
       CODE:0092 22              RET
                             **************************************************************
                             *                          FUNCTION                          *
                             **************************************************************
                             undefined FUN_CODE_0093()
             undefined         ACC:1          <RETURN>
                             FUN_CODE_0093                                   XREF[1]:     FUN_CODE_1d2a:1d54(c)  
       CODE:0093 a2 ca           MOV        CY,TR2                                                     = ??
       CODE:0095 22              RET
                             **************************************************************
                             *                          FUNCTION                          *
                             **************************************************************
                             undefined FUN_CODE_0096()
             undefined         ACC:1          <RETURN>
                             FUN_CODE_0096                                   XREF[1]:     CODE:11d1(c)  
       CODE:0096 d2 85           SETB       P0.5                                                       = ??
       CODE:0098 22              RET
                             **************************************************************
                             *                          FUNCTION                          *
                             **************************************************************
                             undefined FUN_CODE_0099()
             undefined         ACC:1          <RETURN>
                             FUN_CODE_0099                                   XREF[1]:     CODE:10c4(c)  
       CODE:0099 c2 85           CLR        P0.5                                                       = ??
       CODE:009b 22              RET
                             **************************************************************
                             *                          FUNCTION                          *
                             **************************************************************
                             undefined FUN_CODE_009c()
             undefined         ACC:1          <RETURN>
                             FUN_CODE_009c                                   XREF[2]:     CODE:110d(c), CODE:1168(c)  
       CODE:009c c2 be           CLR        PC                                                         = ??
       CODE:009e 22              RET
                             **************************************************************
                             *                          FUNCTION                          *
                             **************************************************************
                             undefined FUN_CODE_009f()
             undefined         ACC:1          <RETURN>
                             FUN_CODE_009f                                   XREF[1]:     CODE:11d4(c)  
       CODE:009f 74 43           MOV        A,#0x43
       CODE:00a1 f5 fc           MOV        CCAP2H,A                                                   = ??
       CODE:00a3 f2              MOVX       @R0,A
       CODE:00a4 f2              MOVX       @R0,A
       CODE:00a5 f2              MOVX       @R0,A
       CODE:00a6 f2              MOVX       @R0,A
       CODE:00a7 f2              MOVX       @R0,A
       CODE:00a8 f2              MOVX       @R0,A
       CODE:00a9 f2              MOVX       @R0,A
       CODE:00aa f2              MOVX       @R0,A
       CODE:00ab f2              MOVX       @R0,A
       CODE:00ac f2              MOVX       @R0,A
       CODE:00ad f2              MOVX       @R0,A
       CODE:00ae f2              MOVX       @R0,A
       CODE:00af f2              MOVX       @R0,A
       CODE:00b0 f2              MOVX       @R0,A
       CODE:00b1 f2              MOVX       @R0,A
       CODE:00b2 f2              MOVX       @R0,A
       CODE:00b3 f2              MOVX       @R0,A
       CODE:00b4 f2              MOVX       @R0,A
       CODE:00b5 f2              MOVX       @R0,A
       CODE:00b6 f2              MOVX       @R0,A
       CODE:00b7 f2              MOVX       @R0,A
       CODE:00b8 f2              MOVX       @R0,A
       CODE:00b9 f2              MOVX       @R0,A
       CODE:00ba f2              MOVX       @R0,A
       CODE:00bb f2              MOVX       @R0,A
       CODE:00bc f2              MOVX       @R0,A
       CODE:00bd f2              MOVX       @R0,A
       CODE:00be f2              MOVX       @R0,A
       CODE:00bf f2              MOVX       @R0,A
       CODE:00c0 f2              MOVX       @R0,A
       CODE:00c1 d2 be           SETB       PC                                                         = ??
       CODE:00c3 22              RET
                             **************************************************************
                             *                          FUNCTION                          *
                             **************************************************************
                             undefined FUN_CODE_00c4()
             undefined         ACC:1          <RETURN>
                             FUN_CODE_00c4                                   XREF[1]:     CODE:10c7(c)  
       CODE:00c4 c2 84           CLR        P0.4                                                       = ??
       CODE:00c6 22              RET
                             **************************************************************
                             *                          FUNCTION                          *
                             **************************************************************
                             undefined FUN_CODE_00c7()
             undefined         ACC:1          <RETURN>
                             FUN_CODE_00c7                                   XREF[1]:     CODE:1200(c)  
       CODE:00c7 d2 84           SETB       P0.4                                                       = ??
       CODE:00c9 22              RET
                             **************************************************************
                             *                          FUNCTION                          *
                             **************************************************************
                             undefined FUN_CODE_00ca()
             undefined         ACC:1          <RETURN>
                             FUN_CODE_00ca                                   XREF[1]:     CODE:10ce(c)  
       CODE:00ca 75 e3 01        MOV        RXDAT,#0x1                                                 = ??
       CODE:00cd 75 e3 00        MOV        RXDAT,#0x0                                                 = ??
       CODE:00d0 75 e3 01        MOV        RXDAT,#0x1                                                 = ??
       CODE:00d3 75 e3 00        MOV        RXDAT,#0x0                                                 = ??
       CODE:00d6 22              RET
                             **************************************************************
                             *                          FUNCTION                          *
                             **************************************************************
                             undefined FUN_CODE_00d7()
             undefined         ACC:1          <RETURN>
                             FUN_CODE_00d7                                   XREF[1]:     CODE:104b(c)  
       CODE:00d7 d2 a0           SETB       P2.0                                                       = ??
       CODE:00d9 22              RET
                             **************************************************************
                             *                          FUNCTION                          *
                             **************************************************************
                             undefined FUN_CODE_00da()
             undefined         ACC:1          <RETURN>
                             FUN_CODE_00da                                   XREF[1]:     CODE:0ef1(c)  
       CODE:00da c2 a0           CLR        P2.0                                                       = ??
       CODE:00dc 22              RET
                             **************************************************************
                             *                          FUNCTION                          *
                             **************************************************************
                             undefined FUN_CODE_00dd()
             undefined         ACC:1          <RETURN>
                             FUN_CODE_00dd                                   XREF[1]:     CODE:111b(c)  
       CODE:00dd c2 a3           CLR        P2.3                                                       = ??
       CODE:00df 22              RET
                             **************************************************************
                             *                          FUNCTION                          *
                             **************************************************************
                             undefined FUN_CODE_00e0()
             undefined         ACC:1          <RETURN>
                             FUN_CODE_00e0                                   XREF[2]:     CODE:111e(c), CODE:116b(c)  
       CODE:00e0 d2 a3           SETB       P2.3                                                       = ??
       CODE:00e2 22              RET
                             **************************************************************
                             *                          FUNCTION                          *
                             **************************************************************
                             undefined FUN_CODE_00e3()
             undefined         ACC:1          <RETURN>
                             FUN_CODE_00e3                                   XREF[5]:     FUN_CODE_20db:20f9(c), 
                                                                                          FUN_CODE_2137:213a(c), 
                                                                                          FUN_CODE_214c:214f(c), 
                                                                                          CODE:21d2(c), CODE:220b(c)  
       CODE:00e3 e4              CLR        A
       CODE:00e4 a2 cf           MOV        CY,TF2                                                     = ??
       CODE:00e6 92 e0           MOV        ACC.0,CY                                                   = ??
       CODE:00e8 a2 ce           MOV        CY,EXF2                                                    = ??
       CODE:00ea 22              RET
                             **************************************************************
                             *                          FUNCTION                          *
                             **************************************************************
                             undefined FUN_CODE_00eb()
             undefined         ACC:1          <RETURN>
                             FUN_CODE_00eb                                   XREF[1]:     CODE:21b5(c)  
       CODE:00eb d2 cf           SETB       TF2                                                        = ??
       CODE:00ed 22              RET
                             **************************************************************
                             *                          FUNCTION                          *
                             **************************************************************
                             undefined FUN_CODE_00ee()
             undefined         ACC:1          <RETURN>
                             FUN_CODE_00ee                                   XREF[2]:     CODE:219d(c), CODE:21b0(c)  
       CODE:00ee c2 cf           CLR        TF2                                                        = ??
       CODE:00f0 22              RET
                             **************************************************************
                             *                          FUNCTION                          *
                             **************************************************************
                             undefined FUN_CODE_00f1()
             undefined         ACC:1          <RETURN>
                             FUN_CODE_00f1                                   XREF[4]:     FUN_CODE_20db:20e8(c), 
                                                                                          FUN_CODE_20db:211f(c), 
                                                                                          FUN_CODE_2137:2147(c), 
                                                                                          FUN_CODE_214c:2154(c)  
       CODE:00f1 b2 cf           CPL        TF2                                                        = ??
       CODE:00f3 22              RET
       CODE:00f4 00              ??         00h
       CODE:00f5 00              ??         00h
       CODE:00f6 00              ??         00h
       CODE:00f7 00              ??         00h
       CODE:00f8 00              ??         00h
       CODE:00f9 00              ??         00h
       CODE:00fa 00              ??         00h
       CODE:00fb 00              ??         00h
       CODE:00fc 00              ??         00h
       CODE:00fd 00              ??         00h
       CODE:00fe 00              ??         00h
       CODE:00ff 00              ??         00h
       CODE:0100 41              ??         41h    A
       CODE:0101 02              ??         02h
       CODE:0102 03              ??         03h
       CODE:0103 01              ??         01h
       CODE:0104 01              ??         01h
       CODE:0105 08              ??         08h
       CODE:0106 00              ??         00h
       CODE:0107 00              ??         00h
       CODE:0108 20              ??         20h     
       CODE:0109 20              ??         20h     
       CODE:010a 20              ??         20h     
       CODE:010b 3c              ??         3Ch    <
       CODE:010c 43              ??         43h    C
       CODE:010d 6f              ??         6Fh    o
       CODE:010e 70              ??         70h    p
       CODE:010f 79              ??         79h    y
       CODE:0110 72              ??         72h    r
       CODE:0111 69              ??         69h    i
       CODE:0112 67              ??         67h    g
       CODE:0113 68              ??         68h    h
       CODE:0114 74              ??         74h    t
       CODE:0115 20              ??         20h     
       CODE:0116 32              ??         32h    2
       CODE:0117 30              ??         30h    0
       CODE:0118 30              ??         30h    0
       CODE:0119 31              ??         31h    1
       CODE:011a 2d              ??         2Dh    -
       CODE:011b 32              ??         32h    2
       CODE:011c 30              ??         30h    0
       CODE:011d 30              ??         30h    0
       CODE:011e 38              ??         38h    8
       CODE:011f 20              ??         20h     
       CODE:0120 4d              ??         4Dh    M
       CODE:0121 69              ??         69h    i
       CODE:0122 63              ??         63h    c
       CODE:0123 72              ??         72h    r
       CODE:0124 6f              ??         6Fh    o
       CODE:0125 73              ??         73h    s
       CODE:0126 6f              ??         6Fh    o
       CODE:0127 66              ??         66h    f
       CODE:0128 74              ??         74h    t
       CODE:0129 3e              ??         3Eh    >
       CODE:012a 20              ??         20h     
       CODE:012b 20              ??         20h     
       CODE:012c 20              ??         20h     
                             **************************************************************
                             *                          FUNCTION                          *
                             **************************************************************
                             undefined FUN_CODE_012d()
             undefined         ACC:1          <RETURN>
                             FUN_CODE_012d                                   XREF[18]:    CODE:0004(c), CODE:0008(c), 
                                                                                          CODE:000c(c), CODE:000e(c), 
                                                                                          CODE:0010(c), CODE:0014(c), 
                                                                                          CODE:0016(c), CODE:0018(c), 
                                                                                          CODE:001a(c), CODE:001c(c), 
                                                                                          CODE:001e(c), CODE:0020(c), 
                                                                                          CODE:0022(c), CODE:0024(c), 
                                                                                          CODE:0026(c), CODE:0028(c), 
                                                                                          CODE:002a(c), CODE:002c(c)  
       CODE:012d 43 bc 36        ORL        DAT_SFR_bc,#0x36                                           = ??
       CODE:0130 43 bd ff        ORL        DAT_SFR_bd,#0xff                                           = ??
       CODE:0133 43 bd 3f        ORL        DAT_SFR_bd,#0x3f                                           = ??
       CODE:0136 32              RETI
                             **************************************************************
                             *                       THUNK FUNCTION                       *
                             **************************************************************
                             thunk undefined thunk_FUN_CODE_23d8()
                               Thunked-Function: FUN_CODE_23d8
             undefined         ACC:1          <RETURN>
                             thunk_FUN_CODE_23d8                             XREF[1]:     CODE:002e(c)  
       CODE:0137 02 23 d8        LJMP       FUN_CODE_23d8                                              undefined FUN_CODE_23d8()
                             -- Flow Override: CALL_RETURN (CALL_TERMINATOR)
                             **************************************************************
                             *                          FUNCTION                          *
                             **************************************************************
                             undefined FUN_CODE_013a()
             undefined         ACC:1          <RETURN>
                             FUN_CODE_013a                                   XREF[1]:     CODE:0002(c)  
       CODE:013a 43 bf 01        ORL        DAT_SFR_bf,#0x1                                            = ??
       CODE:013d c0 e0           PUSH       A
       CODE:013f c0 d0           PUSH       PSW
       CODE:0141 d2 d3           SETB       RS0                                                        = ??
       CODE:0143 43 8f 02        ORL        FADDR,#0x2                                                 = ??
       CODE:0146 05 77           INC        DAT_INTMEM_77                                              = ??
       CODE:0148 c2 bf           CLR        IP.7                                                       = ??
       CODE:014a 30 5b 09        JNB        2b.3,LAB_CODE_0156                                         = ??
       CODE:014d d1 48           ACALL      FUN_CODE_0648                                              undefined FUN_CODE_0648()
       CODE:014f d1 2f           ACALL      FUN_CODE_062f                                              undefined FUN_CODE_062f()
       CODE:0151 20 cd 02        JB         RCLK,LAB_CODE_0156                                         = ??
       CODE:0154 05 78           INC        DAT_INTMEM_78                                              = ??
                             LAB_CODE_0156                                   XREF[2]:     CODE:014a(j), CODE:0151(j)  
       CODE:0156 53 8f fd        ANL        FADDR,#0xfd                                                = ??
       CODE:0159 c2 d3           CLR        RS0                                                        = ??
       CODE:015b d0 d0           POP        PSW
       CODE:015d d0 e0           POP        A
       CODE:015f 53 bf fe        ANL        DAT_SFR_bf,#0xfe                                           = ??
       CODE:0162 32              RETI
                             **************************************************************
                             *                          FUNCTION                          *
                             **************************************************************
                             undefined FUN_CODE_0163()
             undefined         ACC:1          <RETURN>
                             FUN_CODE_0163                                   XREF[2]:     CODE:000a(c), CODE:0012(c)  
       CODE:0163 43 bf 01        ORL        DAT_SFR_bf,#0x1                                            = ??
       CODE:0166 c0 e0           PUSH       A
       CODE:0168 c0 d0           PUSH       PSW
       CODE:016a d2 d3           SETB       RS0                                                        = ??
       CODE:016c 43 8f 02        ORL        FADDR,#0x2                                                 = ??
       CODE:016f 43 bc 01        ORL        DAT_SFR_bc,#0x1                                            = ??
       CODE:0172 e5 10           MOV        A,BANK2_R0                                                 = ??
       CODE:0174 23              RL         A
       CODE:0175 90 01 79        MOV        DPTR,#LAB_CODE_0179
       CODE:0178 73              JMP        @A+DPTR
                             LAB_CODE_0179                                   XREF[1]:     FUN_CODE_0163:0175(*)  
       CODE:0179 21 9f           AJMP       LAB_CODE_019f
       CODE:017b 21 bb           AJMP       LAB_CODE_01bb
       CODE:017d 21 d2           AJMP       LAB_CODE_01d2
       CODE:017f 41 29           AJMP       LAB_CODE_0229
       CODE:0181 41 40           AJMP       LAB_CODE_0240
       CODE:0183 41 61           AJMP       LAB_CODE_0261
       CODE:0185 41 78           AJMP       LAB_CODE_0278
                             LAB_CODE_0187                                   XREF[10]:    CODE:01af(j), CODE:01b4(j), 
                                                                                          CODE:01b9(j), CODE:01d0(j), 
                                                                                          CODE:01f4(j), CODE:020d(j), 
                                                                                          CODE:023e(j), CODE:0256(j), 
                                                                                          CODE:0276(j), CODE:029a(j)  
       CODE:0187 75 8b 8a        MOV        TL1,#0x8a                                                  = ??
       CODE:018a 75 8c ff        MOV        TH0,#0xff                                                  = ??
       CODE:018d d2 8a           SETB       IT1                                                        = ??
       CODE:018f 53 bc fe        ANL        DAT_SFR_bc,#0xfe                                           = ??
                             LAB_CODE_0192                                   XREF[1]:     CODE:021b(j)  
       CODE:0192 53 8f fd        ANL        FADDR,#0xfd                                                = ??
       CODE:0195 c2 d3           CLR        RS0                                                        = ??
       CODE:0197 d0 d0           POP        PSW
       CODE:0199 d0 e0           POP        A
       CODE:019b 53 bf fe        ANL        DAT_SFR_bf,#0xfe                                           = ??
       CODE:019e 32              RETI
                             LAB_CODE_019f                                   XREF[1]:     CODE:0179(j)  
       CODE:019f c2 d9           CLR        CCF.1                                                      = ??
       CODE:01a1 d2 db           SETB       CCF.3                                                      = ??
       CODE:01a3 75 1b 08        MOV        BANK3_R3,#0x8                                              = ??
       CODE:01a6 20 5d 08        JB         2b.5,LAB_CODE_01b1                                         = ??
       CODE:01a9 20 5e 0a        JB         2b.6,LAB_CODE_01b6                                         = ??
       CODE:01ac 75 10 05        MOV        BANK2_R0,#0x5                                              = ??
       CODE:01af 21 87           AJMP       LAB_CODE_0187
                             LAB_CODE_01b1                                   XREF[1]:     CODE:01a6(j)  
       CODE:01b1 75 10 01        MOV        BANK2_R0,#0x1                                              = ??
       CODE:01b4 21 87           AJMP       LAB_CODE_0187
                             LAB_CODE_01b6                                   XREF[2]:     CODE:01a9(j), CODE:0207(j)  
       CODE:01b6 75 10 03        MOV        BANK2_R0,#0x3                                              = ??
       CODE:01b9 21 87           AJMP       LAB_CODE_0187
                             LAB_CODE_01bb                                   XREF[1]:     CODE:017b(j)  
       CODE:01bb c2 db           CLR        CCF.3                                                      = ??
       CODE:01bd 30 d9 5d        JNB        CCF.1,LAB_CODE_021d                                        = ??
       CODE:01c0 e5 1b           MOV        A,BANK3_R3                                                 = ??
       CODE:01c2 b5 d9 5f        CJNE       A,CMOD,LAB_CODE_0224                                       = ??
       CODE:01c5 85 11 da        MOV        CCAPM0,BANK2_R1                                            = ??
       CODE:01c8 c2 d9           CLR        CCF.1                                                      = ??
       CODE:01ca 75 1b 18        MOV        BANK3_R3,#0x18                                             = ??
       CODE:01cd 75 10 02        MOV        BANK2_R0,#0x2                                              = ??
       CODE:01d0 21 87           AJMP       LAB_CODE_0187
                             LAB_CODE_01d2                                   XREF[1]:     CODE:017d(j)  
       CODE:01d2 30 d9 48        JNB        CCF.1,LAB_CODE_021d                                        = ??
       CODE:01d5 e5 1b           MOV        A,BANK3_R3                                                 = ??
       CODE:01d7 b5 d9 4a        CJNE       A,CMOD,LAB_CODE_0224                                       = ??
       CODE:01da e5 12           MOV        A,BANK2_R2                                                 = ??
       CODE:01dc 60 18           JZ         LAB_CODE_01f6
       CODE:01de 15 12           DEC        BANK2_R2                                                   = ??
       CODE:01e0 20 5c 09        JB         2b.4,LAB_CODE_01ec                                         = ??
       CODE:01e3 74 15           MOV        A,#0x15
       CODE:01e5 25 12           ADD        A,BANK2_R2                                                 = ??
       CODE:01e7 f8              MOV        R0,A
       CODE:01e8 86 da           MOV        CCAPM0,@R0                                                 = ??
       CODE:01ea 21 ef           AJMP       LAB_CODE_01ef
                             LAB_CODE_01ec                                   XREF[1]:     CODE:01e0(j)  
       CODE:01ec 85 e1 da        MOV        CCAPM0,EPCON                                               = ??
                             LAB_CODE_01ef                                   XREF[1]:     CODE:01ea(j)  
       CODE:01ef c2 d9           CLR        CCF.1                                                      = ??
       CODE:01f1 75 1b 28        MOV        BANK3_R3,#0x28                                             = ??
       CODE:01f4 21 87           AJMP       LAB_CODE_0187
                             LAB_CODE_01f6                                   XREF[1]:     CODE:01dc(j)  
       CODE:01f6 20 5e 07        JB         2b.6,LAB_CODE_0200                                         = ??
       CODE:01f9 20 5f 04        JB         2b.7,LAB_CODE_0200                                         = ??
       CODE:01fc c2 61           CLR        2c.1                                                       = ??
       CODE:01fe 41 0f           AJMP       LAB_CODE_020f
                             LAB_CODE_0200                                   XREF[3]:     CODE:01f6(j), CODE:01f9(j), 
                                                                                          CODE:025a(j)  
       CODE:0200 d2 db           SETB       CCF.3                                                      = ??
       CODE:0202 c2 d9           CLR        CCF.1                                                      = ??
       CODE:0204 75 1b 10        MOV        BANK3_R3,#0x10                                             = ??
       CODE:0207 20 5e ac        JB         2b.6,LAB_CODE_01b6                                         = ??
       CODE:020a 75 10 05        MOV        BANK2_R0,#0x5                                              = ??
       CODE:020d 21 87           AJMP       LAB_CODE_0187
                             LAB_CODE_020f                                   XREF[4]:     CODE:01fe(j), CODE:021f(j), 
                                                                                          CODE:025f(j), CODE:0289(j)  
       CODE:020f d2 da           SETB       CCF.2                                                      = ??
       CODE:0211 c2 d9           CLR        CCF.1                                                      = ??
                             LAB_CODE_0213                                   XREF[2]:     CODE:0222(j), CODE:0227(j)  
       CODE:0213 43 bc 08        ORL        DAT_SFR_bc,#0x8                                            = ??
       CODE:0216 c2 60           CLR        2c.0                                                       = ??
       CODE:0218 75 10 00        MOV        BANK2_R0,#0x0                                              = ??
       CODE:021b 21 92           AJMP       LAB_CODE_0192
                             LAB_CODE_021d                                   XREF[7]:     CODE:01bd(j), CODE:01d2(j), 
                                                                                          CODE:0224(j), CODE:022b(j), 
                                                                                          CODE:0240(j), CODE:0263(j), 
                                                                                          CODE:0278(j)  
       CODE:021d e5 1b           MOV        A,BANK3_R3                                                 = ??
       CODE:021f b4 08 ed        CJNE       A,#0x8,LAB_CODE_020f
       CODE:0222 41 13           AJMP       LAB_CODE_0213
                             LAB_CODE_0224                                   XREF[6]:     CODE:01c2(j), CODE:01d7(j), 
                                                                                          CODE:0230(j), CODE:0245(j), 
                                                                                          CODE:0268(j), CODE:027d(j)  
       CODE:0224 b4 00 f6        CJNE       A,#0x0,LAB_CODE_021d
       CODE:0227 41 13           AJMP       LAB_CODE_0213
                             LAB_CODE_0229                                   XREF[1]:     CODE:017f(j)  
       CODE:0229 c2 db           CLR        CCF.3                                                      = ??
       CODE:022b 30 d9 ef        JNB        CCF.1,LAB_CODE_021d                                        = ??
       CODE:022e e5 1b           MOV        A,BANK3_R3                                                 = ??
       CODE:0230 b5 d9 f1        CJNE       A,CMOD,LAB_CODE_0224                                       = ??
       CODE:0233 85 15 da        MOV        CCAPM0,BANK2_R5                                            = ??
       CODE:0236 c2 d9           CLR        CCF.1                                                      = ??
       CODE:0238 75 1b 18        MOV        BANK3_R3,#0x18                                             = ??
       CODE:023b 75 10 04        MOV        BANK2_R0,#0x4                                              = ??
       CODE:023e 21 87           AJMP       LAB_CODE_0187
                             LAB_CODE_0240                                   XREF[1]:     CODE:0181(j)  
       CODE:0240 30 d9 da        JNB        CCF.1,LAB_CODE_021d                                        = ??
       CODE:0243 e5 1b           MOV        A,BANK3_R3                                                 = ??
       CODE:0245 b5 d9 dc        CJNE       A,CMOD,LAB_CODE_0224                                       = ??
       CODE:0248 e5 16           MOV        A,BANK2_R6                                                 = ??
       CODE:024a 60 0c           JZ         LAB_CODE_0258
       CODE:024c 85 e1 da        MOV        CCAPM0,EPCON                                               = ??
       CODE:024f 15 16           DEC        BANK2_R6                                                   = ??
       CODE:0251 c2 d9           CLR        CCF.1                                                      = ??
       CODE:0253 75 1b 28        MOV        BANK3_R3,#0x28                                             = ??
       CODE:0256 21 87           AJMP       LAB_CODE_0187
                             LAB_CODE_0258                                   XREF[1]:     CODE:024a(j)  
       CODE:0258 c2 5e           CLR        2b.6                                                       = ??
       CODE:025a 20 5f a3        JB         2b.7,LAB_CODE_0200                                         = ??
       CODE:025d c2 61           CLR        2c.1                                                       = ??
       CODE:025f 41 0f           AJMP       LAB_CODE_020f
                             LAB_CODE_0261                                   XREF[1]:     CODE:0183(j)  
       CODE:0261 c2 db           CLR        CCF.3                                                      = ??
       CODE:0263 30 d9 b7        JNB        CCF.1,LAB_CODE_021d                                        = ??
       CODE:0266 e5 1b           MOV        A,BANK3_R3                                                 = ??
       CODE:0268 b5 d9 b9        CJNE       A,CMOD,LAB_CODE_0224                                       = ??
       CODE:026b 85 13 da        MOV        CCAPM0,BANK2_R3                                            = ??
       CODE:026e c2 d9           CLR        CCF.1                                                      = ??
       CODE:0270 75 1b 40        MOV        BANK3_R3,#0x40                                             = ??
       CODE:0273 75 10 06        MOV        BANK2_R0,#0x6                                              = ??
       CODE:0276 21 87           AJMP       LAB_CODE_0187
                             LAB_CODE_0278                                   XREF[1]:     CODE:0185(j)  
       CODE:0278 30 d9 a2        JNB        CCF.1,LAB_CODE_021d                                        = ??
       CODE:027b e5 1b           MOV        A,BANK3_R3                                                 = ??
       CODE:027d b5 d9 a4        CJNE       A,CMOD,LAB_CODE_0224                                       = ??
       CODE:0280 b4 40 19        CJNE       A,#0x40,LAB_CODE_029c
                             LAB_CODE_0283                                   XREF[2]:     CODE:02a6(j), CODE:02ab(j)  
       CODE:0283 e5 14           MOV        A,BANK2_R4                                                 = ??
       CODE:0285 70 04           JNZ        LAB_CODE_028b
       CODE:0287 c2 61           CLR        2c.1                                                       = ??
       CODE:0289 41 0f           AJMP       LAB_CODE_020f
                             LAB_CODE_028b                                   XREF[1]:     CODE:0285(j)  
       CODE:028b d2 d8           SETB       CCF.0                                                      = ??
       CODE:028d 75 1b 50        MOV        BANK3_R3,#0x50                                             = ??
       CODE:0290 d5 14 05        DJNZ       BANK2_R4,LAB_CODE_0298                                     = ??
       CODE:0293 c2 d8           CLR        CCF.0                                                      = ??
       CODE:0295 75 1b 58        MOV        BANK3_R3,#0x58                                             = ??
                             LAB_CODE_0298                                   XREF[1]:     CODE:0290(j)  
       CODE:0298 c2 d9           CLR        CCF.1                                                      = ??
       CODE:029a 21 87           AJMP       LAB_CODE_0187
                             LAB_CODE_029c                                   XREF[1]:     CODE:0280(j)  
       CODE:029c 20 5c 09        JB         2b.4,LAB_CODE_02a8                                         = ??
       CODE:029f 74 15           MOV        A,#0x15
       CODE:02a1 25 14           ADD        A,BANK2_R4                                                 = ??
       CODE:02a3 f8              MOV        R0,A
       CODE:02a4 a6 da           MOV        @R0,CCAPM0                                                 = ??
       CODE:02a6 41 83           AJMP       LAB_CODE_0283
                             LAB_CODE_02a8                                   XREF[1]:     CODE:029c(j)  
       CODE:02a8 85 da d5        MOV        HPSC,CCAPM0                                                = ??
       CODE:02ab 41 83           AJMP       LAB_CODE_0283
                             **************************************************************
                             *                          FUNCTION                          *
                             **************************************************************
                             undefined FUN_CODE_02ad()
             undefined         ACC:1          <RETURN>
                             FUN_CODE_02ad                                   XREF[3]:     FUN_CODE_239e:23a3(c), 
                                                                                          FUN_CODE_2679:2692(c), 
                                                                                          CODE:26b8(c)  
       CODE:02ad 43 a6 01        ORL        WDTRST,#0x1                                                = ??
       CODE:02b0 43 a6 02        ORL        WDTRST,#0x2                                                = ??
       CODE:02b3 43 a5 10        ORL        DAT_SFR_a5,#0x10                                           = ??
       CODE:02b6 43 a6 08        ORL        WDTRST,#0x8                                                = ??
       CODE:02b9 43 a7 01        ORL        WCON,#0x1                                                  = ??
       CODE:02bc 43 a7 02        ORL        WCON,#0x2                                                  = ??
       CODE:02bf d2 c8           SETB       CPRL2                                                      = ??
       CODE:02c1 d2 c9           SETB       CT2                                                        = ??
       CODE:02c3 53 a6 fe        ANL        WDTRST,#0xfe                                               = ??
       CODE:02c6 53 a6 fd        ANL        WDTRST,#0xfd                                               = ??
       CODE:02c9 75 dc 03        MOV        CCAPM2,#0x3                                                = ??
       CODE:02cc c2 df           CLR        CF                                                         = ??
       CODE:02ce 22              RET
       CODE:02cf 00              ??         00h
       CODE:02d0 00              ??         00h
       CODE:02d1 00              ??         00h
       CODE:02d2 00              ??         00h
       CODE:02d3 00              ??         00h
       CODE:02d4 00              ??         00h
       CODE:02d5 00              ??         00h
       CODE:02d6 00              ??         00h
       CODE:02d7 00              ??         00h
       CODE:02d8 00              ??         00h
       CODE:02d9 00              ??         00h
       CODE:02da 00              ??         00h
       CODE:02db 00              ??         00h
       CODE:02dc 00              ??         00h
       CODE:02dd 00              ??         00h
       CODE:02de 00              ??         00h
       CODE:02df 00              ??         00h
       CODE:02e0 00              ??         00h
       CODE:02e1 00              ??         00h
                             LAB_CODE_02e2                                   XREF[1]:     CODE:030c(j)  
       CODE:02e2 b4 04 07        CJNE       A,#0x4,LAB_CODE_02ec
       CODE:02e5 7a ff           MOV        R2,#0xff
       CODE:02e7 63 76 ff        XRL        DAT_INTMEM_76,#0xff                                        = ??
       CODE:02ea 61 1b           AJMP       LAB_CODE_031b
                             LAB_CODE_02ec                                   XREF[2]:     CODE:02e2(j), CODE:0318(j)  
       CODE:02ec 91 96           ACALL      FUN_CODE_0496                                              undefined FUN_CODE_0496()
                             LAB_CODE_02ee                                   XREF[11]:    CODE:03a7(j), CODE:03b6(j), 
                                                                                          CODE:03c5(j), CODE:03e1(j), 
                                                                                          CODE:03ef(j), CODE:03fd(j), 
                                                                                          CODE:0402(j), CODE:0421(j), 
                                                                                          CODE:0437(j), CODE:045b(j), 
                                                                                          CODE:048c(j)  
       CODE:02ee 75 b0 85        MOV        P3,#0x85                                                   = ??
       CODE:02f1 53 8f fd        ANL        FADDR,#0xfd                                                = ??
       CODE:02f4 c2 d3           CLR        RS0                                                        = ??
       CODE:02f6 d0 d0           POP        PSW
       CODE:02f8 d0 e0           POP        A
       CODE:02fa 53 bf fe        ANL        DAT_SFR_bf,#0xfe                                           = ??
       CODE:02fd 32              RETI
                             **************************************************************
                             *                          FUNCTION                          *
                             **************************************************************
                             undefined FUN_CODE_02fe()
             undefined         ACC:1          <RETURN>
                             FUN_CODE_02fe                                   XREF[1]:     CODE:0006(c)  
       CODE:02fe 43 bf 01        ORL        DAT_SFR_bf,#0x1                                            = ??
       CODE:0301 c0 e0           PUSH       A
       CODE:0303 c0 d0           PUSH       PSW
       CODE:0305 d2 d3           SETB       RS0                                                        = ??
       CODE:0307 43 8f 02        ORL        FADDR,#0x2                                                 = ??
       CODE:030a e5 b0           MOV        A,P3                                                       = ??
       CODE:030c b4 01 d3        CJNE       A,#0x1,LAB_CODE_02e2
       CODE:030f aa b5           MOV        R2,DAT_SFR_b5                                              = ??
       CODE:0311 85 b6 76        MOV        DAT_INTMEM_76,DAT_SFR_b6                                   = ??
       CODE:0314 e5 76           MOV        A,DAT_INTMEM_76                                            = ??
       CODE:0316 54 f0           ANL        A,#0xf0
       CODE:0318 b4 10 d1        CJNE       A,#0x10,LAB_CODE_02ec
                             LAB_CODE_031b                                   XREF[3]:     CODE:02ea(j), CODE:0429(j), 
                                                                                          CODE:0463(j)  
       CODE:031b 30 62 02        JNB        2c.2,LAB_CODE_0320                                         = ??
       CODE:031e 61 ff           AJMP       LAB_CODE_03ff
                             LAB_CODE_0320                                   XREF[1]:     CODE:031b(j)  
       CODE:0320 c3              CLR        CY
       CODE:0321 e5 70           MOV        A,DAT_INTMEM_70                                            = ??
       CODE:0323 13              RRC        A
       CODE:0324 83              MOVC       A,@A+PC
       CODE:0325 50 01           JNC        LAB_CODE_0328
       CODE:0327 c4              SWAP       A
                             LAB_CODE_0328                                   XREF[1]:     CODE:0325(j)  
       CODE:0328 54 0f           ANL        A,#0xf
       CODE:032a 23              RL         A
       CODE:032b 90 03 78        MOV        DPTR,#switchD_CODE:032e::caseD_0
                             switchD_CODE:032e::switchD
       CODE:032e 73              JMP        @A+DPTR
       CODE:032f 10              ??         10h
       CODE:0330 33              ??         33h    3
       CODE:0331 33              ??         33h    3
       CODE:0332 43              ??         43h    C
       CODE:0333 43              ??         43h    C
       CODE:0334 45              ??         45h    E
       CODE:0335 33              ??         33h    3
       CODE:0336 33              ??         33h    3
       CODE:0337 33              ??         33h    3
       CODE:0338 33              ??         33h    3
       CODE:0339 33              ??         33h    3
       CODE:033a 33              ??         33h    3
       CODE:033b 33              ??         33h    3
       CODE:033c 33              ??         33h    3
       CODE:033d 33              ??         33h    3
       CODE:033e 33              ??         33h    3
       CODE:033f 34              ??         34h    4
       CODE:0340 33              ??         33h    3
       CODE:0341 33              ??         33h    3
       CODE:0342 73              ??         73h    s
       CODE:0343 76              ??         76h    v
       CODE:0344 76              ??         76h    v
       CODE:0345 76              ??         76h    v
       CODE:0346 76              ??         76h    v
       CODE:0347 43              ??         43h    C
       CODE:0348 34              ??         34h    4
       CODE:0349 73              ??         73h    s
       CODE:034a 76              ??         76h    v
       CODE:034b 76              ??         76h    v
       CODE:034c 76              ??         76h    v
       CODE:034d 76              ??         76h    v
       CODE:034e 76              ??         76h    v
       CODE:034f 76              ??         76h    v
       CODE:0350 76              ??         76h    v
       CODE:0351 76              ??         76h    v
       CODE:0352 82              ??         82h
       CODE:0353 a8              ??         A8h
       CODE:0354 a9              ??         A9h
       CODE:0355 a9              ??         A9h
       CODE:0356 a9              ??         A9h
       CODE:0357 a9              ??         A9h
       CODE:0358 a9              ??         A9h
       CODE:0359 a9              ??         A9h
       CODE:035a a9              ??         A9h
       CODE:035b a9              ??         A9h
       CODE:035c a9              ??         A9h
       CODE:035d a9              ??         A9h
       CODE:035e b9              ??         B9h
       CODE:035f a9              ??         A9h
       CODE:0360 a9              ??         A9h
       CODE:0361 a9              ??         A9h
       CODE:0362 a9              ??         A9h
       CODE:0363 a9              ??         A9h
       CODE:0364 a9              ??         A9h
       CODE:0365 a9              ??         A9h
       CODE:0366 a9              ??         A9h
       CODE:0367 a9              ??         A9h
       CODE:0368 a9              ??         A9h
       CODE:0369 a9              ??         A9h
       CODE:036a a9              ??         A9h
       CODE:036b a9              ??         A9h
       CODE:036c a9              ??         A9h
       CODE:036d a9              ??         A9h
       CODE:036e a9              ??         A9h
       CODE:036f a9              ??         A9h
       CODE:0370 a9              ??         A9h
       CODE:0371 a9              ??         A9h
       CODE:0372 a9              ??         A9h
       CODE:0373 a9              ??         A9h
       CODE:0374 a9              ??         A9h
       CODE:0375 a9              ??         A9h
       CODE:0376 a9              ??         A9h
       CODE:0377 02              ??         02h
                             switchD_CODE:032e::caseD_0                      XREF[2]:     CODE:032b(*), CODE:032e(j)  
       CODE:0378 61 90           AJMP       switchD_CODE:032e::caseD_c
                             switchD_CODE:032e::caseD_1                      XREF[1]:     CODE:032e(j)  
       CODE:037a 61 a9           AJMP       LAB_CODE_03a9
                             switchD_CODE:032e::caseD_2                      XREF[1]:     CODE:032e(j)  
       CODE:037c 61 c7           AJMP       LAB_CODE_03c7
                             switchD_CODE:032e::caseD_3                      XREF[1]:     CODE:032e(j)  
       CODE:037e 61 d5           AJMP       LAB_CODE_03d5
                             switchD_CODE:032e::caseD_4                      XREF[1]:     CODE:032e(j)  
       CODE:0380 61 e3           AJMP       LAB_CODE_03e3
                             switchD_CODE:032e::caseD_5                      XREF[1]:     CODE:032e(j)  
       CODE:0382 61 f1           AJMP       LAB_CODE_03f1
                             switchD_CODE:032e::caseD_6                      XREF[1]:     CODE:032e(j)  
       CODE:0384 81 04           AJMP       LAB_CODE_0404
                             switchD_CODE:032e::caseD_7                      XREF[1]:     CODE:032e(j)  
       CODE:0386 81 15           AJMP       LAB_CODE_0415
                             switchD_CODE:032e::caseD_8                      XREF[1]:     CODE:032e(j)  
       CODE:0388 81 2b           AJMP       LAB_CODE_042b
                             switchD_CODE:032e::caseD_9                      XREF[1]:     CODE:032e(j)  
       CODE:038a 81 39           AJMP       LAB_CODE_0439
                             switchD_CODE:032e::caseD_a                      XREF[1]:     CODE:032e(j)  
       CODE:038c 81 4f           AJMP       LAB_CODE_044f
                             switchD_CODE:032e::caseD_b                      XREF[1]:     CODE:032e(j)  
       CODE:038e 81 65           AJMP       LAB_CODE_0465
                             caseD_d (CODE:0390+2)                           XREF[2,1]:   CODE:032e(j), CODE:0378(j), 
                             switchD_CODE:032e::caseD_c                                   CODE:032e(j)  
       CODE:0390 75 75 00        MOV        DAT_INTMEM_75,#0x0                                         = ??
                             caseD_e (CODE:0393+1)                           XREF[0,1]:   CODE:032e(j)  
       CODE:0393 75 71 00        MOV        DAT_INTMEM_71,#0x0                                         = ??
                             switchD_CODE:032e::caseD_f                      XREF[1]:     CODE:032e(j)  
       CODE:0396 e5 76           MOV        A,DAT_INTMEM_76                                            = ??
       CODE:0398 20 e3 64        JB         ACC.3,LAB_CODE_03ff                                        = ??
       CODE:039b ea              MOV        A,R2
       CODE:039c 24 4a           ADD        A,#0x4a
       CODE:039e 50 5f           JNC        LAB_CODE_03ff
       CODE:03a0 ea              MOV        A,R2
       CODE:03a1 24 2f           ADD        A,#0x2f
       CODE:03a3 40 5a           JC         LAB_CODE_03ff
       CODE:03a5 05 70           INC        DAT_INTMEM_70                                              = ??
       CODE:03a7 41 ee           AJMP       LAB_CODE_02ee
                             LAB_CODE_03a9                                   XREF[1]:     CODE:037a(j)  
       CODE:03a9 ea              MOV        A,R2
       CODE:03aa 24 ca           ADD        A,#0xca
       CODE:03ac 50 0a           JNC        LAB_CODE_03b8
       CODE:03ae ea              MOV        A,R2
       CODE:03af 24 b5           ADD        A,#0xb5
       CODE:03b1 40 05           JC         LAB_CODE_03b8
       CODE:03b3 75 70 16        MOV        DAT_INTMEM_70,#0x16                                        = ??
       CODE:03b6 41 ee           AJMP       LAB_CODE_02ee
                             LAB_CODE_03b8                                   XREF[2]:     CODE:03ac(j), CODE:03b1(j)  
       CODE:03b8 ea              MOV        A,R2
       CODE:03b9 24 f4           ADD        A,#0xf4
       CODE:03bb 50 42           JNC        LAB_CODE_03ff
       CODE:03bd ea              MOV        A,R2
       CODE:03be 24 df           ADD        A,#0xdf
       CODE:03c0 40 3d           JC         LAB_CODE_03ff
       CODE:03c2 75 70 5b        MOV        DAT_INTMEM_70,#0x5b                                        = ??
       CODE:03c5 41 ee           AJMP       LAB_CODE_02ee
                             LAB_CODE_03c7                                   XREF[1]:     CODE:037c(j)  
       CODE:03c7 e5 76           MOV        A,DAT_INTMEM_76                                            = ??
       CODE:03c9 30 e3 33        JNB        ACC.3,LAB_CODE_03ff                                        = ??
       CODE:03cc ea              MOV        A,R2
       CODE:03cd 24 4a           ADD        A,#0x4a
       CODE:03cf 50 2e           JNC        LAB_CODE_03ff
       CODE:03d1 d2 62           SETB       2c.2                                                       = ??
       CODE:03d3 61 ff           AJMP       LAB_CODE_03ff
                             LAB_CODE_03d5                                   XREF[2]:     CODE:037e(j), CODE:0413(j)  
       CODE:03d5 ea              MOV        A,R2
       CODE:03d6 24 ea           ADD        A,#0xea
       CODE:03d8 50 25           JNC        LAB_CODE_03ff
       CODE:03da ea              MOV        A,R2
       CODE:03db 24 d5           ADD        A,#0xd5
       CODE:03dd 40 20           JC         LAB_CODE_03ff
       CODE:03df 05 70           INC        DAT_INTMEM_70                                              = ??
       CODE:03e1 41 ee           AJMP       LAB_CODE_02ee
                             LAB_CODE_03e3                                   XREF[1]:     CODE:0380(j)  
       CODE:03e3 ea              MOV        A,R2
       CODE:03e4 24 ca           ADD        A,#0xca
       CODE:03e6 50 17           JNC        LAB_CODE_03ff
       CODE:03e8 ea              MOV        A,R2
       CODE:03e9 24 b5           ADD        A,#0xb5
       CODE:03eb 40 12           JC         LAB_CODE_03ff
       CODE:03ed 05 70           INC        DAT_INTMEM_70                                              = ??
       CODE:03ef 41 ee           AJMP       LAB_CODE_02ee
                             LAB_CODE_03f1                                   XREF[1]:     CODE:0382(j)  
       CODE:03f1 ea              MOV        A,R2
       CODE:03f2 24 aa           ADD        A,#0xaa
       CODE:03f4 50 09           JNC        LAB_CODE_03ff
       CODE:03f6 ea              MOV        A,R2
       CODE:03f7 24 95           ADD        A,#0x95
       CODE:03f9 40 04           JC         LAB_CODE_03ff
       CODE:03fb 05 70           INC        DAT_INTMEM_70                                              = ??
       CODE:03fd 41 ee           AJMP       LAB_CODE_02ee
                             LAB_CODE_03ff                                   XREF[21]:    CODE:031e(j), CODE:0398(j), 
                                                                                          CODE:039e(j), CODE:03a3(j), 
                                                                                          CODE:03bb(j), CODE:03c0(j), 
                                                                                          CODE:03c9(j), CODE:03cf(j), 
                                                                                          CODE:03d3(j), CODE:03d8(j), 
                                                                                          CODE:03dd(j), CODE:03e6(j), 
                                                                                          CODE:03eb(j), CODE:03f4(j), 
                                                                                          CODE:03f9(j), CODE:0418(j), 
                                                                                          CODE:042e(j), CODE:0433(j), 
                                                                                          CODE:0452(j), CODE:0468(j), [more]
       CODE:03ff 75 70 14        MOV        DAT_INTMEM_70,#0x14                                        = ??
       CODE:0402 41 ee           AJMP       LAB_CODE_02ee
                             LAB_CODE_0404                                   XREF[1]:     CODE:0384(j)  
       CODE:0404 e5 76           MOV        A,DAT_INTMEM_76                                            = ??
       CODE:0406 a2 e3           MOV        CY,ACC.3                                                   = ??
       CODE:0408 b3              CPL        CY
       CODE:0409 e5 73           MOV        A,DAT_INTMEM_73                                            = ??
       CODE:040b 33              RLC        A
       CODE:040c f5 73           MOV        DAT_INTMEM_73,A                                            = ??
       CODE:040e e5 72           MOV        A,DAT_INTMEM_72                                            = ??
       CODE:0410 33              RLC        A
       CODE:0411 f5 72           MOV        DAT_INTMEM_72,A                                            = ??
       CODE:0413 61 d5           AJMP       LAB_CODE_03d5
                             LAB_CODE_0415                                   XREF[1]:     CODE:0386(j)  
       CODE:0415 ea              MOV        A,R2
       CODE:0416 24 ea           ADD        A,#0xea
       CODE:0418 50 e5           JNC        LAB_CODE_03ff
       CODE:041a ea              MOV        A,R2
       CODE:041b 24 d5           ADD        A,#0xd5
       CODE:041d 40 04           JC         LAB_CODE_0423
       CODE:041f 05 70           INC        DAT_INTMEM_70                                              = ??
       CODE:0421 41 ee           AJMP       LAB_CODE_02ee
                             LAB_CODE_0423                                   XREF[1]:     CODE:041d(j)  
       CODE:0423 ea              MOV        A,R2
       CODE:0424 94 20           SUBB       A,#0x20
       CODE:0426 fa              MOV        R2,A
       CODE:0427 05 70           INC        DAT_INTMEM_70                                              = ??
       CODE:0429 61 1b           AJMP       LAB_CODE_031b
                             LAB_CODE_042b                                   XREF[2]:     CODE:0388(j), CODE:044d(j)  
       CODE:042b ea              MOV        A,R2
       CODE:042c 24 f4           ADD        A,#0xf4
       CODE:042e 50 cf           JNC        LAB_CODE_03ff
       CODE:0430 ea              MOV        A,R2
       CODE:0431 24 df           ADD        A,#0xdf
       CODE:0433 40 ca           JC         LAB_CODE_03ff
       CODE:0435 05 70           INC        DAT_INTMEM_70                                              = ??
       CODE:0437 41 ee           AJMP       LAB_CODE_02ee
                             LAB_CODE_0439                                   XREF[1]:     CODE:038a(j)  
       CODE:0439 e5 76           MOV        A,DAT_INTMEM_76                                            = ??
       CODE:043b a2 e3           MOV        CY,ACC.3                                                   = ??
       CODE:043d b3              CPL        CY
       CODE:043e e5 75           MOV        A,DAT_INTMEM_75                                            = ??
       CODE:0440 33              RLC        A
       CODE:0441 f5 75           MOV        DAT_INTMEM_75,A                                            = ??
       CODE:0443 e5 74           MOV        A,DAT_INTMEM_74                                            = ??
       CODE:0445 33              RLC        A
       CODE:0446 f5 74           MOV        DAT_INTMEM_74,A                                            = ??
       CODE:0448 e5 73           MOV        A,DAT_INTMEM_73                                            = ??
       CODE:044a 33              RLC        A
       CODE:044b f5 73           MOV        DAT_INTMEM_73,A                                            = ??
       CODE:044d 81 2b           AJMP       LAB_CODE_042b
                             LAB_CODE_044f                                   XREF[1]:     CODE:038c(j)  
       CODE:044f ea              MOV        A,R2
       CODE:0450 24 f4           ADD        A,#0xf4
       CODE:0452 50 ab           JNC        LAB_CODE_03ff
       CODE:0454 ea              MOV        A,R2
       CODE:0455 24 df           ADD        A,#0xdf
       CODE:0457 40 04           JC         LAB_CODE_045d
       CODE:0459 05 70           INC        DAT_INTMEM_70                                              = ??
       CODE:045b 41 ee           AJMP       LAB_CODE_02ee
                             LAB_CODE_045d                                   XREF[2]:     CODE:0457(j), CODE:0488(j)  
       CODE:045d ea              MOV        A,R2
       CODE:045e 94 16           SUBB       A,#0x16
       CODE:0460 fa              MOV        R2,A
       CODE:0461 05 70           INC        DAT_INTMEM_70                                              = ??
       CODE:0463 61 1b           AJMP       LAB_CODE_031b
                             LAB_CODE_0465                                   XREF[1]:     CODE:038e(j)  
       CODE:0465 ea              MOV        A,R2
       CODE:0466 24 f4           ADD        A,#0xf4
       CODE:0468 50 95           JNC        LAB_CODE_03ff
       CODE:046a 85 74 71        MOV        DAT_INTMEM_71,DAT_INTMEM_74                                = ??
       CODE:046d 85 75 72        MOV        DAT_INTMEM_72,DAT_INTMEM_75                                = ??
       CODE:0470 e5 71           MOV        A,DAT_INTMEM_71                                            = ??
       CODE:0472 30 d0 8a        JNB        P,LAB_CODE_03ff                                            = ??
       CODE:0475 b4 07 05        CJNE       A,#0x7,LAB_CODE_047d
       CODE:0478 75 70 93        MOV        DAT_INTMEM_70,#0x93                                        = ??
       CODE:047b 81 85           AJMP       LAB_CODE_0485
                             LAB_CODE_047d                                   XREF[1]:     CODE:0475(j)  
       CODE:047d b4 01 05        CJNE       A,#0x1,LAB_CODE_0485
       CODE:0480 75 70 79        MOV        DAT_INTMEM_70,#0x79                                        = ??
       CODE:0483 81 85           AJMP       LAB_CODE_0485
                             LAB_CODE_0485                                   XREF[3]:     CODE:047b(j), CODE:047d(j), 
                                                                                          CODE:0483(j)  
       CODE:0485 ea              MOV        A,R2
       CODE:0486 24 df           ADD        A,#0xdf
       CODE:0488 40 d3           JC         LAB_CODE_045d
       CODE:048a 05 70           INC        DAT_INTMEM_70                                              = ??
       CODE:048c 41 ee           AJMP       LAB_CODE_02ee
       CODE:048e ea              ??         EAh
       CODE:048f 94              ??         94h
       CODE:0490 16              ??         16h
       CODE:0491 fa              ??         FAh
       CODE:0492 05              ??         05h
       CODE:0493 70              ??         70h    p
       CODE:0494 61              ??         61h    a
       CODE:0495 1b              ??         1Bh
                             **************************************************************
                             *                          FUNCTION                          *
                             **************************************************************
                             undefined FUN_CODE_0496()
             undefined         ACC:1          <RETURN>
                             FUN_CODE_0496                                   XREF[2]:     FUN_CODE_02fe:02ec(c), 
                                                                                          FUN_CODE_239e:23a0(c)  
       CODE:0496 75 b7 f2        MOV        IPH0,#0xf2                                                 = ??
       CODE:0499 75 b7 10        MOV        IPH0,#0x10                                                 = ??
       CODE:049c 75 b1 00        MOV        IEN1,#0x0                                                  = ??
       CODE:049f 75 b2 4c        MOV        IPL1,#0x4c                                                 = ??
       CODE:04a2 75 b2 82        MOV        IPL1,#0x82                                                 = ??
       CODE:04a5 75 b3 0c        MOV        IPH1,#0xc                                                  = ??
       CODE:04a8 75 b4 3f        MOV        DAT_SFR_b4,#0x3f                                           = ??
       CODE:04ab 75 b0 87        MOV        P3,#0x87                                                   = ??
       CODE:04ae 75 b1 07        MOV        IEN1,#0x7                                                  = ??
       CODE:04b1 75 70 14        MOV        DAT_INTMEM_70,#0x14                                        = ??
       CODE:04b4 43 b7 01        ORL        IPH0,#0x1                                                  = ??
       CODE:04b7 43 b9 40        ORL        SADEN,#0x40                                                = ??
       CODE:04ba 53 bc bf        ANL        DAT_SFR_bc,#0xbf                                           = ??
       CODE:04bd 22              RET
                             LAB_CODE_04be                                   XREF[1]:     CODE:0636(j)  
       CODE:04be 43 9d 04        ORL        DAT_SFR_9d,#0x4                                            = ??
       CODE:04c1 43 9d 08        ORL        DAT_SFR_9d,#0x8                                            = ??
       CODE:04c4 53 a2 fb        ANL        FIE,#0xfb                                                  = ??
       CODE:04c7 53 a2 f7        ANL        FIE,#0xf7                                                  = ??
       CODE:04ca c2 68           CLR        2d.0                                                       = ??
       CODE:04cc c2 82           CLR        P0.2                                                       = ??
       CODE:04ce c2 83           CLR        P0.3                                                       = ??
       CODE:04d0 75 6a 0b        MOV        DAT_INTMEM_6a,#0xb                                         = ??
       CODE:04d3 a1 78           AJMP       LAB_CODE_0578
                             LAB_CODE_04d5                                   XREF[1]:     CODE:063c(j)  
       CODE:04d5 43 9d 04        ORL        DAT_SFR_9d,#0x4                                            = ??
       CODE:04d8 43 9d 08        ORL        DAT_SFR_9d,#0x8                                            = ??
       CODE:04db 53 a2 fb        ANL        FIE,#0xfb                                                  = ??
       CODE:04de 53 a2 f7        ANL        FIE,#0xf7                                                  = ??
       CODE:04e1 30 82 02        JNB        P0.2,LAB_CODE_04e6                                         = ??
       CODE:04e4 a1 84           AJMP       LAB_CODE_0584
                             LAB_CODE_04e6                                   XREF[2]:     CODE:04e1(j), CODE:0526(j)  
       CODE:04e6 30 68 07        JNB        2d.0,LAB_CODE_04f0                                         = ??
       CODE:04e9 20 67 04        JB         2c.7,LAB_CODE_04f0                                         = ??
       CODE:04ec c2 64           CLR        2c.4                                                       = ??
       CODE:04ee c2 68           CLR        2d.0                                                       = ??
                             LAB_CODE_04f0                                   XREF[2]:     CODE:04e6(j), CODE:04e9(j)  
       CODE:04f0 75 6b 0b        MOV        DAT_INTMEM_6b,#0xb                                         = ??
       CODE:04f3 75 6a 0b        MOV        DAT_INTMEM_6a,#0xb                                         = ??
       CODE:04f6 a1 8c           AJMP       LAB_CODE_058c
                             LAB_CODE_04f8                                   XREF[1]:     CODE:063a(j)  
       CODE:04f8 d5 6a 04        DJNZ       DAT_INTMEM_6a,LAB_CODE_04ff                                = ??
       CODE:04fb c2 64           CLR        2c.4                                                       = ??
       CODE:04fd a1 74           AJMP       LAB_CODE_0574
                             LAB_CODE_04ff                                   XREF[1]:     CODE:04f8(j)  
       CODE:04ff 30 82 7a        JNB        P0.2,LAB_CODE_057c                                         = ??
       CODE:0502 30 83 77        JNB        P0.3,LAB_CODE_057c                                         = ??
       CODE:0505 a1 80           AJMP       LAB_CODE_0580
                             LAB_CODE_0507                                   XREF[1]:     CODE:0638(j)  
       CODE:0507 d5 6a 6e        DJNZ       DAT_INTMEM_6a,LAB_CODE_0578                                = ??
       CODE:050a 30 63 04        JNB        2c.3,LAB_CODE_0511                                         = ??
       CODE:050d 05 6a           INC        DAT_INTMEM_6a                                              = ??
       CODE:050f a1 78           AJMP       LAB_CODE_0578
                             LAB_CODE_0511                                   XREF[1]:     CODE:050a(j)  
       CODE:0511 d2 82           SETB       P0.2                                                       = ??
       CODE:0513 d2 83           SETB       P0.3                                                       = ??
       CODE:0515 75 6a 64        MOV        DAT_INTMEM_6a,#0x64                                        = ??
       CODE:0518 a1 7c           AJMP       LAB_CODE_057c
                             LAB_CODE_051a                                   XREF[1]:     CODE:063e(j)  
       CODE:051a 43 9d 04        ORL        DAT_SFR_9d,#0x4                                            = ??
       CODE:051d 43 9d 08        ORL        DAT_SFR_9d,#0x8                                            = ??
       CODE:0520 53 a2 fb        ANL        FIE,#0xfb                                                  = ??
       CODE:0523 53 a2 f7        ANL        FIE,#0xf7                                                  = ??
       CODE:0526 30 82 bd        JNB        P0.2,LAB_CODE_04e6                                         = ??
       CODE:0529 20 68 0d        JB         2d.0,LAB_CODE_0539                                         = ??
       CODE:052c e5 6f           MOV        A,DAT_INTMEM_6f                                            = ??
       CODE:052e 70 05           JNZ        LAB_CODE_0535
       CODE:0530 20 64 17        JB         2c.4,LAB_CODE_054a                                         = ??
       CODE:0533 a1 84           AJMP       LAB_CODE_0584
                             LAB_CODE_0535                                   XREF[1]:     CODE:052e(j)  
       CODE:0535 15 6f           DEC        DAT_INTMEM_6f                                              = ??
       CODE:0537 a1 84           AJMP       LAB_CODE_0584
                             LAB_CODE_0539                                   XREF[1]:     CODE:0529(j)  
       CODE:0539 30 67 07        JNB        2c.7,LAB_CODE_0543                                         = ??
       CODE:053c d5 6a 45        DJNZ       DAT_INTMEM_6a,LAB_CODE_0584                                = ??
       CODE:053f c2 64           CLR        2c.4                                                       = ??
       CODE:0541 a1 74           AJMP       LAB_CODE_0574
                             LAB_CODE_0543                                   XREF[1]:     CODE:0539(j)  
       CODE:0543 d2 69           SETB       2d.1                                                       = ??
       CODE:0545 85 6e 6d        MOV        DAT_INTMEM_6d,DAT_INTMEM_6e                                = ??
       CODE:0548 a1 56           AJMP       LAB_CODE_0556
                             LAB_CODE_054a                                   XREF[1]:     CODE:0530(j)  
       CODE:054a c2 69           CLR        2d.1                                                       = ??
       CODE:054c e5 6d           MOV        A,DAT_INTMEM_6d                                            = ??
       CODE:054e 70 06           JNZ        LAB_CODE_0556
       CODE:0550 c2 64           CLR        2c.4                                                       = ??
       CODE:0552 c2 65           CLR        2c.5                                                       = ??
       CODE:0554 a1 74           AJMP       LAB_CODE_0574
                             LAB_CODE_0556                                   XREF[2]:     CODE:0548(j), CODE:054e(j)  
       CODE:0556 75 6b 0b        MOV        DAT_INTMEM_6b,#0xb                                         = ??
       CODE:0559 75 6a 0b        MOV        DAT_INTMEM_6a,#0xb                                         = ??
       CODE:055c c2 83           CLR        P0.3                                                       = ??
       CODE:055e c2 6a           CLR        2d.2                                                       = ??
       CODE:0560 a1 90           AJMP       LAB_CODE_0590
                             LAB_CODE_0562                                   XREF[1]:     CODE:0640(j)  
       CODE:0562 30 82 0a        JNB        P0.2,LAB_CODE_056f                                         = ??
       CODE:0565 d5 6a 20        DJNZ       DAT_INTMEM_6a,LAB_CODE_0588                                = ??
       CODE:0568 30 68 02        JNB        2d.0,LAB_CODE_056d                                         = ??
       CODE:056b c2 64           CLR        2c.4                                                       = ??
                             LAB_CODE_056d                                   XREF[1]:     CODE:0568(j)  
       CODE:056d a1 74           AJMP       LAB_CODE_0574
                             LAB_CODE_056f                                   XREF[1]:     CODE:0562(j)  
       CODE:056f 75 6a 0b        MOV        DAT_INTMEM_6a,#0xb                                         = ??
       CODE:0572 a1 8c           AJMP       LAB_CODE_058c
                             LAB_CODE_0574                                   XREF[8]:     CODE:04fd(j), CODE:0541(j), 
                                                                                          CODE:0554(j), CODE:056d(j), 
                                                                                          CODE:05a3(j), CODE:05b0(j), 
                                                                                          CODE:05de(j), CODE:0609(j)  
       CODE:0574 75 69 00        MOV        DAT_INTMEM_69,#0x0                                         = ??
       CODE:0577 22              RET
                             LAB_CODE_0578                                   XREF[3]:     CODE:04d3(j), CODE:0507(j), 
                                                                                          CODE:050f(j)  
       CODE:0578 75 69 01        MOV        DAT_INTMEM_69,#0x1                                         = ??
       CODE:057b 22              RET
                             LAB_CODE_057c                                   XREF[3]:     CODE:04ff(j), CODE:0502(j), 
                                                                                          CODE:0518(j)  
       CODE:057c 75 69 02        MOV        DAT_INTMEM_69,#0x2                                         = ??
       CODE:057f 22              RET
                             LAB_CODE_0580                                   XREF[6]:     CODE:0505(j), CODE:05ab(j), 
                                                                                          CODE:05be(j), CODE:05c6(j), 
                                                                                          CODE:0625(j), CODE:062d(j)  
       CODE:0580 75 69 03        MOV        DAT_INTMEM_69,#0x3                                         = ??
       CODE:0583 22              RET
                             LAB_CODE_0584                                   XREF[4]:     CODE:04e4(j), CODE:0533(j), 
                                                                                          CODE:0537(j), CODE:053c(j)  
       CODE:0584 75 69 04        MOV        DAT_INTMEM_69,#0x4                                         = ??
       CODE:0587 22              RET
                             LAB_CODE_0588                                   XREF[2]:     CODE:0565(j), CODE:05d4(j)  
       CODE:0588 75 69 05        MOV        DAT_INTMEM_69,#0x5                                         = ??
       CODE:058b 22              RET
                             LAB_CODE_058c                                   XREF[3]:     CODE:04f6(j), CODE:0572(j), 
                                                                                          CODE:059b(j)  
       CODE:058c 75 69 06        MOV        DAT_INTMEM_69,#0x6                                         = ??
       CODE:058f 22              RET
                             LAB_CODE_0590                                   XREF[3]:     CODE:0560(j), CODE:05d9(j), 
                                                                                          CODE:0618(j)  
       CODE:0590 75 69 07        MOV        DAT_INTMEM_69,#0x7                                         = ??
       CODE:0593 22              RET
                             LAB_CODE_0594                                   XREF[4]:     CODE:05ec(j), CODE:05f0(j), 
                                                                                          CODE:05ff(j), CODE:0604(j)  
       CODE:0594 75 69 08        MOV        DAT_INTMEM_69,#0x8                                         = ??
       CODE:0597 22              RET
                             LAB_CODE_0598                                   XREF[1]:     CODE:0642(j)  
       CODE:0598 20 82 0a        JB         P0.2,LAB_CODE_05a5                                         = ??
       CODE:059b d5 6a ee        DJNZ       DAT_INTMEM_6a,LAB_CODE_058c                                = ??
       CODE:059e 30 68 02        JNB        2d.0,LAB_CODE_05a3                                         = ??
       CODE:05a1 c2 64           CLR        2c.4                                                       = ??
                             LAB_CODE_05a3                                   XREF[1]:     CODE:059e(j)  
       CODE:05a3 a1 74           AJMP       LAB_CODE_0574
                             LAB_CODE_05a5                                   XREF[1]:     CODE:0598(j)  
       CODE:05a5 d5 6b 20        DJNZ       DAT_INTMEM_6b,LAB_CODE_05c8                                = ??
       CODE:05a8 20 68 07        JB         2d.0,LAB_CODE_05b2                                         = ??
       CODE:05ab 20 69 d2        JB         2d.1,LAB_CODE_0580                                         = ??
       CODE:05ae d2 63           SETB       2c.3                                                       = ??
       CODE:05b0 a1 74           AJMP       LAB_CODE_0574
                             LAB_CODE_05b2                                   XREF[1]:     CODE:05a8(j)  
       CODE:05b2 30 69 0b        JNB        2d.1,LAB_CODE_05c0                                         = ??
       CODE:05b5 85 6c 6e        MOV        DAT_INTMEM_6e,DAT_INTMEM_6c                                = ??
       CODE:05b8 c2 64           CLR        2c.4                                                       = ??
       CODE:05ba c2 65           CLR        2c.5                                                       = ??
       CODE:05bc c2 68           CLR        2d.0                                                       = ??
       CODE:05be a1 80           AJMP       LAB_CODE_0580
                             LAB_CODE_05c0                                   XREF[1]:     CODE:05b2(j)  
       CODE:05c0 c2 64           CLR        2c.4                                                       = ??
       CODE:05c2 c2 68           CLR        2d.0                                                       = ??
       CODE:05c4 d2 63           SETB       2c.3                                                       = ??
       CODE:05c6 a1 80           AJMP       LAB_CODE_0580
                             LAB_CODE_05c8                                   XREF[1]:     CODE:05a5(j)  
       CODE:05c8 75 6a 0b        MOV        DAT_INTMEM_6a,#0xb                                         = ??
       CODE:05cb e5 6c           MOV        A,DAT_INTMEM_6c                                            = ??
       CODE:05cd a2 83           MOV        CY,P0.3                                                    = ??
       CODE:05cf 33              RLC        A
       CODE:05d0 f5 6c           MOV        DAT_INTMEM_6c,A                                            = ??
       CODE:05d2 92 69           MOV        2d.1,CY                                                    = ??
       CODE:05d4 a1 88           AJMP       LAB_CODE_0588
                             LAB_CODE_05d6                                   XREF[1]:     CODE:0644(j)  
       CODE:05d6 30 82 07        JNB        P0.2,LAB_CODE_05e0                                         = ??
       CODE:05d9 d5 6a b4        DJNZ       DAT_INTMEM_6a,LAB_CODE_0590                                = ??
       CODE:05dc c2 64           CLR        2c.4                                                       = ??
       CODE:05de a1 74           AJMP       LAB_CODE_0574
                             LAB_CODE_05e0                                   XREF[1]:     CODE:05d6(j)  
       CODE:05e0 75 6a 0b        MOV        DAT_INTMEM_6a,#0xb                                         = ??
       CODE:05e3 e5 6b           MOV        A,DAT_INTMEM_6b                                            = ??
       CODE:05e5 d5 6b 06        DJNZ       DAT_INTMEM_6b,LAB_CODE_05ee                                = ??
       CODE:05e8 d2 83           SETB       P0.3                                                       = ??
       CODE:05ea d2 6a           SETB       2d.2                                                       = ??
       CODE:05ec a1 94           AJMP       LAB_CODE_0594
                             LAB_CODE_05ee                                   XREF[1]:     CODE:05e5(j)  
       CODE:05ee 64 0b           XRL        A,#0xb
       CODE:05f0 60 a2           JZ         LAB_CODE_0594
       CODE:05f2 a2 69           MOV        CY,2d.1                                                    = ??
       CODE:05f4 92 83           MOV        P0.3,CY                                                    = ??
       CODE:05f6 92 6a           MOV        2d.2,CY                                                    = ??
       CODE:05f8 e5 6d           MOV        A,DAT_INTMEM_6d                                            = ??
       CODE:05fa 33              RLC        A
       CODE:05fb f5 6d           MOV        DAT_INTMEM_6d,A                                            = ??
       CODE:05fd 92 69           MOV        2d.1,CY                                                    = ??
       CODE:05ff a1 94           AJMP       LAB_CODE_0594
                             LAB_CODE_0601                                   XREF[1]:     CODE:0646(j)  
       CODE:0601 20 82 07        JB         P0.2,LAB_CODE_060b                                         = ??
       CODE:0604 d5 6a 8d        DJNZ       DAT_INTMEM_6a,LAB_CODE_0594                                = ??
                             LAB_CODE_0607                                   XREF[1]:     CODE:060e(j)  
       CODE:0607 c2 64           CLR        2c.4                                                       = ??
       CODE:0609 a1 74           AJMP       LAB_CODE_0574
                             LAB_CODE_060b                                   XREF[1]:     CODE:0601(j)  
       CODE:060b 30 6a 03        JNB        2d.2,LAB_CODE_0611                                         = ??
       CODE:060e 30 83 f6        JNB        P0.3,LAB_CODE_0607                                         = ??
                             LAB_CODE_0611                                   XREF[1]:     CODE:060b(j)  
       CODE:0611 e5 6b           MOV        A,DAT_INTMEM_6b                                            = ??
       CODE:0613 60 05           JZ         LAB_CODE_061a
       CODE:0615 75 6a 0b        MOV        DAT_INTMEM_6a,#0xb                                         = ??
       CODE:0618 a1 90           AJMP       LAB_CODE_0590
                             LAB_CODE_061a                                   XREF[1]:     CODE:0613(j)  
       CODE:061a 20 68 0a        JB         2d.0,LAB_CODE_0627                                         = ??
       CODE:061d 30 66 07        JNB        2c.6,LAB_CODE_0627                                         = ??
       CODE:0620 d2 68           SETB       2d.0                                                       = ??
       CODE:0622 75 6a 96        MOV        DAT_INTMEM_6a,#0x96                                        = ??
       CODE:0625 a1 80           AJMP       LAB_CODE_0580
                             LAB_CODE_0627                                   XREF[2]:     CODE:061a(j), CODE:061d(j)  
       CODE:0627 c2 64           CLR        2c.4                                                       = ??
       CODE:0629 c2 65           CLR        2c.5                                                       = ??
       CODE:062b c2 68           CLR        2d.0                                                       = ??
       CODE:062d a1 80           AJMP       LAB_CODE_0580
                             **************************************************************
                             *                          FUNCTION                          *
                             **************************************************************
                             undefined FUN_CODE_062f()
             undefined         ACC:1          <RETURN>
                             FUN_CODE_062f                                   XREF[1]:     FUN_CODE_013a:014f(c)  
       CODE:062f e5 69           MOV        A,DAT_INTMEM_69                                            = ??
       CODE:0631 23              RL         A
       CODE:0632 90 06 36        MOV        DPTR,#LAB_CODE_0636
       CODE:0635 73              JMP        @A+DPTR
                             LAB_CODE_0636                                   XREF[1]:     FUN_CODE_062f:0632(*)  
       CODE:0636 81 be           AJMP       LAB_CODE_04be
       CODE:0638 a1 07           AJMP       LAB_CODE_0507
       CODE:063a 81 f8           AJMP       LAB_CODE_04f8
       CODE:063c 81 d5           AJMP       LAB_CODE_04d5
       CODE:063e a1 1a           AJMP       LAB_CODE_051a
       CODE:0640 a1 62           AJMP       LAB_CODE_0562
       CODE:0642 a1 98           AJMP       LAB_CODE_0598
       CODE:0644 a1 d6           AJMP       LAB_CODE_05d6
       CODE:0646 c1 01           AJMP       LAB_CODE_0601
                             **************************************************************
                             *                          FUNCTION                          *
                             **************************************************************
                             undefined FUN_CODE_0648()
             undefined         ACC:1          <RETURN>
                             FUN_CODE_0648                                   XREF[1]:     FUN_CODE_013a:014d(c)  
       CODE:0648 e5 1f           MOV        A,BANK3_R7                                                 = ??
       CODE:064a 60 01           JZ         LAB_CODE_064d
       CODE:064c 22              RET
                             LAB_CODE_064d                                   XREF[1]:     CODE:064a(j)  
       CODE:064d e5 d7           MOV        A,HPSTAT                                                   = ??
       CODE:064f 30 e0 11        JNB        ACC.0,LAB_CODE_0663                                        = ??
       CODE:0652 e5 d7           MOV        A,HPSTAT                                                   = ??
       CODE:0654 30 e0 4e        JNB        ACC.0,LAB_CODE_06a5                                        = ??
       CODE:0657 e5 d7           MOV        A,HPSTAT                                                   = ??
       CODE:0659 30 e0 49        JNB        ACC.0,LAB_CODE_06a5                                        = ??
       CODE:065c c2 6b           CLR        2d.3                                                       = ??
       CODE:065e 75 1c 64        MOV        BANK3_R4,#0x64                                             = ??
       CODE:0661 c1 a5           AJMP       LAB_CODE_06a5
                             LAB_CODE_0663                                   XREF[1]:     CODE:064f(j)  
       CODE:0663 20 6b 0d        JB         2d.3,LAB_CODE_0673                                         = ??
       CODE:0666 d5 1c 3c        DJNZ       BANK3_R4,LAB_CODE_06a5                                     = ??
       CODE:0669 d2 6b           SETB       2d.3                                                       = ??
       CODE:066b c2 71           CLR        2e.1                                                       = ??
       CODE:066d a2 e1           MOV        CY,ACC.1                                                   = ??
       CODE:066f 92 6e           MOV        2d.6,CY                                                    = ??
       CODE:0671 c1 a5           AJMP       LAB_CODE_06a5
                             LAB_CODE_0673                                   XREF[1]:     CODE:0663(j)  
       CODE:0673 54 02           ANL        A,#0x2
       CODE:0675 a2 6e           MOV        CY,2d.6                                                    = ??
       CODE:0677 13              RRC        A
       CODE:0678 20 71 0c        JB         2e.1,LAB_CODE_0687                                         = ??
       CODE:067b 30 d0 27        JNB        P,LAB_CODE_06a5                                            = ??
       CODE:067e d2 71           SETB       2e.1                                                       = ??
       CODE:0680 c2 74           CLR        2e.4                                                       = ??
       CODE:0682 75 1c 32        MOV        BANK3_R4,#0x32                                             = ??
       CODE:0685 c1 a5           AJMP       LAB_CODE_06a5
                             LAB_CODE_0687                                   XREF[1]:     CODE:0678(j)  
       CODE:0687 20 74 0c        JB         2e.4,LAB_CODE_0696                                         = ??
       CODE:068a 30 d0 13        JNB        P,LAB_CODE_06a0                                            = ??
       CODE:068d d5 1c 15        DJNZ       BANK3_R4,LAB_CODE_06a5                                     = ??
                             LAB_CODE_0690                                   XREF[1]:     CODE:0696(j)  
       CODE:0690 b2 6e           CPL        2d.6                                                       = ??
       CODE:0692 c2 71           CLR        2e.1                                                       = ??
       CODE:0694 c1 a5           AJMP       LAB_CODE_06a5
                             LAB_CODE_0696                                   XREF[1]:     CODE:0687(j)  
       CODE:0696 20 d0 f7        JB         P,LAB_CODE_0690                                            = ??
       CODE:0699 d5 1c 09        DJNZ       BANK3_R4,LAB_CODE_06a5                                     = ??
       CODE:069c 75 1f 56        MOV        BANK3_R7,#0x56                                             = ??
       CODE:069f 22              RET
                             LAB_CODE_06a0                                   XREF[1]:     CODE:068a(j)  
       CODE:06a0 d2 74           SETB       2e.4                                                       = ??
       CODE:06a2 75 1c 64        MOV        BANK3_R4,#0x64                                             = ??
                             LAB_CODE_06a5                                   XREF[10]:    CODE:0654(j), CODE:0659(j), 
                                                                                          CODE:0661(j), CODE:0666(j), 
                                                                                          CODE:0671(j), CODE:067b(j), 
                                                                                          CODE:0685(j), CODE:068d(j), 
                                                                                          CODE:0694(j), CODE:0699(j)  
       CODE:06a5 e5 d7           MOV        A,HPSTAT                                                   = ??
       CODE:06a7 30 e2 11        JNB        ACC.2,LAB_CODE_06bb                                        = ??
       CODE:06aa e5 d7           MOV        A,HPSTAT                                                   = ??
       CODE:06ac 30 e2 4e        JNB        ACC.2,LAB_CODE_06fd                                        = ??
       CODE:06af e5 d7           MOV        A,HPSTAT                                                   = ??
       CODE:06b1 30 e2 49        JNB        ACC.2,LAB_CODE_06fd                                        = ??
       CODE:06b4 c2 6c           CLR        2d.4                                                       = ??
       CODE:06b6 75 1d 64        MOV        BANK3_R5,#0x64                                             = ??
       CODE:06b9 c1 fd           AJMP       LAB_CODE_06fd
                             LAB_CODE_06bb                                   XREF[1]:     CODE:06a7(j)  
       CODE:06bb 20 6c 0d        JB         2d.4,LAB_CODE_06cb                                         = ??
       CODE:06be d5 1d 3c        DJNZ       BANK3_R5,LAB_CODE_06fd                                     = ??
       CODE:06c1 d2 6c           SETB       2d.4                                                       = ??
       CODE:06c3 c2 72           CLR        2e.2                                                       = ??
       CODE:06c5 a2 e3           MOV        CY,ACC.3                                                   = ??
       CODE:06c7 92 6f           MOV        2d.7,CY                                                    = ??
       CODE:06c9 c1 fd           AJMP       LAB_CODE_06fd
                             LAB_CODE_06cb                                   XREF[1]:     CODE:06bb(j)  
       CODE:06cb 54 08           ANL        A,#0x8
       CODE:06cd a2 6f           MOV        CY,2d.7                                                    = ??
       CODE:06cf 13              RRC        A
       CODE:06d0 20 72 0c        JB         2e.2,LAB_CODE_06df                                         = ??
       CODE:06d3 30 d0 27        JNB        P,LAB_CODE_06fd                                            = ??
       CODE:06d6 d2 72           SETB       2e.2                                                       = ??
       CODE:06d8 c2 75           CLR        2e.5                                                       = ??
       CODE:06da 75 1d 32        MOV        BANK3_R5,#0x32                                             = ??
       CODE:06dd c1 fd           AJMP       LAB_CODE_06fd
                             LAB_CODE_06df                                   XREF[1]:     CODE:06d0(j)  
       CODE:06df 20 75 0c        JB         2e.5,LAB_CODE_06ee                                         = ??
       CODE:06e2 30 d0 13        JNB        P,LAB_CODE_06f8                                            = ??
       CODE:06e5 d5 1d 15        DJNZ       BANK3_R5,LAB_CODE_06fd                                     = ??
                             LAB_CODE_06e8                                   XREF[1]:     CODE:06ee(j)  
       CODE:06e8 b2 6f           CPL        2d.7                                                       = ??
       CODE:06ea c2 72           CLR        2e.2                                                       = ??
       CODE:06ec c1 fd           AJMP       LAB_CODE_06fd
                             LAB_CODE_06ee                                   XREF[1]:     CODE:06df(j)  
       CODE:06ee 20 d0 f7        JB         P,LAB_CODE_06e8                                            = ??
       CODE:06f1 d5 1d 09        DJNZ       BANK3_R5,LAB_CODE_06fd                                     = ??
       CODE:06f4 75 1f 57        MOV        BANK3_R7,#0x57                                             = ??
       CODE:06f7 22              RET
                             LAB_CODE_06f8                                   XREF[1]:     CODE:06e2(j)  
       CODE:06f8 d2 75           SETB       2e.5                                                       = ??
       CODE:06fa 75 1d 64        MOV        BANK3_R5,#0x64                                             = ??
                             LAB_CODE_06fd                                   XREF[10]:    CODE:06ac(j), CODE:06b1(j), 
                                                                                          CODE:06b9(j), CODE:06be(j), 
                                                                                          CODE:06c9(j), CODE:06d3(j), 
                                                                                          CODE:06dd(j), CODE:06e5(j), 
                                                                                          CODE:06ec(j), CODE:06f1(j)  
       CODE:06fd e5 fd           MOV        A,CCAP3H                                                   = ??
       CODE:06ff 30 e4 11        JNB        ACC.4,LAB_CODE_0713                                        = ??
       CODE:0702 e5 fd           MOV        A,CCAP3H                                                   = ??
       CODE:0704 30 e4 4e        JNB        ACC.4,LAB_CODE_0755                                        = ??
       CODE:0707 e5 fd           MOV        A,CCAP3H                                                   = ??
       CODE:0709 30 e4 49        JNB        ACC.4,LAB_CODE_0755                                        = ??
       CODE:070c c2 6d           CLR        2d.5                                                       = ??
       CODE:070e 75 1e 64        MOV        BANK3_R6,#0x64                                             = ??
       CODE:0711 e1 55           AJMP       LAB_CODE_0755
                             LAB_CODE_0713                                   XREF[1]:     CODE:06ff(j)  
       CODE:0713 20 6d 0d        JB         2d.5,LAB_CODE_0723                                         = ??
       CODE:0716 d5 1e 3c        DJNZ       BANK3_R6,LAB_CODE_0755                                     = ??
       CODE:0719 d2 6d           SETB       2d.5                                                       = ??
       CODE:071b c2 73           CLR        2e.3                                                       = ??
       CODE:071d a2 e5           MOV        CY,ACC.5                                                   = ??
       CODE:071f 92 70           MOV        2e.0,CY                                                    = ??
       CODE:0721 e1 55           AJMP       LAB_CODE_0755
                             LAB_CODE_0723                                   XREF[1]:     CODE:0713(j)  
       CODE:0723 54 20           ANL        A,#0x20
       CODE:0725 a2 70           MOV        CY,2e.0                                                    = ??
       CODE:0727 13              RRC        A
       CODE:0728 20 73 0c        JB         2e.3,LAB_CODE_0737                                         = ??
       CODE:072b 30 d0 27        JNB        P,LAB_CODE_0755                                            = ??
       CODE:072e d2 73           SETB       2e.3                                                       = ??
       CODE:0730 c2 76           CLR        2e.6                                                       = ??
       CODE:0732 75 1e 32        MOV        BANK3_R6,#0x32                                             = ??
       CODE:0735 e1 55           AJMP       LAB_CODE_0755
                             LAB_CODE_0737                                   XREF[1]:     CODE:0728(j)  
       CODE:0737 20 76 0c        JB         2e.6,LAB_CODE_0746                                         = ??
       CODE:073a 30 d0 13        JNB        P,LAB_CODE_0750                                            = ??
       CODE:073d d5 1e 15        DJNZ       BANK3_R6,LAB_CODE_0755                                     = ??
                             LAB_CODE_0740                                   XREF[1]:     CODE:0746(j)  
       CODE:0740 b2 70           CPL        2e.0                                                       = ??
       CODE:0742 c2 73           CLR        2e.3                                                       = ??
       CODE:0744 e1 55           AJMP       LAB_CODE_0755
                             LAB_CODE_0746                                   XREF[1]:     CODE:0737(j)  
       CODE:0746 20 d0 f7        JB         P,LAB_CODE_0740                                            = ??
       CODE:0749 d5 1e 09        DJNZ       BANK3_R6,LAB_CODE_0755                                     = ??
       CODE:074c 75 1f 5a        MOV        BANK3_R7,#0x5a                                             = ??
       CODE:074f 22              RET
                             LAB_CODE_0750                                   XREF[1]:     CODE:073a(j)  
       CODE:0750 d2 76           SETB       2e.6                                                       = ??
       CODE:0752 75 1e 64        MOV        BANK3_R6,#0x64                                             = ??
                             LAB_CODE_0755                                   XREF[10]:    CODE:0704(j), CODE:0709(j), 
                                                                                          CODE:0711(j), CODE:0716(j), 
                                                                                          CODE:0721(j), CODE:072b(j), 
                                                                                          CODE:0735(j), CODE:073d(j), 
                                                                                          CODE:0744(j), CODE:0749(j)  
       CODE:0755 22              RET
                             **************************************************************
                             *                          FUNCTION                          *
                             **************************************************************
                             undefined FUN_CODE_0756()
             undefined         ACC:1          <RETURN>
                             FUN_CODE_0756                                   XREF[1]:     CODE:0000(c)  
       CODE:0756 75 81 b9        MOV        SP,#0xb9                                                   = ??
       CODE:0759 12 22 d1        LCALL      FUN_CODE_22d1                                              undefined FUN_CODE_22d1()
       CODE:075c 12 23 d2        LCALL      FUN_CODE_23d2                                              undefined FUN_CODE_23d2()
       CODE:075f 12 22 d9        LCALL      FUN_CODE_22d9                                              undefined FUN_CODE_22d9()
       CODE:0762 12 23 2b        LCALL      FUN_CODE_232b                                              undefined FUN_CODE_232b()
       CODE:0765 12 23 4f        LCALL      FUN_CODE_234f                                              undefined FUN_CODE_234f()
       CODE:0768 12 08 0d        LCALL      FUN_CODE_080d                                              undefined FUN_CODE_080d()
       CODE:076b 12 07 ea        LCALL      FUN_CODE_07ea                                              undefined FUN_CODE_07ea()
       CODE:076e d2 0c           SETB       21.4                                                       = ??
       CODE:0770 12 26 24        LCALL      FUN_CODE_2624                                              undefined FUN_CODE_2624()
       CODE:0773 92 0a           MOV        21.2,CY                                                    = ??
                             LAB_CODE_0775                                   XREF[1]:     CODE:07e8(j)  
       CODE:0775 75 81 b9        MOV        SP,#0xb9                                                   = ??
       CODE:0778 12 22 d1        LCALL      FUN_CODE_22d1                                              undefined FUN_CODE_22d1()
       CODE:077b 12 24 17        LCALL      FUN_CODE_2417                                              undefined FUN_CODE_2417()
       CODE:077e f5 39           MOV        DAT_INTMEM_39,A                                            = ??
       CODE:0780 12 26 2a        LCALL      FUN_CODE_262a                                              undefined FUN_CODE_262a()
       CODE:0783 ec              MOV        A,R4
       CODE:0784 a2 e2           MOV        CY,ACC.2                                                   = ??
       CODE:0786 50 0e           JNC        LAB_CODE_0796
       CODE:0788 20 06 0b        JB         20.6,LAB_CODE_0796                                         = ??
       CODE:078b 20 17 05        JB         22.7,LAB_CODE_0793                                         = ??
       CODE:078e 43 34 20        ORL        DAT_INTMEM_34,#0x20                                        = ??
       CODE:0791 80 03           SJMP       LAB_CODE_0796
                             LAB_CODE_0793                                   XREF[1]:     CODE:078b(j)  
       CODE:0793 43 34 04        ORL        DAT_INTMEM_34,#0x4                                         = ??
                             LAB_CODE_0796                                   XREF[3]:     CODE:0786(j), CODE:0788(j), 
                                                                                          CODE:0791(j)  
       CODE:0796 92 06           MOV        20.6,CY                                                    = ??
       CODE:0798 e5 61           MOV        A,DAT_INTMEM_61                                            = ??
       CODE:079a 60 02           JZ         LAB_CODE_079e
       CODE:079c 15 61           DEC        DAT_INTMEM_61                                              = ??
                             LAB_CODE_079e                                   XREF[1]:     CODE:079a(j)  
       CODE:079e e5 61           MOV        A,DAT_INTMEM_61                                            = ??
       CODE:07a0 70 02           JNZ        LAB_CODE_07a4
       CODE:07a2 c2 34           CLR        26.4                                                       = ??
                             LAB_CODE_07a4                                   XREF[1]:     CODE:07a0(j)  
       CODE:07a4 12 1d 2a        LCALL      FUN_CODE_1d2a                                              undefined FUN_CODE_1d2a()
       CODE:07a7 12 14 b1        LCALL      FUN_CODE_14b1                                              undefined FUN_CODE_14b1()
       CODE:07aa 12 1c a2        LCALL      FUN_CODE_1ca2                                              undefined FUN_CODE_1ca2()
       CODE:07ad 12 13 91        LCALL      FUN_CODE_1391                                              undefined FUN_CODE_1391()
       CODE:07b0 12 20 c6        LCALL      FUN_CODE_20c6                                              undefined FUN_CODE_20c6()
       CODE:07b3 12 13 6a        LCALL      FUN_CODE_136a                                              undefined FUN_CODE_136a()
       CODE:07b6 12 1b d9        LCALL      FUN_CODE_1bd9                                              undefined FUN_CODE_1bd9()
       CODE:07b9 12 22 36        LCALL      FUN_CODE_2236                                              undefined FUN_CODE_2236()
       CODE:07bc 12 20 44        LCALL      FUN_CODE_2044                                              undefined FUN_CODE_2044()
       CODE:07bf 12 14 c6        LCALL      FUN_CODE_14c6                                              undefined FUN_CODE_14c6()
       CODE:07c2 12 14 08        LCALL      FUN_CODE_1408                                              undefined FUN_CODE_1408()
       CODE:07c5 12 1d e9        LCALL      FUN_CODE_1de9                                              undefined FUN_CODE_1de9()
       CODE:07c8 12 11 9b        LCALL      FUN_CODE_119b                                              undefined FUN_CODE_119b()
       CODE:07cb 12 10 72        LCALL      FUN_CODE_1072                                              undefined FUN_CODE_1072()
       CODE:07ce 12 12 d5        LCALL      FUN_CODE_12d5                                              undefined FUN_CODE_12d5()
       CODE:07d1 12 11 27        LCALL      FUN_CODE_1127                                              undefined FUN_CODE_1127()
       CODE:07d4 12 0e a9        LCALL      FUN_CODE_0ea9                                              undefined FUN_CODE_0ea9()
                             LAB_CODE_07d7                                   XREF[1]:     CODE:07e6(j)  
       CODE:07d7 12 1a 3a        LCALL      FUN_CODE_1a3a                                              undefined FUN_CODE_1a3a()
       CODE:07da 12 22 c2        LCALL      FUN_CODE_22c2                                              undefined FUN_CODE_22c2()
       CODE:07dd 12 1d d7        LCALL      FUN_CODE_1dd7                                              undefined FUN_CODE_1dd7()
       CODE:07e0 12 19 f3        LCALL      FUN_CODE_19f3                                              undefined FUN_CODE_19f3()
       CODE:07e3 12 23 38        LCALL      FUN_CODE_2338                                              undefined FUN_CODE_2338()
       CODE:07e6 50 ef           JNC        LAB_CODE_07d7
       CODE:07e8 80 8b           SJMP       LAB_CODE_0775
                             **************************************************************
                             *                          FUNCTION                          *
                             **************************************************************
                             undefined FUN_CODE_07ea()
             undefined         ACC:1          <RETURN>
                             FUN_CODE_07ea                                   XREF[1]:     FUN_CODE_0756:076b(c)  
       CODE:07ea 78 7e           MOV        R0,#0x7e
       CODE:07ec 7a 1d           MOV        R2,#0x1d
       CODE:07ee 12 2d 4c        LCALL      FUN_CODE_2d4c                                              undefined FUN_CODE_2d4c()
       CODE:07f1 78 2f           MOV        R0,#0x2f
       CODE:07f3 7a 06           MOV        R2,#0x6
       CODE:07f5 12 2d 4c        LCALL      FUN_CODE_2d4c                                              undefined FUN_CODE_2d4c()
       CODE:07f8 78 00           MOV        R0,#0x0
       CODE:07fa 7a 08           MOV        R2,#0x8
       CODE:07fc 12 2d 5d        LCALL      FUN_CODE_2d5d                                              undefined FUN_CODE_2d5d()
       CODE:07ff 78 80           MOV        R0,#0x80
       CODE:0801 76 0f           MOV        @R0=>DAT_INTMEM_80,#0xf                                    = ??
       CODE:0803 78 82           MOV        R0,#0x82
       CODE:0805 76 0d           MOV        @R0=>DAT_INTMEM_82,#0xd                                    = ??
       CODE:0807 75 2f 5c        MOV        DAT_INTMEM_2f,#0x5c                                        = ??
       CODE:080a d2 00           SETB       20.0
       CODE:080c 22              RET
                             **************************************************************
                             *                          FUNCTION                          *
                             **************************************************************
                             undefined FUN_CODE_080d()
             undefined         ACC:1          <RETURN>
                             FUN_CODE_080d                                   XREF[2]:     FUN_CODE_0756:0768(c), 
                                                                                          CODE:1ea8(c)  
       CODE:080d 78 9b           MOV        R0,#0x9b
       CODE:080f 7a 1f           MOV        R2,#0x1f
       CODE:0811 12 2d 4c        LCALL      FUN_CODE_2d4c                                              undefined FUN_CODE_2d4c()
       CODE:0814 78 35           MOV        R0,#0x35
       CODE:0816 7a 34           MOV        R2,#0x34
       CODE:0818 12 2d 4c        LCALL      FUN_CODE_2d4c                                              undefined FUN_CODE_2d4c()
       CODE:081b 78 08           MOV        R0,#0x8
       CODE:081d 7a 53           MOV        R2,#0x53
       CODE:081f 12 2d 5d        LCALL      FUN_CODE_2d5d                                              undefined FUN_CODE_2d5d()
       CODE:0822 75 54 10        MOV        DAT_INTMEM_54,#0x10                                        = ??
       CODE:0825 75 55 fa        MOV        DAT_INTMEM_55,#0xfa                                        = ??
       CODE:0828 75 47 19        MOV        DAT_INTMEM_47,#0x19                                        = ??
       CODE:082b 75 3c 80        MOV        DAT_INTMEM_3c,#0x80                                        = ??
       CODE:082e 75 62 00        MOV        DAT_INTMEM_62,#0x0                                         = ??
       CODE:0831 d2 25           SETB       24.5                                                       = ??
       CODE:0833 d2 1f           SETB       23.7                                                       = ??
       CODE:0835 e5 2f           MOV        A,DAT_INTMEM_2f                                            = ??
       CODE:0837 54 20           ANL        A,#0x20
       CODE:0839 44 5c           ORL        A,#0x5c
       CODE:083b f5 2f           MOV        DAT_INTMEM_2f,A                                            = ??
       CODE:083d 22              RET
                             **************************************************************
                             *                          FUNCTION                          *
                             **************************************************************
                             undefined FUN_CODE_083e()
             undefined         ACC:1          <RETURN>
                             FUN_CODE_083e                                   XREF[2]:     CODE:1dbb(c), CODE:22ae(c)  
       CODE:083e 12 24 39        LCALL      FUN_CODE_2439                                              undefined FUN_CODE_2439()
       CODE:0841 50 03           JNC        LAB_CODE_0846
       CODE:0843 02 0a cf        LJMP       LAB_CODE_0acf
                             LAB_CODE_0846                                   XREF[1]:     CODE:0841(j)  
       CODE:0846 f5 f0           MOV        B,A
       CODE:0848 74 00           MOV        A,#0x0
       CODE:084a 12 24 67        LCALL      FUN_CODE_2467                                              undefined FUN_CODE_2467()
       CODE:084d e5 f0           MOV        A,B
       CODE:084f 12 24 6c        LCALL      FUN_CODE_246c                                              undefined FUN_CODE_246c()
       CODE:0852 e5 f0           MOV        A,B
       CODE:0854 b4 01 02        CJNE       A,#0x1,LAB_CODE_0859
       CODE:0857 80 44           SJMP       LAB_CODE_089d
                             LAB_CODE_0859                                   XREF[1]:     CODE:0854(j)  
       CODE:0859 b4 04 02        CJNE       A,#0x4,LAB_CODE_085e
       CODE:085c 80 67           SJMP       LAB_CODE_08c5
                             LAB_CODE_085e                                   XREF[1]:     CODE:0859(j)  
       CODE:085e b4 07 03        CJNE       A,#0x7,LAB_CODE_0864
       CODE:0861 02 09 06        LJMP       LAB_CODE_0906
                             LAB_CODE_0864                                   XREF[1]:     CODE:085e(j)  
       CODE:0864 b4 0a 03        CJNE       A,#0xa,LAB_CODE_086a
       CODE:0867 02 09 39        LJMP       LAB_CODE_0939
                             LAB_CODE_086a                                   XREF[1]:     CODE:0864(j)  
       CODE:086a b4 0f 03        CJNE       A,#0xf,LAB_CODE_0870
       CODE:086d 02 09 44        LJMP       LAB_CODE_0944
                             LAB_CODE_0870                                   XREF[1]:     CODE:086a(j)  
       CODE:0870 b4 16 03        CJNE       A,#0x16,LAB_CODE_0876
       CODE:0873 02 09 4f        LJMP       LAB_CODE_094f
                             LAB_CODE_0876                                   XREF[1]:     CODE:0870(j)  
       CODE:0876 b4 17 03        CJNE       A,#0x17,LAB_CODE_087c
       CODE:0879 02 09 5e        LJMP       LAB_CODE_095e
                             LAB_CODE_087c                                   XREF[1]:     CODE:0876(j)  
       CODE:087c b4 11 03        CJNE       A,#0x11,LAB_CODE_0882
       CODE:087f 02 09 70        LJMP       LAB_CODE_0970
                             LAB_CODE_0882                                   XREF[1]:     CODE:087c(j)  
       CODE:0882 b4 12 03        CJNE       A,#0x12,LAB_CODE_0888
       CODE:0885 02 0a 81        LJMP       LAB_CODE_0a81
                             LAB_CODE_0888                                   XREF[1]:     CODE:0882(j)  
       CODE:0888 b4 13 03        CJNE       A,#0x13,LAB_CODE_088e
       CODE:088b 02 0a a0        LJMP       LAB_CODE_0aa0
                             LAB_CODE_088e                                   XREF[1]:     CODE:0888(j)  
       CODE:088e b4 1e 03        CJNE       A,#0x1e,LAB_CODE_0894
       CODE:0891 02 0a b5        LJMP       LAB_CODE_0ab5
                             LAB_CODE_0894                                   XREF[1]:     CODE:088e(j)  
       CODE:0894 b4 20 03        CJNE       A,#0x20,LAB_CODE_089a
       CODE:0897 02 0a c2        LJMP       LAB_CODE_0ac2
                             LAB_CODE_089a                                   XREF[1]:     CODE:0894(j)  
       CODE:089a c2 35           CLR        26.5                                                       = ??
       CODE:089c 22              RET
                             LAB_CODE_089d                                   XREF[1]:     CODE:0857(j)  
       CODE:089d 75 f0 00        MOV        B,#0x0
       CODE:08a0 a2 59           MOV        CY,2b.1                                                    = ??
       CODE:08a2 92 f0           MOV        B.0,CY                                                     = ??
       CODE:08a4 74 01           MOV        A,#0x1
       CODE:08a6 12 24 67        LCALL      FUN_CODE_2467                                              undefined FUN_CODE_2467()
       CODE:08a9 e5 63           MOV        A,DAT_INTMEM_63                                            = ??
       CODE:08ab 12 24 6c        LCALL      FUN_CODE_246c                                              undefined FUN_CODE_246c()
       CODE:08ae 74 00           MOV        A,#0x0
       CODE:08b0 12 24 6c        LCALL      FUN_CODE_246c                                              undefined FUN_CODE_246c()
       CODE:08b3 e5 3f           MOV        A,DAT_INTMEM_3f                                            = ??
       CODE:08b5 12 24 6c        LCALL      FUN_CODE_246c                                              undefined FUN_CODE_246c()
       CODE:08b8 e5 f0           MOV        A,B
       CODE:08ba 12 24 6c        LCALL      FUN_CODE_246c                                              undefined FUN_CODE_246c()
       CODE:08bd e5 3e           MOV        A,DAT_INTMEM_3e                                            = ??
       CODE:08bf 12 24 6c        LCALL      FUN_CODE_246c                                              undefined FUN_CODE_246c()
       CODE:08c2 d2 13           SETB       22.3                                                       = ??
       CODE:08c4 22              RET
                             LAB_CODE_08c5                                   XREF[1]:     CODE:085c(j)  
       CODE:08c5 12 26 2a        LCALL      FUN_CODE_262a                                              undefined FUN_CODE_262a()
       CODE:08c8 75 f0 00        MOV        B,#0x0
       CODE:08cb a2 07           MOV        CY,20.7                                                    = ??
       CODE:08cd 92 f0           MOV        B.0,CY                                                     = ??
       CODE:08cf a2 58           MOV        CY,2b.0                                                    = ??
       CODE:08d1 92 f1           MOV        B.1,CY                                                     = ??
       CODE:08d3 74 01           MOV        A,#0x1
       CODE:08d5 12 24 67        LCALL      FUN_CODE_2467                                              undefined FUN_CODE_2467()
       CODE:08d8 ea              MOV        A,R2
       CODE:08d9 12 24 6c        LCALL      FUN_CODE_246c                                              undefined FUN_CODE_246c()
       CODE:08dc eb              MOV        A,R3
       CODE:08dd 12 24 6c        LCALL      FUN_CODE_246c                                              undefined FUN_CODE_246c()
       CODE:08e0 ec              MOV        A,R4
       CODE:08e1 12 24 6c        LCALL      FUN_CODE_246c                                              undefined FUN_CODE_246c()
       CODE:08e4 ed              MOV        A,R5
       CODE:08e5 12 24 6c        LCALL      FUN_CODE_246c                                              undefined FUN_CODE_246c()
       CODE:08e8 ee              MOV        A,R6
       CODE:08e9 12 24 6c        LCALL      FUN_CODE_246c                                              undefined FUN_CODE_246c()
       CODE:08ec e5 f0           MOV        A,B
       CODE:08ee 12 24 6c        LCALL      FUN_CODE_246c                                              undefined FUN_CODE_246c()
       CODE:08f1 e5 33           MOV        A,DAT_INTMEM_33                                            = ??
       CODE:08f3 12 24 6c        LCALL      FUN_CODE_246c                                              undefined FUN_CODE_246c()
       CODE:08f6 e5 32           MOV        A,DAT_INTMEM_32                                            = ??
       CODE:08f8 12 24 6c        LCALL      FUN_CODE_246c                                              undefined FUN_CODE_246c()
       CODE:08fb e5 31           MOV        A,DAT_INTMEM_31                                            = ??
       CODE:08fd 12 24 6c        LCALL      FUN_CODE_246c                                              undefined FUN_CODE_246c()
       CODE:0900 e5 30           MOV        A,DAT_INTMEM_30                                            = ??
       CODE:0902 12 24 6c        LCALL      FUN_CODE_246c                                              undefined FUN_CODE_246c()
       CODE:0905 22              RET
                             LAB_CODE_0906                                   XREF[1]:     CODE:0861(j)  
       CODE:0906 74 01           MOV        A,#0x1
       CODE:0908 12 24 67        LCALL      FUN_CODE_2467                                              undefined FUN_CODE_2467()
       CODE:090b e5 40           MOV        A,DAT_INTMEM_40                                            = ??
       CODE:090d 12 24 6c        LCALL      FUN_CODE_246c                                              undefined FUN_CODE_246c()
       CODE:0910 e5 41           MOV        A,DAT_INTMEM_41                                            = ??
       CODE:0912 12 24 6c        LCALL      FUN_CODE_246c                                              undefined FUN_CODE_246c()
       CODE:0915 e5 42           MOV        A,DAT_INTMEM_42                                            = ??
       CODE:0917 12 24 6c        LCALL      FUN_CODE_246c                                              undefined FUN_CODE_246c()
       CODE:091a e5 43           MOV        A,DAT_INTMEM_43                                            = ??
       CODE:091c 12 24 6c        LCALL      FUN_CODE_246c                                              undefined FUN_CODE_246c()
       CODE:091f e5 44           MOV        A,DAT_INTMEM_44                                            = ??
       CODE:0921 12 24 6c        LCALL      FUN_CODE_246c                                              undefined FUN_CODE_246c()
       CODE:0924 e5 45           MOV        A,DAT_INTMEM_45                                            = ??
       CODE:0926 12 24 6c        LCALL      FUN_CODE_246c                                              undefined FUN_CODE_246c()
       CODE:0929 e5 46           MOV        A,DAT_INTMEM_46                                            = ??
       CODE:092b 12 24 6c        LCALL      FUN_CODE_246c                                              undefined FUN_CODE_246c()
       CODE:092e e5 47           MOV        A,DAT_INTMEM_47                                            = ??
       CODE:0930 12 24 6c        LCALL      FUN_CODE_246c                                              undefined FUN_CODE_246c()
       CODE:0933 e5 57           MOV        A,DAT_INTMEM_57                                            = ??
       CODE:0935 12 24 6c        LCALL      FUN_CODE_246c                                              undefined FUN_CODE_246c()
       CODE:0938 22              RET
                             LAB_CODE_0939                                   XREF[1]:     CODE:0867(j)  
       CODE:0939 74 01           MOV        A,#0x1
       CODE:093b 12 24 67        LCALL      FUN_CODE_2467                                              undefined FUN_CODE_2467()
       CODE:093e e5 36           MOV        A,DAT_INTMEM_36                                            = ??
       CODE:0940 12 24 6c        LCALL      FUN_CODE_246c                                              undefined FUN_CODE_246c()
       CODE:0943 22              RET
                             LAB_CODE_0944                                   XREF[1]:     CODE:086d(j)  
       CODE:0944 74 01           MOV        A,#0x1
       CODE:0946 12 24 67        LCALL      FUN_CODE_2467                                              undefined FUN_CODE_2467()
       CODE:0949 e5 2f           MOV        A,DAT_INTMEM_2f                                            = ??
       CODE:094b 12 24 6c        LCALL      FUN_CODE_246c                                              undefined FUN_CODE_246c()
       CODE:094e 22              RET
                             LAB_CODE_094f                                   XREF[1]:     CODE:0873(j)  
       CODE:094f 78 80           MOV        R0,#0x80
       CODE:0951 86 f0           MOV        B,@R0=>DAT_INTMEM_80                                       = ??
       CODE:0953 74 01           MOV        A,#0x1
       CODE:0955 12 24 67        LCALL      FUN_CODE_2467                                              undefined FUN_CODE_2467()
       CODE:0958 e5 f0           MOV        A,B
       CODE:095a 12 24 6c        LCALL      FUN_CODE_246c                                              undefined FUN_CODE_246c()
       CODE:095d 22              RET
                             LAB_CODE_095e                                   XREF[1]:     CODE:0879(j)  
       CODE:095e 75 f0 00        MOV        B,#0x0
       CODE:0961 a2 05           MOV        CY,20.5                                                    = ??
       CODE:0963 92 f0           MOV        B.0,CY                                                     = ??
       CODE:0965 74 01           MOV        A,#0x1
       CODE:0967 12 24 67        LCALL      FUN_CODE_2467                                              undefined FUN_CODE_2467()
       CODE:096a e5 f0           MOV        A,B
       CODE:096c 12 24 6c        LCALL      FUN_CODE_246c                                              undefined FUN_CODE_246c()
       CODE:096f 22              RET
                             LAB_CODE_0970                                   XREF[1]:     CODE:087f(j)  
       CODE:0970 d2 d5           SETB       F0                                                         = ??
       CODE:0972 e5 2f           MOV        A,DAT_INTMEM_2f                                            = ??
       CODE:0974 20 e5 0b        JB         ACC.5,LAB_CODE_0982                                        = ??
       CODE:0977 30 e6 08        JNB        ACC.6,LAB_CODE_0982                                        = ??
       CODE:097a 64 58           XRL        A,#0x58
       CODE:097c 54 5c           ANL        A,#0x5c
       CODE:097e 60 02           JZ         LAB_CODE_0982
       CODE:0980 c2 d5           CLR        F0                                                         = ??
                             LAB_CODE_0982                                   XREF[3]:     CODE:0974(j), CODE:0977(j), 
                                                                                          CODE:097e(j)  
       CODE:0982 74 01           MOV        A,#0x1
       CODE:0984 12 24 45        LCALL      FUN_CODE_2445                                              undefined FUN_CODE_2445()
       CODE:0987 12 24 4a        LCALL      FUN_CODE_244a                                              undefined FUN_CODE_244a()
       CODE:098a fa              MOV        R2,A
       CODE:098b 12 24 4a        LCALL      FUN_CODE_244a                                              undefined FUN_CODE_244a()
       CODE:098e fb              MOV        R3,A
       CODE:098f 12 24 4a        LCALL      FUN_CODE_244a                                              undefined FUN_CODE_244a()
       CODE:0992 fc              MOV        R4,A
       CODE:0993 12 24 4a        LCALL      FUN_CODE_244a                                              undefined FUN_CODE_244a()
       CODE:0996 fd              MOV        R5,A
       CODE:0997 12 24 4a        LCALL      FUN_CODE_244a                                              undefined FUN_CODE_244a()
       CODE:099a fe              MOV        R6,A
       CODE:099b ea              MOV        A,R2
       CODE:099c 30 e0 37        JNB        ACC.0,LAB_CODE_09d6                                        = ??
       CODE:099f 30 d5 65        JNB        F0,LAB_CODE_0a07                                           = ??
       CODE:09a2 75 61 fa        MOV        DAT_INTMEM_61,#0xfa                                        = ??
       CODE:09a5 30 e1 10        JNB        ACC.1,LAB_CODE_09b8                                        = ??
       CODE:09a8 d2 34           SETB       26.4                                                       = ??
       CODE:09aa 75 61 02        MOV        DAT_INTMEM_61,#0x2                                         = ??
       CODE:09ad 74 01           MOV        A,#0x1
       CODE:09af 12 24 67        LCALL      FUN_CODE_2467                                              undefined FUN_CODE_2467()
       CODE:09b2 74 00           MOV        A,#0x0
       CODE:09b4 12 24 6c        LCALL      FUN_CODE_246c                                              undefined FUN_CODE_246c()
       CODE:09b7 22              RET
                             LAB_CODE_09b8                                   XREF[1]:     CODE:09a5(j)  
       CODE:09b8 30 e2 0d        JNB        ACC.2,LAB_CODE_09c8                                        = ??
       CODE:09bb c2 34           CLR        26.4                                                       = ??
       CODE:09bd 74 01           MOV        A,#0x1
       CODE:09bf 12 24 67        LCALL      FUN_CODE_2467                                              undefined FUN_CODE_2467()
       CODE:09c2 74 00           MOV        A,#0x0
       CODE:09c4 12 24 6c        LCALL      FUN_CODE_246c                                              undefined FUN_CODE_246c()
       CODE:09c7 22              RET
                             LAB_CODE_09c8                                   XREF[1]:     CODE:09b8(j)  
       CODE:09c8 20 34 0b        JB         26.4,LAB_CODE_09d6                                         = ??
       CODE:09cb 74 01           MOV        A,#0x1
       CODE:09cd 12 24 67        LCALL      FUN_CODE_2467                                              undefined FUN_CODE_2467()
       CODE:09d0 74 04           MOV        A,#0x4
       CODE:09d2 12 24 6c        LCALL      FUN_CODE_246c                                              undefined FUN_CODE_246c()
       CODE:09d5 22              RET
                             LAB_CODE_09d6                                   XREF[2]:     CODE:099c(j), CODE:09c8(j)  
       CODE:09d6 a2 e0           MOV        CY,ACC.0                                                   = ??
       CODE:09d8 92 d5           MOV        F0,CY                                                      = ??
       CODE:09da c4              SWAP       A
       CODE:09db 54 0f           ANL        A,#0xf
       CODE:09dd f5 f0           MOV        B,A
       CODE:09df eb              MOV        A,R3
       CODE:09e0 c4              SWAP       A
       CODE:09e1 54 0f           ANL        A,#0xf
       CODE:09e3 25 f0           ADD        A,B
       CODE:09e5 24 f5           ADD        A,#0xf5
       CODE:09e7 40 13           JC         LAB_CODE_09fc
       CODE:09e9 eb              MOV        A,R3
       CODE:09ea 54 0f           ANL        A,#0xf
       CODE:09ec 24 f2           ADD        A,#0xf2
       CODE:09ee 40 0c           JC         LAB_CODE_09fc
       CODE:09f0 ec              MOV        A,R4
       CODE:09f1 20 e7 1e        JB         ACC.7,LAB_CODE_0a12                                        = ??
       CODE:09f4 ed              MOV        A,R5
       CODE:09f5 20 e7 1a        JB         ACC.7,LAB_CODE_0a12                                        = ??
       CODE:09f8 ee              MOV        A,R6
       CODE:09f9 20 e7 16        JB         ACC.7,LAB_CODE_0a12                                        = ??
                             LAB_CODE_09fc                                   XREF[7]:     CODE:09e7(j), CODE:09ee(j), 
                                                                                          CODE:0a3c(j), CODE:0a3e(j), 
                                                                                          CODE:0a69(j), CODE:0a6b(j), 
                                                                                          CODE:0a79(j)  
       CODE:09fc 74 01           MOV        A,#0x1
       CODE:09fe 12 24 67        LCALL      FUN_CODE_2467                                              undefined FUN_CODE_2467()
       CODE:0a01 74 02           MOV        A,#0x2
       CODE:0a03 12 24 6c        LCALL      FUN_CODE_246c                                              undefined FUN_CODE_246c()
       CODE:0a06 22              RET
                             LAB_CODE_0a07                                   XREF[1]:     CODE:099f(j)  
       CODE:0a07 74 01           MOV        A,#0x1
       CODE:0a09 12 24 67        LCALL      FUN_CODE_2467                                              undefined FUN_CODE_2467()
       CODE:0a0c 74 01           MOV        A,#0x1
       CODE:0a0e 12 24 6c        LCALL      FUN_CODE_246c                                              undefined FUN_CODE_246c()
       CODE:0a11 22              RET
                             LAB_CODE_0a12                                   XREF[3]:     CODE:09f1(j), CODE:09f5(j), 
                                                                                          CODE:09f9(j)  
       CODE:0a12 ea              MOV        A,R2
       CODE:0a13 c4              SWAP       A
       CODE:0a14 54 0f           ANL        A,#0xf
       CODE:0a16 fa              MOV        R2,A
       CODE:0a17 60 28           JZ         LAB_CODE_0a41
       CODE:0a19 ec              MOV        A,R4
       CODE:0a1a 20 e7 04        JB         ACC.7,LAB_CODE_0a21                                        = ??
       CODE:0a1d 7a 00           MOV        R2,#0x0
       CODE:0a1f 80 20           SJMP       LAB_CODE_0a41
                             LAB_CODE_0a21                                   XREF[1]:     CODE:0a1a(j)  
       CODE:0a21 54 7f           ANL        A,#0x7f
       CODE:0a23 b4 39 18        CJNE       A,#0x39,LAB_CODE_0a3e
       CODE:0a26 74 06           MOV        A,#0x6
       CODE:0a28 12 24 45        LCALL      FUN_CODE_2445                                              undefined FUN_CODE_2445()
       CODE:0a2b 12 24 4a        LCALL      FUN_CODE_244a                                              undefined FUN_CODE_244a()
       CODE:0a2e fc              MOV        R4,A
       CODE:0a2f ec              MOV        A,R4
       CODE:0a30 24 30           ADD        A,#0x30
       CODE:0a32 50 0a           JNC        LAB_CODE_0a3e
       CODE:0a34 ec              MOV        A,R4
       CODE:0a35 24 0a           ADD        A,#0xa
       CODE:0a37 40 05           JC         LAB_CODE_0a3e
       CODE:0a39 20 d5 05        JB         F0,LAB_CODE_0a41                                           = ??
       CODE:0a3c 80 be           SJMP       LAB_CODE_09fc
                             LAB_CODE_0a3e                                   XREF[3]:     CODE:0a23(j), CODE:0a32(j), 
                                                                                          CODE:0a37(j)  
       CODE:0a3e 20 d5 bb        JB         F0,LAB_CODE_09fc                                           = ??
                             LAB_CODE_0a41                                   XREF[3]:     CODE:0a17(j), CODE:0a1f(j), 
                                                                                          CODE:0a39(j)  
       CODE:0a41 eb              MOV        A,R3
       CODE:0a42 c4              SWAP       A
       CODE:0a43 54 0f           ANL        A,#0xf
       CODE:0a45 60 27           JZ         LAB_CODE_0a6e
       CODE:0a47 ed              MOV        A,R5
       CODE:0a48 30 e7 23        JNB        ACC.7,LAB_CODE_0a6e                                        = ??
       CODE:0a4b 54 7f           ANL        A,#0x7f
       CODE:0a4d b4 39 1b        CJNE       A,#0x39,LAB_CODE_0a6b
       CODE:0a50 74 05           MOV        A,#0x5
       CODE:0a52 2a              ADD        A,R2
       CODE:0a53 fa              MOV        R2,A
       CODE:0a54 ea              MOV        A,R2
       CODE:0a55 12 24 45        LCALL      FUN_CODE_2445                                              undefined FUN_CODE_2445()
       CODE:0a58 12 24 4a        LCALL      FUN_CODE_244a                                              undefined FUN_CODE_244a()
       CODE:0a5b fd              MOV        R5,A
       CODE:0a5c ed              MOV        A,R5
       CODE:0a5d 24 30           ADD        A,#0x30
       CODE:0a5f 50 0a           JNC        LAB_CODE_0a6b
       CODE:0a61 ed              MOV        A,R5
       CODE:0a62 24 2f           ADD        A,#0x2f
       CODE:0a64 40 05           JC         LAB_CODE_0a6b
       CODE:0a66 20 d5 05        JB         F0,LAB_CODE_0a6e                                           = ??
       CODE:0a69 80 91           SJMP       LAB_CODE_09fc
                             LAB_CODE_0a6b                                   XREF[3]:     CODE:0a4d(j), CODE:0a5f(j), 
                                                                                          CODE:0a64(j)  
       CODE:0a6b 20 d5 8e        JB         F0,LAB_CODE_09fc                                           = ??
                             LAB_CODE_0a6e                                   XREF[3]:     CODE:0a45(j), CODE:0a48(j), 
                                                                                          CODE:0a66(j)  
       CODE:0a6e ee              MOV        A,R6
       CODE:0a6f 30 e7 0a        JNB        ACC.7,LAB_CODE_0a7c                                        = ??
       CODE:0a72 54 7f           ANL        A,#0x7f
       CODE:0a74 b4 39 02        CJNE       A,#0x39,LAB_CODE_0a79
       CODE:0a77 80 03           SJMP       LAB_CODE_0a7c
                             LAB_CODE_0a79                                   XREF[1]:     CODE:0a74(j)  
       CODE:0a79 20 d5 80        JB         F0,LAB_CODE_09fc                                           = ??
                             LAB_CODE_0a7c                                   XREF[2]:     CODE:0a6f(j), CODE:0a77(j)  
       CODE:0a7c d2 2c           SETB       25.4                                                       = ??
       CODE:0a7e d2 36           SETB       26.6                                                       = ??
       CODE:0a80 22              RET
                             LAB_CODE_0a81                                   XREF[1]:     CODE:0885(j)  
       CODE:0a81 74 01           MOV        A,#0x1
       CODE:0a83 12 24 67        LCALL      FUN_CODE_2467                                              undefined FUN_CODE_2467()
       CODE:0a86 74 41           MOV        A,#0x41
       CODE:0a88 12 24 6c        LCALL      FUN_CODE_246c                                              undefined FUN_CODE_246c()
       CODE:0a8b 74 02           MOV        A,#0x2
       CODE:0a8d 12 24 6c        LCALL      FUN_CODE_246c                                              undefined FUN_CODE_246c()
       CODE:0a90 74 03           MOV        A,#0x3
       CODE:0a92 12 24 6c        LCALL      FUN_CODE_246c                                              undefined FUN_CODE_246c()
       CODE:0a95 e5 67           MOV        A,DAT_INTMEM_67                                            = ??
       CODE:0a97 12 24 6c        LCALL      FUN_CODE_246c                                              undefined FUN_CODE_246c()
       CODE:0a9a e5 68           MOV        A,DAT_INTMEM_68                                            = ??
       CODE:0a9c 12 24 6c        LCALL      FUN_CODE_246c                                              undefined FUN_CODE_246c()
       CODE:0a9f 22              RET
                             LAB_CODE_0aa0                                   XREF[1]:     CODE:088b(j)  
       CODE:0aa0 74 01           MOV        A,#0x1
       CODE:0aa2 12 24 45        LCALL      FUN_CODE_2445                                              undefined FUN_CODE_2445()
       CODE:0aa5 74 01           MOV        A,#0x1
       CODE:0aa7 12 24 67        LCALL      FUN_CODE_2467                                              undefined FUN_CODE_2467()
       CODE:0aaa 7a 0f           MOV        R2,#0xf
                             LAB_CODE_0aac                                   XREF[1]:     CODE:0ab2(j)  
       CODE:0aac 12 24 4a        LCALL      FUN_CODE_244a                                              undefined FUN_CODE_244a()
       CODE:0aaf 12 24 6c        LCALL      FUN_CODE_246c                                              undefined FUN_CODE_246c()
       CODE:0ab2 da f8           DJNZ       R2,LAB_CODE_0aac
       CODE:0ab4 22              RET
                             LAB_CODE_0ab5                                   XREF[1]:     CODE:0891(j)  
       CODE:0ab5 74 01           MOV        A,#0x1
       CODE:0ab7 12 24 67        LCALL      FUN_CODE_2467                                              undefined FUN_CODE_2467()
       CODE:0aba 78 83           MOV        R0,#0x83
       CODE:0abc 7a 0c           MOV        R2,#0xc
       CODE:0abe 12 24 6f        LCALL      FUN_CODE_246f                                              undefined FUN_CODE_246f()
       CODE:0ac1 22              RET
                             LAB_CODE_0ac2                                   XREF[1]:     CODE:0897(j)  
       CODE:0ac2 74 01           MOV        A,#0x1
       CODE:0ac4 12 24 67        LCALL      FUN_CODE_2467                                              undefined FUN_CODE_2467()
       CODE:0ac7 78 8f           MOV        R0,#0x8f
       CODE:0ac9 7a 0c           MOV        R2,#0xc
       CODE:0acb 12 24 6f        LCALL      FUN_CODE_246f                                              undefined FUN_CODE_246f()
       CODE:0ace 22              RET
                             LAB_CODE_0acf                                   XREF[1]:     CODE:0843(j)  
       CODE:0acf b4 82 02        CJNE       A,#0x82,LAB_CODE_0ad4
       CODE:0ad2 80 61           SJMP       LAB_CODE_0b35
                             LAB_CODE_0ad4                                   XREF[1]:     CODE:0acf(j)  
       CODE:0ad4 b4 85 03        CJNE       A,#0x85,LAB_CODE_0ada
       CODE:0ad7 02 0b 98        LJMP       LAB_CODE_0b98
                             LAB_CODE_0ada                                   XREF[1]:     CODE:0ad4(j)  
       CODE:0ada b4 9b 03        CJNE       A,#0x9b,LAB_CODE_0ae0
       CODE:0add 02 0b bb        LJMP       LAB_CODE_0bbb
                             LAB_CODE_0ae0                                   XREF[1]:     CODE:0ada(j)  
       CODE:0ae0 b4 88 03        CJNE       A,#0x88,LAB_CODE_0ae6
       CODE:0ae3 02 0b f4        LJMP       LAB_CODE_0bf4
                             LAB_CODE_0ae6                                   XREF[1]:     CODE:0ae0(j)  
       CODE:0ae6 b4 89 03        CJNE       A,#0x89,LAB_CODE_0aec
       CODE:0ae9 02 0c 0b        LJMP       LAB_CODE_0c0b
                             LAB_CODE_0aec                                   XREF[1]:     CODE:0ae6(j)  
       CODE:0aec b4 94 03        CJNE       A,#0x94,LAB_CODE_0af2
       CODE:0aef 02 0c 16        LJMP       LAB_CODE_0c16
                             LAB_CODE_0af2                                   XREF[1]:     CODE:0aec(j)  
       CODE:0af2 b4 8b 03        CJNE       A,#0x8b,LAB_CODE_0af8
       CODE:0af5 02 0c 21        LJMP       LAB_CODE_0c21
                             LAB_CODE_0af8                                   XREF[1]:     CODE:0af2(j)  
       CODE:0af8 b4 98 03        CJNE       A,#0x98,LAB_CODE_0afe
       CODE:0afb 02 0c 52        LJMP       LAB_CODE_0c52
                             LAB_CODE_0afe                                   XREF[1]:     CODE:0af8(j)  
       CODE:0afe b4 8c 03        CJNE       A,#0x8c,LAB_CODE_0b04
       CODE:0b01 02 0c 55        LJMP       LAB_CODE_0c55
                             LAB_CODE_0b04                                   XREF[1]:     CODE:0afe(j)  
       CODE:0b04 b4 99 03        CJNE       A,#0x99,LAB_CODE_0b0a
       CODE:0b07 02 0c 7a        LJMP       LAB_CODE_0c7a
                             LAB_CODE_0b0a                                   XREF[1]:     CODE:0b04(j)  
       CODE:0b0a b4 8d 03        CJNE       A,#0x8d,LAB_CODE_0b10
       CODE:0b0d 02 0c 99        LJMP       LAB_CODE_0c99
                             LAB_CODE_0b10                                   XREF[1]:     CODE:0b0a(j)  
       CODE:0b10 b4 95 03        CJNE       A,#0x95,LAB_CODE_0b16
       CODE:0b13 02 0c ac        LJMP       LAB_CODE_0cac
                             LAB_CODE_0b16                                   XREF[1]:     CODE:0b10(j)  
       CODE:0b16 b4 90 03        CJNE       A,#0x90,LAB_CODE_0b1c
       CODE:0b19 02 0c c0        LJMP       LAB_CODE_0cc0
                             LAB_CODE_0b1c                                   XREF[1]:     CODE:0b16(j)  
       CODE:0b1c b4 9a 03        CJNE       A,#0x9a,LAB_CODE_0b22
       CODE:0b1f 02 0c df        LJMP       LAB_CODE_0cdf
                             LAB_CODE_0b22                                   XREF[1]:     CODE:0b1c(j)  
       CODE:0b22 b4 9c 03        CJNE       A,#0x9c,LAB_CODE_0b28
       CODE:0b25 02 0d 1c        LJMP       LAB_CODE_0d1c
                             LAB_CODE_0b28                                   XREF[1]:     CODE:0b22(j)  
       CODE:0b28 b4 9d 03        CJNE       A,#0x9d,LAB_CODE_0b2e
       CODE:0b2b 02 0d 2e        LJMP       LAB_CODE_0d2e
                             LAB_CODE_0b2e                                   XREF[1]:     CODE:0b28(j)  
       CODE:0b2e b4 9f 03        CJNE       A,#0x9f,LAB_CODE_0b34
       CODE:0b31 02 0d 3b        LJMP       LAB_CODE_0d3b
                             LAB_CODE_0b34                                   XREF[1]:     CODE:0b2e(j)  
       CODE:0b34 22              RET
                             LAB_CODE_0b35                                   XREF[1]:     CODE:0ad2(j)  
       CODE:0b35 74 01           MOV        A,#0x1
       CODE:0b37 12 24 45        LCALL      FUN_CODE_2445                                              undefined FUN_CODE_2445()
       CODE:0b3a 12 24 4a        LCALL      FUN_CODE_244a                                              undefined FUN_CODE_244a()
       CODE:0b3d fa              MOV        R2,A
       CODE:0b3e 12 24 4a        LCALL      FUN_CODE_244a                                              undefined FUN_CODE_244a()
       CODE:0b41 fb              MOV        R3,A
       CODE:0b42 12 24 4a        LCALL      FUN_CODE_244a                                              undefined FUN_CODE_244a()
       CODE:0b45 fc              MOV        R4,A
       CODE:0b46 12 24 4a        LCALL      FUN_CODE_244a                                              undefined FUN_CODE_244a()
       CODE:0b49 fd              MOV        R5,A
       CODE:0b4a ba 01 15        CJNE       R2,#0x1,LAB_CODE_0b62
       CODE:0b4d bb 00 07        CJNE       R3,#0x0,LAB_CODE_0b57
       CODE:0b50 d2 08           SETB       21.0                                                       = ??
       CODE:0b52 75 3d 01        MOV        DAT_INTMEM_3d,#0x1                                         = ??
       CODE:0b55 80 3c           SJMP       LAB_CODE_0b93
                             LAB_CODE_0b57                                   XREF[1]:     CODE:0b4d(j)  
       CODE:0b57 bb 32 07        CJNE       R3,#0x32,LAB_CODE_0b61
       CODE:0b5a d2 04           SETB       20.4                                                       = ??
       CODE:0b5c 75 3d 00        MOV        DAT_INTMEM_3d,#0x0                                         = ??
       CODE:0b5f 80 32           SJMP       LAB_CODE_0b93
                             LAB_CODE_0b61                                   XREF[1]:     CODE:0b57(j)  
       CODE:0b61 22              RET
                             LAB_CODE_0b62                                   XREF[1]:     CODE:0b4a(j)  
       CODE:0b62 ba 04 2d        CJNE       R2,#0x4,LAB_CODE_0b92
       CODE:0b65 bb 31 10        CJNE       R3,#0x31,LAB_CODE_0b78
       CODE:0b68 d2 14           SETB       22.4                                                       = ??
       CODE:0b6a ed              MOV        A,R5
       CODE:0b6b a2 e0           MOV        CY,ACC.0                                                   = ??
       CODE:0b6d 92 15           MOV        22.5,CY                                                    = ??
       CODE:0b6f a2 e1           MOV        CY,ACC.1                                                   = ??
       CODE:0b71 92 16           MOV        22.6,CY                                                    = ??
       CODE:0b73 75 3d 01        MOV        DAT_INTMEM_3d,#0x1                                         = ??
       CODE:0b76 80 1b           SJMP       LAB_CODE_0b93
                             LAB_CODE_0b78                                   XREF[1]:     CODE:0b65(j)  
       CODE:0b78 bb 30 07        CJNE       R3,#0x30,LAB_CODE_0b82
       CODE:0b7b d2 03           SETB       20.3                                                       = ??
       CODE:0b7d 75 3d 00        MOV        DAT_INTMEM_3d,#0x0                                         = ??
       CODE:0b80 80 11           SJMP       LAB_CODE_0b93
                             LAB_CODE_0b82                                   XREF[1]:     CODE:0b78(j)  
       CODE:0b82 bb 33 0c        CJNE       R3,#0x33,LAB_CODE_0b91
       CODE:0b85 c2 14           CLR        22.4                                                       = ??
       CODE:0b87 c2 08           CLR        21.0                                                       = ??
       CODE:0b89 c2 20           CLR        24.0                                                       = ??
       CODE:0b8b c2 0b           CLR        21.3                                                       = ??
       CODE:0b8d 75 3d 00        MOV        DAT_INTMEM_3d,#0x0                                         = ??
       CODE:0b90 22              RET
                             LAB_CODE_0b91                                   XREF[1]:     CODE:0b82(j)  
       CODE:0b91 22              RET
                             LAB_CODE_0b92                                   XREF[1]:     CODE:0b62(j)  
       CODE:0b92 22              RET
                             LAB_CODE_0b93                                   XREF[4]:     CODE:0b55(j), CODE:0b5f(j), 
                                                                                          CODE:0b76(j), CODE:0b80(j)  
       CODE:0b93 8c 64           MOV        DAT_INTMEM_64,R4                                           = ??
       CODE:0b95 c2 13           CLR        22.3                                                       = ??
       CODE:0b97 22              RET
                             LAB_CODE_0b98                                   XREF[1]:     CODE:0ad7(j)  
       CODE:0b98 74 01           MOV        A,#0x1
       CODE:0b9a 12 24 45        LCALL      FUN_CODE_2445                                              undefined FUN_CODE_2445()
       CODE:0b9d 12 24 4a        LCALL      FUN_CODE_244a                                              undefined FUN_CODE_244a()
       CODE:0ba0 fa              MOV        R2,A
       CODE:0ba1 12 24 4a        LCALL      FUN_CODE_244a                                              undefined FUN_CODE_244a()
       CODE:0ba4 fb              MOV        R3,A
       CODE:0ba5 12 24 4a        LCALL      FUN_CODE_244a                                              undefined FUN_CODE_244a()
       CODE:0ba8 fc              MOV        R4,A
       CODE:0ba9 12 24 4a        LCALL      FUN_CODE_244a                                              undefined FUN_CODE_244a()
       CODE:0bac fd              MOV        R5,A
       CODE:0bad 12 24 4a        LCALL      FUN_CODE_244a                                              undefined FUN_CODE_244a()
       CODE:0bb0 fe              MOV        R6,A
       CODE:0bb1 12 26 38        LCALL      FUN_CODE_2638                                              undefined FUN_CODE_2638()
       CODE:0bb4 d2 07           SETB       20.7                                                       = ??
       CODE:0bb6 c2 57           CLR        2a.7                                                       = ??
       CODE:0bb8 d2 45           SETB       28.5                                                       = ??
       CODE:0bba 22              RET
                             LAB_CODE_0bbb                                   XREF[1]:     CODE:0add(j)  
       CODE:0bbb 74 01           MOV        A,#0x1
       CODE:0bbd 12 24 45        LCALL      FUN_CODE_2445                                              undefined FUN_CODE_2445()
       CODE:0bc0 12 24 4a        LCALL      FUN_CODE_244a                                              undefined FUN_CODE_244a()
       CODE:0bc3 fb              MOV        R3,A
       CODE:0bc4 12 24 4a        LCALL      FUN_CODE_244a                                              undefined FUN_CODE_244a()
       CODE:0bc7 fc              MOV        R4,A
       CODE:0bc8 12 24 4a        LCALL      FUN_CODE_244a                                              undefined FUN_CODE_244a()
       CODE:0bcb fd              MOV        R5,A
       CODE:0bcc 12 24 4a        LCALL      FUN_CODE_244a                                              undefined FUN_CODE_244a()
       CODE:0bcf fe              MOV        R6,A
       CODE:0bd0 12 24 4a        LCALL      FUN_CODE_244a                                              undefined FUN_CODE_244a()
       CODE:0bd3 f5 f0           MOV        B,A
       CODE:0bd5 8e 30           MOV        DAT_INTMEM_30,R6                                           = ??
       CODE:0bd7 8d 31           MOV        DAT_INTMEM_31,R5                                           = ??
       CODE:0bd9 8c 32           MOV        DAT_INTMEM_32,R4                                           = ??
       CODE:0bdb 8b 33           MOV        DAT_INTMEM_33,R3                                           = ??
       CODE:0bdd a2 f0           MOV        CY,B.0                                                     = ??
       CODE:0bdf 92 58           MOV        2b.0,CY                                                    = ??
       CODE:0be1 d2 57           SETB       2a.7                                                       = ??
       CODE:0be3 ee              MOV        A,R6
       CODE:0be4 70 0b           JNZ        LAB_CODE_0bf1
       CODE:0be6 ed              MOV        A,R5
       CODE:0be7 70 08           JNZ        LAB_CODE_0bf1
       CODE:0be9 ec              MOV        A,R4
       CODE:0bea 70 05           JNZ        LAB_CODE_0bf1
       CODE:0bec eb              MOV        A,R3
       CODE:0bed 70 02           JNZ        LAB_CODE_0bf1
       CODE:0bef c2 57           CLR        2a.7                                                       = ??
                             LAB_CODE_0bf1                                   XREF[4]:     CODE:0be4(j), CODE:0be7(j), 
                                                                                          CODE:0bea(j), CODE:0bed(j)  
       CODE:0bf1 d2 45           SETB       28.5                                                       = ??
       CODE:0bf3 22              RET
                             LAB_CODE_0bf4                                   XREF[1]:     CODE:0ae3(j)  
       CODE:0bf4 74 01           MOV        A,#0x1
       CODE:0bf6 12 24 45        LCALL      FUN_CODE_2445                                              undefined FUN_CODE_2445()
       CODE:0bf9 12 24 4a        LCALL      FUN_CODE_244a                                              undefined FUN_CODE_244a()
       CODE:0bfc fa              MOV        R2,A
       CODE:0bfd ea              MOV        A,R2
       CODE:0bfe a2 e0           MOV        CY,ACC.0                                                   = ??
       CODE:0c00 92 4e           MOV        29.6,CY                                                    = ??
       CODE:0c02 30 e1 05        JNB        ACC.1,LAB_CODE_0c0a                                        = ??
       CODE:0c05 d2 4d           SETB       29.5                                                       = ??
       CODE:0c07 75 55 fa        MOV        DAT_INTMEM_55,#0xfa                                        = ??
                             LAB_CODE_0c0a                                   XREF[1]:     CODE:0c02(j)  
       CODE:0c0a 22              RET
                             LAB_CODE_0c0b                                   XREF[1]:     CODE:0ae9(j)  
       CODE:0c0b 74 01           MOV        A,#0x1
       CODE:0c0d 12 24 45        LCALL      FUN_CODE_2445                                              undefined FUN_CODE_2445()
       CODE:0c10 12 24 4a        LCALL      FUN_CODE_244a                                              undefined FUN_CODE_244a()
       CODE:0c13 f5 58           MOV        DAT_INTMEM_58,A                                            = ??
       CODE:0c15 22              RET
                             LAB_CODE_0c16                                   XREF[1]:     CODE:0aef(j)  
       CODE:0c16 74 01           MOV        A,#0x1
       CODE:0c18 12 24 45        LCALL      FUN_CODE_2445                                              undefined FUN_CODE_2445()
       CODE:0c1b 12 24 4a        LCALL      FUN_CODE_244a                                              undefined FUN_CODE_244a()
       CODE:0c1e f5 59           MOV        DAT_INTMEM_59,A                                            = ??
       CODE:0c20 22              RET
                             LAB_CODE_0c21                                   XREF[1]:     CODE:0af5(j)  
       CODE:0c21 74 01           MOV        A,#0x1
       CODE:0c23 12 24 45        LCALL      FUN_CODE_2445                                              undefined FUN_CODE_2445()
       CODE:0c26 12 24 4a        LCALL      FUN_CODE_244a                                              undefined FUN_CODE_244a()
       CODE:0c29 fa              MOV        R2,A
       CODE:0c2a e5 36           MOV        A,DAT_INTMEM_36                                            = ??
       CODE:0c2c ba 60 0d        CJNE       R2,#0x60,LAB_CODE_0c3c
       CODE:0c2f 75 66 00        MOV        DAT_INTMEM_66,#0x0                                         = ??
       CODE:0c32 b4 60 03        CJNE       A,#0x60,LAB_CODE_0c38
       CODE:0c35 d2 3e           SETB       27.6                                                       = ??
       CODE:0c37 22              RET
                             LAB_CODE_0c38                                   XREF[1]:     CODE:0c32(j)  
       CODE:0c38 75 37 60        MOV        DAT_INTMEM_37,#0x60                                        = ??
       CODE:0c3b 22              RET
                             LAB_CODE_0c3c                                   XREF[1]:     CODE:0c2c(j)  
       CODE:0c3c ba 62 0d        CJNE       R2,#0x62,LAB_CODE_0c4c
       CODE:0c3f 75 66 00        MOV        DAT_INTMEM_66,#0x0                                         = ??
       CODE:0c42 b4 62 03        CJNE       A,#0x62,LAB_CODE_0c48
       CODE:0c45 d2 3e           SETB       27.6                                                       = ??
       CODE:0c47 22              RET
                             LAB_CODE_0c48                                   XREF[1]:     CODE:0c42(j)  
       CODE:0c48 75 37 62        MOV        DAT_INTMEM_37,#0x62                                        = ??
       CODE:0c4b 22              RET
                             LAB_CODE_0c4c                                   XREF[1]:     CODE:0c3c(j)  
       CODE:0c4c ba 66 02        CJNE       R2,#0x66,LAB_CODE_0c51
       CODE:0c4f d2 25           SETB       24.5                                                       = ??
                             LAB_CODE_0c51                                   XREF[1]:     CODE:0c4c(j)  
       CODE:0c51 22              RET
                             LAB_CODE_0c52                                   XREF[1]:     CODE:0afb(j)  
       CODE:0c52 d2 29           SETB       25.1                                                       = ??
       CODE:0c54 22              RET
                             LAB_CODE_0c55                                   XREF[1]:     CODE:0b01(j)  
       CODE:0c55 85 62 f0        MOV        B,DAT_INTMEM_62                                            = ??
       CODE:0c58 74 01           MOV        A,#0x1
       CODE:0c5a 12 24 45        LCALL      FUN_CODE_2445                                              undefined FUN_CODE_2445()
       CODE:0c5d 12 24 4a        LCALL      FUN_CODE_244a                                              undefined FUN_CODE_244a()
       CODE:0c60 fa              MOV        R2,A
       CODE:0c61 12 24 4a        LCALL      FUN_CODE_244a                                              undefined FUN_CODE_244a()
       CODE:0c64 fb              MOV        R3,A
       CODE:0c65 ea              MOV        A,R2
       CODE:0c66 14              DEC        A
       CODE:0c67 a2 e0           MOV        CY,ACC.0                                                   = ??
       CODE:0c69 92 f2           MOV        B.2,CY                                                     = ??
       CODE:0c6b a2 e1           MOV        CY,ACC.1                                                   = ??
       CODE:0c6d 92 f3           MOV        B.3,CY                                                     = ??
       CODE:0c6f eb              MOV        A,R3
       CODE:0c70 a2 e0           MOV        CY,ACC.0                                                   = ??
       CODE:0c72 92 f4           MOV        B.4,CY                                                     = ??
       CODE:0c74 85 f0 62        MOV        DAT_INTMEM_62,B                                            = ??
       CODE:0c77 d2 47           SETB       28.7                                                       = ??
       CODE:0c79 22              RET
                             LAB_CODE_0c7a                                   XREF[1]:     CODE:0b07(j)  
       CODE:0c7a 85 62 f0        MOV        B,DAT_INTMEM_62                                            = ??
       CODE:0c7d 74 01           MOV        A,#0x1
       CODE:0c7f 12 24 45        LCALL      FUN_CODE_2445                                              undefined FUN_CODE_2445()
       CODE:0c82 12 24 4a        LCALL      FUN_CODE_244a                                              undefined FUN_CODE_244a()
       CODE:0c85 fa              MOV        R2,A
       CODE:0c86 12 24 4a        LCALL      FUN_CODE_244a                                              undefined FUN_CODE_244a()
       CODE:0c89 fb              MOV        R3,A
       CODE:0c8a ea              MOV        A,R2
       CODE:0c8b a2 e0           MOV        CY,ACC.0                                                   = ??
       CODE:0c8d 92 f5           MOV        B.5,CY                                                     = ??
       CODE:0c8f 85 f0 62        MOV        DAT_INTMEM_62,B                                            = ??
       CODE:0c92 eb              MOV        A,R3
       CODE:0c93 78 af           MOV        R0,#0xaf
       CODE:0c95 f6              MOV        @R0=>DAT_INTMEM_af,A                                       = ??
       CODE:0c96 d2 48           SETB       29.0                                                       = ??
       CODE:0c98 22              RET
                             LAB_CODE_0c99                                   XREF[1]:     CODE:0b0d(j)  
       CODE:0c99 74 01           MOV        A,#0x1
       CODE:0c9b 12 24 45        LCALL      FUN_CODE_2445                                              undefined FUN_CODE_2445()
       CODE:0c9e 12 24 4a        LCALL      FUN_CODE_244a                                              undefined FUN_CODE_244a()
       CODE:0ca1 f5 f0           MOV        B,A
       CODE:0ca3 20 f0 03        JB         B.0,LAB_CODE_0ca9                                          = ??
       CODE:0ca6 c2 55           CLR        2a.5                                                       = ??
       CODE:0ca8 22              RET
                             LAB_CODE_0ca9                                   XREF[1]:     CODE:0ca3(j)  
       CODE:0ca9 d2 55           SETB       2a.5                                                       = ??
       CODE:0cab 22              RET
                             LAB_CODE_0cac                                   XREF[1]:     CODE:0b13(j)  
       CODE:0cac 74 01           MOV        A,#0x1
       CODE:0cae 12 24 45        LCALL      FUN_CODE_2445                                              undefined FUN_CODE_2445()
       CODE:0cb1 12 24 4a        LCALL      FUN_CODE_244a                                              undefined FUN_CODE_244a()
       CODE:0cb4 f5 f0           MOV        B,A
       CODE:0cb6 53 f0 0f        ANL        B,#0xf
       CODE:0cb9 78 80           MOV        R0,#0x80
       CODE:0cbb a6 f0           MOV        @R0=>DAT_INTMEM_80,B                                       = ??
       CODE:0cbd d2 45           SETB       28.5                                                       = ??
       CODE:0cbf 22              RET
                             LAB_CODE_0cc0                                   XREF[1]:     CODE:0b19(j)  
       CODE:0cc0 20 4b 1b        JB         29.3,LAB_CODE_0cde                                         = ??
       CODE:0cc3 20 3b 18        JB         27.3,LAB_CODE_0cde                                         = ??
       CODE:0cc6 74 01           MOV        A,#0x1
       CODE:0cc8 12 24 45        LCALL      FUN_CODE_2445                                              undefined FUN_CODE_2445()
       CODE:0ccb 12 24 4a        LCALL      FUN_CODE_244a                                              undefined FUN_CODE_244a()
       CODE:0cce f5 f0           MOV        B,A
       CODE:0cd0 12 24 4a        LCALL      FUN_CODE_244a                                              undefined FUN_CODE_244a()
       CODE:0cd3 fb              MOV        R3,A
       CODE:0cd4 78 b1           MOV        R0,#0xb1
       CODE:0cd6 a6 f0           MOV        @R0=>DAT_INTMEM_b1,B                                       = ??
       CODE:0cd8 eb              MOV        A,R3
       CODE:0cd9 78 b2           MOV        R0,#0xb2
       CODE:0cdb f6              MOV        @R0=>DAT_INTMEM_b2,A                                       = ??
       CODE:0cdc d2 4b           SETB       29.3                                                       = ??
                             LAB_CODE_0cde                                   XREF[2]:     CODE:0cc0(j), CODE:0cc3(j)  
       CODE:0cde 22              RET
                             LAB_CODE_0cdf                                   XREF[1]:     CODE:0b1f(j)  
       CODE:0cdf 74 01           MOV        A,#0x1
       CODE:0ce1 12 24 45        LCALL      FUN_CODE_2445                                              undefined FUN_CODE_2445()
       CODE:0ce4 12 24 4a        LCALL      FUN_CODE_244a                                              undefined FUN_CODE_244a()
       CODE:0ce7 fa              MOV        R2,A
       CODE:0ce8 12 24 4a        LCALL      FUN_CODE_244a                                              undefined FUN_CODE_244a()
       CODE:0ceb fb              MOV        R3,A
       CODE:0cec 12 24 4a        LCALL      FUN_CODE_244a                                              undefined FUN_CODE_244a()
       CODE:0cef fc              MOV        R4,A
       CODE:0cf0 ea              MOV        A,R2
       CODE:0cf1 24 f0           ADD        A,#0xf0
       CODE:0cf3 50 26           JNC        LAB_CODE_0d1b
       CODE:0cf5 8a 5a           MOV        DAT_INTMEM_5a,R2                                           = ??
       CODE:0cf7 8b 5c           MOV        DAT_INTMEM_5c,R3                                           = ??
       CODE:0cf9 75 5b 00        MOV        DAT_INTMEM_5b,#0x0                                         = ??
       CODE:0cfc d2 46           SETB       28.6                                                       = ??
       CODE:0cfe d2 33           SETB       26.3                                                       = ??
       CODE:0d00 d2 1e           SETB       23.6                                                       = ??
       CODE:0d02 ec              MOV        A,R4
       CODE:0d03 75 5d 04        MOV        DAT_INTMEM_5d,#0x4                                         = ??
       CODE:0d06 20 e0 09        JB         ACC.0,LAB_CODE_0d12                                        = ??
       CODE:0d09 75 5d 16        MOV        DAT_INTMEM_5d,#0x16                                        = ??
       CODE:0d0c 20 e1 03        JB         ACC.1,LAB_CODE_0d12                                        = ??
       CODE:0d0f 75 5d 0d        MOV        DAT_INTMEM_5d,#0xd                                         = ??
                             LAB_CODE_0d12                                   XREF[2]:     CODE:0d06(j), CODE:0d0c(j)  
       CODE:0d12 30 13 06        JNB        22.3,LAB_CODE_0d1b                                         = ??
       CODE:0d15 78 b0           MOV        R0,#0xb0
       CODE:0d17 a6 5d           MOV        @R0=>DAT_INTMEM_b0,DAT_INTMEM_5d                           = ??
       CODE:0d19 d2 48           SETB       29.0                                                       = ??
                             LAB_CODE_0d1b                                   XREF[2]:     CODE:0cf3(j), CODE:0d12(j)  
       CODE:0d1b 22              RET
                             LAB_CODE_0d1c                                   XREF[1]:     CODE:0b25(j)  
       CODE:0d1c 74 01           MOV        A,#0x1
       CODE:0d1e 12 24 45        LCALL      FUN_CODE_2445                                              undefined FUN_CODE_2445()
       CODE:0d21 12 24 4a        LCALL      FUN_CODE_244a                                              undefined FUN_CODE_244a()
       CODE:0d24 fa              MOV        R2,A
       CODE:0d25 12 24 4a        LCALL      FUN_CODE_244a                                              undefined FUN_CODE_244a()
       CODE:0d28 fb              MOV        R3,A
       CODE:0d29 8a 67           MOV        DAT_INTMEM_67,R2                                           = ??
       CODE:0d2b 8b 68           MOV        DAT_INTMEM_68,R3                                           = ??
       CODE:0d2d 22              RET
                             LAB_CODE_0d2e                                   XREF[1]:     CODE:0b2b(j)  
       CODE:0d2e 74 01           MOV        A,#0x1
       CODE:0d30 12 24 45        LCALL      FUN_CODE_2445                                              undefined FUN_CODE_2445()
       CODE:0d33 78 83           MOV        R0,#0x83
       CODE:0d35 7a 0c           MOV        R2,#0xc
       CODE:0d37 12 24 4d        LCALL      FUN_CODE_244d                                              undefined FUN_CODE_244d()
       CODE:0d3a 22              RET
                             LAB_CODE_0d3b                                   XREF[1]:     CODE:0b31(j)  
       CODE:0d3b 74 01           MOV        A,#0x1
       CODE:0d3d 12 24 45        LCALL      FUN_CODE_2445                                              undefined FUN_CODE_2445()
       CODE:0d40 78 8f           MOV        R0,#0x8f
       CODE:0d42 7a 0c           MOV        R2,#0xc
       CODE:0d44 12 24 4d        LCALL      FUN_CODE_244d                                              undefined FUN_CODE_244d()
       CODE:0d47 22              RET
                             **************************************************************
                             *                          FUNCTION                          *
                             **************************************************************
                             undefined FUN_CODE_0d48()
             undefined         ACC:1          <RETURN>
                             FUN_CODE_0d48                                   XREF[1]:     CODE:1db1(c)  
       CODE:0d48 c3              CLR        CY
       CODE:0d49 20 13 11        JB         22.3,LAB_CODE_0d5d                                         = ??
       CODE:0d4c c2 3a           CLR        27.2                                                       = ??
       CODE:0d4e c2 3d           CLR        27.5                                                       = ??
       CODE:0d50 c2 37           CLR        26.7                                                       = ??
       CODE:0d52 c2 38           CLR        27.0                                                       = ??
       CODE:0d54 c2 39           CLR        27.1                                                       = ??
       CODE:0d56 c2 3b           CLR        27.3                                                       = ??
       CODE:0d58 c2 3c           CLR        27.4                                                       = ??
       CODE:0d5a c2 3e           CLR        27.6                                                       = ??
       CODE:0d5c 22              RET
                             LAB_CODE_0d5d                                   XREF[1]:     CODE:0d49(j)  
       CODE:0d5d 30 3a 02        JNB        27.2,LAB_CODE_0d62                                         = ??
       CODE:0d60 80 3a           SJMP       LAB_CODE_0d9c
                             LAB_CODE_0d62                                   XREF[1]:     CODE:0d5d(j)  
       CODE:0d62 30 3d 03        JNB        27.5,LAB_CODE_0d68                                         = ??
       CODE:0d65 02 0d ef        LJMP       LAB_CODE_0def
                             LAB_CODE_0d68                                   XREF[1]:     CODE:0d62(j)  
       CODE:0d68 30 37 03        JNB        26.7,LAB_CODE_0d6e                                         = ??
       CODE:0d6b 02 0d fd        LJMP       LAB_CODE_0dfd
                             LAB_CODE_0d6e                                   XREF[1]:     CODE:0d68(j)  
       CODE:0d6e 30 38 03        JNB        27.0,LAB_CODE_0d74                                         = ??
       CODE:0d71 02 0e 11        LJMP       LAB_CODE_0e11
                             LAB_CODE_0d74                                   XREF[1]:     CODE:0d6e(j)  
       CODE:0d74 30 39 03        JNB        27.1,LAB_CODE_0d7a                                         = ??
       CODE:0d77 02 0e 20        LJMP       LAB_CODE_0e20
                             LAB_CODE_0d7a                                   XREF[1]:     CODE:0d74(j)  
       CODE:0d7a 30 3b 03        JNB        27.3,LAB_CODE_0d80                                         = ??
       CODE:0d7d 02 0e 3b        LJMP       LAB_CODE_0e3b
                             LAB_CODE_0d80                                   XREF[1]:     CODE:0d7a(j)  
       CODE:0d80 30 3c 03        JNB        27.4,LAB_CODE_0d86                                         = ??
       CODE:0d83 02 0e 5b        LJMP       LAB_CODE_0e5b
                             LAB_CODE_0d86                                   XREF[1]:     CODE:0d80(j)  
       CODE:0d86 30 3e 03        JNB        27.6,LAB_CODE_0d8c                                         = ??
       CODE:0d89 02 0e 9a        LJMP       LAB_CODE_0e9a
                             LAB_CODE_0d8c                                   XREF[1]:     CODE:0d86(j)  
       CODE:0d8c 22              RET
                             LAB_CODE_0d8d                                   XREF[11]:    CODE:0dba(j), CODE:0dcb(j), 
                                                                                          CODE:0ddc(j), CODE:0ded(j), 
                                                                                          CODE:0dfb(j), CODE:0e0e(j), 
                                                                                          CODE:0e1d(j), CODE:0e38(j), 
                                                                                          CODE:0e58(j), CODE:0e97(j), 
                                                                                          CODE:0ea6(j)  
       CODE:0d8d 74 00           MOV        A,#0x0
       CODE:0d8f 12 24 67        LCALL      FUN_CODE_2467                                              undefined FUN_CODE_2467()
       CODE:0d92 74 83           MOV        A,#0x83
       CODE:0d94 12 24 6c        LCALL      FUN_CODE_246c                                              undefined FUN_CODE_246c()
       CODE:0d97 12 24 76        LCALL      FUN_CODE_2476                                              undefined FUN_CODE_2476()
       CODE:0d9a d3              SETB       CY
       CODE:0d9b 22              RET
                             LAB_CODE_0d9c                                   XREF[1]:     CODE:0d60(j)  
       CODE:0d9c c2 3a           CLR        27.2                                                       = ??
       CODE:0d9e 20 14 0a        JB         22.4,LAB_CODE_0dab                                         = ??
       CODE:0da1 20 08 18        JB         21.0,LAB_CODE_0dbc                                         = ??
       CODE:0da4 20 20 26        JB         24.0,LAB_CODE_0dcd                                         = ??
       CODE:0da7 20 0b 34        JB         21.3,LAB_CODE_0dde                                         = ??
       CODE:0daa 22              RET
                             LAB_CODE_0dab                                   XREF[1]:     CODE:0d9e(j)  
       CODE:0dab 74 01           MOV        A,#0x1
       CODE:0dad 12 24 67        LCALL      FUN_CODE_2467                                              undefined FUN_CODE_2467()
       CODE:0db0 74 31           MOV        A,#0x31
       CODE:0db2 12 24 6c        LCALL      FUN_CODE_246c                                              undefined FUN_CODE_246c()
       CODE:0db5 74 04           MOV        A,#0x4
       CODE:0db7 12 24 6c        LCALL      FUN_CODE_246c                                              undefined FUN_CODE_246c()
       CODE:0dba 80 d1           SJMP       LAB_CODE_0d8d
                             LAB_CODE_0dbc                                   XREF[1]:     CODE:0da1(j)  
       CODE:0dbc 74 01           MOV        A,#0x1
       CODE:0dbe 12 24 67        LCALL      FUN_CODE_2467                                              undefined FUN_CODE_2467()
       CODE:0dc1 74 11           MOV        A,#0x11
       CODE:0dc3 12 24 6c        LCALL      FUN_CODE_246c                                              undefined FUN_CODE_246c()
       CODE:0dc6 74 01           MOV        A,#0x1
       CODE:0dc8 12 24 6c        LCALL      FUN_CODE_246c                                              undefined FUN_CODE_246c()
       CODE:0dcb 80 c0           SJMP       LAB_CODE_0d8d
                             LAB_CODE_0dcd                                   XREF[1]:     CODE:0da4(j)  
       CODE:0dcd 74 01           MOV        A,#0x1
       CODE:0dcf 12 24 67        LCALL      FUN_CODE_2467                                              undefined FUN_CODE_2467()
       CODE:0dd2 74 20           MOV        A,#0x20
       CODE:0dd4 12 24 6c        LCALL      FUN_CODE_246c                                              undefined FUN_CODE_246c()
       CODE:0dd7 74 01           MOV        A,#0x1
       CODE:0dd9 12 24 6c        LCALL      FUN_CODE_246c                                              undefined FUN_CODE_246c()
       CODE:0ddc 80 af           SJMP       LAB_CODE_0d8d
                             LAB_CODE_0dde                                   XREF[1]:     CODE:0da7(j)  
       CODE:0dde 74 01           MOV        A,#0x1
       CODE:0de0 12 24 67        LCALL      FUN_CODE_2467                                              undefined FUN_CODE_2467()
       CODE:0de3 74 42           MOV        A,#0x42
       CODE:0de5 12 24 6c        LCALL      FUN_CODE_246c                                              undefined FUN_CODE_246c()
       CODE:0de8 74 01           MOV        A,#0x1
       CODE:0dea 12 24 6c        LCALL      FUN_CODE_246c                                              undefined FUN_CODE_246c()
       CODE:0ded 80 9e           SJMP       LAB_CODE_0d8d
                             LAB_CODE_0def                                   XREF[1]:     CODE:0d65(j)  
       CODE:0def c2 3d           CLR        27.5                                                       = ??
       CODE:0df1 74 01           MOV        A,#0x1
       CODE:0df3 12 24 67        LCALL      FUN_CODE_2467                                              undefined FUN_CODE_2467()
       CODE:0df6 74 61           MOV        A,#0x61
       CODE:0df8 12 24 6c        LCALL      FUN_CODE_246c                                              undefined FUN_CODE_246c()
       CODE:0dfb 80 90           SJMP       LAB_CODE_0d8d
                             LAB_CODE_0dfd                                   XREF[1]:     CODE:0d6b(j)  
       CODE:0dfd c2 37           CLR        26.7                                                       = ??
       CODE:0dff 74 01           MOV        A,#0x1
       CODE:0e01 12 24 67        LCALL      FUN_CODE_2467                                              undefined FUN_CODE_2467()
       CODE:0e04 74 40           MOV        A,#0x40
       CODE:0e06 12 24 6c        LCALL      FUN_CODE_246c                                              undefined FUN_CODE_246c()
       CODE:0e09 e5 2f           MOV        A,DAT_INTMEM_2f                                            = ??
       CODE:0e0b 12 24 6c        LCALL      FUN_CODE_246c                                              undefined FUN_CODE_246c()
       CODE:0e0e 02 0d 8d        LJMP       LAB_CODE_0d8d
                             LAB_CODE_0e11                                   XREF[1]:     CODE:0d71(j)  
       CODE:0e11 c2 38           CLR        27.0                                                       = ??
       CODE:0e13 74 01           MOV        A,#0x1
       CODE:0e15 12 24 67        LCALL      FUN_CODE_2467                                              undefined FUN_CODE_2467()
       CODE:0e18 74 13           MOV        A,#0x13
       CODE:0e1a 12 24 6c        LCALL      FUN_CODE_246c                                              undefined FUN_CODE_246c()
       CODE:0e1d 02 0d 8d        LJMP       LAB_CODE_0d8d
                             LAB_CODE_0e20                                   XREF[1]:     CODE:0d77(j)  
       CODE:0e20 c2 39           CLR        27.1                                                       = ??
       CODE:0e22 75 f0 00        MOV        B,#0x0
       CODE:0e25 a2 05           MOV        CY,20.5                                                    = ??
       CODE:0e27 92 f0           MOV        B.0,CY                                                     = ??
       CODE:0e29 74 01           MOV        A,#0x1
       CODE:0e2b 12 24 67        LCALL      FUN_CODE_2467                                              undefined FUN_CODE_2467()
       CODE:0e2e 74 14           MOV        A,#0x14
       CODE:0e30 12 24 6c        LCALL      FUN_CODE_246c                                              undefined FUN_CODE_246c()
       CODE:0e33 e5 f0           MOV        A,B
       CODE:0e35 12 24 6c        LCALL      FUN_CODE_246c                                              undefined FUN_CODE_246c()
       CODE:0e38 02 0d 8d        LJMP       LAB_CODE_0d8d
                             LAB_CODE_0e3b                                   XREF[1]:     CODE:0d7d(j)  
       CODE:0e3b c2 3b           CLR        27.3                                                       = ??
       CODE:0e3d 78 b1           MOV        R0,#0xb1
       CODE:0e3f 86 f0           MOV        B,@R0=>DAT_INTMEM_b1                                       = ??
       CODE:0e41 78 b2           MOV        R0,#0xb2
       CODE:0e43 e6              MOV        A,@R0=>DAT_INTMEM_b2                                       = ??
       CODE:0e44 fb              MOV        R3,A
       CODE:0e45 74 01           MOV        A,#0x1
       CODE:0e47 12 24 67        LCALL      FUN_CODE_2467                                              undefined FUN_CODE_2467()
       CODE:0e4a 74 44           MOV        A,#0x44
       CODE:0e4c 12 24 6c        LCALL      FUN_CODE_246c                                              undefined FUN_CODE_246c()
       CODE:0e4f e5 f0           MOV        A,B
       CODE:0e51 12 24 6c        LCALL      FUN_CODE_246c                                              undefined FUN_CODE_246c()
       CODE:0e54 eb              MOV        A,R3
       CODE:0e55 12 24 6c        LCALL      FUN_CODE_246c                                              undefined FUN_CODE_246c()
       CODE:0e58 02 0d 8d        LJMP       LAB_CODE_0d8d
                             LAB_CODE_0e5b                                   XREF[1]:     CODE:0d83(j)  
       CODE:0e5b c2 3c           CLR        27.4                                                       = ??
       CODE:0e5d 78 ab           MOV        R0,#0xab
       CODE:0e5f e6              MOV        A,@R0=>DAT_INTMEM_ab                                       = ??
       CODE:0e60 fb              MOV        R3,A
       CODE:0e61 54 1f           ANL        A,#0x1f
       CODE:0e63 ff              MOV        R7,A
       CODE:0e64 eb              MOV        A,R3
       CODE:0e65 a2 e6           MOV        CY,ACC.6                                                   = ??
       CODE:0e67 54 80           ANL        A,#0x80
       CODE:0e69 b3              CPL        CY
       CODE:0e6a 92 e0           MOV        ACC.0,CY                                                   = ??
       CODE:0e6c fb              MOV        R3,A
       CODE:0e6d 78 ac           MOV        R0,#0xac
       CODE:0e6f e6              MOV        A,@R0=>DAT_INTMEM_ac                                       = ??
       CODE:0e70 fc              MOV        R4,A
       CODE:0e71 78 ad           MOV        R0,#0xad
       CODE:0e73 e6              MOV        A,@R0=>DAT_INTMEM_ad                                       = ??
       CODE:0e74 fd              MOV        R5,A
       CODE:0e75 78 ae           MOV        R0,#0xae
       CODE:0e77 e6              MOV        A,@R0=>DAT_INTMEM_ae                                       = ??
       CODE:0e78 fe              MOV        R6,A
       CODE:0e79 74 01           MOV        A,#0x1
       CODE:0e7b 12 24 67        LCALL      FUN_CODE_2467                                              undefined FUN_CODE_2467()
       CODE:0e7e 74 23           MOV        A,#0x23
       CODE:0e80 12 24 6c        LCALL      FUN_CODE_246c                                              undefined FUN_CODE_246c()
       CODE:0e83 eb              MOV        A,R3
       CODE:0e84 12 24 6c        LCALL      FUN_CODE_246c                                              undefined FUN_CODE_246c()
       CODE:0e87 ec              MOV        A,R4
       CODE:0e88 12 24 6c        LCALL      FUN_CODE_246c                                              undefined FUN_CODE_246c()
       CODE:0e8b ed              MOV        A,R5
       CODE:0e8c 12 24 6c        LCALL      FUN_CODE_246c                                              undefined FUN_CODE_246c()
       CODE:0e8f ee              MOV        A,R6
       CODE:0e90 12 24 6c        LCALL      FUN_CODE_246c                                              undefined FUN_CODE_246c()
       CODE:0e93 ef              MOV        A,R7
       CODE:0e94 12 24 6c        LCALL      FUN_CODE_246c                                              undefined FUN_CODE_246c()
       CODE:0e97 02 0d 8d        LJMP       LAB_CODE_0d8d
                             LAB_CODE_0e9a                                   XREF[1]:     CODE:0d89(j)  
       CODE:0e9a c2 3e           CLR        27.6                                                       = ??
       CODE:0e9c 74 01           MOV        A,#0x1
       CODE:0e9e 12 24 67        LCALL      FUN_CODE_2467                                              undefined FUN_CODE_2467()
       CODE:0ea1 e5 36           MOV        A,DAT_INTMEM_36                                            = ??
       CODE:0ea3 12 24 6c        LCALL      FUN_CODE_246c                                              undefined FUN_CODE_246c()
       CODE:0ea6 02 0d 8d        LJMP       LAB_CODE_0d8d
                             **************************************************************
                             *                          FUNCTION                          *
                             **************************************************************
                             undefined FUN_CODE_0ea9()
             undefined         ACC:1          <RETURN>
                             FUN_CODE_0ea9                                   XREF[1]:     FUN_CODE_0756:07d4(c)  
       CODE:0ea9 20 10 05        JB         22.0,LAB_CODE_0eb1                                         = ??
       CODE:0eac 78 9f           MOV        R0,#0x9f
       CODE:0eae 76 00           MOV        @R0=>DAT_INTMEM_9f,#0x0                                    = ??
       CODE:0eb0 22              RET
                             LAB_CODE_0eb1                                   XREF[1]:     CODE:0ea9(j)  
       CODE:0eb1 78 9f           MOV        R0,#0x9f
       CODE:0eb3 e6              MOV        A,@R0=>DAT_INTMEM_9f                                       = ??
       CODE:0eb4 26              ADD        A,@R0=>DAT_INTMEM_9f                                       = ??
       CODE:0eb5 26              ADD        A,@R0=>DAT_INTMEM_9f                                       = ??
       CODE:0eb6 90 0e ba        MOV        DPTR,#0xeba
       CODE:0eb9 73              JMP        @A+DPTR
       CODE:0eba 02 0e db        LJMP       LAB_CODE_0edb
       CODE:0ebd 02 0e f1        LJMP       LAB_CODE_0ef1
       CODE:0ec0 02 0e f6        LJMP       LAB_CODE_0ef6
       CODE:0ec3 02 0e fd        LJMP       LAB_CODE_0efd
       CODE:0ec6 02 0f 3d        LJMP       LAB_CODE_0f3d
       CODE:0ec9 02 0f 44        LJMP       LAB_CODE_0f44
       CODE:0ecc 02 0f 4f        LJMP       LAB_CODE_0f4f
       CODE:0ecf 02 0f 75        LJMP       LAB_CODE_0f75
       CODE:0ed2 02 0f 90        LJMP       LAB_CODE_0f90
       CODE:0ed5 02 0f 9b        LJMP       LAB_CODE_0f9b
       CODE:0ed8 02 0f a3        LJMP       LAB_CODE_0fa3
                             LAB_CODE_0edb                                   XREF[1]:     CODE:0eba(j)  
       CODE:0edb 20 1c 0f        JB         23.4,LAB_CODE_0eed                                         = ??
       CODE:0ede 20 1d 0c        JB         23.5,LAB_CODE_0eed                                         = ??
       CODE:0ee1 e5 36           MOV        A,DAT_INTMEM_36                                            = ??
       CODE:0ee3 b4 63 02        CJNE       A,#0x63,LAB_CODE_0ee8
       CODE:0ee6 80 1d           SJMP       LAB_CODE_0f05
                             LAB_CODE_0ee8                                   XREF[1]:     CODE:0ee3(j)  
       CODE:0ee8 b4 64 02        CJNE       A,#0x64,LAB_CODE_0eed
       CODE:0eeb 80 18           SJMP       LAB_CODE_0f05
                             LAB_CODE_0eed                                   XREF[3]:     CODE:0edb(j), CODE:0ede(j), 
                                                                                          CODE:0ee8(j)  
       CODE:0eed c2 24           CLR        24.4                                                       = ??
       CODE:0eef 80 19           SJMP       LAB_CODE_0f0a
                             LAB_CODE_0ef1                                   XREF[1]:     CODE:0ebd(j)  
       CODE:0ef1 12 00 da        LCALL      FUN_CODE_00da                                              undefined FUN_CODE_00da()
       CODE:0ef4 80 19           SJMP       LAB_CODE_0f0f
                             LAB_CODE_0ef6                                   XREF[1]:     CODE:0ec0(j)  
       CODE:0ef6 c2 19           CLR        23.1                                                       = ??
       CODE:0ef8 12 00 55        LCALL      FUN_CODE_0055                                              undefined FUN_CODE_0055()
       CODE:0efb 80 17           SJMP       LAB_CODE_0f14
                             LAB_CODE_0efd                                   XREF[1]:     CODE:0ec3(j)  
       CODE:0efd 12 23 fd        LCALL      FUN_CODE_23fd                                              undefined FUN_CODE_23fd()
       CODE:0f00 12 24 14        LCALL      FUN_CODE_2414                                              undefined FUN_CODE_2414()
       CODE:0f03 80 14           SJMP       LAB_CODE_0f19
                             LAB_CODE_0f05                                   XREF[2]:     CODE:0ee6(j), CODE:0eeb(j)  
       CODE:0f05 78 9f           MOV        R0,#0x9f
       CODE:0f07 76 00           MOV        @R0=>DAT_INTMEM_9f,#0x0                                    = ??
       CODE:0f09 22              RET
                             LAB_CODE_0f0a                                   XREF[1]:     CODE:0eef(j)  
       CODE:0f0a 78 9f           MOV        R0,#0x9f
       CODE:0f0c 76 01           MOV        @R0=>DAT_INTMEM_9f,#0x1                                    = ??
       CODE:0f0e 22              RET
                             LAB_CODE_0f0f                                   XREF[1]:     CODE:0ef4(j)  
       CODE:0f0f 78 9f           MOV        R0,#0x9f
       CODE:0f11 76 02           MOV        @R0=>DAT_INTMEM_9f,#0x2                                    = ??
       CODE:0f13 22              RET
                             LAB_CODE_0f14                                   XREF[1]:     CODE:0efb(j)  
       CODE:0f14 78 9f           MOV        R0,#0x9f
       CODE:0f16 76 03           MOV        @R0=>DAT_INTMEM_9f,#0x3                                    = ??
       CODE:0f18 22              RET
                             LAB_CODE_0f19                                   XREF[1]:     CODE:0f03(j)  
       CODE:0f19 78 9f           MOV        R0,#0x9f
       CODE:0f1b 76 04           MOV        @R0=>DAT_INTMEM_9f,#0x4                                    = ??
       CODE:0f1d 22              RET
                             LAB_CODE_0f1e                                   XREF[1]:     CODE:0f42(j)  
       CODE:0f1e 78 9f           MOV        R0,#0x9f
       CODE:0f20 76 05           MOV        @R0=>DAT_INTMEM_9f,#0x5                                    = ??
       CODE:0f22 22              RET
                             LAB_CODE_0f23                                   XREF[1]:     CODE:0f4d(j)  
       CODE:0f23 78 9f           MOV        R0,#0x9f
       CODE:0f25 76 06           MOV        @R0=>DAT_INTMEM_9f,#0x6                                    = ??
       CODE:0f27 22              RET
                             LAB_CODE_0f28                                   XREF[1]:     CODE:0f73(j)  
       CODE:0f28 78 9f           MOV        R0,#0x9f
       CODE:0f2a 76 07           MOV        @R0=>DAT_INTMEM_9f,#0x7                                    = ??
       CODE:0f2c 22              RET
                             LAB_CODE_0f2d                                   XREF[1]:     CODE:0f8e(j)  
       CODE:0f2d 78 9f           MOV        R0,#0x9f
       CODE:0f2f 76 08           MOV        @R0=>DAT_INTMEM_9f,#0x8                                    = ??
       CODE:0f31 22              RET
                             LAB_CODE_0f32                                   XREF[1]:     CODE:0f97(j)  
       CODE:0f32 78 9f           MOV        R0,#0x9f
       CODE:0f34 76 09           MOV        @R0=>DAT_INTMEM_9f,#0x9                                    = ??
       CODE:0f36 22              RET
                             LAB_CODE_0f37                                   XREF[1]:     CODE:0fa1(j)  
       CODE:0f37 78 9f           MOV        R0,#0x9f
       CODE:0f39 76 0a           MOV        @R0=>DAT_INTMEM_9f,#0xa                                    = ??
       CODE:0f3b 22              RET
                             LAB_CODE_0f3c                                   XREF[8]:     CODE:0f63(j), CODE:0f6c(j), 
                                                                                          CODE:0f81(j), CODE:0f84(j), 
                                                                                          CODE:0f90(j), CODE:0f9b(j), 
                                                                                          CODE:0fa3(j), CODE:0fa8(j)  
       CODE:0f3c 22              RET
                             LAB_CODE_0f3d                                   XREF[1]:     CODE:0ec6(j)  
       CODE:0f3d c2 18           CLR        23.0                                                       = ??
       CODE:0f3f 12 24 03        LCALL      FUN_CODE_2403                                              undefined FUN_CODE_2403()
       CODE:0f42 80 da           SJMP       LAB_CODE_0f1e
                             LAB_CODE_0f44                                   XREF[1]:     CODE:0ec9(j)  
       CODE:0f44 12 23 f7        LCALL      FUN_CODE_23f7                                              undefined FUN_CODE_23f7()
       CODE:0f47 75 3d fa        MOV        DAT_INTMEM_3d,#0xfa                                        = ??
       CODE:0f4a 75 66 18        MOV        DAT_INTMEM_66,#0x18                                        = ??
       CODE:0f4d 80 d4           SJMP       LAB_CODE_0f23
                             LAB_CODE_0f4f                                   XREF[1]:     CODE:0ecc(j)  
       CODE:0f4f c2 1a           CLR        23.2                                                       = ??
       CODE:0f51 12 00 33        LCALL      FUN_CODE_0033                                              undefined FUN_CODE_0033()
       CODE:0f54 20 1c 18        JB         23.4,LAB_CODE_0f6f                                         = ??
       CODE:0f57 30 1d 15        JNB        23.5,LAB_CODE_0f6f                                         = ??
       CODE:0f5a c2 08           CLR        21.0                                                       = ??
       CODE:0f5c c2 20           CLR        24.0                                                       = ??
       CODE:0f5e c2 0b           CLR        21.3                                                       = ??
       CODE:0f60 30 4f 0c        JNB        29.7,LAB_CODE_0f6f                                         = ??
       CODE:0f63 d5 3d d6        DJNZ       DAT_INTMEM_3d,LAB_CODE_0f3c                                = ??
       CODE:0f66 20 50 06        JB         2a.0,LAB_CODE_0f6f                                         = ??
       CODE:0f69 75 3d fa        MOV        DAT_INTMEM_3d,#0xfa                                        = ??
       CODE:0f6c d5 66 cd        DJNZ       DAT_INTMEM_66,LAB_CODE_0f3c                                = ??
                             LAB_CODE_0f6f                                   XREF[4]:     CODE:0f54(j), CODE:0f57(j), 
                                                                                          CODE:0f60(j), CODE:0f66(j)  
       CODE:0f6f c2 17           CLR        22.7                                                       = ??
       CODE:0f71 d2 2f           SETB       25.7                                                       = ??
       CODE:0f73 80 b3           SJMP       LAB_CODE_0f28
                             LAB_CODE_0f75                                   XREF[1]:     CODE:0ecf(j)  
       CODE:0f75 12 23 e6        LCALL      FUN_CODE_23e6                                              undefined FUN_CODE_23e6()
       CODE:0f78 20 08 0c        JB         21.0,LAB_CODE_0f87                                         = ??
       CODE:0f7b 20 20 09        JB         24.0,LAB_CODE_0f87                                         = ??
       CODE:0f7e 20 0b 06        JB         21.3,LAB_CODE_0f87                                         = ??
       CODE:0f81 20 1c b8        JB         23.4,LAB_CODE_0f3c                                         = ??
       CODE:0f84 20 1d b5        JB         23.5,LAB_CODE_0f3c                                         = ??
                             LAB_CODE_0f87                                   XREF[3]:     CODE:0f78(j), CODE:0f7b(j), 
                                                                                          CODE:0f7e(j)  
       CODE:0f87 c2 2a           CLR        25.2                                                       = ??
       CODE:0f89 c2 3f           CLR        27.7                                                       = ??
       CODE:0f8b 75 3d 19        MOV        DAT_INTMEM_3d,#0x19                                        = ??
       CODE:0f8e 80 9d           SJMP       LAB_CODE_0f2d
                             LAB_CODE_0f90                                   XREF[1]:     CODE:0ed2(j)  
       CODE:0f90 d5 3d a9        DJNZ       DAT_INTMEM_3d,LAB_CODE_0f3c                                = ??
       CODE:0f93 e5 64           MOV        A,DAT_INTMEM_64                                            = ??
       CODE:0f95 f5 3d           MOV        DAT_INTMEM_3d,A                                            = ??
       CODE:0f97 70 99           JNZ        LAB_CODE_0f32
       CODE:0f99 80 03           SJMP       LAB_CODE_0f9e
                             LAB_CODE_0f9b                                   XREF[1]:     CODE:0ed5(j)  
       CODE:0f9b d5 3d 9e        DJNZ       DAT_INTMEM_3d,LAB_CODE_0f3c                                = ??
                             LAB_CODE_0f9e                                   XREF[1]:     CODE:0f99(j)  
       CODE:0f9e 30 40 05        JNB        28.0,LAB_CODE_0fa6                                         = ??
       CODE:0fa1 80 94           SJMP       LAB_CODE_0f37
                             LAB_CODE_0fa3                                   XREF[1]:     CODE:0ed8(j)  
       CODE:0fa3 20 40 96        JB         28.0,LAB_CODE_0f3c                                         = ??
                             LAB_CODE_0fa6                                   XREF[1]:     CODE:0f9e(j)  
       CODE:0fa6 c2 10           CLR        22.0                                                       = ??
       CODE:0fa8 80 92           SJMP       LAB_CODE_0f3c
       CODE:0faa 78 9c           MOV        R0,#0x9c
       CODE:0fac 76 00           MOV        @R0=>DAT_INTMEM_9c,#0x0                                    = ??
       CODE:0fae 22              RET
                             LAB_CODE_0faf                                   XREF[2]:     CODE:0fe6(j), CODE:0fed(j)  
       CODE:0faf 78 9c           MOV        R0,#0x9c
       CODE:0fb1 76 01           MOV        @R0=>DAT_INTMEM_9c,#0x1                                    = ??
       CODE:0fb3 22              RET
                             LAB_CODE_0fb4                                   XREF[1]:     CODE:1003(j)  
       CODE:0fb4 78 9c           MOV        R0,#0x9c
       CODE:0fb6 76 02           MOV        @R0=>DAT_INTMEM_9c,#0x2                                    = ??
       CODE:0fb8 22              RET
                             LAB_CODE_0fb9                                   XREF[1]:     CODE:100d(j)  
       CODE:0fb9 78 9c           MOV        R0,#0x9c
       CODE:0fbb 76 03           MOV        @R0=>DAT_INTMEM_9c,#0x3                                    = ??
       CODE:0fbd 22              RET
                             LAB_CODE_0fbe                                   XREF[1]:     CODE:102a(j)  
       CODE:0fbe 78 9c           MOV        R0,#0x9c
       CODE:0fc0 76 04           MOV        @R0=>DAT_INTMEM_9c,#0x4                                    = ??
       CODE:0fc2 22              RET
                             LAB_CODE_0fc3                                   XREF[1]:     CODE:1035(j)  
       CODE:0fc3 78 9c           MOV        R0,#0x9c
       CODE:0fc5 76 05           MOV        @R0=>DAT_INTMEM_9c,#0x5                                    = ??
       CODE:0fc7 22              RET
                             LAB_CODE_0fc8                                   XREF[1]:     CODE:1042(j)  
       CODE:0fc8 78 9c           MOV        R0,#0x9c
       CODE:0fca 76 06           MOV        @R0=>DAT_INTMEM_9c,#0x6                                    = ??
       CODE:0fcc 22              RET
                             LAB_CODE_0fcd                                   XREF[1]:     CODE:1049(j)  
       CODE:0fcd 78 9c           MOV        R0,#0x9c
       CODE:0fcf 76 07           MOV        @R0=>DAT_INTMEM_9c,#0x7                                    = ??
       CODE:0fd1 22              RET
                             LAB_CODE_0fd2                                   XREF[1]:     CODE:104e(j)  
       CODE:0fd2 78 9c           MOV        R0,#0x9c
       CODE:0fd4 76 08           MOV        @R0=>DAT_INTMEM_9c,#0x8                                    = ??
       CODE:0fd6 22              RET
                             LAB_CODE_0fd7                                   XREF[1]:     CODE:1053(j)  
       CODE:0fd7 78 9c           MOV        R0,#0x9c
       CODE:0fd9 76 09           MOV        @R0=>DAT_INTMEM_9c,#0x9                                    = ??
       CODE:0fdb 22              RET
                             LAB_CODE_0fdc                                   XREF[1]:     CODE:103c(j)  
       CODE:0fdc 22              RET
                             LAB_CODE_0fdd                                   XREF[1]:     CODE:1085(j)  
       CODE:0fdd 12 23 e3        LCALL      FUN_CODE_23e3                                              undefined FUN_CODE_23e3()
       CODE:0fe0 43 34 01        ORL        DAT_INTMEM_34,#0x1                                         = ??
       CODE:0fe3 75 3d 0a        MOV        DAT_INTMEM_3d,#0xa                                         = ??
       CODE:0fe6 80 c7           SJMP       LAB_CODE_0faf
                             LAB_CODE_0fe8                                   XREF[1]:     CODE:1088(j)  
       CODE:0fe8 12 23 e9        LCALL      FUN_CODE_23e9                                              undefined FUN_CODE_23e9()
       CODE:0feb 40 14           JC         LAB_CODE_1001
       CODE:0fed d5 3d bf        DJNZ       DAT_INTMEM_3d,LAB_CODE_0faf                                = ??
       CODE:0ff0 d2 1c           SETB       23.4                                                       = ??
       CODE:0ff2 75 5a 01        MOV        DAT_INTMEM_5a,#0x1                                         = ??
       CODE:0ff5 75 5c 01        MOV        DAT_INTMEM_5c,#0x1                                         = ??
       CODE:0ff8 75 5b 00        MOV        DAT_INTMEM_5b,#0x0                                         = ??
       CODE:0ffb d2 46           SETB       28.6                                                       = ??
       CODE:0ffd d2 33           SETB       26.3                                                       = ??
       CODE:0fff 80 74           SJMP       LAB_CODE_1075
                             LAB_CODE_1001                                   XREF[1]:     CODE:0feb(j)  
       CODE:1001 d2 2e           SETB       25.6                                                       = ??
       CODE:1003 80 af           SJMP       LAB_CODE_0fb4
                             LAB_CODE_1005                                   XREF[1]:     CODE:108b(j)  
       CODE:1005 12 23 e9        LCALL      FUN_CODE_23e9                                              undefined FUN_CODE_23e9()
       CODE:1008 d2 17           SETB       22.7                                                       = ??
       CODE:100a 12 00 30        LCALL      FUN_CODE_0030                                              undefined FUN_CODE_0030()
       CODE:100d 80 aa           SJMP       LAB_CODE_0fb9
                             LAB_CODE_100f                                   XREF[1]:     CODE:108e(j)  
       CODE:100f 12 00 36        LCALL      FUN_CODE_0036                                              undefined FUN_CODE_0036()
       CODE:1012 40 11           JC         LAB_CODE_1025
       CODE:1014 d2 1c           SETB       23.4                                                       = ??
       CODE:1016 75 5a 03        MOV        DAT_INTMEM_5a,#0x3                                         = ??
       CODE:1019 75 5c 03        MOV        DAT_INTMEM_5c,#0x3                                         = ??
       CODE:101c 75 5b 00        MOV        DAT_INTMEM_5b,#0x0                                         = ??
       CODE:101f d2 46           SETB       28.6                                                       = ??
       CODE:1021 d2 33           SETB       26.3                                                       = ??
       CODE:1023 80 50           SJMP       LAB_CODE_1075
                             LAB_CODE_1025                                   XREF[1]:     CODE:1012(j)  
       CODE:1025 12 00 36        LCALL      FUN_CODE_0036                                              undefined FUN_CODE_0036()
       CODE:1028 d2 1a           SETB       23.2                                                       = ??
       CODE:102a 80 92           SJMP       LAB_CODE_0fbe
                             LAB_CODE_102c                                   XREF[1]:     CODE:1091(j)  
       CODE:102c 12 23 f4        LCALL      FUN_CODE_23f4                                              undefined FUN_CODE_23f4()
       CODE:102f 12 24 00        LCALL      FUN_CODE_2400                                              undefined FUN_CODE_2400()
       CODE:1032 75 3d 02        MOV        DAT_INTMEM_3d,#0x2                                         = ??
       CODE:1035 80 8c           SJMP       LAB_CODE_0fc3
                             LAB_CODE_1037                                   XREF[1]:     CODE:1094(j)  
       CODE:1037 12 24 06        LCALL      FUN_CODE_2406                                              undefined FUN_CODE_2406()
       CODE:103a d2 18           SETB       23.0                                                       = ??
       CODE:103c d5 3d 9d        DJNZ       DAT_INTMEM_3d,LAB_CODE_0fdc                                = ??
       CODE:103f 12 24 11        LCALL      FUN_CODE_2411                                              undefined FUN_CODE_2411()
       CODE:1042 80 84           SJMP       LAB_CODE_0fc8
                             LAB_CODE_1044                                   XREF[1]:     CODE:1097(j)  
       CODE:1044 12 23 fa        LCALL      FUN_CODE_23fa                                              undefined FUN_CODE_23fa()
       CODE:1047 d2 24           SETB       24.4                                                       = ??
       CODE:1049 80 82           SJMP       LAB_CODE_0fcd
                             LAB_CODE_104b                                   XREF[1]:     CODE:109a(j)  
       CODE:104b 12 00 d7        LCALL      FUN_CODE_00d7                                              undefined FUN_CODE_00d7()
       CODE:104e 80 82           SJMP       LAB_CODE_0fd2
                             LAB_CODE_1050                                   XREF[1]:     CODE:109d(j)  
       CODE:1050 12 00 52        LCALL      FUN_CODE_0052                                              undefined FUN_CODE_0052()
       CODE:1053 80 82           SJMP       LAB_CODE_0fd7
                             LAB_CODE_1055                                   XREF[1]:     CODE:10a0(j)  
       CODE:1055 12 00 58        LCALL      FUN_CODE_0058                                              undefined FUN_CODE_0058()
       CODE:1058 40 11           JC         LAB_CODE_106b
       CODE:105a d2 1c           SETB       23.4                                                       = ??
       CODE:105c 75 5a 02        MOV        DAT_INTMEM_5a,#0x2                                         = ??
       CODE:105f 75 5c 02        MOV        DAT_INTMEM_5c,#0x2                                         = ??
       CODE:1062 75 5b 00        MOV        DAT_INTMEM_5b,#0x0                                         = ??
       CODE:1065 d2 46           SETB       28.6                                                       = ??
       CODE:1067 d2 33           SETB       26.3                                                       = ??
       CODE:1069 80 0a           SJMP       LAB_CODE_1075
                             LAB_CODE_106b                                   XREF[1]:     CODE:1058(j)  
       CODE:106b 12 00 58        LCALL      FUN_CODE_0058                                              undefined FUN_CODE_0058()
       CODE:106e d2 19           SETB       23.1                                                       = ??
       CODE:1070 80 03           SJMP       LAB_CODE_1075
                             **************************************************************
                             *                          FUNCTION                          *
                             **************************************************************
                             undefined FUN_CODE_1072()
             undefined         ACC:1          <RETURN>
                             FUN_CODE_1072                                   XREF[1]:     FUN_CODE_0756:07cb(c)  
       CODE:1072 20 0d 07        JB         21.5,LAB_CODE_107c                                         = ??
                             LAB_CODE_1075                                   XREF[4]:     CODE:0fff(j), CODE:1023(j), 
                                                                                          CODE:1069(j), CODE:1070(j)  
       CODE:1075 c2 0d           CLR        21.5                                                       = ??
       CODE:1077 78 9c           MOV        R0,#0x9c
       CODE:1079 76 00           MOV        @R0=>DAT_INTMEM_9c,#0x0                                    = ??
       CODE:107b 22              RET
                             LAB_CODE_107c                                   XREF[1]:     CODE:1072(j)  
       CODE:107c 78 9c           MOV        R0,#0x9c
       CODE:107e e6              MOV        A,@R0=>DAT_INTMEM_9c                                       = ??
       CODE:107f 26              ADD        A,@R0=>DAT_INTMEM_9c                                       = ??
       CODE:1080 26              ADD        A,@R0=>DAT_INTMEM_9c                                       = ??
       CODE:1081 90 10 85        MOV        DPTR,#0x1085
       CODE:1084 73              JMP        @A+DPTR
       CODE:1085 02 0f dd        LJMP       LAB_CODE_0fdd
       CODE:1088 02 0f e8        LJMP       LAB_CODE_0fe8
       CODE:108b 02 10 05        LJMP       LAB_CODE_1005
       CODE:108e 02 10 0f        LJMP       LAB_CODE_100f
       CODE:1091 02 10 2c        LJMP       LAB_CODE_102c
       CODE:1094 02 10 37        LJMP       LAB_CODE_1037
       CODE:1097 02 10 44        LJMP       LAB_CODE_1044
       CODE:109a 02 10 4b        LJMP       LAB_CODE_104b
       CODE:109d 02 10 50        LJMP       LAB_CODE_1050
       CODE:10a0 02 10 55        LJMP       LAB_CODE_1055
       CODE:10a3 78 9e           MOV        R0,#0x9e
       CODE:10a5 76 00           MOV        @R0=>DAT_INTMEM_9e,#0x0                                    = ??
       CODE:10a7 22              RET
                             LAB_CODE_10a8                                   XREF[1]:     CODE:10cc(j)  
       CODE:10a8 78 9e           MOV        R0,#0x9e
       CODE:10aa 76 01           MOV        @R0=>DAT_INTMEM_9e,#0x1                                    = ??
       CODE:10ac 22              RET
                             LAB_CODE_10ad                                   XREF[1]:     CODE:1116(j)  
       CODE:10ad 78 9e           MOV        R0,#0x9e
       CODE:10af 76 02           MOV        @R0=>DAT_INTMEM_9e,#0x2                                    = ??
       CODE:10b1 22              RET
                             LAB_CODE_10b2                                   XREF[2]:     CODE:1118(j), CODE:1125(j)  
       CODE:10b2 22              RET
                             LAB_CODE_10b3                                   XREF[1]:     CODE:1138(j)  
       CODE:10b3 c2 13           CLR        22.3                                                       = ??
       CODE:10b5 c2 29           CLR        25.1                                                       = ??
       CODE:10b7 c2 55           CLR        2a.5                                                       = ??
       CODE:10b9 12 25 e7        LCALL      FUN_CODE_25e7                                              undefined FUN_CODE_25e7()
       CODE:10bc 12 00 41        LCALL      FUN_CODE_0041                                              undefined FUN_CODE_0041()
       CODE:10bf 12 00 69        LCALL      FUN_CODE_0069                                              undefined FUN_CODE_0069()
       CODE:10c2 c2 12           CLR        22.2                                                       = ??
       CODE:10c4 12 00 99        LCALL      FUN_CODE_0099                                              undefined FUN_CODE_0099()
       CODE:10c7 12 00 c4        LCALL      FUN_CODE_00c4                                              undefined FUN_CODE_00c4()
       CODE:10ca c2 2a           CLR        25.2                                                       = ??
       CODE:10cc 80 da           SJMP       LAB_CODE_10a8
                             LAB_CODE_10ce                                   XREF[1]:     CODE:113b(j)  
       CODE:10ce 12 00 ca        LCALL      FUN_CODE_00ca                                              undefined FUN_CODE_00ca()
       CODE:10d1 a4              MUL        AB
       CODE:10d2 a4              MUL        AB
       CODE:10d3 a4              MUL        AB
       CODE:10d4 a4              MUL        AB
       CODE:10d5 a4              MUL        AB
       CODE:10d6 a4              MUL        AB
       CODE:10d7 a4              MUL        AB
       CODE:10d8 a4              MUL        AB
       CODE:10d9 a4              MUL        AB
       CODE:10da a4              MUL        AB
       CODE:10db a4              MUL        AB
       CODE:10dc a4              MUL        AB
       CODE:10dd a4              MUL        AB
       CODE:10de a4              MUL        AB
       CODE:10df a4              MUL        AB
       CODE:10e0 a4              MUL        AB
       CODE:10e1 a4              MUL        AB
       CODE:10e2 a4              MUL        AB
       CODE:10e3 a4              MUL        AB
       CODE:10e4 a4              MUL        AB
       CODE:10e5 a4              MUL        AB
       CODE:10e6 a4              MUL        AB
       CODE:10e7 a4              MUL        AB
       CODE:10e8 a4              MUL        AB
       CODE:10e9 a4              MUL        AB
       CODE:10ea a4              MUL        AB
       CODE:10eb a4              MUL        AB
       CODE:10ec a4              MUL        AB
       CODE:10ed a4              MUL        AB
       CODE:10ee a4              MUL        AB
       CODE:10ef a4              MUL        AB
       CODE:10f0 a4              MUL        AB
       CODE:10f1 a4              MUL        AB
       CODE:10f2 a4              MUL        AB
       CODE:10f3 a4              MUL        AB
       CODE:10f4 a4              MUL        AB
       CODE:10f5 a4              MUL        AB
       CODE:10f6 a4              MUL        AB
       CODE:10f7 a4              MUL        AB
       CODE:10f8 a4              MUL        AB
       CODE:10f9 a4              MUL        AB
       CODE:10fa a4              MUL        AB
       CODE:10fb a4              MUL        AB
       CODE:10fc a4              MUL        AB
       CODE:10fd a4              MUL        AB
       CODE:10fe a4              MUL        AB
       CODE:10ff a4              MUL        AB
       CODE:1100 a4              MUL        AB
       CODE:1101 a4              MUL        AB
       CODE:1102 a4              MUL        AB
       CODE:1103 a4              MUL        AB
       CODE:1104 a4              MUL        AB
       CODE:1105 a4              MUL        AB
       CODE:1106 a4              MUL        AB
       CODE:1107 a4              MUL        AB
       CODE:1108 a4              MUL        AB
       CODE:1109 a4              MUL        AB
       CODE:110a a4              MUL        AB
       CODE:110b a4              MUL        AB
       CODE:110c a4              MUL        AB
       CODE:110d 12 00 9c        LCALL      FUN_CODE_009c                                              undefined FUN_CODE_009c()
       CODE:1110 12 00 66        LCALL      FUN_CODE_0066                                              undefined FUN_CODE_0066()
       CODE:1113 30 2b 05        JNB        25.3,LAB_CODE_111b                                         = ??
       CODE:1116 80 95           SJMP       LAB_CODE_10ad
                             LAB_CODE_1118                                   XREF[1]:     CODE:113e(j)  
       CODE:1118 20 2b 97        JB         25.3,LAB_CODE_10b2                                         = ??
                             LAB_CODE_111b                                   XREF[1]:     CODE:1113(j)  
       CODE:111b 12 00 dd        LCALL      FUN_CODE_00dd                                              undefined FUN_CODE_00dd()
       CODE:111e 12 00 e0        LCALL      FUN_CODE_00e0                                              undefined FUN_CODE_00e0()
       CODE:1121 d2 2a           SETB       25.2                                                       = ??
       CODE:1123 c2 0f           CLR        21.7                                                       = ??
       CODE:1125 80 8b           SJMP       LAB_CODE_10b2
                             **************************************************************
                             *                          FUNCTION                          *
                             **************************************************************
                             undefined FUN_CODE_1127()
             undefined         ACC:1          <RETURN>
                             FUN_CODE_1127                                   XREF[1]:     FUN_CODE_0756:07d1(c)  
       CODE:1127 20 0f 05        JB         21.7,LAB_CODE_112f                                         = ??
       CODE:112a 78 9e           MOV        R0,#0x9e
       CODE:112c 76 00           MOV        @R0=>DAT_INTMEM_9e,#0x0                                    = ??
       CODE:112e 22              RET
                             LAB_CODE_112f                                   XREF[1]:     CODE:1127(j)  
       CODE:112f 78 9e           MOV        R0,#0x9e
       CODE:1131 e6              MOV        A,@R0=>DAT_INTMEM_9e                                       = ??
       CODE:1132 26              ADD        A,@R0=>DAT_INTMEM_9e                                       = ??
       CODE:1133 26              ADD        A,@R0=>DAT_INTMEM_9e                                       = ??
       CODE:1134 90 11 38        MOV        DPTR,#LAB_CODE_1138
       CODE:1137 73              JMP        @A+DPTR
                             LAB_CODE_1138                                   XREF[1]:     FUN_CODE_1127:1134(*)  
       CODE:1138 02 10 b3        LJMP       LAB_CODE_10b3
       CODE:113b 02 10 ce        LJMP       LAB_CODE_10ce
       CODE:113e 02 11 18        LJMP       LAB_CODE_1118
       CODE:1141 78 9b           MOV        R0,#0x9b
       CODE:1143 76 00           MOV        @R0=>DAT_INTMEM_9b,#0x0                                    = ??
       CODE:1145 22              RET
                             LAB_CODE_1146                                   XREF[1]:     CODE:1177(j)  
       CODE:1146 78 9b           MOV        R0,#0x9b
       CODE:1148 76 01           MOV        @R0=>DAT_INTMEM_9b,#0x1                                    = ??
       CODE:114a 22              RET
                             LAB_CODE_114b                                   XREF[1]:     CODE:118d(j)  
       CODE:114b 78 9b           MOV        R0,#0x9b
       CODE:114d 76 02           MOV        @R0=>DAT_INTMEM_9b,#0x2                                    = ??
       CODE:114f 22              RET
                             LAB_CODE_1150                                   XREF[2]:     CODE:1197(j), CODE:1199(j)  
       CODE:1150 78 9b           MOV        R0,#0x9b
       CODE:1152 76 03           MOV        @R0=>DAT_INTMEM_9b,#0x3                                    = ??
       CODE:1154 22              RET
                             LAB_CODE_1155                                   XREF[2]:     CODE:118f(j), CODE:1192(j)  
       CODE:1155 22              RET
                             LAB_CODE_1156                                   XREF[1]:     CODE:11ac(j)  
       CODE:1156 12 23 d2        LCALL      FUN_CODE_23d2                                              undefined FUN_CODE_23d2()
       CODE:1159 12 22 d9        LCALL      FUN_CODE_22d9                                              undefined FUN_CODE_22d9()
       CODE:115c 12 23 59        LCALL      FUN_CODE_2359                                              undefined FUN_CODE_2359()
       CODE:115f 12 23 61        LCALL      FUN_CODE_2361                                              undefined FUN_CODE_2361()
       CODE:1162 20 04 14        JB         20.4,LAB_CODE_1179                                         = ??
       CODE:1165 12 23 9e        LCALL      FUN_CODE_239e                                              undefined FUN_CODE_239e()
       CODE:1168 12 00 9c        LCALL      FUN_CODE_009c                                              undefined FUN_CODE_009c()
       CODE:116b 12 00 e0        LCALL      FUN_CODE_00e0                                              undefined FUN_CODE_00e0()
       CODE:116e 12 23 2b        LCALL      FUN_CODE_232b                                              undefined FUN_CODE_232b()
       CODE:1171 12 23 d5        LCALL      FUN_CODE_23d5                                              undefined FUN_CODE_23d5()
       CODE:1174 12 24 7f        LCALL      FUN_CODE_247f                                              undefined FUN_CODE_247f()
       CODE:1177 80 cd           SJMP       LAB_CODE_1146
                             LAB_CODE_1179                                   XREF[1]:     CODE:1162(j)  
       CODE:1179 12 23 d8        LCALL      FUN_CODE_23d8                                              undefined FUN_CODE_23d8()
                             LAB_CODE_117c                                   XREF[1]:     CODE:11af(j)  
       CODE:117c 12 24 f7        LCALL      FUN_CODE_24f7                                              undefined FUN_CODE_24f7()
       CODE:117f d2 2a           SETB       25.2                                                       = ??
       CODE:1181 d2 3f           SETB       27.7                                                       = ??
       CODE:1183 d2 2d           SETB       25.5                                                       = ??
       CODE:1185 d2 43           SETB       28.3                                                       = ??
       CODE:1187 d2 4a           SETB       29.2                                                       = ??
       CODE:1189 d2 44           SETB       28.4                                                       = ??
       CODE:118b d2 47           SETB       28.7                                                       = ??
       CODE:118d 80 bc           SJMP       LAB_CODE_114b
                             LAB_CODE_118f                                   XREF[1]:     CODE:11b2(j)  
       CODE:118f 20 2d c3        JB         25.5,LAB_CODE_1155                                         = ??
       CODE:1192 20 44 c0        JB         28.4,LAB_CODE_1155                                         = ??
       CODE:1195 c2 0c           CLR        21.4                                                       = ??
       CODE:1197 80 b7           SJMP       LAB_CODE_1150
                             LAB_CODE_1199                                   XREF[1]:     CODE:11b5(j)  
       CODE:1199 80 b5           SJMP       LAB_CODE_1150
                             **************************************************************
                             *                          FUNCTION                          *
                             **************************************************************
                             undefined FUN_CODE_119b()
             undefined         ACC:1          <RETURN>
                             FUN_CODE_119b                                   XREF[1]:     FUN_CODE_0756:07c8(c)  
       CODE:119b 20 0c 05        JB         21.4,LAB_CODE_11a3                                         = ??
       CODE:119e 78 9b           MOV        R0,#0x9b
       CODE:11a0 76 00           MOV        @R0=>DAT_INTMEM_9b,#0x0                                    = ??
       CODE:11a2 22              RET
                             LAB_CODE_11a3                                   XREF[1]:     CODE:119b(j)  
       CODE:11a3 78 9b           MOV        R0,#0x9b
       CODE:11a5 e6              MOV        A,@R0=>DAT_INTMEM_9b                                       = ??
       CODE:11a6 26              ADD        A,@R0=>DAT_INTMEM_9b                                       = ??
       CODE:11a7 26              ADD        A,@R0=>DAT_INTMEM_9b                                       = ??
       CODE:11a8 90 11 ac        MOV        DPTR,#0x11ac
       CODE:11ab 73              JMP        @A+DPTR
       CODE:11ac 02 11 56        LJMP       LAB_CODE_1156
       CODE:11af 02 11 7c        LJMP       LAB_CODE_117c
       CODE:11b2 02 11 8f        LJMP       LAB_CODE_118f
       CODE:11b5 02 11 99        LJMP       LAB_CODE_1199
                             LAB_CODE_11b8                                   XREF[1]:     CODE:12e6(j)  
       CODE:11b8 c2 1e           CLR        23.6                                                       = ??
       CODE:11ba 20 14 0a        JB         22.4,LAB_CODE_11c7                                         = ??
       CODE:11bd c2 29           CLR        25.1                                                       = ??
       CODE:11bf 12 24 7f        LCALL      FUN_CODE_247f                                              undefined FUN_CODE_247f()
       CODE:11c2 12 00 63        LCALL      FUN_CODE_0063                                              undefined FUN_CODE_0063()
       CODE:11c5 80 63           SJMP       LAB_CODE_122a
                             LAB_CODE_11c7                                   XREF[1]:     CODE:11ba(j)  
       CODE:11c7 c2 14           CLR        22.4                                                       = ??
       CODE:11c9 d2 0f           SETB       21.7                                                       = ??
       CODE:11cb 02 12 57        LJMP       LAB_CODE_1257
                             LAB_CODE_11ce                                   XREF[1]:     CODE:12e9(j)  
       CODE:11ce 12 24 f7        LCALL      FUN_CODE_24f7                                              undefined FUN_CODE_24f7()
       CODE:11d1 12 00 96        LCALL      FUN_CODE_0096                                              undefined FUN_CODE_0096()
       CODE:11d4 12 00 9f        LCALL      FUN_CODE_009f                                              undefined FUN_CODE_009f()
       CODE:11d7 80 56           SJMP       LAB_CODE_122f
                             LAB_CODE_11d9                                   XREF[1]:     CODE:12ec(j)  
       CODE:11d9 d2 12           SETB       22.2                                                       = ??
       CODE:11db 12 00 6c        LCALL      FUN_CODE_006c                                              undefined FUN_CODE_006c()
       CODE:11de 80 54           SJMP       LAB_CODE_1234
                             LAB_CODE_11e0                                   XREF[1]:     CODE:12ef(j)  
       CODE:11e0 12 00 4f        LCALL      FUN_CODE_004f                                              undefined FUN_CODE_004f()
       CODE:11e3 50 10           JNC        LAB_CODE_11f5
       CODE:11e5 75 5a 08        MOV        DAT_INTMEM_5a,#0x8                                         = ??
       CODE:11e8 75 5c 08        MOV        DAT_INTMEM_5c,#0x8                                         = ??
       CODE:11eb 75 5b 00        MOV        DAT_INTMEM_5b,#0x0                                         = ??
       CODE:11ee d2 46           SETB       28.6                                                       = ??
       CODE:11f0 d2 33           SETB       26.3                                                       = ??
       CODE:11f2 02 12 b7        LJMP       LAB_CODE_12b7
                             LAB_CODE_11f5                                   XREF[1]:     CODE:11e3(j)  
       CODE:11f5 12 00 44        LCALL      FUN_CODE_0044                                              undefined FUN_CODE_0044()
       CODE:11f8 75 3d 02        MOV        DAT_INTMEM_3d,#0x2                                         = ??
       CODE:11fb 80 3c           SJMP       LAB_CODE_1239
                             LAB_CODE_11fd                                   XREF[1]:     CODE:12f2(j)  
       CODE:11fd d5 3d 5c        DJNZ       DAT_INTMEM_3d,LAB_CODE_125c                                = ??
       CODE:1200 12 00 c7        LCALL      FUN_CODE_00c7                                              undefined FUN_CODE_00c7()
       CODE:1203 75 3d 04        MOV        DAT_INTMEM_3d,#0x4                                         = ??
       CODE:1206 80 36           SJMP       LAB_CODE_123e
                             LAB_CODE_1208                                   XREF[1]:     CODE:12f5(j)  
       CODE:1208 12 00 4f        LCALL      FUN_CODE_004f                                              undefined FUN_CODE_004f()
       CODE:120b 40 13           JC         LAB_CODE_1220
       CODE:120d d5 3d 4c        DJNZ       DAT_INTMEM_3d,LAB_CODE_125c                                = ??
       CODE:1210 75 5a 08        MOV        DAT_INTMEM_5a,#0x8                                         = ??
       CODE:1213 75 5c 08        MOV        DAT_INTMEM_5c,#0x8                                         = ??
       CODE:1216 75 5b 00        MOV        DAT_INTMEM_5b,#0x0                                         = ??
       CODE:1219 d2 46           SETB       28.6                                                       = ??
       CODE:121b d2 33           SETB       26.3                                                       = ??
       CODE:121d 02 12 b7        LJMP       LAB_CODE_12b7
                             LAB_CODE_1220                                   XREF[1]:     CODE:120b(j)  
       CODE:1220 75 3d 05        MOV        DAT_INTMEM_3d,#0x5                                         = ??
       CODE:1223 80 1e           SJMP       LAB_CODE_1243
                             LAB_CODE_1225                                   XREF[1]:     CODE:12b4(j)  
       CODE:1225 78 9d           MOV        R0,#0x9d
       CODE:1227 76 00           MOV        @R0=>DAT_INTMEM_9d,#0x0                                    = ??
       CODE:1229 22              RET
                             LAB_CODE_122a                                   XREF[1]:     CODE:11c5(j)  
       CODE:122a 78 9d           MOV        R0,#0x9d
       CODE:122c 76 01           MOV        @R0=>DAT_INTMEM_9d,#0x1                                    = ??
       CODE:122e 22              RET
                             LAB_CODE_122f                                   XREF[1]:     CODE:11d7(j)  
       CODE:122f 78 9d           MOV        R0,#0x9d
       CODE:1231 76 02           MOV        @R0=>DAT_INTMEM_9d,#0x2                                    = ??
       CODE:1233 22              RET
                             LAB_CODE_1234                                   XREF[1]:     CODE:11de(j)  
       CODE:1234 78 9d           MOV        R0,#0x9d
       CODE:1236 76 03           MOV        @R0=>DAT_INTMEM_9d,#0x3                                    = ??
       CODE:1238 22              RET
                             LAB_CODE_1239                                   XREF[1]:     CODE:11fb(j)  
       CODE:1239 78 9d           MOV        R0,#0x9d
       CODE:123b 76 04           MOV        @R0=>DAT_INTMEM_9d,#0x4                                    = ??
       CODE:123d 22              RET
                             LAB_CODE_123e                                   XREF[1]:     CODE:1206(j)  
       CODE:123e 78 9d           MOV        R0,#0x9d
       CODE:1240 76 05           MOV        @R0=>DAT_INTMEM_9d,#0x5                                    = ??
       CODE:1242 22              RET
                             LAB_CODE_1243                                   XREF[1]:     CODE:1223(j)  
       CODE:1243 78 9d           MOV        R0,#0x9d
       CODE:1245 76 06           MOV        @R0=>DAT_INTMEM_9d,#0x6                                    = ??
       CODE:1247 22              RET
                             LAB_CODE_1248                                   XREF[1]:     CODE:1260(j)  
       CODE:1248 78 9d           MOV        R0,#0x9d
       CODE:124a 76 07           MOV        @R0=>DAT_INTMEM_9d,#0x7                                    = ??
       CODE:124c 22              RET
                             LAB_CODE_124d                                   XREF[1]:     CODE:127c(j)  
       CODE:124d 78 9d           MOV        R0,#0x9d
       CODE:124f 76 08           MOV        @R0=>DAT_INTMEM_9d,#0x8                                    = ??
       CODE:1251 22              RET
                             LAB_CODE_1252                                   XREF[1]:     CODE:1293(j)  
       CODE:1252 78 9d           MOV        R0,#0x9d
       CODE:1254 76 09           MOV        @R0=>DAT_INTMEM_9d,#0x9                                    = ??
       CODE:1256 22              RET
                             LAB_CODE_1257                                   XREF[2]:     CODE:11cb(j), CODE:12d3(j)  
       CODE:1257 78 9d           MOV        R0,#0x9d
       CODE:1259 76 0a           MOV        @R0=>DAT_INTMEM_9d,#0xa                                    = ??
       CODE:125b 22              RET
                             LAB_CODE_125c                                   XREF[8]:     CODE:11fd(j), CODE:120d(j), 
                                                                                          CODE:1262(j), CODE:128d(j), 
                                                                                          CODE:129b(j), CODE:12af(j), 
                                                                                          CODE:12b1(j), CODE:12cf(j)  
       CODE:125c 22              RET
                             LAB_CODE_125d                                   XREF[1]:     CODE:12f8(j)  
       CODE:125d 12 00 78        LCALL      FUN_CODE_0078                                              undefined FUN_CODE_0078()
       CODE:1260 40 e6           JC         LAB_CODE_1248
       CODE:1262 d5 3d f7        DJNZ       DAT_INTMEM_3d,LAB_CODE_125c                                = ??
       CODE:1265 75 5a 09        MOV        DAT_INTMEM_5a,#0x9                                         = ??
       CODE:1268 75 5c 09        MOV        DAT_INTMEM_5c,#0x9                                         = ??
       CODE:126b 75 5b 00        MOV        DAT_INTMEM_5b,#0x0                                         = ??
       CODE:126e d2 46           SETB       28.6                                                       = ??
       CODE:1270 d2 33           SETB       26.3                                                       = ??
       CODE:1272 80 43           SJMP       LAB_CODE_12b7
                             LAB_CODE_1274                                   XREF[1]:     CODE:12fb(j)  
       CODE:1274 12 00 84        LCALL      FUN_CODE_0084                                              undefined FUN_CODE_0084()
       CODE:1277 50 05           JNC        LAB_CODE_127e
       CODE:1279 75 3d 82        MOV        DAT_INTMEM_3d,#0x82                                        = ??
       CODE:127c 80 cf           SJMP       LAB_CODE_124d
                             LAB_CODE_127e                                   XREF[1]:     CODE:1277(j)  
       CODE:127e 05 3e           INC        DAT_INTMEM_3e                                              = ??
       CODE:1280 e5 3e           MOV        A,DAT_INTMEM_3e                                            = ??
       CODE:1282 b4 06 4c        CJNE       A,#0x6,LAB_CODE_12d1
       CODE:1285 80 17           SJMP       LAB_CODE_129e
                             LAB_CODE_1287                                   XREF[1]:     CODE:12fe(j)  
       CODE:1287 20 13 23        JB         22.3,LAB_CODE_12ad                                         = ??
       CODE:128a 20 1e 2a        JB         23.6,LAB_CODE_12b7                                         = ??
       CODE:128d d5 3d cc        DJNZ       DAT_INTMEM_3d,LAB_CODE_125c                                = ??
       CODE:1290 75 3d 82        MOV        DAT_INTMEM_3d,#0x82                                        = ??
       CODE:1293 80 bd           SJMP       LAB_CODE_1252
                             LAB_CODE_1295                                   XREF[1]:     CODE:1301(j)  
       CODE:1295 20 13 15        JB         22.3,LAB_CODE_12ad                                         = ??
       CODE:1298 20 1e 1c        JB         23.6,LAB_CODE_12b7                                         = ??
       CODE:129b d5 3d be        DJNZ       DAT_INTMEM_3d,LAB_CODE_125c                                = ??
                             LAB_CODE_129e                                   XREF[1]:     CODE:1285(j)  
       CODE:129e 75 5a 0a        MOV        DAT_INTMEM_5a,#0xa                                         = ??
       CODE:12a1 75 5c 0a        MOV        DAT_INTMEM_5c,#0xa                                         = ??
       CODE:12a4 75 5b 00        MOV        DAT_INTMEM_5b,#0x0                                         = ??
       CODE:12a7 d2 46           SETB       28.6                                                       = ??
       CODE:12a9 d2 33           SETB       26.3                                                       = ??
       CODE:12ab 80 0a           SJMP       LAB_CODE_12b7
                             LAB_CODE_12ad                                   XREF[2]:     CODE:1287(j), CODE:1295(j)  
       CODE:12ad c2 0e           CLR        21.6                                                       = ??
       CODE:12af 80 ab           SJMP       LAB_CODE_125c
                             LAB_CODE_12b1                                   XREF[1]:     CODE:1304(j)  
       CODE:12b1 20 0f a8        JB         21.7,LAB_CODE_125c                                         = ??
       CODE:12b4 02 12 25        LJMP       LAB_CODE_1225
                             LAB_CODE_12b7                                   XREF[6]:     CODE:11f2(j), CODE:121d(j), 
                                                                                          CODE:1272(j), CODE:128a(j), 
                                                                                          CODE:1298(j), CODE:12ab(j)  
       CODE:12b7 75 3e 00        MOV        DAT_INTMEM_3e,#0x0                                         = ??
       CODE:12ba 05 3f           INC        DAT_INTMEM_3f                                              = ??
       CODE:12bc e5 3f           MOV        A,DAT_INTMEM_3f                                            = ??
       CODE:12be b4 05 10        CJNE       A,#0x5,LAB_CODE_12d1
       CODE:12c1 20 1e 03        JB         23.6,LAB_CODE_12c7                                         = ??
       CODE:12c4 75 5d 0d        MOV        DAT_INTMEM_5d,#0xd                                         = ??
                             LAB_CODE_12c7                                   XREF[1]:     CODE:12c1(j)  
       CODE:12c7 78 b0           MOV        R0,#0xb0
       CODE:12c9 a6 5d           MOV        @R0=>DAT_INTMEM_b0,DAT_INTMEM_5d                           = ??
       CODE:12cb d2 48           SETB       29.0                                                       = ??
       CODE:12cd c2 0e           CLR        21.6                                                       = ??
       CODE:12cf 80 8b           SJMP       LAB_CODE_125c
                             LAB_CODE_12d1                                   XREF[2]:     CODE:1282(j), CODE:12be(j)  
       CODE:12d1 d2 0f           SETB       21.7                                                       = ??
       CODE:12d3 80 82           SJMP       LAB_CODE_1257
                             **************************************************************
                             *                          FUNCTION                          *
                             **************************************************************
                             undefined FUN_CODE_12d5()
             undefined         ACC:1          <RETURN>
                             FUN_CODE_12d5                                   XREF[1]:     FUN_CODE_0756:07ce(c)  
       CODE:12d5 20 0e 05        JB         21.6,LAB_CODE_12dd                                         = ??
       CODE:12d8 78 9d           MOV        R0,#0x9d
       CODE:12da 76 00           MOV        @R0=>DAT_INTMEM_9d,#0x0                                    = ??
       CODE:12dc 22              RET
                             LAB_CODE_12dd                                   XREF[1]:     CODE:12d5(j)  
       CODE:12dd 78 9d           MOV        R0,#0x9d
       CODE:12df e6              MOV        A,@R0=>DAT_INTMEM_9d                                       = ??
       CODE:12e0 26              ADD        A,@R0=>DAT_INTMEM_9d                                       = ??
       CODE:12e1 26              ADD        A,@R0=>DAT_INTMEM_9d                                       = ??
       CODE:12e2 90 12 e6        MOV        DPTR,#LAB_CODE_12e6
       CODE:12e5 73              JMP        @A+DPTR
                             LAB_CODE_12e6                                   XREF[1]:     FUN_CODE_12d5:12e2(*)  
       CODE:12e6 02 11 b8        LJMP       LAB_CODE_11b8                                              state 0 - same as falcon
       CODE:12e9 02 11 ce        LJMP       LAB_CODE_11ce                                              state 1 - same as falcon
       CODE:12ec 02 11 d9        LJMP       LAB_CODE_11d9                                              state 2 - bring CPU out of reset
                                                                                                       (why so early????)
       CODE:12ef 02 11 e0        LJMP       LAB_CODE_11e0                                              state 3 - GPU_RESET_DONE must be 0.
                                                                                                       if it is, release GPU reset
       CODE:12f2 02 11 fd        LJMP       LAB_CODE_11fd                                              state 4 - wait a couple ticks,
                                                                                                       then release southbridge reset
       CODE:12f5 02 12 08        LJMP       LAB_CODE_1208                                              state 5 - GPU_RESET_DONE must be 1
       CODE:12f8 02 12 5d        LJMP       LAB_CODE_125d                                              state 6 - some flag must be set
       CODE:12fb 02 12 74        LJMP       LAB_CODE_1274                                              state 7 - some other flag must be set
                                                                                                       if it is, load timeout
       CODE:12fe 02 12 87        LJMP       LAB_CODE_1287                                              state 8 - timeout phase 1
       CODE:1301 02 12 95        LJMP       LAB_CODE_1295                                              state 9 - timeout phase 2
       CODE:1304 02 12 b1        LJMP       LAB_CODE_12b1                                              state 10 - wait for main reset
                                                                                                       sequence to finish, then start over
                             LAB_CODE_1307                                   XREF[4]:     CODE:1330(j), CODE:1338(j), 
                                                                                          CODE:1355(j), CODE:1368(j)  
       CODE:1307 78 a0           MOV        R0,#0xa0
       CODE:1309 76 00           MOV        @R0=>DAT_INTMEM_a0,#0x0                                    = ??
       CODE:130b 22              RET
                             LAB_CODE_130c                                   XREF[1]:     CODE:1323(j)  
       CODE:130c 78 a0           MOV        R0,#0xa0
       CODE:130e 76 01           MOV        @R0=>DAT_INTMEM_a0,#0x1                                    = ??
       CODE:1310 22              RET
                             LAB_CODE_1311                                   XREF[1]:     CODE:134d(j)  
       CODE:1311 78 a0           MOV        R0,#0xa0
       CODE:1313 76 02           MOV        @R0=>DAT_INTMEM_a0,#0x2                                    = ??
       CODE:1315 22              RET
                             LAB_CODE_1316                                   XREF[3]:     CODE:1348(j), CODE:135a(j), 
                                                                                          CODE:135c(j)  
       CODE:1316 22              RET
                             LAB_CODE_1317                                   XREF[1]:     CODE:1373(j)  
       CODE:1317 75 5f 04        MOV        DAT_INTMEM_5f,#0x4                                         = ??
       CODE:131a 12 26 06        LCALL      FUN_CODE_2606                                              undefined FUN_CODE_2606()
       CODE:131d f5 5e           MOV        DAT_INTMEM_5e,A                                            = ??
       CODE:131f 65 2f           XRL        A,DAT_INTMEM_2f                                            = ??
       CODE:1321 54 5c           ANL        A,#0x5c
       CODE:1323 70 e7           JNZ        LAB_CODE_130c
       CODE:1325 e5 5e           MOV        A,DAT_INTMEM_5e                                            = ??
       CODE:1327 64 5c           XRL        A,#0x5c
       CODE:1329 54 5c           ANL        A,#0x5c
       CODE:132b 70 05           JNZ        LAB_CODE_1332
                             LAB_CODE_132d                                   XREF[1]:     CODE:1332(j)  
       CODE:132d 12 25 e7        LCALL      FUN_CODE_25e7                                              undefined FUN_CODE_25e7()
       CODE:1330 80 d5           SJMP       LAB_CODE_1307
                             LAB_CODE_1332                                   XREF[1]:     CODE:132b(j)  
       CODE:1332 30 55 f8        JNB        2a.5,LAB_CODE_132d                                         = ??
       CODE:1335 12 25 e4        LCALL      FUN_CODE_25e4                                              undefined FUN_CODE_25e4()
       CODE:1338 80 cd           SJMP       LAB_CODE_1307
                             LAB_CODE_133a                                   XREF[1]:     CODE:1376(j)  
       CODE:133a 85 5e f0        MOV        B,DAT_INTMEM_5e                                            = ??
       CODE:133d 12 26 06        LCALL      FUN_CODE_2606                                              undefined FUN_CODE_2606()
       CODE:1340 f5 5e           MOV        DAT_INTMEM_5e,A                                            = ??
       CODE:1342 65 f0           XRL        A,B
       CODE:1344 54 5c           ANL        A,#0x5c
       CODE:1346 70 07           JNZ        LAB_CODE_134f
       CODE:1348 d5 5f cb        DJNZ       DAT_INTMEM_5f,LAB_CODE_1316                                = ??
       CODE:134b d2 30           SETB       26.0                                                       = ??
       CODE:134d 80 c2           SJMP       LAB_CODE_1311
                             LAB_CODE_134f                                   XREF[1]:     CODE:1346(j)  
       CODE:134f e5 5e           MOV        A,DAT_INTMEM_5e                                            = ??
       CODE:1351 65 2f           XRL        A,DAT_INTMEM_2f                                            = ??
       CODE:1353 54 5c           ANL        A,#0x5c
       CODE:1355 60 b0           JZ         LAB_CODE_1307
       CODE:1357 75 5f 04        MOV        DAT_INTMEM_5f,#0x4                                         = ??
       CODE:135a 80 ba           SJMP       LAB_CODE_1316
                             LAB_CODE_135c                                   XREF[1]:     CODE:1379(j)  
       CODE:135c 20 30 b7        JB         26.0,LAB_CODE_1316                                         = ??
       CODE:135f 85 5e 2f        MOV        DAT_INTMEM_2f,DAT_INTMEM_5e                                = ??
       CODE:1362 d2 37           SETB       26.7                                                       = ??
       CODE:1364 d2 43           SETB       28.3                                                       = ??
       CODE:1366 d2 48           SETB       29.0                                                       = ??
       CODE:1368 80 9d           SJMP       LAB_CODE_1307
                             **************************************************************
                             *                          FUNCTION                          *
                             **************************************************************
                             undefined FUN_CODE_136a()
             undefined         ACC:1          <RETURN>
                             FUN_CODE_136a                                   XREF[1]:     FUN_CODE_0756:07b3(c)  
       CODE:136a 78 a0           MOV        R0,#0xa0
       CODE:136c e6              MOV        A,@R0=>DAT_INTMEM_a0                                       = ??
       CODE:136d 26              ADD        A,@R0=>DAT_INTMEM_a0                                       = ??
       CODE:136e 26              ADD        A,@R0=>DAT_INTMEM_a0                                       = ??
       CODE:136f 90 13 73        MOV        DPTR,#LAB_CODE_1373
       CODE:1372 73              JMP        @A+DPTR
                             LAB_CODE_1373                                   XREF[1]:     FUN_CODE_136a:136f(*)  
       CODE:1373 02 13 17        LJMP       LAB_CODE_1317
       CODE:1376 02 13 3a        LJMP       LAB_CODE_133a
       CODE:1379 02 13 5c        LJMP       LAB_CODE_135c
                             LAB_CODE_137c                                   XREF[2]:     CODE:13b0(j), CODE:13c2(j)  
       CODE:137c 78 a1           MOV        R0,#0xa1
       CODE:137e 76 00           MOV        @R0=>DAT_INTMEM_a1,#0x0                                    = ??
       CODE:1380 22              RET
                             LAB_CODE_1381                                   XREF[1]:     CODE:13ab(j)  
       CODE:1381 78 a1           MOV        R0,#0xa1
       CODE:1383 76 01           MOV        @R0=>DAT_INTMEM_a1,#0x1                                    = ??
       CODE:1385 22              RET
                             LAB_CODE_1386                                   XREF[2]:     CODE:13b2(j), CODE:13be(j)  
       CODE:1386 78 a1           MOV        R0,#0xa1
       CODE:1388 76 02           MOV        @R0=>DAT_INTMEM_a1,#0x2                                    = ??
       CODE:138a 22              RET
                             LAB_CODE_138b                                   XREF[1]:     CODE:13b7(j)  
       CODE:138b 78 a1           MOV        R0,#0xa1
       CODE:138d 76 03           MOV        @R0=>DAT_INTMEM_a1,#0x3                                    = ??
       CODE:138f 22              RET
                             LAB_CODE_1390                                   XREF[2]:     CODE:13a9(j), CODE:13b9(j)  
       CODE:1390 22              RET
                             **************************************************************
                             *                          FUNCTION                          *
                             **************************************************************
                             undefined FUN_CODE_1391()
             undefined         ACC:1          <RETURN>
                             FUN_CODE_1391                                   XREF[1]:     FUN_CODE_0756:07ad(c)  
       CODE:1391 78 a1           MOV        R0,#0xa1
       CODE:1393 e6              MOV        A,@R0=>DAT_INTMEM_a1                                       = ??
       CODE:1394 26              ADD        A,@R0=>DAT_INTMEM_a1                                       = ??
       CODE:1395 26              ADD        A,@R0=>DAT_INTMEM_a1                                       = ??
       CODE:1396 90 13 9a        MOV        DPTR,#LAB_CODE_139a
       CODE:1399 73              JMP        @A+DPTR
                             LAB_CODE_139a                                   XREF[1]:     FUN_CODE_1391:1396(*)  
       CODE:139a 02 13 a6        LJMP       LAB_CODE_13a6
       CODE:139d 02 13 ad        LJMP       LAB_CODE_13ad
       CODE:13a0 02 13 b4        LJMP       LAB_CODE_13b4
       CODE:13a3 02 13 bb        LJMP       LAB_CODE_13bb
                             LAB_CODE_13a6                                   XREF[1]:     CODE:139a(j)  
       CODE:13a6 12 25 f8        LCALL      FUN_CODE_25f8                                              undefined FUN_CODE_25f8()
       CODE:13a9 40 e5           JC         LAB_CODE_1390
       CODE:13ab 80 d4           SJMP       LAB_CODE_1381
                             LAB_CODE_13ad                                   XREF[1]:     CODE:139d(j)  
       CODE:13ad 12 25 f8        LCALL      FUN_CODE_25f8                                              undefined FUN_CODE_25f8()
       CODE:13b0 40 ca           JC         LAB_CODE_137c
       CODE:13b2 80 d2           SJMP       LAB_CODE_1386
                             LAB_CODE_13b4                                   XREF[1]:     CODE:13a0(j)  
       CODE:13b4 12 25 f8        LCALL      FUN_CODE_25f8                                              undefined FUN_CODE_25f8()
       CODE:13b7 40 d2           JC         LAB_CODE_138b
       CODE:13b9 80 d5           SJMP       LAB_CODE_1390
                             LAB_CODE_13bb                                   XREF[1]:     CODE:13a3(j)  
       CODE:13bb 12 25 f8        LCALL      FUN_CODE_25f8                                              undefined FUN_CODE_25f8()
       CODE:13be 50 c6           JNC        LAB_CODE_1386
       CODE:13c0 d2 41           SETB       28.1                                                       = ??
       CODE:13c2 80 b8           SJMP       LAB_CODE_137c
                             LAB_CODE_13c4                                   XREF[1]:     CODE:1406(j)  
       CODE:13c4 78 a2           MOV        R0,#0xa2
       CODE:13c6 76 00           MOV        @R0=>DAT_INTMEM_a2,#0x0                                    = ??
       CODE:13c8 22              RET
                             LAB_CODE_13c9                                   XREF[2]:     CODE:1401(j), CODE:1403(j)  
       CODE:13c9 78 a2           MOV        R0,#0xa2
       CODE:13cb 76 01           MOV        @R0=>DAT_INTMEM_a2,#0x1                                    = ??
       CODE:13cd 22              RET
       CODE:13ce 22              ??         22h    "
                             LAB_CODE_13cf                                   XREF[1]:     CODE:1411(j)  
       CODE:13cf e5 3b           MOV        A,DAT_INTMEM_3b                                            = ??
       CODE:13d1 55 3c           ANL        A,DAT_INTMEM_3c                                            = ??
       CODE:13d3 70 05           JNZ        LAB_CODE_13da
       CODE:13d5 12 24 31        LCALL      FUN_CODE_2431                                              undefined FUN_CODE_2431()
       CODE:13d8 80 03           SJMP       LAB_CODE_13dd
                             LAB_CODE_13da                                   XREF[1]:     CODE:13d3(j)  
       CODE:13da 12 24 2e        LCALL      FUN_CODE_242e                                              undefined FUN_CODE_242e()
                             LAB_CODE_13dd                                   XREF[1]:     CODE:13d8(j)  
       CODE:13dd e5 3a           MOV        A,DAT_INTMEM_3a                                            = ??
       CODE:13df 55 3c           ANL        A,DAT_INTMEM_3c                                            = ??
       CODE:13e1 70 05           JNZ        LAB_CODE_13e8
       CODE:13e3 12 24 2d        LCALL      FUN_CODE_242d                                              undefined FUN_CODE_242d()
       CODE:13e6 80 03           SJMP       LAB_CODE_13eb
                             LAB_CODE_13e8                                   XREF[1]:     CODE:13e1(j)  
       CODE:13e8 12 24 2c        LCALL      FUN_CODE_242c                                              undefined FUN_CODE_242c()
                             LAB_CODE_13eb                                   XREF[1]:     CODE:13e6(j)  
       CODE:13eb e5 39           MOV        A,DAT_INTMEM_39                                            = ??
       CODE:13ed 55 3c           ANL        A,DAT_INTMEM_3c                                            = ??
       CODE:13ef 70 05           JNZ        LAB_CODE_13f6
       CODE:13f1 12 24 2b        LCALL      FUN_CODE_242b                                              undefined FUN_CODE_242b()
       CODE:13f4 80 03           SJMP       LAB_CODE_13f9
                             LAB_CODE_13f6                                   XREF[1]:     CODE:13ef(j)  
       CODE:13f6 12 24 2a        LCALL      FUN_CODE_242a                                              undefined FUN_CODE_242a()
                             LAB_CODE_13f9                                   XREF[1]:     CODE:13f4(j)  
       CODE:13f9 e5 3c           MOV        A,DAT_INTMEM_3c                                            = ??
       CODE:13fb 03              RR         A
       CODE:13fc f5 3c           MOV        DAT_INTMEM_3c,A                                            = ??
       CODE:13fe 75 38 05        MOV        DAT_INTMEM_38,#0x5                                         = ??
       CODE:1401 80 c6           SJMP       LAB_CODE_13c9
                             LAB_CODE_1403                                   XREF[1]:     CODE:1414(j)  
       CODE:1403 d5 38 c3        DJNZ       DAT_INTMEM_38,LAB_CODE_13c9                                = ??
       CODE:1406 80 bc           SJMP       LAB_CODE_13c4
                             **************************************************************
                             *                          FUNCTION                          *
                             **************************************************************
                             undefined FUN_CODE_1408()
             undefined         ACC:1          <RETURN>
                             FUN_CODE_1408                                   XREF[1]:     FUN_CODE_0756:07c2(c)  
       CODE:1408 78 a2           MOV        R0,#0xa2
       CODE:140a e6              MOV        A,@R0=>DAT_INTMEM_a2                                       = ??
       CODE:140b 26              ADD        A,@R0=>DAT_INTMEM_a2                                       = ??
       CODE:140c 26              ADD        A,@R0=>DAT_INTMEM_a2                                       = ??
       CODE:140d 90 14 11        MOV        DPTR,#LAB_CODE_1411
       CODE:1410 73              JMP        @A+DPTR
                             LAB_CODE_1411                                   XREF[1]:     FUN_CODE_1408:140d(*)  
       CODE:1411 02 13 cf        LJMP       LAB_CODE_13cf
       CODE:1414 02 14 03        LJMP       LAB_CODE_1403
                             LAB_CODE_1417                                   XREF[1]:     CODE:14ba(j)  
       CODE:1417 12 26 24        LCALL      FUN_CODE_2624                                              undefined FUN_CODE_2624()
       CODE:141a 40 05           JC         LAB_CODE_1421
       CODE:141c 12 26 20        LCALL      FUN_CODE_2620                                              undefined FUN_CODE_2620()
       CODE:141f 80 05           SJMP       LAB_CODE_1426
                             LAB_CODE_1421                                   XREF[3]:     CODE:141a(j), CODE:1449(j), 
                                                                                          CODE:14ae(j)  
       CODE:1421 78 a3           MOV        R0,#0xa3
       CODE:1423 76 00           MOV        @R0=>DAT_INTMEM_a3,#0x0                                    = ??
       CODE:1425 22              RET
                             LAB_CODE_1426                                   XREF[1]:     CODE:141f(j)  
       CODE:1426 78 a3           MOV        R0,#0xa3
       CODE:1428 76 01           MOV        @R0=>DAT_INTMEM_a3,#0x1                                    = ??
       CODE:142a 22              RET
                             LAB_CODE_142b                                   XREF[1]:     CODE:147e(j)  
       CODE:142b 78 a3           MOV        R0,#0xa3
       CODE:142d 76 02           MOV        @R0=>DAT_INTMEM_a3,#0x2                                    = ??
       CODE:142f 22              RET
                             LAB_CODE_1430                                   XREF[6]:     CODE:1438(j), CODE:144b(j), 
                                                                                          CODE:147a(j), CODE:14a5(j), 
                                                                                          CODE:14a7(j), CODE:14ac(j)  
       CODE:1430 22              RET
                             LAB_CODE_1431                                   XREF[1]:     CODE:14bd(j)  
       CODE:1431 12 26 24        LCALL      FUN_CODE_2624                                              undefined FUN_CODE_2624()
       CODE:1434 40 04           JC         LAB_CODE_143a
       CODE:1436 70 15           JNZ        LAB_CODE_144d
       CODE:1438 80 f6           SJMP       LAB_CODE_1430
                             LAB_CODE_143a                                   XREF[1]:     CODE:1434(j)  
       CODE:143a d2 d5           SETB       F0                                                         = ??
       CODE:143c c2 d1           CLR        UD                                                         = ??
       CODE:143e b4 df 02        CJNE       A,#0xdf,LAB_CODE_1443
       CODE:1441 80 06           SJMP       LAB_CODE_1449
                             LAB_CODE_1443                                   XREF[1]:     CODE:143e(j)  
       CODE:1443 c2 d5           CLR        F0                                                         = ??
       CODE:1445 92 d1           MOV        UD,CY                                                      = ??
       CODE:1447 b2 d1           CPL        UD                                                         = ??
                             LAB_CODE_1449                                   XREF[1]:     CODE:1441(j)  
       CODE:1449 50 d6           JNC        LAB_CODE_1421
       CODE:144b 80 e3           SJMP       LAB_CODE_1430
                             LAB_CODE_144d                                   XREF[1]:     CODE:1436(j)  
       CODE:144d 12 26 20        LCALL      FUN_CODE_2620                                              undefined FUN_CODE_2620()
       CODE:1450 d2 d5           SETB       F0                                                         = ??
       CODE:1452 c2 d1           CLR        UD                                                         = ??
       CODE:1454 b4 48 02        CJNE       A,#0x48,LAB_CODE_1459
       CODE:1457 80 06           SJMP       LAB_CODE_145f
                             LAB_CODE_1459                                   XREF[1]:     CODE:1454(j)  
       CODE:1459 c2 d5           CLR        F0                                                         = ??
       CODE:145b 92 d1           MOV        UD,CY                                                      = ??
       CODE:145d b2 d1           CPL        UD                                                         = ??
                             LAB_CODE_145f                                   XREF[1]:     CODE:1457(j)  
       CODE:145f 20 d1 1e        JB         UD,LAB_CODE_1480                                           = ??
       CODE:1462 d2 d5           SETB       F0                                                         = ??
       CODE:1464 c2 d1           CLR        UD                                                         = ??
       CODE:1466 b4 08 02        CJNE       A,#0x8,LAB_CODE_146b
       CODE:1469 80 06           SJMP       LAB_CODE_1471
                             LAB_CODE_146b                                   XREF[1]:     CODE:1466(j)  
       CODE:146b c2 d5           CLR        F0                                                         = ??
       CODE:146d 92 d1           MOV        UD,CY                                                      = ??
       CODE:146f b2 d1           CPL        UD                                                         = ??
                             LAB_CODE_1471                                   XREF[1]:     CODE:1469(j)  
       CODE:1471 40 0d           JC         LAB_CODE_1480
       CODE:1473 e5 2f           MOV        A,DAT_INTMEM_2f                                            = ??
       CODE:1475 20 e5 04        JB         ACC.5,LAB_CODE_147c                                        = ??
       CODE:1478 d2 0a           SETB       21.2                                                       = ??
       CODE:147a 80 b4           SJMP       LAB_CODE_1430
                             LAB_CODE_147c                                   XREF[1]:     CODE:1475(j)  
       CODE:147c d2 31           SETB       26.1                                                       = ??
       CODE:147e 80 ab           SJMP       LAB_CODE_142b
                             LAB_CODE_1480                                   XREF[2]:     CODE:145f(j), CODE:1471(j)  
       CODE:1480 d2 d5           SETB       F0                                                         = ??
       CODE:1482 c2 d1           CLR        UD                                                         = ??
       CODE:1484 b4 de 02        CJNE       A,#0xde,LAB_CODE_1489
       CODE:1487 80 06           SJMP       LAB_CODE_148f
                             LAB_CODE_1489                                   XREF[1]:     CODE:1484(j)  
       CODE:1489 c2 d5           CLR        F0                                                         = ??
       CODE:148b 92 d1           MOV        UD,CY                                                      = ??
       CODE:148d b2 d1           CPL        UD                                                         = ??
                             LAB_CODE_148f                                   XREF[1]:     CODE:1487(j)  
       CODE:148f 20 d1 15        JB         UD,LAB_CODE_14a7                                           = ??
       CODE:1492 d2 d5           SETB       F0                                                         = ??
       CODE:1494 c2 d1           CLR        UD                                                         = ??
       CODE:1496 b4 58 02        CJNE       A,#0x58,LAB_CODE_149b
       CODE:1499 80 06           SJMP       LAB_CODE_14a1
                             LAB_CODE_149b                                   XREF[1]:     CODE:1496(j)  
       CODE:149b c2 d5           CLR        F0                                                         = ??
       CODE:149d 92 d1           MOV        UD,CY                                                      = ??
       CODE:149f b2 d1           CPL        UD                                                         = ??
                             LAB_CODE_14a1                                   XREF[1]:     CODE:1499(j)  
       CODE:14a1 40 04           JC         LAB_CODE_14a7
       CODE:14a3 d2 0b           SETB       21.3                                                       = ??
       CODE:14a5 80 89           SJMP       LAB_CODE_1430
                             LAB_CODE_14a7                                   XREF[2]:     CODE:148f(j), CODE:14a1(j)  
       CODE:14a7 80 87           SJMP       LAB_CODE_1430
                             LAB_CODE_14a9                                   XREF[1]:     CODE:14c0(j)  
       CODE:14a9 30 31 02        JNB        26.1,LAB_CODE_14ae                                         = ??
       CODE:14ac 80 82           SJMP       LAB_CODE_1430
                             LAB_CODE_14ae                                   XREF[1]:     CODE:14a9(j)  
       CODE:14ae 02 14 21        LJMP       LAB_CODE_1421
                             **************************************************************
                             *                          FUNCTION                          *
                             **************************************************************
                             undefined FUN_CODE_14b1()
             undefined         ACC:1          <RETURN>
                             FUN_CODE_14b1                                   XREF[1]:     FUN_CODE_0756:07a7(c)  
       CODE:14b1 78 a3           MOV        R0,#0xa3
       CODE:14b3 e6              MOV        A,@R0=>DAT_INTMEM_a3                                       = ??
       CODE:14b4 26              ADD        A,@R0=>DAT_INTMEM_a3                                       = ??
       CODE:14b5 26              ADD        A,@R0=>DAT_INTMEM_a3                                       = ??
       CODE:14b6 90 14 ba        MOV        DPTR,#LAB_CODE_14ba
       CODE:14b9 73              JMP        @A+DPTR
                             LAB_CODE_14ba                                   XREF[1]:     FUN_CODE_14b1:14b6(*)  
       CODE:14ba 02 14 17        LJMP       LAB_CODE_1417
       CODE:14bd 02 14 31        LJMP       LAB_CODE_1431
       CODE:14c0 02 14 a9        LJMP       LAB_CODE_14a9
                             LAB_CODE_14c3                                   XREF[1]:     CODE:14d6(j)  
       CODE:14c3 02 15 86        LJMP       LAB_CODE_1586
                             **************************************************************
                             *                          FUNCTION                          *
                             **************************************************************
                             undefined FUN_CODE_14c6()
             undefined         ACC:1          <RETURN>
                             FUN_CODE_14c6                                   XREF[1]:     FUN_CODE_0756:07bf(c)  
       CODE:14c6 20 17 0d        JB         22.7,LAB_CODE_14d6                                         = ??
       CODE:14c9 75 57 42        MOV        DAT_INTMEM_57,#0x42                                        = ??
       CODE:14cc 75 56 0f        MOV        DAT_INTMEM_56,#0xf                                         = ??
       CODE:14cf 7a 00           MOV        R2,#0x0
       CODE:14d1 7b 00           MOV        R3,#0x0
       CODE:14d3 02 15 b8        LJMP       LAB_CODE_15b8
                             LAB_CODE_14d6                                   XREF[1]:     CODE:14c6(j)  
       CODE:14d6 d5 56 ea        DJNZ       DAT_INTMEM_56,LAB_CODE_14c3                                = ??
       CODE:14d9 75 56 32        MOV        DAT_INTMEM_56,#0x32                                        = ??
       CODE:14dc d2 4f           SETB       29.7                                                       = ??
       CODE:14de e5 41           MOV        A,DAT_INTMEM_41                                            = ??
       CODE:14e0 24 c3           ADD        A,#0xc3
       CODE:14e2 40 0e           JC         LAB_CODE_14f2
       CODE:14e4 e5 43           MOV        A,DAT_INTMEM_43                                            = ??
       CODE:14e6 24 b9           ADD        A,#0xb9
       CODE:14e8 40 08           JC         LAB_CODE_14f2
       CODE:14ea e5 45           MOV        A,DAT_INTMEM_45                                            = ??
       CODE:14ec 24 b9           ADD        A,#0xb9
       CODE:14ee 40 02           JC         LAB_CODE_14f2
       CODE:14f0 c2 4f           CLR        29.7                                                       = ??
                             LAB_CODE_14f2                                   XREF[3]:     CODE:14e2(j), CODE:14e8(j), 
                                                                                          CODE:14ee(j)  
       CODE:14f2 d2 50           SETB       2a.0                                                       = ??
       CODE:14f4 7a 05           MOV        R2,#0x5
       CODE:14f6 7b 05           MOV        R3,#0x5
       CODE:14f8 c3              CLR        CY
       CODE:14f9 e5 41           MOV        A,DAT_INTMEM_41                                            = ??
       CODE:14fb 95 51           SUBB       A,DAT_INTMEM_51                                            = ??
       CODE:14fd 50 18           JNC        LAB_CODE_1517
       CODE:14ff 7a 06           MOV        R2,#0x6
       CODE:1501 7b 06           MOV        R3,#0x6
       CODE:1503 c3              CLR        CY
       CODE:1504 e5 43           MOV        A,DAT_INTMEM_43                                            = ??
       CODE:1506 95 52           SUBB       A,DAT_INTMEM_52                                            = ??
       CODE:1508 50 0d           JNC        LAB_CODE_1517
       CODE:150a 7a 07           MOV        R2,#0x7
       CODE:150c 7b 07           MOV        R3,#0x7
       CODE:150e c3              CLR        CY
       CODE:150f e5 45           MOV        A,DAT_INTMEM_45                                            = ??
       CODE:1511 95 53           SUBB       A,DAT_INTMEM_53                                            = ??
       CODE:1513 50 02           JNC        LAB_CODE_1517
       CODE:1515 c2 50           CLR        2a.0                                                       = ??
                             LAB_CODE_1517                                   XREF[3]:     CODE:14fd(j), CODE:1508(j), 
                                                                                          CODE:1513(j)  
       CODE:1517 20 1d 6c        JB         23.5,LAB_CODE_1586                                         = ??
       CODE:151a 30 50 0f        JNB        2a.0,LAB_CODE_152c                                         = ??
       CODE:151d d2 1d           SETB       23.5                                                       = ??
       CODE:151f 8a 5a           MOV        DAT_INTMEM_5a,R2                                           = ??
       CODE:1521 8b 5c           MOV        DAT_INTMEM_5c,R3                                           = ??
       CODE:1523 75 5b 00        MOV        DAT_INTMEM_5b,#0x0                                         = ??
       CODE:1526 d2 46           SETB       28.6                                                       = ??
       CODE:1528 d2 33           SETB       26.3                                                       = ??
       CODE:152a 80 5a           SJMP       LAB_CODE_1586
                             LAB_CODE_152c                                   XREF[1]:     CODE:151a(j)  
       CODE:152c 12 15 c1        LCALL      FUN_CODE_15c1                                              undefined FUN_CODE_15c1()
       CODE:152f e5 49           MOV        A,DAT_INTMEM_49                                            = ??
       CODE:1531 60 53           JZ         LAB_CODE_1586
       CODE:1533 e5 4b           MOV        A,DAT_INTMEM_4b                                            = ??
       CODE:1535 60 4f           JZ         LAB_CODE_1586
       CODE:1537 e5 4d           MOV        A,DAT_INTMEM_4d                                            = ??
       CODE:1539 60 4b           JZ         LAB_CODE_1586
       CODE:153b 78 40           MOV        R0,#0x40
       CODE:153d 79 48           MOV        R1,#0x48
       CODE:153f aa 4e           MOV        R2,DAT_INTMEM_4e                                           = ??
       CODE:1541 12 16 32        LCALL      FUN_CODE_1632                                              undefined FUN_CODE_1632()
       CODE:1544 79 b3           MOV        R1,#0xb3
       CODE:1546 12 16 6a        LCALL      FUN_CODE_166a                                              undefined FUN_CODE_166a()
       CODE:1549 78 42           MOV        R0,#0x42
       CODE:154b 79 4a           MOV        R1,#0x4a
       CODE:154d aa 4f           MOV        R2,DAT_INTMEM_4f                                           = ??
       CODE:154f 12 16 32        LCALL      FUN_CODE_1632                                              undefined FUN_CODE_1632()
       CODE:1552 79 b5           MOV        R1,#0xb5
       CODE:1554 12 16 6a        LCALL      FUN_CODE_166a                                              undefined FUN_CODE_166a()
       CODE:1557 78 44           MOV        R0,#0x44
       CODE:1559 79 4c           MOV        R1,#0x4c
       CODE:155b aa 50           MOV        R2,DAT_INTMEM_50                                           = ??
       CODE:155d 12 16 32        LCALL      FUN_CODE_1632                                              undefined FUN_CODE_1632()
       CODE:1560 79 b7           MOV        R1,#0xb7
       CODE:1562 12 16 6a        LCALL      FUN_CODE_166a                                              undefined FUN_CODE_166a()
       CODE:1565 78 b3           MOV        R0,#0xb3
       CODE:1567 79 b5           MOV        R1,#0xb5
       CODE:1569 12 17 32        LCALL      FUN_CODE_1732                                              undefined FUN_CODE_1732()
       CODE:156c 79 b7           MOV        R1,#0xb7
       CODE:156e 12 17 32        LCALL      FUN_CODE_1732                                              undefined FUN_CODE_1732()
       CODE:1571 79 b3           MOV        R1,#0xb3
       CODE:1573 12 17 49        LCALL      FUN_CODE_1749                                              undefined FUN_CODE_1749()
       CODE:1576 79 b5           MOV        R1,#0xb5
       CODE:1578 12 17 49        LCALL      FUN_CODE_1749                                              undefined FUN_CODE_1749()
       CODE:157b 79 b7           MOV        R1,#0xb7
       CODE:157d 12 17 49        LCALL      FUN_CODE_1749                                              undefined FUN_CODE_1749()
       CODE:1580 08              INC        R0
       CODE:1581 e5 57           MOV        A,DAT_INTMEM_57                                            = ??
       CODE:1583 26              ADD        A,@R0=>DAT_INTMEM_b4                                       = ??
       CODE:1584 f5 57           MOV        DAT_INTMEM_57,A                                            = ??
                             LAB_CODE_1586                                   XREF[6]:     CODE:14c3(j), CODE:1517(j), 
                                                                                          CODE:152a(j), CODE:1531(j), 
                                                                                          CODE:1535(j), CODE:1539(j)  
       CODE:1586 7a 64           MOV        R2,#0x64
       CODE:1588 7b 64           MOV        R3,#0x64
       CODE:158a 20 4d 2b        JB         29.5,LAB_CODE_15b8                                         = ??
       CODE:158d 20 1d 28        JB         23.5,LAB_CODE_15b8                                         = ??
       CODE:1590 aa 57           MOV        R2,DAT_INTMEM_57                                           = ??
       CODE:1592 85 58 f0        MOV        B,DAT_INTMEM_58                                            = ??
       CODE:1595 30 f7 0c        JNB        B.7,LAB_CODE_15a4                                          = ??
       CODE:1598 c2 f7           CLR        B.7                                                        = ??
       CODE:159a aa f0           MOV        R2,B
       CODE:159c 74 9b           MOV        A,#0x9b
       CODE:159e 25 f0           ADD        A,B
       CODE:15a0 50 02           JNC        LAB_CODE_15a4
       CODE:15a2 7a 64           MOV        R2,#0x64
                             LAB_CODE_15a4                                   XREF[2]:     CODE:1595(j), CODE:15a0(j)  
       CODE:15a4 ab 57           MOV        R3,DAT_INTMEM_57                                           = ??
       CODE:15a6 85 59 f0        MOV        B,DAT_INTMEM_59                                            = ??
       CODE:15a9 30 f7 0c        JNB        B.7,LAB_CODE_15b8                                          = ??
       CODE:15ac c2 f7           CLR        B.7                                                        = ??
       CODE:15ae ab f0           MOV        R3,B
       CODE:15b0 74 9b           MOV        A,#0x9b
       CODE:15b2 25 f0           ADD        A,B
       CODE:15b4 50 02           JNC        LAB_CODE_15b8
       CODE:15b6 7b 64           MOV        R3,#0x64
                             LAB_CODE_15b8                                   XREF[5]:     CODE:14d3(j), CODE:158a(j), 
                                                                                          CODE:158d(j), CODE:15a9(j), 
                                                                                          CODE:15b4(j)  
       CODE:15b8 ea              MOV        A,R2
       CODE:15b9 12 25 ed        LCALL      FUN_CODE_25ed                                              undefined FUN_CODE_25ed()
       CODE:15bc eb              MOV        A,R3
       CODE:15bd 12 25 ea        LCALL      FUN_CODE_25ea                                              undefined FUN_CODE_25ea()
       CODE:15c0 22              RET
                             **************************************************************
                             *                          FUNCTION                          *
                             **************************************************************
                             undefined FUN_CODE_15c1()
             undefined         ACC:1          <RETURN>
                             FUN_CODE_15c1                                   XREF[1]:     FUN_CODE_14c6:152c(c)  
       CODE:15c1 e5 47           MOV        A,DAT_INTMEM_47                                            = ??
       CODE:15c3 30 4e 04        JNB        29.6,LAB_CODE_15ca                                         = ??
       CODE:15c6 24 ea           ADD        A,#0xea
       CODE:15c8 50 06           JNC        LAB_CODE_15d0
                             LAB_CODE_15ca                                   XREF[1]:     CODE:15c3(j)  
       CODE:15ca fa              MOV        R2,A
       CODE:15cb 24 df           ADD        A,#0xdf
       CODE:15cd fb              MOV        R3,A
       CODE:15ce 40 04           JC         LAB_CODE_15d4
                             LAB_CODE_15d0                                   XREF[1]:     CODE:15c8(j)  
       CODE:15d0 74 2c           MOV        A,#0x2c
       CODE:15d2 80 25           SJMP       LAB_CODE_15f9
                             LAB_CODE_15d4                                   XREF[1]:     CODE:15ce(j)  
       CODE:15d4 ea              MOV        A,R2
       CODE:15d5 24 c8           ADD        A,#0xc8
       CODE:15d7 50 04           JNC        LAB_CODE_15dd
       CODE:15d9 74 64           MOV        A,#0x64
       CODE:15db 80 1c           SJMP       LAB_CODE_15f9
                             LAB_CODE_15dd                                   XREF[1]:     CODE:15d7(j)  
       CODE:15dd 90 15 fc        MOV        DPTR,#DAT_CODE_15fc                                        = 2Ch    ,
       CODE:15e0 ea              MOV        A,R2
       CODE:15e1 24 cc           ADD        A,#0xcc
       CODE:15e3 92 d5           MOV        F0,CY                                                      = ??
       CODE:15e5 50 04           JNC        LAB_CODE_15eb
       CODE:15e7 fb              MOV        R3,A
       CODE:15e8 90 16 22        MOV        DPTR,#DAT_CODE_1622                                        = 49h    I
                             LAB_CODE_15eb                                   XREF[1]:     CODE:15e5(j)  
       CODE:15eb 85 46 f0        MOV        B,DAT_INTMEM_46                                            = ??
       CODE:15ee a2 f7           MOV        CY,B.7                                                     = ??
       CODE:15f0 eb              MOV        A,R3
       CODE:15f1 33              RLC        A
       CODE:15f2 30 d5 03        JNB        F0,LAB_CODE_15f8                                           = ??
       CODE:15f5 a2 f6           MOV        CY,B.6                                                     = ??
       CODE:15f7 33              RLC        A
                             LAB_CODE_15f8                                   XREF[1]:     CODE:15f2(j)  
       CODE:15f8 93              MOVC       A,@A+DPTR=>DAT_CODE_1622                                   = 49h    I
                             LAB_CODE_15f9                                   XREF[2]:     CODE:15d2(j), CODE:15db(j)  
       CODE:15f9 f5 57           MOV        DAT_INTMEM_57,A                                            = ??
       CODE:15fb 22              RET
                             DAT_CODE_15fc                                   XREF[1]:     FUN_CODE_15c1:15dd(*)  
       CODE:15fc 2c              ??         2Ch    ,
       CODE:15fd 2d              ??         2Dh    -
       CODE:15fe 2d              ??         2Dh    -
       CODE:15ff 2e              ??         2Eh    .
       CODE:1600 2f              ??         2Fh    /
       CODE:1601 30              ??         30h    0
       CODE:1602 31              ??         31h    1
       CODE:1603 31              ??         31h    1
       CODE:1604 32              ??         32h    2
       CODE:1605 33              ??         33h    3
       CODE:1606 33              ??         33h    3
       CODE:1607 33              ??         33h    3
       CODE:1608 34              ??         34h    4
       CODE:1609 34              ??         34h    4
       CODE:160a 35              ??         35h    5
       CODE:160b 35              ??         35h    5
       CODE:160c 36              ??         36h    6
       CODE:160d 37              ??         37h    7
       CODE:160e 37              ??         37h    7
       CODE:160f 38              ??         38h    8
       CODE:1610 39              ??         39h    9
       CODE:1611 39              ??         39h    9
       CODE:1612 3a              ??         3Ah    :
       CODE:1613 3b              ??         3Bh    ;
       CODE:1614 3b              ??         3Bh    ;
       CODE:1615 3c              ??         3Ch    <
       CODE:1616 3d              ??         3Dh    =
       CODE:1617 3e              ??         3Eh    >
       CODE:1618 3e              ??         3Eh    >
       CODE:1619 3f              ??         3Fh    ?
       CODE:161a 40              ??         40h    @
       CODE:161b 41              ??         41h    A
       CODE:161c 42              ??         42h    B
       CODE:161d 43              ??         43h    C
       CODE:161e 45              ??         45h    E
       CODE:161f 46              ??         46h    F
       CODE:1620 47              ??         47h    G
       CODE:1621 48              ??         48h    H
                             DAT_CODE_1622                                   XREF[2]:     FUN_CODE_15c1:15e8(*), 
                                                                                          FUN_CODE_15c1:15f8(*)  
       CODE:1622 49              ??         49h    I
       CODE:1623 4a              ??         4Ah    J
       CODE:1624 4b              ??         4Bh    K
       CODE:1625 4c              ??         4Ch    L
       CODE:1626 4e              ??         4Eh    N
       CODE:1627 4f              ??         4Fh    O
       CODE:1628 51              ??         51h    Q
       CODE:1629 53              ??         53h    S
       CODE:162a 55              ??         55h    U
       CODE:162b 58              ??         58h    X
       CODE:162c 5a              ??         5Ah    Z
       CODE:162d 5e              ??         5Eh    ^
       CODE:162e 61              ??         61h    a
       CODE:162f 64              ??         64h    d
       CODE:1630 64              ??         64h    d
       CODE:1631 64              ??         64h    d
                             **************************************************************
                             *                          FUNCTION                          *
                             **************************************************************
                             undefined FUN_CODE_1632()
             undefined         ACC:1          <RETURN>
                             FUN_CODE_1632                                   XREF[3]:     FUN_CODE_14c6:1541(c), 
                                                                                          FUN_CODE_14c6:154f(c), 
                                                                                          FUN_CODE_14c6:155d(c)  
       CODE:1632 c3              CLR        CY
       CODE:1633 e6              MOV        A,@R0
       CODE:1634 87 f0           MOV        B,@R1
       CODE:1636 95 f0           SUBB       A,B
       CODE:1638 fc              MOV        R4,A
       CODE:1639 08              INC        R0
       CODE:163a 09              INC        R1
       CODE:163b e6              MOV        A,@R0
       CODE:163c 87 f0           MOV        B,@R1
       CODE:163e 95 f0           SUBB       A,B
       CODE:1640 fd              MOV        R5,A
       CODE:1641 18              DEC        R0
       CODE:1642 a2 e7           MOV        CY,ACC.7                                                   = ??
       CODE:1644 92 d5           MOV        F0,CY                                                      = ??
       CODE:1646 50 0a           JNC        LAB_CODE_1652
       CODE:1648 ec              MOV        A,R4
       CODE:1649 f4              CPL        A
       CODE:164a 24 01           ADD        A,#0x1
       CODE:164c fc              MOV        R4,A
       CODE:164d ed              MOV        A,R5
       CODE:164e f4              CPL        A
       CODE:164f 34 00           ADDC       A,#0x0
       CODE:1651 fd              MOV        R5,A
                             LAB_CODE_1652                                   XREF[1]:     CODE:1646(j)  
       CODE:1652 e6              MOV        A,@R0
       CODE:1653 fe              MOV        R6,A
       CODE:1654 c3              CLR        CY
       CODE:1655 08              INC        R0
       CODE:1656 e6              MOV        A,@R0
       CODE:1657 9a              SUBB       A,R2
       CODE:1658 ff              MOV        R7,A
       CODE:1659 a2 e7           MOV        CY,ACC.7                                                   = ??
       CODE:165b 92 d1           MOV        UD,CY                                                      = ??
       CODE:165d 50 0a           JNC        LAB_CODE_1669
       CODE:165f ee              MOV        A,R6
       CODE:1660 f4              CPL        A
       CODE:1661 24 01           ADD        A,#0x1
       CODE:1663 fe              MOV        R6,A
       CODE:1664 ef              MOV        A,R7
       CODE:1665 f4              CPL        A
       CODE:1666 34 00           ADDC       A,#0x0
       CODE:1668 ff              MOV        R7,A
                             LAB_CODE_1669                                   XREF[1]:     CODE:165d(j)  
       CODE:1669 22              RET
                             **************************************************************
                             *                          FUNCTION                          *
                             **************************************************************
                             undefined FUN_CODE_166a()
             undefined         ACC:1          <RETURN>
                             FUN_CODE_166a                                   XREF[3]:     FUN_CODE_14c6:1546(c), 
                                                                                          FUN_CODE_14c6:1554(c), 
                                                                                          FUN_CODE_14c6:1562(c)  
       CODE:166a ef              MOV        A,R7
       CODE:166b 24 fb           ADD        A,#0xfb
       CODE:166d 20 d1 21        JB         UD,LAB_CODE_1691                                           = ??
       CODE:1670 7a 16           MOV        R2,#0x16
       CODE:1672 50 02           JNC        LAB_CODE_1676
       CODE:1674 7a 4b           MOV        R2,#0x4b
                             LAB_CODE_1676                                   XREF[1]:     CODE:1672(j)  
       CODE:1676 ee              MOV        A,R6
       CODE:1677 8a f0           MOV        B,R2
       CODE:1679 a4              MUL        AB
       CODE:167a e5 f0           MOV        A,B
       CODE:167c 27              ADD        A,@R1
       CODE:167d f7              MOV        @R1,A
       CODE:167e 50 03           JNC        LAB_CODE_1683
       CODE:1680 09              INC        R1
       CODE:1681 07              INC        @R1
       CODE:1682 19              DEC        R1
                             LAB_CODE_1683                                   XREF[1]:     CODE:167e(j)  
       CODE:1683 ef              MOV        A,R7
       CODE:1684 8a f0           MOV        B,R2
       CODE:1686 a4              MUL        AB
       CODE:1687 27              ADD        A,@R1
       CODE:1688 f7              MOV        @R1,A
       CODE:1689 09              INC        R1
       CODE:168a e5 f0           MOV        A,B
       CODE:168c 37              ADDC       A,@R1
       CODE:168d f7              MOV        @R1,A
       CODE:168e 19              DEC        R1
       CODE:168f 80 23           SJMP       LAB_CODE_16b4
                             LAB_CODE_1691                                   XREF[1]:     CODE:166d(j)  
       CODE:1691 7a 07           MOV        R2,#0x7
       CODE:1693 50 02           JNC        LAB_CODE_1697
       CODE:1695 7a 07           MOV        R2,#0x7
                             LAB_CODE_1697                                   XREF[1]:     CODE:1693(j)  
       CODE:1697 ee              MOV        A,R6
       CODE:1698 8a f0           MOV        B,R2
       CODE:169a a4              MUL        AB
       CODE:169b c3              CLR        CY
       CODE:169c e7              MOV        A,@R1
       CODE:169d 95 f0           SUBB       A,B
       CODE:169f f7              MOV        @R1,A
       CODE:16a0 50 03           JNC        LAB_CODE_16a5
       CODE:16a2 09              INC        R1
       CODE:16a3 17              DEC        @R1
       CODE:16a4 19              DEC        R1
                             LAB_CODE_16a5                                   XREF[1]:     CODE:16a0(j)  
       CODE:16a5 ef              MOV        A,R7
       CODE:16a6 8a f0           MOV        B,R2
       CODE:16a8 a4              MUL        AB
       CODE:16a9 c3              CLR        CY
       CODE:16aa fe              MOV        R6,A
       CODE:16ab e7              MOV        A,@R1
       CODE:16ac 9e              SUBB       A,R6
       CODE:16ad f7              MOV        @R1,A
       CODE:16ae 09              INC        R1
       CODE:16af e7              MOV        A,@R1
       CODE:16b0 95 f0           SUBB       A,B
       CODE:16b2 f7              MOV        @R1,A
       CODE:16b3 19              DEC        R1
                             LAB_CODE_16b4                                   XREF[1]:     CODE:168f(j)  
       CODE:16b4 30 d1 07        JNB        UD,LAB_CODE_16be                                           = ??
       CODE:16b7 ef              MOV        A,R7
       CODE:16b8 24 eb           ADD        A,#0xeb
       CODE:16ba 50 02           JNC        LAB_CODE_16be
       CODE:16bc 80 4d           SJMP       LAB_CODE_170b
                             LAB_CODE_16be                                   XREF[2]:     CODE:16b4(j), CODE:16ba(j)  
       CODE:16be ed              MOV        A,R5
       CODE:16bf 24 fe           ADD        A,#0xfe
       CODE:16c1 50 04           JNC        LAB_CODE_16c7
       CODE:16c3 7d 02           MOV        R5,#0x2
       CODE:16c5 7c 00           MOV        R4,#0x0
                             LAB_CODE_16c7                                   XREF[1]:     CODE:16c1(j)  
       CODE:16c7 c3              CLR        CY
       CODE:16c8 ec              MOV        A,R4
       CODE:16c9 33              RLC        A
       CODE:16ca fc              MOV        R4,A
       CODE:16cb ed              MOV        A,R5
       CODE:16cc 33              RLC        A
       CODE:16cd fd              MOV        R5,A
       CODE:16ce 7a c8           MOV        R2,#0xc8
       CODE:16d0 20 d5 1b        JB         F0,LAB_CODE_16ee                                           = ??
       CODE:16d3 ec              MOV        A,R4
       CODE:16d4 8a f0           MOV        B,R2
       CODE:16d6 a4              MUL        AB
       CODE:16d7 e5 f0           MOV        A,B
       CODE:16d9 27              ADD        A,@R1
       CODE:16da f7              MOV        @R1,A
       CODE:16db 50 03           JNC        LAB_CODE_16e0
       CODE:16dd 09              INC        R1
       CODE:16de 07              INC        @R1
       CODE:16df 19              DEC        R1
                             LAB_CODE_16e0                                   XREF[1]:     CODE:16db(j)  
       CODE:16e0 ed              MOV        A,R5
       CODE:16e1 8a f0           MOV        B,R2
       CODE:16e3 a4              MUL        AB
       CODE:16e4 27              ADD        A,@R1
       CODE:16e5 f7              MOV        @R1,A
       CODE:16e6 09              INC        R1
       CODE:16e7 e5 f0           MOV        A,B
       CODE:16e9 37              ADDC       A,@R1
       CODE:16ea f7              MOV        @R1,A
       CODE:16eb 19              DEC        R1
       CODE:16ec 80 1d           SJMP       LAB_CODE_170b
                             LAB_CODE_16ee                                   XREF[1]:     CODE:16d0(j)  
       CODE:16ee ec              MOV        A,R4
       CODE:16ef 8a f0           MOV        B,R2
       CODE:16f1 a4              MUL        AB
       CODE:16f2 c3              CLR        CY
       CODE:16f3 e7              MOV        A,@R1
       CODE:16f4 95 f0           SUBB       A,B
       CODE:16f6 f7              MOV        @R1,A
       CODE:16f7 50 03           JNC        LAB_CODE_16fc
       CODE:16f9 09              INC        R1
       CODE:16fa 17              DEC        @R1
       CODE:16fb 19              DEC        R1
                             LAB_CODE_16fc                                   XREF[1]:     CODE:16f7(j)  
       CODE:16fc ed              MOV        A,R5
       CODE:16fd 8a f0           MOV        B,R2
       CODE:16ff a4              MUL        AB
       CODE:1700 c3              CLR        CY
       CODE:1701 fe              MOV        R6,A
       CODE:1702 e7              MOV        A,@R1
       CODE:1703 9e              SUBB       A,R6
       CODE:1704 f7              MOV        @R1,A
       CODE:1705 09              INC        R1
       CODE:1706 e7              MOV        A,@R1
       CODE:1707 95 f0           SUBB       A,B
       CODE:1709 f7              MOV        @R1,A
       CODE:170a 19              DEC        R1
                             LAB_CODE_170b                                   XREF[2]:     CODE:16bc(j), CODE:16ec(j)  
       CODE:170b 09              INC        R1
       CODE:170c e7              MOV        A,@R1
       CODE:170d 25 57           ADD        A,DAT_INTMEM_57                                            = ??
       CODE:170f fc              MOV        R4,A
       CODE:1710 20 d2 15        JB         OV,LAB_CODE_1728                                           = ??
       CODE:1713 20 e7 0b        JB         ACC.7,LAB_CODE_1721                                        = ??
       CODE:1716 ec              MOV        A,R4
       CODE:1717 24 9c           ADD        A,#0x9c
       CODE:1719 40 0d           JC         LAB_CODE_1728
       CODE:171b ec              MOV        A,R4
       CODE:171c 24 d4           ADD        A,#0xd4
       CODE:171e 50 01           JNC        LAB_CODE_1721
       CODE:1720 22              RET
                             LAB_CODE_1721                                   XREF[2]:     CODE:1713(j), CODE:171e(j)  
       CODE:1721 c3              CLR        CY
       CODE:1722 74 2c           MOV        A,#0x2c
       CODE:1724 95 57           SUBB       A,DAT_INTMEM_57                                            = ??
       CODE:1726 80 05           SJMP       LAB_CODE_172d
                             LAB_CODE_1728                                   XREF[2]:     CODE:1710(j), CODE:1719(j)  
       CODE:1728 c3              CLR        CY
       CODE:1729 74 64           MOV        A,#0x64
       CODE:172b 95 57           SUBB       A,DAT_INTMEM_57                                            = ??
                             LAB_CODE_172d                                   XREF[1]:     CODE:1726(j)  
       CODE:172d f7              MOV        @R1,A
       CODE:172e 19              DEC        R1
       CODE:172f 77 00           MOV        @R1,#0x0
       CODE:1731 22              RET
                             **************************************************************
                             *                          FUNCTION                          *
                             **************************************************************
                             undefined FUN_CODE_1732()
             undefined         ACC:1          <RETURN>
                             FUN_CODE_1732                                   XREF[2]:     FUN_CODE_14c6:1569(c), 
                                                                                          FUN_CODE_14c6:156e(c)  
       CODE:1732 c3              CLR        CY
       CODE:1733 e6              MOV        A,@R0
       CODE:1734 97              SUBB       A,@R1
       CODE:1735 08              INC        R0
       CODE:1736 09              INC        R1
       CODE:1737 e6              MOV        A,@R0
       CODE:1738 97              SUBB       A,@R1
       CODE:1739 20 d2 05        JB         OV,LAB_CODE_1741                                           = ??
       CODE:173c 30 e7 08        JNB        ACC.7,LAB_CODE_1747                                        = ??
       CODE:173f 80 04           SJMP       LAB_CODE_1745
                             LAB_CODE_1741                                   XREF[1]:     CODE:1739(j)  
       CODE:1741 e7              MOV        A,@R1
       CODE:1742 20 e7 02        JB         ACC.7,LAB_CODE_1747                                        = ??
                             LAB_CODE_1745                                   XREF[1]:     CODE:173f(j)  
       CODE:1745 e9              MOV        A,R1
       CODE:1746 f8              MOV        R0,A
                             LAB_CODE_1747                                   XREF[2]:     CODE:173c(j), CODE:1742(j)  
       CODE:1747 18              DEC        R0
       CODE:1748 22              RET
                             **************************************************************
                             *                          FUNCTION                          *
                             **************************************************************
                             undefined FUN_CODE_1749()
             undefined         ACC:1          <RETURN>
                             FUN_CODE_1749                                   XREF[3]:     FUN_CODE_14c6:1573(c), 
                                                                                          FUN_CODE_14c6:1578(c), 
                                                                                          FUN_CODE_14c6:157d(c)  
       CODE:1749 c3              CLR        CY
       CODE:174a e6              MOV        A,@R0
       CODE:174b 97              SUBB       A,@R1
       CODE:174c 08              INC        R0
       CODE:174d 09              INC        R1
       CODE:174e e6              MOV        A,@R0
       CODE:174f 97              SUBB       A,@R1
       CODE:1750 24 ff           ADD        A,#0xff
       CODE:1752 40 02           JC         LAB_CODE_1756
       CODE:1754 18              DEC        R0
       CODE:1755 22              RET
                             LAB_CODE_1756                                   XREF[1]:     CODE:1752(j)  
       CODE:1756 e6              MOV        A,@R0
       CODE:1757 24 ff           ADD        A,#0xff
       CODE:1759 f7              MOV        @R1,A
       CODE:175a 18              DEC        R0
       CODE:175b 19              DEC        R1
       CODE:175c e6              MOV        A,@R0
       CODE:175d f7              MOV        @R1,A
       CODE:175e 22              RET
                             LAB_CODE_175f                                   XREF[1]:     CODE:1809(j)  
       CODE:175f 74 00           MOV        A,#0x0
       CODE:1761 12 2a 85        LCALL      FUN_CODE_2a85                                              undefined FUN_CODE_2a85()
       CODE:1764 c2 42           CLR        28.2                                                       = ??
       CODE:1766 02 19 53        LJMP       LAB_CODE_1953
                             LAB_CODE_1769                                   XREF[1]:     CODE:1814(j)  
       CODE:1769 74 10           MOV        A,#0x10
       CODE:176b a2 05           MOV        CY,20.5                                                    = ??
       CODE:176d 92 e0           MOV        ACC.0,CY                                                   = ??
       CODE:176f d2 e1           SETB       ACC.1                                                      = ??
       CODE:1771 12 2a 85        LCALL      FUN_CODE_2a85                                              undefined FUN_CODE_2a85()
       CODE:1774 c2 43           CLR        28.3                                                       = ??
       CODE:1776 02 19 53        LJMP       LAB_CODE_1953
                             LAB_CODE_1779                                   XREF[1]:     CODE:181f(j)  
       CODE:1779 85 62 f0        MOV        B,DAT_INTMEM_62                                            = ??
       CODE:177c c3              CLR        CY
       CODE:177d 78 b0           MOV        R0,#0xb0
       CODE:177f e6              MOV        A,@R0=>DAT_INTMEM_b0                                       = ??
       CODE:1780 70 05           JNZ        LAB_CODE_1787
       CODE:1782 20 f5 02        JB         B.5,LAB_CODE_1787                                          = ??
       CODE:1785 a2 f4           MOV        CY,B.4                                                     = ??
                             LAB_CODE_1787                                   XREF[2]:     CODE:1780(j), CODE:1782(j)  
       CODE:1787 74 80           MOV        A,#0x80
       CODE:1789 30 f7 1f        JNB        B.7,LAB_CODE_17ab                                          = ??
       CODE:178c 92 e0           MOV        ACC.0,CY                                                   = ??
       CODE:178e c2 f4           CLR        B.4                                                        = ??
       CODE:1790 85 f0 62        MOV        DAT_INTMEM_62,B                                            = ??
       CODE:1793 20 f2 0d        JB         B.2,LAB_CODE_17a3                                          = ??
       CODE:1796 20 f3 0a        JB         B.3,LAB_CODE_17a3                                          = ??
       CODE:1799 a2 f0           MOV        CY,B.0                                                     = ??
       CODE:179b 92 e2           MOV        ACC.2,CY                                                   = ??
       CODE:179d a2 f1           MOV        CY,B.1                                                     = ??
       CODE:179f 92 e3           MOV        ACC.3,CY                                                   = ??
       CODE:17a1 80 08           SJMP       LAB_CODE_17ab
                             LAB_CODE_17a3                                   XREF[2]:     CODE:1793(j), CODE:1796(j)  
       CODE:17a3 a2 f2           MOV        CY,B.2                                                     = ??
       CODE:17a5 92 e2           MOV        ACC.2,CY                                                   = ??
       CODE:17a7 a2 f3           MOV        CY,B.3                                                     = ??
       CODE:17a9 92 e3           MOV        ACC.3,CY                                                   = ??
                             LAB_CODE_17ab                                   XREF[2]:     CODE:1789(j), CODE:17a1(j)  
       CODE:17ab 12 2a 85        LCALL      FUN_CODE_2a85                                              undefined FUN_CODE_2a85()
       CODE:17ae c2 47           CLR        28.7                                                       = ??
       CODE:17b0 02 19 53        LJMP       LAB_CODE_1953
                             LAB_CODE_17b3                                   XREF[1]:     CODE:181a(j)  
       CODE:17b3 74 08           MOV        A,#0x8
       CODE:17b5 a2 03           MOV        CY,20.3                                                    = ??
       CODE:17b7 b3              CPL        CY
       CODE:17b8 72 15           ORL        CY,22.5                                                    = ??
       CODE:17ba 92 e0           MOV        ACC.0,CY                                                   = ??
       CODE:17bc 12 2a 85        LCALL      FUN_CODE_2a85                                              undefined FUN_CODE_2a85()
       CODE:17bf c2 4a           CLR        29.2                                                       = ??
       CODE:17c1 c2 15           CLR        22.5                                                       = ??
       CODE:17c3 02 19 53        LJMP       LAB_CODE_1953
                             LAB_CODE_17c6                                   XREF[1]:     CODE:180f(j)  
       CODE:17c6 74 40           MOV        A,#0x40
       CODE:17c8 12 2a 85        LCALL      FUN_CODE_2a85                                              undefined FUN_CODE_2a85()
       CODE:17cb 02 19 71        LJMP       LAB_CODE_1971
                             LAB_CODE_17ce                                   XREF[1]:     CODE:1839(j)  
       CODE:17ce 74 20           MOV        A,#0x20
       CODE:17d0 78 80           MOV        R0,#0x80
       CODE:17d2 86 f0           MOV        B,@R0=>DAT_INTMEM_80                                       = ??
       CODE:17d4 c3              CLR        CY
       CODE:17d5 30 57 03        JNB        2a.7,LAB_CODE_17db                                         = ??
       CODE:17d8 a2 58           MOV        CY,2b.0                                                    = ??
       CODE:17da b3              CPL        CY
                             LAB_CODE_17db                                   XREF[1]:     CODE:17d5(j)  
       CODE:17db 92 f7           MOV        B.7,CY                                                     = ??
       CODE:17dd 12 2a 85        LCALL      FUN_CODE_2a85                                              undefined FUN_CODE_2a85()
       CODE:17e0 c2 45           CLR        28.5                                                       = ??
       CODE:17e2 02 19 53        LJMP       LAB_CODE_1953
                             LAB_CODE_17e5                                   XREF[1]:     CODE:183d(j)  
       CODE:17e5 7a 10           MOV        R2,#0x10
       CODE:17e7 74 01           MOV        A,#0x1
                             LAB_CODE_17e9                                   XREF[1]:     CODE:17f0(j)  
       CODE:17e9 1a              DEC        R2
       CODE:17ea 03              RR         A
       CODE:17eb 85 34 f0        MOV        B,DAT_INTMEM_34                                            = ??
       CODE:17ee 52 f0           ANL        B,A
       CODE:17f0 b5 f0 f6        CJNE       A,B,LAB_CODE_17e9
       CODE:17f3 f5 60           MOV        DAT_INTMEM_60,A                                            = ??
       CODE:17f5 f4              CPL        A
       CODE:17f6 52 34           ANL        DAT_INTMEM_34,A                                            = ??
       CODE:17f8 74 40           MOV        A,#0x40
       CODE:17fa 2a              ADD        A,R2
       CODE:17fb 12 2a 85        LCALL      FUN_CODE_2a85                                              undefined FUN_CODE_2a85()
       CODE:17fe 02 19 76        LJMP       LAB_CODE_1976
                             LAB_CODE_1801                                   XREF[1]:     CODE:1a1f(j)  
       CODE:1801 d2 40           SETB       28.0                                                       = ??
       CODE:1803 30 3f 3e        JNB        27.7,LAB_CODE_1844                                         = ??
       CODE:1806 30 42 03        JNB        28.2,LAB_CODE_180c                                         = ??
       CODE:1809 02 17 5f        LJMP       LAB_CODE_175f
                             LAB_CODE_180c                                   XREF[1]:     CODE:1806(j)  
       CODE:180c 30 44 02        JNB        28.4,LAB_CODE_1811                                         = ??
       CODE:180f 80 b5           SJMP       LAB_CODE_17c6
                             LAB_CODE_1811                                   XREF[1]:     CODE:180c(j)  
       CODE:1811 30 43 03        JNB        28.3,LAB_CODE_1817                                         = ??
       CODE:1814 02 17 69        LJMP       LAB_CODE_1769
                             LAB_CODE_1817                                   XREF[1]:     CODE:1811(j)  
       CODE:1817 30 4a 02        JNB        29.2,LAB_CODE_181c                                         = ??
       CODE:181a 80 97           SJMP       LAB_CODE_17b3
                             LAB_CODE_181c                                   XREF[1]:     CODE:1817(j)  
       CODE:181c 30 47 03        JNB        28.7,LAB_CODE_1822                                         = ??
       CODE:181f 02 17 79        LJMP       LAB_CODE_1779
                             LAB_CODE_1822                                   XREF[1]:     CODE:181c(j)  
       CODE:1822 30 46 02        JNB        28.6,LAB_CODE_1827                                         = ??
       CODE:1825 80 22           SJMP       LAB_CODE_1849
                             LAB_CODE_1827                                   XREF[1]:     CODE:1822(j)  
       CODE:1827 30 49 02        JNB        29.1,LAB_CODE_182c                                         = ??
       CODE:182a 80 35           SJMP       LAB_CODE_1861
                             LAB_CODE_182c                                   XREF[1]:     CODE:1827(j)  
       CODE:182c 30 48 02        JNB        29.0,LAB_CODE_1831                                         = ??
       CODE:182f 80 77           SJMP       LAB_CODE_18a8
                             LAB_CODE_1831                                   XREF[1]:     CODE:182c(j)  
       CODE:1831 30 41 02        JNB        28.1,LAB_CODE_1836                                         = ??
       CODE:1834 80 38           SJMP       LAB_CODE_186e
                             LAB_CODE_1836                                   XREF[1]:     CODE:1831(j)  
       CODE:1836 30 45 02        JNB        28.5,LAB_CODE_183b                                         = ??
       CODE:1839 80 93           SJMP       LAB_CODE_17ce
                             LAB_CODE_183b                                   XREF[1]:     CODE:1836(j)  
       CODE:183b e5 34           MOV        A,DAT_INTMEM_34                                            = ??
       CODE:183d 70 a6           JNZ        LAB_CODE_17e5
       CODE:183f 30 4b 02        JNB        29.3,LAB_CODE_1844                                         = ??
       CODE:1842 80 43           SJMP       LAB_CODE_1887
                             LAB_CODE_1844                                   XREF[2]:     CODE:1803(j), CODE:183f(j)  
       CODE:1844 c2 40           CLR        28.0                                                       = ??
       CODE:1846 02 19 7b        LJMP       LAB_CODE_197b
                             LAB_CODE_1849                                   XREF[1]:     CODE:1825(j)  
       CODE:1849 c2 46           CLR        28.6                                                       = ??
       CODE:184b e5 5c           MOV        A,DAT_INTMEM_5c                                            = ??
       CODE:184d f5 60           MOV        DAT_INTMEM_60,A                                            = ??
       CODE:184f 24 c8           ADD        A,#0xc8
       CODE:1851 40 18           JC         LAB_CODE_186b
       CODE:1853 e5 60           MOV        A,DAT_INTMEM_60                                            = ??
       CODE:1855 75 f0 08        MOV        B,#0x8
       CODE:1858 84              DIV        AB
       CODE:1859 24 41           ADD        A,#0x41
       CODE:185b 12 2a 85        LCALL      FUN_CODE_2a85                                              undefined FUN_CODE_2a85()
       CODE:185e 02 19 58        LJMP       LAB_CODE_1958
                             LAB_CODE_1861                                   XREF[1]:     CODE:182a(j)  
       CODE:1861 c2 49           CLR        29.1                                                       = ??
       CODE:1863 74 42           MOV        A,#0x42
       CODE:1865 12 2a 85        LCALL      FUN_CODE_2a85                                              undefined FUN_CODE_2a85()
       CODE:1868 02 19 5d        LJMP       LAB_CODE_195d
                             LAB_CODE_186b                                   XREF[4]:     CODE:1851(j), CODE:1872(j), 
                                                                                          CODE:1875(j), CODE:187b(j)  
       CODE:186b 02 19 7b        LJMP       LAB_CODE_197b
                             LAB_CODE_186e                                   XREF[1]:     CODE:1834(j)  
       CODE:186e c2 41           CLR        28.1                                                       = ??
       CODE:1870 e5 62           MOV        A,DAT_INTMEM_62                                            = ??
       CODE:1872 30 e7 f6        JNB        ACC.7,LAB_CODE_186b                                        = ??
       CODE:1875 20 e5 f3        JB         ACC.5,LAB_CODE_186b                                        = ??
       CODE:1878 78 b0           MOV        R0,#0xb0
       CODE:187a e6              MOV        A,@R0=>DAT_INTMEM_b0                                       = ??
       CODE:187b 70 ee           JNZ        LAB_CODE_186b
       CODE:187d d2 38           SETB       27.0                                                       = ??
       CODE:187f 74 04           MOV        A,#0x4
       CODE:1881 12 2a 85        LCALL      FUN_CODE_2a85                                              undefined FUN_CODE_2a85()
       CODE:1884 02 19 53        LJMP       LAB_CODE_1953
                             LAB_CODE_1887                                   XREF[1]:     CODE:1842(j)  
       CODE:1887 78 b2           MOV        R0,#0xb2
       CODE:1889 86 f0           MOV        B,@R0=>DAT_INTMEM_b2                                       = ??
       CODE:188b 78 b1           MOV        R0,#0xb1
       CODE:188d e6              MOV        A,@R0=>DAT_INTMEM_b1                                       = ??
       CODE:188e 20 e7 08        JB         ACC.7,LAB_CODE_1899                                        = ??
       CODE:1891 54 0f           ANL        A,#0xf
       CODE:1893 60 0e           JZ         LAB_CODE_18a3
       CODE:1895 24 20           ADD        A,#0x20
       CODE:1897 80 04           SJMP       LAB_CODE_189d
                             LAB_CODE_1899                                   XREF[1]:     CODE:188e(j)  
       CODE:1899 54 0f           ANL        A,#0xf
       CODE:189b 24 40           ADD        A,#0x40
                             LAB_CODE_189d                                   XREF[1]:     CODE:1897(j)  
       CODE:189d 12 2a 85        LCALL      FUN_CODE_2a85                                              undefined FUN_CODE_2a85()
       CODE:18a0 02 19 6c        LJMP       LAB_CODE_196c
                             LAB_CODE_18a3                                   XREF[1]:     CODE:1893(j)  
       CODE:18a3 d2 d5           SETB       F0                                                         = ??
       CODE:18a5 02 19 99        LJMP       LAB_CODE_1999
                             LAB_CODE_18a8                                   XREF[1]:     CODE:182f(j)  
       CODE:18a8 74 80           MOV        A,#0x80
       CODE:18aa 85 62 f0        MOV        B,DAT_INTMEM_62                                            = ??
       CODE:18ad 30 f7 39        JNB        B.7,LAB_CODE_18e9                                          = ??
       CODE:18b0 78 b0           MOV        R0,#0xb0
       CODE:18b2 e6              MOV        A,@R0=>DAT_INTMEM_b0                                       = ??
       CODE:18b3 70 0a           JNZ        LAB_CODE_18bf
       CODE:18b5 85 62 f0        MOV        B,DAT_INTMEM_62                                            = ??
       CODE:18b8 20 f5 35        JB         B.5,LAB_CODE_18f0                                          = ??
       CODE:18bb 74 90           MOV        A,#0x90
       CODE:18bd 80 2a           SJMP       LAB_CODE_18e9
                             LAB_CODE_18bf                                   XREF[1]:     CODE:18b3(j)  
       CODE:18bf aa 5b           MOV        R2,DAT_INTMEM_5b                                           = ??
       CODE:18c1 ba 00 04        CJNE       R2,#0x0,LAB_CODE_18c8
                             LAB_CODE_18c4                                   XREF[4]:     CODE:18d5(j), CODE:18d9(j), 
                                                                                          CODE:18e3(j), CODE:18e7(j)  
       CODE:18c4 44 c0           ORL        A,#0xc0
       CODE:18c6 80 21           SJMP       LAB_CODE_18e9
                             LAB_CODE_18c8                                   XREF[1]:     CODE:18c1(j)  
       CODE:18c8 e5 5a           MOV        A,DAT_INTMEM_5a                                            = ??
       CODE:18ca 5a              ANL        A,R2
       CODE:18cb 70 0e           JNZ        LAB_CODE_18db
       CODE:18cd ea              MOV        A,R2
       CODE:18ce 23              RL         A
       CODE:18cf 55 5a           ANL        A,DAT_INTMEM_5a                                            = ??
       CODE:18d1 70 04           JNZ        LAB_CODE_18d7
       CODE:18d3 74 11           MOV        A,#0x11
       CODE:18d5 80 ed           SJMP       LAB_CODE_18c4
                             LAB_CODE_18d7                                   XREF[1]:     CODE:18d1(j)  
       CODE:18d7 74 18           MOV        A,#0x18
       CODE:18d9 80 e9           SJMP       LAB_CODE_18c4
                             LAB_CODE_18db                                   XREF[1]:     CODE:18cb(j)  
       CODE:18db ea              MOV        A,R2
       CODE:18dc 23              RL         A
       CODE:18dd 55 5a           ANL        A,DAT_INTMEM_5a                                            = ??
       CODE:18df 70 04           JNZ        LAB_CODE_18e5
       CODE:18e1 74 12           MOV        A,#0x12
       CODE:18e3 80 df           SJMP       LAB_CODE_18c4
                             LAB_CODE_18e5                                   XREF[1]:     CODE:18df(j)  
       CODE:18e5 74 1f           MOV        A,#0x1f
       CODE:18e7 80 db           SJMP       LAB_CODE_18c4
                             LAB_CODE_18e9                                   XREF[3]:     CODE:18ad(j), CODE:18bd(j), 
                                                                                          CODE:18c6(j)  
       CODE:18e9 12 2a 85        LCALL      FUN_CODE_2a85                                              undefined FUN_CODE_2a85()
       CODE:18ec c2 48           CLR        29.0                                                       = ??
       CODE:18ee 80 63           SJMP       LAB_CODE_1953
                             LAB_CODE_18f0                                   XREF[1]:     CODE:18b8(j)  
       CODE:18f0 74 90           MOV        A,#0x90
       CODE:18f2 12 2a 85        LCALL      FUN_CODE_2a85                                              undefined FUN_CODE_2a85()
       CODE:18f5 c2 48           CLR        29.0                                                       = ??
       CODE:18f7 80 69           SJMP       LAB_CODE_1962
                             LAB_CODE_18f9                                   XREF[1]:     CODE:1a22(j)  
       CODE:18f9 12 2a ae        LCALL      FUN_CODE_2aae                                              undefined FUN_CODE_2aae()
       CODE:18fc 50 7d           JNC        LAB_CODE_197b
       CODE:18fe 80 4e           SJMP       LAB_CODE_194e
                             LAB_CODE_1900                                   XREF[1]:     CODE:1a25(j)  
       CODE:1900 12 2a ae        LCALL      FUN_CODE_2aae                                              undefined FUN_CODE_2aae()
       CODE:1903 50 76           JNC        LAB_CODE_197b
       CODE:1905 20 d5 46        JB         F0,LAB_CODE_194e                                           = ??
       CODE:1908 fa              MOV        R2,A
       CODE:1909 e5 60           MOV        A,DAT_INTMEM_60                                            = ??
       CODE:190b 75 f0 08        MOV        B,#0x8
       CODE:190e 84              DIV        AB
       CODE:190f 24 21           ADD        A,#0x21
       CODE:1911 fb              MOV        R3,A
       CODE:1912 74 01           MOV        A,#0x1
       CODE:1914 05 f0           INC        B
                             LAB_CODE_1916                                   XREF[1]:     CODE:191c(j)  
       CODE:1916 d5 f0 02        DJNZ       B,LAB_CODE_191b
       CODE:1919 80 03           SJMP       LAB_CODE_191e
                             LAB_CODE_191b                                   XREF[1]:     CODE:1916(j)  
       CODE:191b 23              RL         A
       CODE:191c 80 f8           SJMP       LAB_CODE_1916
                             LAB_CODE_191e                                   XREF[1]:     CODE:1919(j)  
       CODE:191e 4a              ORL        A,R2
       CODE:191f f5 f0           MOV        B,A
       CODE:1921 eb              MOV        A,R3
       CODE:1922 12 2a 85        LCALL      FUN_CODE_2a85                                              undefined FUN_CODE_2a85()
       CODE:1925 80 2c           SJMP       LAB_CODE_1953
                             LAB_CODE_1927                                   XREF[1]:     CODE:1a28(j)  
       CODE:1927 12 2a ae        LCALL      FUN_CODE_2aae                                              undefined FUN_CODE_2aae()
       CODE:192a 50 4f           JNC        LAB_CODE_197b
       CODE:192c 20 d5 1f        JB         F0,LAB_CODE_194e                                           = ??
       CODE:192f 44 40           ORL        A,#0x40
       CODE:1931 f5 f0           MOV        B,A
       CODE:1933 74 22           MOV        A,#0x22
       CODE:1935 12 2a 85        LCALL      FUN_CODE_2a85                                              undefined FUN_CODE_2a85()
       CODE:1938 80 19           SJMP       LAB_CODE_1953
                             LAB_CODE_193a                                   XREF[1]:     CODE:1a2b(j)  
       CODE:193a 12 2a ae        LCALL      FUN_CODE_2aae                                              undefined FUN_CODE_2aae()
       CODE:193d 50 3c           JNC        LAB_CODE_197b
       CODE:193f 20 d5 0c        JB         F0,LAB_CODE_194e                                           = ??
       CODE:1942 78 af           MOV        R0,#0xaf
       CODE:1944 e6              MOV        A,@R0=>DAT_INTMEM_af                                       = ??
       CODE:1945 54 0f           ANL        A,#0xf
       CODE:1947 44 b0           ORL        A,#0xb0
       CODE:1949 12 2a 85        LCALL      FUN_CODE_2a85                                              undefined FUN_CODE_2a85()
       CODE:194c 80 19           SJMP       LAB_CODE_1967
                             LAB_CODE_194e                                   XREF[10]:    CODE:18fe(j), CODE:1905(j), 
                                                                                          CODE:192c(j), CODE:193f(j), 
                                                                                          CODE:1981(j), CODE:19a7(j), 
                                                                                          CODE:19b0(j), CODE:19bc(j), 
                                                                                          CODE:19c3(j), CODE:19ce(j)  
       CODE:194e 78 a5           MOV        R0,#0xa5
       CODE:1950 76 00           MOV        @R0=>DAT_INTMEM_a5,#0x0                                    = ??
       CODE:1952 22              RET
                             LAB_CODE_1953                                   XREF[11]:    CODE:1766(j), CODE:1776(j), 
                                                                                          CODE:17b0(j), CODE:17c3(j), 
                                                                                          CODE:17e2(j), CODE:1884(j), 
                                                                                          CODE:18ee(j), CODE:1925(j), 
                                                                                          CODE:1938(j), CODE:198f(j), 
                                                                                          CODE:19f0(j)  
       CODE:1953 78 a5           MOV        R0,#0xa5
       CODE:1955 76 01           MOV        @R0=>DAT_INTMEM_a5,#0x1                                    = ??
       CODE:1957 22              RET
                             LAB_CODE_1958                                   XREF[1]:     CODE:185e(j)  
       CODE:1958 78 a5           MOV        R0,#0xa5
       CODE:195a 76 02           MOV        @R0=>DAT_INTMEM_a5,#0x2                                    = ??
       CODE:195c 22              RET
                             LAB_CODE_195d                                   XREF[1]:     CODE:1868(j)  
       CODE:195d 78 a5           MOV        R0,#0xa5
       CODE:195f 76 03           MOV        @R0=>DAT_INTMEM_a5,#0x3                                    = ??
       CODE:1961 22              RET
                             LAB_CODE_1962                                   XREF[1]:     CODE:18f7(j)  
       CODE:1962 78 a5           MOV        R0,#0xa5
       CODE:1964 76 04           MOV        @R0=>DAT_INTMEM_a5,#0x4                                    = ??
       CODE:1966 22              RET
                             LAB_CODE_1967                                   XREF[1]:     CODE:194c(j)  
       CODE:1967 78 a5           MOV        R0,#0xa5
       CODE:1969 76 05           MOV        @R0=>DAT_INTMEM_a5,#0x5                                    = ??
       CODE:196b 22              RET
                             LAB_CODE_196c                                   XREF[1]:     CODE:18a0(j)  
       CODE:196c 78 a5           MOV        R0,#0xa5
       CODE:196e 76 06           MOV        @R0=>DAT_INTMEM_a5,#0x6                                    = ??
       CODE:1970 22              RET
                             LAB_CODE_1971                                   XREF[1]:     CODE:17cb(j)  
       CODE:1971 78 a5           MOV        R0,#0xa5
       CODE:1973 76 07           MOV        @R0=>DAT_INTMEM_a5,#0x7                                    = ??
       CODE:1975 22              RET
                             LAB_CODE_1976                                   XREF[1]:     CODE:17fe(j)  
       CODE:1976 78 a5           MOV        R0,#0xa5
       CODE:1978 76 08           MOV        @R0=>DAT_INTMEM_a5,#0x8                                    = ??
       CODE:197a 22              RET
                             LAB_CODE_197b                                   XREF[10]:    CODE:1846(j), CODE:186b(j), 
                                                                                          CODE:18fc(j), CODE:1903(j), 
                                                                                          CODE:192a(j), CODE:193d(j), 
                                                                                          CODE:197f(j), CODE:1994(j), 
                                                                                          CODE:19ac(j), CODE:19c1(j)  
       CODE:197b 22              RET
                             LAB_CODE_197c                                   XREF[1]:     CODE:1a2e(j)  
       CODE:197c 12 2a ae        LCALL      FUN_CODE_2aae                                              undefined FUN_CODE_2aae()
       CODE:197f 50 fa           JNC        LAB_CODE_197b
       CODE:1981 20 d5 ca        JB         F0,LAB_CODE_194e                                           = ??
       CODE:1984 78 af           MOV        R0,#0xaf
       CODE:1986 e6              MOV        A,@R0=>DAT_INTMEM_af                                       = ??
       CODE:1987 c4              SWAP       A
       CODE:1988 54 0f           ANL        A,#0xf
       CODE:198a 44 a0           ORL        A,#0xa0
       CODE:198c 12 2a 85        LCALL      FUN_CODE_2a85                                              undefined FUN_CODE_2a85()
       CODE:198f 80 c2           SJMP       LAB_CODE_1953
                             LAB_CODE_1991                                   XREF[1]:     CODE:1a31(j)  
       CODE:1991 12 2a ae        LCALL      FUN_CODE_2aae                                              undefined FUN_CODE_2aae()
       CODE:1994 50 e5           JNC        LAB_CODE_197b
       CODE:1996 78 b2           MOV        R0,#0xb2
       CODE:1998 f6              MOV        @R0=>DAT_INTMEM_b2,A                                       = ??
                             LAB_CODE_1999                                   XREF[1]:     CODE:18a5(j)  
       CODE:1999 78 b1           MOV        R0,#0xb1
       CODE:199b e6              MOV        A,@R0=>DAT_INTMEM_b1                                       = ??
       CODE:199c a2 d5           MOV        CY,F0                                                      = ??
       CODE:199e 92 e6           MOV        ACC.6,CY                                                   = ??
       CODE:19a0 78 b1           MOV        R0,#0xb1
       CODE:19a2 f6              MOV        @R0=>DAT_INTMEM_b1,A                                       = ??
       CODE:19a3 d2 3b           SETB       27.3                                                       = ??
       CODE:19a5 c2 4b           CLR        29.3                                                       = ??
       CODE:19a7 80 a5           SJMP       LAB_CODE_194e
                             LAB_CODE_19a9                                   XREF[1]:     CODE:1a34(j)  
       CODE:19a9 12 2a ae        LCALL      FUN_CODE_2aae                                              undefined FUN_CODE_2aae()
       CODE:19ac 50 cd           JNC        LAB_CODE_197b
       CODE:19ae c2 44           CLR        28.4                                                       = ??
       CODE:19b0 20 d5 9b        JB         F0,LAB_CODE_194e                                           = ??
       CODE:19b3 a2 e7           MOV        CY,ACC.7                                                   = ??
       CODE:19b5 92 57           MOV        2a.7,CY                                                    = ??
       CODE:19b7 54 0f           ANL        A,#0xf
       CODE:19b9 78 80           MOV        R0,#0x80
       CODE:19bb f6              MOV        @R0=>DAT_INTMEM_80,A                                       = ??
       CODE:19bc 80 90           SJMP       LAB_CODE_194e
                             LAB_CODE_19be                                   XREF[1]:     CODE:1a37(j)  
       CODE:19be 12 2a ae        LCALL      FUN_CODE_2aae                                              undefined FUN_CODE_2aae()
       CODE:19c1 50 b8           JNC        LAB_CODE_197b
       CODE:19c3 20 d5 88        JB         F0,LAB_CODE_194e                                           = ??
       CODE:19c6 aa 60           MOV        R2,DAT_INTMEM_60                                           = ??
       CODE:19c8 ba 02 06        CJNE       R2,#0x2,LAB_CODE_19d1
       CODE:19cb b4 ff 03        CJNE       A,#0xff,LAB_CODE_19d1
       CODE:19ce 02 19 4e        LJMP       LAB_CODE_194e
                             LAB_CODE_19d1                                   XREF[2]:     CODE:19c8(j), CODE:19cb(j)  
       CODE:19d1 24 01           ADD        A,#0x1
       CODE:19d3 f5 f0           MOV        B,A
       CODE:19d5 50 0b           JNC        LAB_CODE_19e2
       CODE:19d7 74 6d           MOV        A,#0x6d
       CODE:19d9 55 60           ANL        A,DAT_INTMEM_60                                            = ??
       CODE:19db 60 05           JZ         LAB_CODE_19e2
       CODE:19dd e5 60           MOV        A,DAT_INTMEM_60                                            = ??
       CODE:19df 23              RL         A
       CODE:19e0 42 34           ORL        DAT_INTMEM_34,A                                            = ??
                             LAB_CODE_19e2                                   XREF[2]:     CODE:19d5(j), CODE:19db(j)  
       CODE:19e2 7a 10           MOV        R2,#0x10
       CODE:19e4 e5 60           MOV        A,DAT_INTMEM_60                                            = ??
                             LAB_CODE_19e6                                   XREF[1]:     CODE:19e8(j)  
       CODE:19e6 1a              DEC        R2
       CODE:19e7 33              RLC        A
       CODE:19e8 50 fc           JNC        LAB_CODE_19e6
       CODE:19ea 74 20           MOV        A,#0x20
       CODE:19ec 2a              ADD        A,R2
       CODE:19ed 12 2a 85        LCALL      FUN_CODE_2a85                                              undefined FUN_CODE_2a85()
       CODE:19f0 02 19 53        LJMP       LAB_CODE_1953
                             **************************************************************
                             *                          FUNCTION                          *
                             **************************************************************
                             undefined FUN_CODE_19f3()
             undefined         ACC:1          <RETURN>
                             FUN_CODE_19f3                                   XREF[1]:     FUN_CODE_0756:07e0(c)  
       CODE:19f3 12 2a 7b        LCALL      FUN_CODE_2a7b                                              undefined FUN_CODE_2a7b()
       CODE:19f6 40 1e           JC         LAB_CODE_1a16
       CODE:19f8 60 1c           JZ         LAB_CODE_1a16
       CODE:19fa 20 e7 09        JB         ACC.7,LAB_CODE_1a06                                        = ??
       CODE:19fd 20 e6 06        JB         ACC.6,LAB_CODE_1a06                                        = ??
       CODE:1a00 20 e5 07        JB         ACC.5,LAB_CODE_1a0a                                        = ??
       CODE:1a03 20 e4 08        JB         ACC.4,LAB_CODE_1a0e                                        = ??
                             LAB_CODE_1a06                                   XREF[2]:     CODE:19fa(j), CODE:19fd(j)  
       CODE:1a06 d2 42           SETB       28.2                                                       = ??
       CODE:1a08 80 0c           SJMP       LAB_CODE_1a16
                             LAB_CODE_1a0a                                   XREF[1]:     CODE:1a00(j)  
       CODE:1a0a d2 4c           SETB       29.4                                                       = ??
       CODE:1a0c 80 08           SJMP       LAB_CODE_1a16
                             LAB_CODE_1a0e                                   XREF[1]:     CODE:1a03(j)  
       CODE:1a0e a2 e0           MOV        CY,ACC.0                                                   = ??
       CODE:1a10 92 47           MOV        28.7,CY                                                    = ??
       CODE:1a12 a2 e1           MOV        CY,ACC.1                                                   = ??
       CODE:1a14 92 43           MOV        28.3,CY                                                    = ??
                             LAB_CODE_1a16                                   XREF[4]:     CODE:19f6(j), CODE:19f8(j), 
                                                                                          CODE:1a08(j), CODE:1a0c(j)  
       CODE:1a16 78 a5           MOV        R0,#0xa5
       CODE:1a18 e6              MOV        A,@R0=>DAT_INTMEM_a5                                       = ??
       CODE:1a19 26              ADD        A,@R0=>DAT_INTMEM_a5                                       = ??
       CODE:1a1a 26              ADD        A,@R0=>DAT_INTMEM_a5                                       = ??
       CODE:1a1b 90 1a 1f        MOV        DPTR,#LAB_CODE_1a1f
       CODE:1a1e 73              JMP        @A+DPTR
                             LAB_CODE_1a1f                                   XREF[1]:     FUN_CODE_19f3:1a1b(*)  
       CODE:1a1f 02 18 01        LJMP       LAB_CODE_1801
       CODE:1a22 02 18 f9        LJMP       LAB_CODE_18f9
       CODE:1a25 02 19 00        LJMP       LAB_CODE_1900
       CODE:1a28 02 19 27        LJMP       LAB_CODE_1927
       CODE:1a2b 02 19 3a        LJMP       LAB_CODE_193a
       CODE:1a2e 02 19 7c        LJMP       LAB_CODE_197c
       CODE:1a31 02 19 91        LJMP       LAB_CODE_1991
       CODE:1a34 02 19 a9        LJMP       LAB_CODE_19a9
       CODE:1a37 02 19 be        LJMP       LAB_CODE_19be
                             **************************************************************
                             *                          FUNCTION                          *
                             **************************************************************
                             undefined FUN_CODE_1a3a()
             undefined         ACC:1          <RETURN>
                             FUN_CODE_1a3a                                   XREF[1]:     FUN_CODE_0756:07d7(c)  
       CODE:1a3a 78 a6           MOV        R0,#0xa6
       CODE:1a3c e6              MOV        A,@R0=>DAT_INTMEM_a6                                       = ??
       CODE:1a3d 26              ADD        A,@R0=>DAT_INTMEM_a6                                       = ??
       CODE:1a3e 26              ADD        A,@R0=>DAT_INTMEM_a6                                       = ??
       CODE:1a3f 90 1a 43        MOV        DPTR,#LAB_CODE_1a43
       CODE:1a42 73              JMP        @A+DPTR
                             LAB_CODE_1a43                                   XREF[1]:     FUN_CODE_1a3a:1a3f(*)  
       CODE:1a43 02 1a 5e        LJMP       LAB_CODE_1a5e
       CODE:1a46 02 1a e5        LJMP       LAB_CODE_1ae5
       CODE:1a49 02 1b 17        LJMP       LAB_CODE_1b17
       CODE:1a4c 02 1b 60        LJMP       LAB_CODE_1b60
       CODE:1a4f 02 1b 6c        LJMP       LAB_CODE_1b6c
       CODE:1a52 02 1b 8a        LJMP       LAB_CODE_1b8a
       CODE:1a55 02 1b a4        LJMP       LAB_CODE_1ba4
       CODE:1a58 02 1b 75        LJMP       LAB_CODE_1b75
       CODE:1a5b 02 1b 81        LJMP       LAB_CODE_1b81
                             LAB_CODE_1a5e                                   XREF[1]:     CODE:1a43(j)  
       CODE:1a5e d2 2b           SETB       25.3                                                       = ??
       CODE:1a60 20 2a 02        JB         25.2,LAB_CODE_1a65                                         = ??
       CODE:1a63 80 7c           SJMP       LAB_CODE_1ae1
                             LAB_CODE_1a65                                   XREF[1]:     CODE:1a60(j)  
       CODE:1a65 30 2c 0b        JNB        25.4,LAB_CODE_1a73                                         = ??
       CODE:1a68 12 26 46        LCALL      FUN_CODE_2646                                              undefined FUN_CODE_2646()
       CODE:1a6b 20 d5 03        JB         F0,LAB_CODE_1a71                                           = ??
       CODE:1a6e 02 1b 37        LJMP       LAB_CODE_1b37
                             LAB_CODE_1a71                                   XREF[1]:     CODE:1a6b(j)  
       CODE:1a71 80 77           SJMP       LAB_CODE_1aea
                             LAB_CODE_1a73                                   XREF[1]:     CODE:1a65(j)  
       CODE:1a73 30 2d 0c        JNB        25.5,LAB_CODE_1a82                                         = ??
       CODE:1a76 12 26 4e        LCALL      FUN_CODE_264e                                              undefined FUN_CODE_264e()
       CODE:1a79 20 d5 03        JB         F0,LAB_CODE_1a7f                                           = ??
       CODE:1a7c 02 1b 3c        LJMP       LAB_CODE_1b3c
                             LAB_CODE_1a7f                                   XREF[1]:     CODE:1a79(j)  
       CODE:1a7f 02 1b 1c        LJMP       LAB_CODE_1b1c
                             LAB_CODE_1a82                                   XREF[1]:     CODE:1a73(j)  
       CODE:1a82 30 2e 0c        JNB        25.6,LAB_CODE_1a91                                         = ??
       CODE:1a85 12 26 53        LCALL      FUN_CODE_2653                                              undefined FUN_CODE_2653()
       CODE:1a88 20 d5 03        JB         F0,LAB_CODE_1a8e                                           = ??
       CODE:1a8b 02 1b 41        LJMP       LAB_CODE_1b41
                             LAB_CODE_1a8e                                   XREF[1]:     CODE:1a88(j)  
       CODE:1a8e 02 1b 65        LJMP       LAB_CODE_1b65
                             LAB_CODE_1a91                                   XREF[1]:     CODE:1a82(j)  
       CODE:1a91 30 2f 0c        JNB        25.7,LAB_CODE_1aa0                                         = ??
       CODE:1a94 12 26 58        LCALL      FUN_CODE_2658                                              undefined FUN_CODE_2658()
       CODE:1a97 20 d5 03        JB         F0,LAB_CODE_1a9d                                           = ??
       CODE:1a9a 02 1b 46        LJMP       LAB_CODE_1b46
                             LAB_CODE_1a9d                                   XREF[1]:     CODE:1a97(j)  
       CODE:1a9d 02 1b 71        LJMP       LAB_CODE_1b71
                             LAB_CODE_1aa0                                   XREF[1]:     CODE:1a91(j)  
       CODE:1aa0 20 34 1e        JB         26.4,LAB_CODE_1ac1                                         = ??
       CODE:1aa3 30 30 0c        JNB        26.0,LAB_CODE_1ab2                                         = ??
       CODE:1aa6 12 26 5d        LCALL      FUN_CODE_265d                                              undefined FUN_CODE_265d()
       CODE:1aa9 20 d5 03        JB         F0,LAB_CODE_1aaf                                           = ??
       CODE:1aac 02 1b 4b        LJMP       LAB_CODE_1b4b
                             LAB_CODE_1aaf                                   XREF[1]:     CODE:1aa9(j)  
       CODE:1aaf 02 1b 8f        LJMP       LAB_CODE_1b8f
                             LAB_CODE_1ab2                                   XREF[1]:     CODE:1aa3(j)  
       CODE:1ab2 30 31 0c        JNB        26.1,LAB_CODE_1ac1                                         = ??
       CODE:1ab5 12 26 62        LCALL      FUN_CODE_2662                                              undefined FUN_CODE_2662()
       CODE:1ab8 20 d5 03        JB         F0,LAB_CODE_1abe                                           = ??
       CODE:1abb 02 1b 50        LJMP       LAB_CODE_1b50
                             LAB_CODE_1abe                                   XREF[1]:     CODE:1ab8(j)  
       CODE:1abe 02 1b a9        LJMP       LAB_CODE_1ba9
                             LAB_CODE_1ac1                                   XREF[2]:     CODE:1aa0(j), CODE:1ab2(j)  
       CODE:1ac1 30 32 0c        JNB        26.2,LAB_CODE_1ad0                                         = ??
       CODE:1ac4 12 26 67        LCALL      FUN_CODE_2667                                              undefined FUN_CODE_2667()
       CODE:1ac7 20 d5 03        JB         F0,LAB_CODE_1acd                                           = ??
       CODE:1aca 02 1b 55        LJMP       LAB_CODE_1b55
                             LAB_CODE_1acd                                   XREF[1]:     CODE:1ac7(j)  
       CODE:1acd 02 1b 7a        LJMP       LAB_CODE_1b7a
                             LAB_CODE_1ad0                                   XREF[1]:     CODE:1ac1(j)  
       CODE:1ad0 20 34 0e        JB         26.4,LAB_CODE_1ae1                                         = ??
       CODE:1ad3 30 33 0b        JNB        26.3,LAB_CODE_1ae1                                         = ??
       CODE:1ad6 12 26 6c        LCALL      FUN_CODE_266c                                              undefined FUN_CODE_266c()
       CODE:1ad9 20 d5 02        JB         F0,LAB_CODE_1ade                                           = ??
       CODE:1adc 80 7c           SJMP       LAB_CODE_1b5a
                             LAB_CODE_1ade                                   XREF[1]:     CODE:1ad9(j)  
       CODE:1ade 02 1b 86        LJMP       LAB_CODE_1b86
                             LAB_CODE_1ae1                                   XREF[3]:     CODE:1a63(j), CODE:1ad0(j), 
                                                                                          CODE:1ad3(j)  
       CODE:1ae1 c2 2b           CLR        25.3                                                       = ??
       CODE:1ae3 80 7a           SJMP       LAB_CODE_1b5f
                             LAB_CODE_1ae5                                   XREF[1]:     CODE:1a46(j)  
       CODE:1ae5 12 26 79        LCALL      FUN_CODE_2679                                              undefined FUN_CODE_2679()
       CODE:1ae8 50 75           JNC        LAB_CODE_1b5f
                             LAB_CODE_1aea                                   XREF[1]:     CODE:1a71(j)  
       CODE:1aea 74 01           MOV        A,#0x1
       CODE:1aec 12 24 45        LCALL      FUN_CODE_2445                                              undefined FUN_CODE_2445()
       CODE:1aef 12 24 4a        LCALL      FUN_CODE_244a                                              undefined FUN_CODE_244a()
       CODE:1af2 fa              MOV        R2,A
       CODE:1af3 ea              MOV        A,R2
       CODE:1af4 30 e0 03        JNB        ACC.0,LAB_CODE_1afa                                        = ??
       CODE:1af7 75 61 02        MOV        DAT_INTMEM_61,#0x2                                         = ??
                             LAB_CODE_1afa                                   XREF[1]:     CODE:1af4(j)  
       CODE:1afa c2 2c           CLR        25.4                                                       = ??
       CODE:1afc c2 36           CLR        26.6                                                       = ??
       CODE:1afe 74 01           MOV        A,#0x1
       CODE:1b00 12 24 67        LCALL      FUN_CODE_2467                                              undefined FUN_CODE_2467()
       CODE:1b03 74 03           MOV        A,#0x3
       CODE:1b05 12 24 6c        LCALL      FUN_CODE_246c                                              undefined FUN_CODE_246c()
       CODE:1b08 20 d5 27        JB         F0,LAB_CODE_1b32                                           = ??
       CODE:1b0b 74 01           MOV        A,#0x1
       CODE:1b0d 12 24 67        LCALL      FUN_CODE_2467                                              undefined FUN_CODE_2467()
       CODE:1b10 74 00           MOV        A,#0x0
       CODE:1b12 12 24 6c        LCALL      FUN_CODE_246c                                              undefined FUN_CODE_246c()
       CODE:1b15 80 1b           SJMP       LAB_CODE_1b32
                             LAB_CODE_1b17                                   XREF[1]:     CODE:1a49(j)  
       CODE:1b17 12 26 79        LCALL      FUN_CODE_2679                                              undefined FUN_CODE_2679()
       CODE:1b1a 50 43           JNC        LAB_CODE_1b5f
                             LAB_CODE_1b1c                                   XREF[1]:     CODE:1a7f(j)  
       CODE:1b1c c2 2d           CLR        25.5                                                       = ??
       CODE:1b1e 30 d5 11        JNB        F0,LAB_CODE_1b32                                           = ??
                             LAB_CODE_1b21                                   XREF[2]:     CODE:1b6a(j), CODE:1b7f(j)  
       CODE:1b21 d2 1c           SETB       23.4                                                       = ??
       CODE:1b23 75 5a 04        MOV        DAT_INTMEM_5a,#0x4                                         = ??
       CODE:1b26 75 5c 04        MOV        DAT_INTMEM_5c,#0x4                                         = ??
       CODE:1b29 75 5b 00        MOV        DAT_INTMEM_5b,#0x0                                         = ??
       CODE:1b2c d2 46           SETB       28.6                                                       = ??
       CODE:1b2e d2 33           SETB       26.3                                                       = ??
       CODE:1b30 80 00           SJMP       LAB_CODE_1b32
                             LAB_CODE_1b32                                   XREF[13]:    CODE:1b08(j), CODE:1b15(j), 
                                                                                          CODE:1b1e(j), CODE:1b30(j), 
                                                                                          CODE:1b67(j), CODE:1b73(j), 
                                                                                          CODE:1b7c(j), CODE:1b88(j), 
                                                                                          CODE:1b91(j), CODE:1ba2(j), 
                                                                                          CODE:1bb0(j), CODE:1bc1(j), 
                                                                                          CODE:1bd6(j)  
       CODE:1b32 78 a6           MOV        R0,#0xa6
       CODE:1b34 76 00           MOV        @R0=>DAT_INTMEM_a6,#0x0                                    = ??
       CODE:1b36 22              RET
                             LAB_CODE_1b37                                   XREF[1]:     CODE:1a6e(j)  
       CODE:1b37 78 a6           MOV        R0,#0xa6
       CODE:1b39 76 01           MOV        @R0=>DAT_INTMEM_a6,#0x1                                    = ??
       CODE:1b3b 22              RET
                             LAB_CODE_1b3c                                   XREF[1]:     CODE:1a7c(j)  
       CODE:1b3c 78 a6           MOV        R0,#0xa6
       CODE:1b3e 76 02           MOV        @R0=>DAT_INTMEM_a6,#0x2                                    = ??
       CODE:1b40 22              RET
                             LAB_CODE_1b41                                   XREF[1]:     CODE:1a8b(j)  
       CODE:1b41 78 a6           MOV        R0,#0xa6
       CODE:1b43 76 03           MOV        @R0=>DAT_INTMEM_a6,#0x3                                    = ??
       CODE:1b45 22              RET
                             LAB_CODE_1b46                                   XREF[1]:     CODE:1a9a(j)  
       CODE:1b46 78 a6           MOV        R0,#0xa6
       CODE:1b48 76 04           MOV        @R0=>DAT_INTMEM_a6,#0x4                                    = ??
       CODE:1b4a 22              RET
                             LAB_CODE_1b4b                                   XREF[1]:     CODE:1aac(j)  
       CODE:1b4b 78 a6           MOV        R0,#0xa6
       CODE:1b4d 76 05           MOV        @R0=>DAT_INTMEM_a6,#0x5                                    = ??
       CODE:1b4f 22              RET
                             LAB_CODE_1b50                                   XREF[1]:     CODE:1abb(j)  
       CODE:1b50 78 a6           MOV        R0,#0xa6
       CODE:1b52 76 06           MOV        @R0=>DAT_INTMEM_a6,#0x6                                    = ??
       CODE:1b54 22              RET
                             LAB_CODE_1b55                                   XREF[1]:     CODE:1aca(j)  
       CODE:1b55 78 a6           MOV        R0,#0xa6
       CODE:1b57 76 07           MOV        @R0=>DAT_INTMEM_a6,#0x7                                    = ??
       CODE:1b59 22              RET
                             LAB_CODE_1b5a                                   XREF[1]:     CODE:1adc(j)  
       CODE:1b5a 78 a6           MOV        R0,#0xa6
       CODE:1b5c 76 08           MOV        @R0=>DAT_INTMEM_a6,#0x8                                    = ??
       CODE:1b5e 22              RET
                             LAB_CODE_1b5f                                   XREF[9]:     CODE:1ae3(j), CODE:1ae8(j), 
                                                                                          CODE:1b1a(j), CODE:1b63(j), 
                                                                                          CODE:1b6f(j), CODE:1b78(j), 
                                                                                          CODE:1b84(j), CODE:1b8d(j), 
                                                                                          CODE:1ba7(j)  
       CODE:1b5f 22              RET
                             LAB_CODE_1b60                                   XREF[1]:     CODE:1a4c(j)  
       CODE:1b60 12 26 79        LCALL      FUN_CODE_2679                                              undefined FUN_CODE_2679()
       CODE:1b63 50 fa           JNC        LAB_CODE_1b5f
                             LAB_CODE_1b65                                   XREF[1]:     CODE:1a8e(j)  
       CODE:1b65 c2 2e           CLR        25.6                                                       = ??
       CODE:1b67 30 d5 c8        JNB        F0,LAB_CODE_1b32                                           = ??
       CODE:1b6a 80 b5           SJMP       LAB_CODE_1b21
                             LAB_CODE_1b6c                                   XREF[1]:     CODE:1a4f(j)  
       CODE:1b6c 12 26 79        LCALL      FUN_CODE_2679                                              undefined FUN_CODE_2679()
       CODE:1b6f 50 ee           JNC        LAB_CODE_1b5f
                             LAB_CODE_1b71                                   XREF[1]:     CODE:1a9d(j)  
       CODE:1b71 c2 2f           CLR        25.7                                                       = ??
       CODE:1b73 80 bd           SJMP       LAB_CODE_1b32
                             LAB_CODE_1b75                                   XREF[1]:     CODE:1a58(j)  
       CODE:1b75 12 26 79        LCALL      FUN_CODE_2679                                              undefined FUN_CODE_2679()
       CODE:1b78 50 e5           JNC        LAB_CODE_1b5f
                             LAB_CODE_1b7a                                   XREF[1]:     CODE:1acd(j)  
       CODE:1b7a c2 32           CLR        26.2                                                       = ??
       CODE:1b7c 30 d5 b3        JNB        F0,LAB_CODE_1b32                                           = ??
       CODE:1b7f 80 a0           SJMP       LAB_CODE_1b21
                             LAB_CODE_1b81                                   XREF[1]:     CODE:1a5b(j)  
       CODE:1b81 12 26 79        LCALL      FUN_CODE_2679                                              undefined FUN_CODE_2679()
       CODE:1b84 50 d9           JNC        LAB_CODE_1b5f
                             LAB_CODE_1b86                                   XREF[1]:     CODE:1ade(j)  
       CODE:1b86 c2 33           CLR        26.3                                                       = ??
       CODE:1b88 80 a8           SJMP       LAB_CODE_1b32
                             LAB_CODE_1b8a                                   XREF[1]:     CODE:1a52(j)  
       CODE:1b8a 12 26 79        LCALL      FUN_CODE_2679                                              undefined FUN_CODE_2679()
       CODE:1b8d 50 d0           JNC        LAB_CODE_1b5f
                             LAB_CODE_1b8f                                   XREF[1]:     CODE:1aaf(j)  
       CODE:1b8f c2 30           CLR        26.0                                                       = ??
       CODE:1b91 20 d5 9e        JB         F0,LAB_CODE_1b32                                           = ??
       CODE:1b94 53 5e 5c        ANL        DAT_INTMEM_5e,#0x5c                                        = ??
       CODE:1b97 78 b9           MOV        R0,#0xb9
       CODE:1b99 e6              MOV        A,@R0=>DAT_INTMEM_b9                                       = ??
       CODE:1b9a 54 03           ANL        A,#0x3
       CODE:1b9c 45 5e           ORL        A,DAT_INTMEM_5e                                            = ??
       CODE:1b9e d2 e5           SETB       ACC.5                                                      = ??
       CODE:1ba0 f5 5e           MOV        DAT_INTMEM_5e,A                                            = ??
       CODE:1ba2 80 8e           SJMP       LAB_CODE_1b32
                             LAB_CODE_1ba4                                   XREF[1]:     CODE:1a55(j)  
       CODE:1ba4 12 26 79        LCALL      FUN_CODE_2679                                              undefined FUN_CODE_2679()
       CODE:1ba7 50 b6           JNC        LAB_CODE_1b5f
                             LAB_CODE_1ba9                                   XREF[1]:     CODE:1abe(j)  
       CODE:1ba9 c2 31           CLR        26.1                                                       = ??
       CODE:1bab 30 d5 04        JNB        F0,LAB_CODE_1bb2                                           = ??
       CODE:1bae d2 0a           SETB       21.2                                                       = ??
       CODE:1bb0 80 80           SJMP       LAB_CODE_1b32
                             LAB_CODE_1bb2                                   XREF[1]:     CODE:1bab(j)  
       CODE:1bb2 78 b9           MOV        R0,#0xb9
       CODE:1bb4 e6              MOV        A,@R0=>DAT_INTMEM_b9                                       = ??
       CODE:1bb5 30 56 0c        JNB        2a.6,LAB_CODE_1bc4                                         = ??
       CODE:1bb8 78 ac           MOV        R0,#0xac
       CODE:1bba f6              MOV        @R0=>DAT_INTMEM_ac,A                                       = ??
       CODE:1bbb 78 ab           MOV        R0,#0xab
       CODE:1bbd 76 07           MOV        @R0=>DAT_INTMEM_ab,#0x7                                    = ??
       CODE:1bbf d2 3c           SETB       27.4                                                       = ??
       CODE:1bc1 02 1b 32        LJMP       LAB_CODE_1b32
                             LAB_CODE_1bc4                                   XREF[1]:     CODE:1bb5(j)  
       CODE:1bc4 a2 14           MOV        CY,22.4                                                    = ??
       CODE:1bc6 72 e0           ORL        CY,ACC.0                                                   = ??
       CODE:1bc8 92 14           MOV        22.4,CY                                                    = ??
       CODE:1bca a2 0a           MOV        CY,21.2                                                    = ??
       CODE:1bcc 72 e2           ORL        CY,ACC.2                                                   = ??
       CODE:1bce 92 0a           MOV        21.2,CY                                                    = ??
       CODE:1bd0 a2 0b           MOV        CY,21.3                                                    = ??
       CODE:1bd2 72 e3           ORL        CY,ACC.3                                                   = ??
       CODE:1bd4 92 0b           MOV        21.3,CY                                                    = ??
       CODE:1bd6 02 1b 32        LJMP       LAB_CODE_1b32
                             **************************************************************
                             *                          FUNCTION                          *
                             **************************************************************
                             undefined FUN_CODE_1bd9()
             undefined         ACC:1          <RETURN>
                             FUN_CODE_1bd9                                   XREF[1]:     FUN_CODE_0756:07b6(c)  
       CODE:1bd9 78 82           MOV        R0,#0x82
       CODE:1bdb e6              MOV        A,@R0=>DAT_INTMEM_82                                       = ??
       CODE:1bdc 60 03           JZ         LAB_CODE_1be1
       CODE:1bde 78 82           MOV        R0,#0x82
       CODE:1be0 16              DEC        @R0=>DAT_INTMEM_82                                         = ??
                             LAB_CODE_1be1                                   XREF[1]:     CODE:1bdc(j)  
       CODE:1be1 12 2b 34        LCALL      FUN_CODE_2b34                                              undefined FUN_CODE_2b34()
       CODE:1be4 70 01           JNZ        LAB_CODE_1be7
       CODE:1be6 22              RET
                             LAB_CODE_1be7                                   XREF[1]:     CODE:1be4(j)  
       CODE:1be7 85 2f f0        MOV        B,DAT_INTMEM_2f                                            = ??
       CODE:1bea 30 f5 01        JNB        B.5,LAB_CODE_1bee                                          = ??
       CODE:1bed 22              RET
                             LAB_CODE_1bee                                   XREF[1]:     CODE:1bea(j)  
       CODE:1bee 20 e6 24        JB         ACC.6,LAB_CODE_1c15                                        = ??
       CODE:1bf1 b4 07 1b        CJNE       A,#0x7,LAB_CODE_1c0f
       CODE:1bf4 c2 d5           CLR        F0                                                         = ??
       CODE:1bf6 78 81           MOV        R0,#0x81
       CODE:1bf8 e6              MOV        A,@R0=>DAT_INTMEM_81                                       = ??
       CODE:1bf9 78 81           MOV        R0,#0x81
       CODE:1bfb a6 f0           MOV        @R0=>DAT_INTMEM_81,B                                       = ??
       CODE:1bfd b5 f0 07        CJNE       A,B,LAB_CODE_1c07
       CODE:1c00 78 82           MOV        R0,#0x82
       CODE:1c02 e6              MOV        A,@R0=>DAT_INTMEM_82                                       = ??
       CODE:1c03 60 02           JZ         LAB_CODE_1c07
       CODE:1c05 d2 d5           SETB       F0                                                         = ??
                             LAB_CODE_1c07                                   XREF[2]:     CODE:1bfd(j), CODE:1c03(j)  
       CODE:1c07 74 07           MOV        A,#0x7
       CODE:1c09 78 82           MOV        R0,#0x82
       CODE:1c0b 76 0d           MOV        @R0=>DAT_INTMEM_82,#0xd                                    = ??
       CODE:1c0d 80 1e           SJMP       LAB_CODE_1c2d
                             LAB_CODE_1c0f                                   XREF[1]:     CODE:1bf1(j)  
       CODE:1c0f 78 81           MOV        R0,#0x81
       CODE:1c11 76 00           MOV        @R0=>DAT_INTMEM_81,#0x0                                    = ??
       CODE:1c13 80 5b           SJMP       LAB_CODE_1c70
                             LAB_CODE_1c15                                   XREF[1]:     CODE:1bee(j)  
       CODE:1c15 30 00 07        JNB        20.0,LAB_CODE_1c1f
       CODE:1c18 c2 00           CLR        20.0
       CODE:1c1a a2 e7           MOV        CY,ACC.7                                                   = ??
       CODE:1c1c b3              CPL        CY
       CODE:1c1d 92 01           MOV        20.1,CY                                                    = ??
                             LAB_CODE_1c1f                                   XREF[1]:     CODE:1c15(j)  
       CODE:1c1f a2 01           MOV        CY,20.1                                                    = ??
       CODE:1c21 92 d5           MOV        F0,CY                                                      = ??
       CODE:1c23 20 e7 02        JB         ACC.7,LAB_CODE_1c28                                        = ??
       CODE:1c26 b2 d5           CPL        F0                                                         = ??
                             LAB_CODE_1c28                                   XREF[1]:     CODE:1c23(j)  
       CODE:1c28 20 d5 02        JB         F0,LAB_CODE_1c2d                                           = ??
       CODE:1c2b b2 01           CPL        20.1                                                       = ??
                             LAB_CODE_1c2d                                   XREF[2]:     CODE:1c0d(j), CODE:1c28(j)  
       CODE:1c2d 30 02 03        JNB        20.2,LAB_CODE_1c33                                         = ??
       CODE:1c30 20 d5 54        JB         F0,LAB_CODE_1c87                                           = ??
                             LAB_CODE_1c33                                   XREF[1]:     CODE:1c2d(j)  
       CODE:1c33 c2 02           CLR        20.2                                                       = ??
       CODE:1c35 ba 0c 06        CJNE       R2,#0xc,LAB_CODE_1c3e
       CODE:1c38 20 d5 4c        JB         F0,LAB_CODE_1c87                                           = ??
       CODE:1c3b d2 20           SETB       24.0                                                       = ??
       CODE:1c3d 22              RET
                             LAB_CODE_1c3e                                   XREF[1]:     CODE:1c35(j)  
       CODE:1c3e ba 28 06        CJNE       R2,#0x28,LAB_CODE_1c47
       CODE:1c41 20 d5 43        JB         F0,LAB_CODE_1c87                                           = ??
       CODE:1c44 d2 23           SETB       24.3                                                       = ??
       CODE:1c46 22              RET
                             LAB_CODE_1c47                                   XREF[1]:     CODE:1c3e(j)  
       CODE:1c47 20 1f 0b        JB         23.7,LAB_CODE_1c55                                         = ??
       CODE:1c4a ba 29 06        CJNE       R2,#0x29,LAB_CODE_1c53
       CODE:1c4d 20 d5 37        JB         F0,LAB_CODE_1c87                                           = ??
       CODE:1c50 d2 20           SETB       24.0                                                       = ??
       CODE:1c52 22              RET
                             LAB_CODE_1c53                                   XREF[1]:     CODE:1c4a(j)  
       CODE:1c53 80 1b           SJMP       LAB_CODE_1c70
                             LAB_CODE_1c55                                   XREF[1]:     CODE:1c47(j)  
       CODE:1c55 ba 0d 06        CJNE       R2,#0xd,LAB_CODE_1c5e
       CODE:1c58 20 d5 2c        JB         F0,LAB_CODE_1c87                                           = ??
       CODE:1c5b d2 22           SETB       24.2                                                       = ??
       CODE:1c5d 22              RET
                             LAB_CODE_1c5e                                   XREF[1]:     CODE:1c55(j)  
       CODE:1c5e ba 64 06        CJNE       R2,#0x64,LAB_CODE_1c67
       CODE:1c61 20 d5 23        JB         F0,LAB_CODE_1c87                                           = ??
       CODE:1c64 d2 21           SETB       24.1                                                       = ??
       CODE:1c66 22              RET
                             LAB_CODE_1c67                                   XREF[1]:     CODE:1c5e(j)  
       CODE:1c67 ba 2a 06        CJNE       R2,#0x2a,LAB_CODE_1c70
       CODE:1c6a 20 d5 1a        JB         F0,LAB_CODE_1c87                                           = ??
       CODE:1c6d d2 20           SETB       24.0                                                       = ??
       CODE:1c6f 22              RET
                             LAB_CODE_1c70                                   XREF[3]:     CODE:1c13(j), CODE:1c53(j), 
                                                                                          CODE:1c67(j)  
       CODE:1c70 8a f0           MOV        B,R2
       CODE:1c72 78 ac           MOV        R0,#0xac
       CODE:1c74 a6 f0           MOV        @R0=>DAT_INTMEM_ac,B                                       = ??
       CODE:1c76 8b f0           MOV        B,R3
       CODE:1c78 78 ad           MOV        R0,#0xad
       CODE:1c7a a6 f0           MOV        @R0=>DAT_INTMEM_ad,B                                       = ??
       CODE:1c7c 8c f0           MOV        B,R4
       CODE:1c7e 78 ae           MOV        R0,#0xae
       CODE:1c80 a6 f0           MOV        @R0=>DAT_INTMEM_ae,B                                       = ??
       CODE:1c82 78 ab           MOV        R0,#0xab
       CODE:1c84 f6              MOV        @R0=>DAT_INTMEM_ab,A                                       = ??
       CODE:1c85 d2 3c           SETB       27.4                                                       = ??
                             LAB_CODE_1c87                                   XREF[7]:     CODE:1c30(j), CODE:1c38(j), 
                                                                                          CODE:1c41(j), CODE:1c4d(j), 
                                                                                          CODE:1c58(j), CODE:1c61(j), 
                                                                                          CODE:1c6a(j)  
       CODE:1c87 22              RET
                             LAB_CODE_1c88                                   XREF[7]:     CODE:1cc9(j), CODE:1cce(j), 
                                                                                          CODE:1cf1(j), CODE:1d12(j), 
                                                                                          CODE:1d1c(j), CODE:1d22(j), 
                                                                                          CODE:1d27(j)  
       CODE:1c88 78 a7           MOV        R0,#0xa7
       CODE:1c8a 76 00           MOV        @R0=>DAT_INTMEM_a7,#0x0                                    = ??
       CODE:1c8c 22              RET
                             LAB_CODE_1c8d                                   XREF[1]:     CODE:1cc4(j)  
       CODE:1c8d 78 a7           MOV        R0,#0xa7
       CODE:1c8f 76 01           MOV        @R0=>DAT_INTMEM_a7,#0x1                                    = ??
       CODE:1c91 22              RET
                             LAB_CODE_1c92                                   XREF[5]:     CODE:1cd0(j), CODE:1ce8(j), 
                                                                                          CODE:1ced(j), CODE:1cf6(j), 
                                                                                          CODE:1cfb(j)  
       CODE:1c92 78 a7           MOV        R0,#0xa7
       CODE:1c94 76 02           MOV        @R0=>DAT_INTMEM_a7,#0x2                                    = ??
       CODE:1c96 22              RET
                             LAB_CODE_1c97                                   XREF[1]:     CODE:1ce0(j)  
       CODE:1c97 78 a7           MOV        R0,#0xa7
       CODE:1c99 76 03           MOV        @R0=>DAT_INTMEM_a7,#0x3                                    = ??
       CODE:1c9b 22              RET
                             LAB_CODE_1c9c                                   XREF[1]:     CODE:1ce3(j)  
       CODE:1c9c 78 a7           MOV        R0,#0xa7
       CODE:1c9e 76 04           MOV        @R0=>DAT_INTMEM_a7,#0x4                                    = ??
       CODE:1ca0 22              RET
                             LAB_CODE_1ca1                                   XREF[3]:     CODE:1cbd(j), CODE:1cc2(j), 
                                                                                          CODE:1cdd(j)  
       CODE:1ca1 22              RET
                             **************************************************************
                             *                          FUNCTION                          *
                             **************************************************************
                             undefined FUN_CODE_1ca2()
             undefined         ACC:1          <RETURN>
                             FUN_CODE_1ca2                                   XREF[1]:     FUN_CODE_0756:07aa(c)  
       CODE:1ca2 78 a7           MOV        R0,#0xa7
       CODE:1ca4 e6              MOV        A,@R0=>DAT_INTMEM_a7                                       = ??
       CODE:1ca5 26              ADD        A,@R0=>DAT_INTMEM_a7                                       = ??
       CODE:1ca6 26              ADD        A,@R0=>DAT_INTMEM_a7                                       = ??
       CODE:1ca7 90 1c ab        MOV        DPTR,#LAB_CODE_1cab
       CODE:1caa 73              JMP        @A+DPTR
                             LAB_CODE_1cab                                   XREF[1]:     FUN_CODE_1ca2:1ca7(*)  
       CODE:1cab 02 1c ba        LJMP       LAB_CODE_1cba
       CODE:1cae 02 1c c6        LJMP       LAB_CODE_1cc6
       CODE:1cb1 02 1c d2        LJMP       LAB_CODE_1cd2
       CODE:1cb4 02 1c e5        LJMP       LAB_CODE_1ce5
       CODE:1cb7 02 1c f3        LJMP       LAB_CODE_1cf3
                             LAB_CODE_1cba                                   XREF[1]:     CODE:1cab(j)  
       CODE:1cba 12 25 f0        LCALL      FUN_CODE_25f0                                              undefined FUN_CODE_25f0()
       CODE:1cbd 40 e2           JC         LAB_CODE_1ca1
       CODE:1cbf 12 25 f4        LCALL      FUN_CODE_25f4                                              undefined FUN_CODE_25f4()
       CODE:1cc2 40 dd           JC         LAB_CODE_1ca1
       CODE:1cc4 80 c7           SJMP       LAB_CODE_1c8d
                             LAB_CODE_1cc6                                   XREF[1]:     CODE:1cae(j)  
       CODE:1cc6 12 25 f0        LCALL      FUN_CODE_25f0                                              undefined FUN_CODE_25f0()
       CODE:1cc9 40 bd           JC         LAB_CODE_1c88
       CODE:1ccb 12 25 f4        LCALL      FUN_CODE_25f4                                              undefined FUN_CODE_25f4()
       CODE:1cce 40 b8           JC         LAB_CODE_1c88
       CODE:1cd0 80 c0           SJMP       LAB_CODE_1c92
                             LAB_CODE_1cd2                                   XREF[1]:     CODE:1cb1(j)  
       CODE:1cd2 e4              CLR        A
       CODE:1cd3 12 25 f0        LCALL      FUN_CODE_25f0                                              undefined FUN_CODE_25f0()
       CODE:1cd6 92 e0           MOV        ACC.0,CY                                                   = ??
       CODE:1cd8 12 25 f4        LCALL      FUN_CODE_25f4                                              undefined FUN_CODE_25f4()
       CODE:1cdb 92 e1           MOV        ACC.1,CY                                                   = ??
       CODE:1cdd 30 d0 c1        JNB        P,LAB_CODE_1ca1                                            = ??
       CODE:1ce0 20 e0 b4        JB         ACC.0,LAB_CODE_1c97                                        = ??
       CODE:1ce3 80 b7           SJMP       LAB_CODE_1c9c
                             LAB_CODE_1ce5                                   XREF[1]:     CODE:1cb4(j)  
       CODE:1ce5 12 25 f4        LCALL      FUN_CODE_25f4                                              undefined FUN_CODE_25f4()
       CODE:1ce8 40 a8           JC         LAB_CODE_1c92
       CODE:1cea 12 25 f0        LCALL      FUN_CODE_25f0                                              undefined FUN_CODE_25f0()
       CODE:1ced 50 a3           JNC        LAB_CODE_1c92
       CODE:1cef d2 08           SETB       21.0                                                       = ??
       CODE:1cf1 80 95           SJMP       LAB_CODE_1c88
                             LAB_CODE_1cf3                                   XREF[1]:     CODE:1cb7(j)  
       CODE:1cf3 12 25 f0        LCALL      FUN_CODE_25f0                                              undefined FUN_CODE_25f0()
       CODE:1cf6 40 9a           JC         LAB_CODE_1c92
       CODE:1cf8 12 25 f4        LCALL      FUN_CODE_25f4                                              undefined FUN_CODE_25f4()
       CODE:1cfb 50 95           JNC        LAB_CODE_1c92
       CODE:1cfd 78 b0           MOV        R0,#0xb0
       CODE:1cff e6              MOV        A,@R0=>DAT_INTMEM_b0                                       = ??
       CODE:1d00 60 23           JZ         LAB_CODE_1d25
       CODE:1d02 12 25 f8        LCALL      FUN_CODE_25f8                                              undefined FUN_CODE_25f8()
       CODE:1d05 50 1e           JNC        LAB_CODE_1d25
       CODE:1d07 d2 48           SETB       29.0                                                       = ??
       CODE:1d09 d2 33           SETB       26.3                                                       = ??
       CODE:1d0b e5 5b           MOV        A,DAT_INTMEM_5b                                            = ??
       CODE:1d0d 70 06           JNZ        LAB_CODE_1d15
       CODE:1d0f 75 5b 40        MOV        DAT_INTMEM_5b,#0x40                                        = ??
       CODE:1d12 02 1c 88        LJMP       LAB_CODE_1c88
                             LAB_CODE_1d15                                   XREF[1]:     CODE:1d0d(j)  
       CODE:1d15 20 e0 07        JB         ACC.0,LAB_CODE_1d1f                                        = ??
       CODE:1d18 03              RR         A
       CODE:1d19 03              RR         A
       CODE:1d1a f5 5b           MOV        DAT_INTMEM_5b,A                                            = ??
       CODE:1d1c 02 1c 88        LJMP       LAB_CODE_1c88
                             LAB_CODE_1d1f                                   XREF[1]:     CODE:1d15(j)  
       CODE:1d1f 75 5b 00        MOV        DAT_INTMEM_5b,#0x0                                         = ??
       CODE:1d22 02 1c 88        LJMP       LAB_CODE_1c88
                             LAB_CODE_1d25                                   XREF[2]:     CODE:1d00(j), CODE:1d05(j)  
       CODE:1d25 d2 09           SETB       21.1                                                       = ??
       CODE:1d27 02 1c 88        LJMP       LAB_CODE_1c88
                             **************************************************************
                             *                          FUNCTION                          *
                             **************************************************************
                             undefined FUN_CODE_1d2a()
             undefined         ACC:1          <RETURN>
                             FUN_CODE_1d2a                                   XREF[1]:     FUN_CODE_0756:07a4(c)  
       CODE:1d2a 30 17 05        JNB        22.7,LAB_CODE_1d32                                         = ??
       CODE:1d2d 12 23 e9        LCALL      FUN_CODE_23e9                                              undefined FUN_CODE_23e9()
       CODE:1d30 50 2c           JNC        LAB_CODE_1d5e
                             LAB_CODE_1d32                                   XREF[1]:     CODE:1d2a(j)  
       CODE:1d32 30 18 05        JNB        23.0,LAB_CODE_1d3a                                         = ??
       CODE:1d35 12 24 06        LCALL      FUN_CODE_2406                                              undefined FUN_CODE_2406()
       CODE:1d38 50 34           JNC        LAB_CODE_1d6e
                             LAB_CODE_1d3a                                   XREF[1]:     CODE:1d32(j)  
       CODE:1d3a 30 19 05        JNB        23.1,LAB_CODE_1d42                                         = ??
       CODE:1d3d 12 00 58        LCALL      FUN_CODE_0058                                              undefined FUN_CODE_0058()
       CODE:1d40 50 3c           JNC        LAB_CODE_1d7e
                             LAB_CODE_1d42                                   XREF[1]:     CODE:1d3a(j)  
       CODE:1d42 30 1a 05        JNB        23.2,LAB_CODE_1d4a                                         = ??
       CODE:1d45 12 00 36        LCALL      FUN_CODE_0036                                              undefined FUN_CODE_0036()
       CODE:1d48 50 44           JNC        LAB_CODE_1d8e
                             LAB_CODE_1d4a                                   XREF[1]:     CODE:1d42(j)  
       CODE:1d4a 20 12 04        JB         22.2,LAB_CODE_1d51                                         = ??
       CODE:1d4d c2 1b           CLR        23.3                                                       = ??
       CODE:1d4f 80 0c           SJMP       LAB_CODE_1d5d
                             LAB_CODE_1d51                                   XREF[1]:     CODE:1d4a(j)  
       CODE:1d51 20 1b 09        JB         23.3,LAB_CODE_1d5d                                         = ??
       CODE:1d54 12 00 93        LCALL      FUN_CODE_0093                                              undefined FUN_CODE_0093()
       CODE:1d57 50 04           JNC        LAB_CODE_1d5d
       CODE:1d59 d2 1b           SETB       23.3                                                       = ??
       CODE:1d5b d2 49           SETB       29.1                                                       = ??
                             LAB_CODE_1d5d                                   XREF[3]:     CODE:1d4f(j), CODE:1d51(j), 
                                                                                          CODE:1d57(j)  
       CODE:1d5d 22              RET
                             LAB_CODE_1d5e                                   XREF[1]:     CODE:1d30(j)  
       CODE:1d5e d2 1c           SETB       23.4                                                       = ??
       CODE:1d60 75 5a 01        MOV        DAT_INTMEM_5a,#0x1                                         = ??
       CODE:1d63 75 5c 01        MOV        DAT_INTMEM_5c,#0x1                                         = ??
       CODE:1d66 75 5b 00        MOV        DAT_INTMEM_5b,#0x0                                         = ??
       CODE:1d69 d2 46           SETB       28.6                                                       = ??
       CODE:1d6b d2 33           SETB       26.3                                                       = ??
       CODE:1d6d 22              RET
                             LAB_CODE_1d6e                                   XREF[1]:     CODE:1d38(j)  
       CODE:1d6e d2 1c           SETB       23.4                                                       = ??
       CODE:1d70 75 5a 0d        MOV        DAT_INTMEM_5a,#0xd                                         = ??
       CODE:1d73 75 5c 0d        MOV        DAT_INTMEM_5c,#0xd                                         = ??
       CODE:1d76 75 5b 00        MOV        DAT_INTMEM_5b,#0x0                                         = ??
       CODE:1d79 d2 46           SETB       28.6                                                       = ??
       CODE:1d7b d2 33           SETB       26.3                                                       = ??
       CODE:1d7d 22              RET
                             LAB_CODE_1d7e                                   XREF[1]:     CODE:1d40(j)  
       CODE:1d7e d2 1c           SETB       23.4                                                       = ??
       CODE:1d80 75 5a 02        MOV        DAT_INTMEM_5a,#0x2                                         = ??
       CODE:1d83 75 5c 02        MOV        DAT_INTMEM_5c,#0x2                                         = ??
       CODE:1d86 75 5b 00        MOV        DAT_INTMEM_5b,#0x0                                         = ??
       CODE:1d89 d2 46           SETB       28.6                                                       = ??
       CODE:1d8b d2 33           SETB       26.3                                                       = ??
       CODE:1d8d 22              RET
                             LAB_CODE_1d8e                                   XREF[1]:     CODE:1d48(j)  
       CODE:1d8e d2 1c           SETB       23.4                                                       = ??
       CODE:1d90 75 5a 03        MOV        DAT_INTMEM_5a,#0x3                                         = ??
       CODE:1d93 75 5c 03        MOV        DAT_INTMEM_5c,#0x3                                         = ??
       CODE:1d96 75 5b 00        MOV        DAT_INTMEM_5b,#0x0                                         = ??
       CODE:1d99 d2 46           SETB       28.6                                                       = ??
       CODE:1d9b d2 33           SETB       26.3                                                       = ??
       CODE:1d9d 22              RET
                             LAB_CODE_1d9e                                   XREF[3]:     CODE:1db6(j), CODE:1dbe(j), 
                                                                                          CODE:1dd5(j)  
       CODE:1d9e 78 a8           MOV        R0,#0xa8
       CODE:1da0 76 00           MOV        @R0=>DAT_INTMEM_a8,#0x0                                    = ??
       CODE:1da2 22              RET
                             LAB_CODE_1da3                                   XREF[2]:     CODE:1dc1(j), CODE:1dc6(j)  
       CODE:1da3 78 a8           MOV        R0,#0xa8
       CODE:1da5 76 01           MOV        @R0=>DAT_INTMEM_a8,#0x1                                    = ??
       CODE:1da7 22              RET
                             LAB_CODE_1da8                                   XREF[3]:     CODE:1db4(j), CODE:1dce(j), 
                                                                                          CODE:1dd3(j)  
       CODE:1da8 78 a8           MOV        R0,#0xa8
       CODE:1daa 76 02           MOV        @R0=>DAT_INTMEM_a8,#0x2                                    = ??
       CODE:1dac 22              RET
       CODE:1dad 22              ??         22h    "
                             LAB_CODE_1dae                                   XREF[1]:     CODE:1de0(j)  
       CODE:1dae 12 24 58        LCALL      FUN_CODE_2458                                              undefined FUN_CODE_2458()
       CODE:1db1 12 0d 48        LCALL      FUN_CODE_0d48                                              undefined FUN_CODE_0d48()
       CODE:1db4 40 f2           JC         LAB_CODE_1da8
       CODE:1db6 30 35 e5        JNB        26.5,LAB_CODE_1d9e                                         = ??
       CODE:1db9 c2 36           CLR        26.6                                                       = ??
       CODE:1dbb 12 08 3e        LCALL      FUN_CODE_083e                                              undefined FUN_CODE_083e()
       CODE:1dbe 30 35 dd        JNB        26.5,LAB_CODE_1d9e                                         = ??
       CODE:1dc1 20 36 df        JB         26.6,LAB_CODE_1da3                                         = ??
       CODE:1dc4 80 03           SJMP       LAB_CODE_1dc9
                             LAB_CODE_1dc6                                   XREF[1]:     CODE:1de3(j)  
       CODE:1dc6 20 36 da        JB         26.6,LAB_CODE_1da3                                         = ??
                             LAB_CODE_1dc9                                   XREF[1]:     CODE:1dc4(j)  
       CODE:1dc9 12 24 76        LCALL      FUN_CODE_2476                                              undefined FUN_CODE_2476()
       CODE:1dcc c2 35           CLR        26.5                                                       = ??
       CODE:1dce 80 d8           SJMP       LAB_CODE_1da8
                             LAB_CODE_1dd0                                   XREF[1]:     CODE:1de6(j)  
       CODE:1dd0 12 24 7a        LCALL      FUN_CODE_247a                                              undefined FUN_CODE_247a()
       CODE:1dd3 50 d3           JNC        LAB_CODE_1da8
       CODE:1dd5 80 c7           SJMP       LAB_CODE_1d9e
                             **************************************************************
                             *                          FUNCTION                          *
                             **************************************************************
                             undefined FUN_CODE_1dd7()
             undefined         ACC:1          <RETURN>
                             FUN_CODE_1dd7                                   XREF[1]:     FUN_CODE_0756:07dd(c)  
       CODE:1dd7 78 a8           MOV        R0,#0xa8
       CODE:1dd9 e6              MOV        A,@R0=>DAT_INTMEM_a8                                       = ??
       CODE:1dda 26              ADD        A,@R0=>DAT_INTMEM_a8                                       = ??
       CODE:1ddb 26              ADD        A,@R0=>DAT_INTMEM_a8                                       = ??
       CODE:1ddc 90 1d e0        MOV        DPTR,#LAB_CODE_1de0
       CODE:1ddf 73              JMP        @A+DPTR
                             LAB_CODE_1de0                                   XREF[1]:     FUN_CODE_1dd7:1ddc(*)  
       CODE:1de0 02 1d ae        LJMP       LAB_CODE_1dae
       CODE:1de3 02 1d c6        LJMP       LAB_CODE_1dc6
       CODE:1de6 02 1d d0        LJMP       LAB_CODE_1dd0
                             **************************************************************
                             *                          FUNCTION                          *
                             **************************************************************
                             undefined FUN_CODE_1de9()
             undefined         ACC:1          <RETURN>
                             FUN_CODE_1de9                                   XREF[1]:     FUN_CODE_0756:07c5(c)  
       CODE:1de9 12 23 4f        LCALL      FUN_CODE_234f                                              undefined FUN_CODE_234f()
       CODE:1dec 78 7e           MOV        R0,#0x7e
       CODE:1dee e6              MOV        A,@R0=>DAT_INTMEM_7e                                       = ??
       CODE:1def 26              ADD        A,@R0=>DAT_INTMEM_7e                                       = ??
       CODE:1df0 26              ADD        A,@R0=>DAT_INTMEM_7e                                       = ??
       CODE:1df1 90 1d f5        MOV        DPTR,#LAB_CODE_1df5
       CODE:1df4 73              JMP        @A+DPTR
                             LAB_CODE_1df5                                   XREF[1]:     FUN_CODE_1de9:1df1(*)  
       CODE:1df5 02 1e b0        LJMP       LAB_CODE_1eb0
       CODE:1df8 02 1e 0a        LJMP       LAB_CODE_1e0a
       CODE:1dfb 02 1f 52        LJMP       LAB_CODE_1f52
       CODE:1dfe 02 1e b5        LJMP       LAB_CODE_1eb5
       CODE:1e01 02 1f 65        LJMP       LAB_CODE_1f65
       CODE:1e04 02 20 1f        LJMP       LAB_CODE_201f
       CODE:1e07 02 1e a5        LJMP       LAB_CODE_1ea5
                             LAB_CODE_1e0a                                   XREF[1]:     CODE:1df8(j)  
       CODE:1e0a 75 3b 80        MOV        DAT_INTMEM_3b,#0x80                                        = ??
       CODE:1e0d d2 1f           SETB       23.7                                                       = ??
       CODE:1e0f 75 37 62        MOV        DAT_INTMEM_37,#0x62                                        = ??
       CODE:1e12 20 03 28        JB         20.3,LAB_CODE_1e3d                                         = ??
       CODE:1e15 20 09 2a        JB         21.1,LAB_CODE_1e42                                         = ??
       CODE:1e18 20 23 2f        JB         24.3,LAB_CODE_1e4a                                         = ??
       CODE:1e1b 20 08 34        JB         21.0,LAB_CODE_1e52                                         = ??
       CODE:1e1e 20 20 36        JB         24.0,LAB_CODE_1e57                                         = ??
       CODE:1e21 20 21 38        JB         24.1,LAB_CODE_1e5c                                         = ??
       CODE:1e24 20 22 3a        JB         24.2,LAB_CODE_1e61                                         = ??
       CODE:1e27 20 0a 3c        JB         21.2,LAB_CODE_1e66                                         = ??
       CODE:1e2a 20 4c 3e        JB         29.4,LAB_CODE_1e6b                                         = ??
       CODE:1e2d 12 2d 24        LCALL      FUN_CODE_2d24                                              undefined FUN_CODE_2d24()
       CODE:1e30 70 3e           JNZ        LAB_CODE_1e70
       CODE:1e32 20 58 05        JB         2b.0,LAB_CODE_1e3a                                         = ??
       CODE:1e35 12 2d 27        LCALL      FUN_CODE_2d27                                              undefined FUN_CODE_2d27()
       CODE:1e38 40 3a           JC         LAB_CODE_1e74
                             LAB_CODE_1e3a                                   XREF[1]:     CODE:1e32(j)  
       CODE:1e3a 02 1f 51        LJMP       LAB_CODE_1f51
                             LAB_CODE_1e3d                                   XREF[1]:     CODE:1e12(j)  
       CODE:1e3d 75 63 30        MOV        DAT_INTMEM_63,#0x30                                        = ??
       CODE:1e40 80 3b           SJMP       LAB_CODE_1e7d
                             LAB_CODE_1e42                                   XREF[1]:     CODE:1e15(j)  
       CODE:1e42 75 37 60        MOV        DAT_INTMEM_37,#0x60                                        = ??
       CODE:1e45 75 63 12        MOV        DAT_INTMEM_63,#0x12                                        = ??
       CODE:1e48 80 33           SJMP       LAB_CODE_1e7d
                             LAB_CODE_1e4a                                   XREF[1]:     CODE:1e18(j)  
       CODE:1e4a 75 37 60        MOV        DAT_INTMEM_37,#0x60                                        = ??
       CODE:1e4d 75 63 21        MOV        DAT_INTMEM_63,#0x21                                        = ??
       CODE:1e50 80 2b           SJMP       LAB_CODE_1e7d
                             LAB_CODE_1e52                                   XREF[1]:     CODE:1e1b(j)  
       CODE:1e52 75 63 11        MOV        DAT_INTMEM_63,#0x11                                        = ??
       CODE:1e55 80 26           SJMP       LAB_CODE_1e7d
                             LAB_CODE_1e57                                   XREF[1]:     CODE:1e1e(j)  
       CODE:1e57 75 63 20        MOV        DAT_INTMEM_63,#0x20                                        = ??
       CODE:1e5a 80 21           SJMP       LAB_CODE_1e7d
                             LAB_CODE_1e5c                                   XREF[1]:     CODE:1e21(j)  
       CODE:1e5c 75 63 22        MOV        DAT_INTMEM_63,#0x22                                        = ??
       CODE:1e5f 80 1c           SJMP       LAB_CODE_1e7d
                             LAB_CODE_1e61                                   XREF[1]:     CODE:1e24(j)  
       CODE:1e61 75 63 24        MOV        DAT_INTMEM_63,#0x24                                        = ??
       CODE:1e64 80 17           SJMP       LAB_CODE_1e7d
                             LAB_CODE_1e66                                   XREF[1]:     CODE:1e27(j)  
       CODE:1e66 75 63 41        MOV        DAT_INTMEM_63,#0x41                                        = ??
       CODE:1e69 80 12           SJMP       LAB_CODE_1e7d
                             LAB_CODE_1e6b                                   XREF[1]:     CODE:1e2a(j)  
       CODE:1e6b 75 63 55        MOV        DAT_INTMEM_63,#0x55                                        = ??
       CODE:1e6e 80 0d           SJMP       LAB_CODE_1e7d
                             LAB_CODE_1e70                                   XREF[1]:     CODE:1e30(j)  
       CODE:1e70 f5 63           MOV        DAT_INTMEM_63,A                                            = ??
       CODE:1e72 80 09           SJMP       LAB_CODE_1e7d
                             LAB_CODE_1e74                                   XREF[1]:     CODE:1e38(j)  
       CODE:1e74 c2 57           CLR        2a.7                                                       = ??
       CODE:1e76 d2 45           SETB       28.5                                                       = ??
       CODE:1e78 75 63 15        MOV        DAT_INTMEM_63,#0x15                                        = ??
       CODE:1e7b c2 25           CLR        24.5                                                       = ??
                             LAB_CODE_1e7d                                   XREF[10]:    CODE:1e40(j), CODE:1e48(j), 
                                                                                          CODE:1e50(j), CODE:1e55(j), 
                                                                                          CODE:1e5a(j), CODE:1e5f(j), 
                                                                                          CODE:1e64(j), CODE:1e69(j), 
                                                                                          CODE:1e6e(j), CODE:1e72(j)  
       CODE:1e7d c2 03           CLR        20.3                                                       = ??
       CODE:1e7f c2 09           CLR        21.1                                                       = ??
       CODE:1e81 c2 23           CLR        24.3                                                       = ??
       CODE:1e83 c2 08           CLR        21.0                                                       = ??
       CODE:1e85 c2 20           CLR        24.0                                                       = ??
       CODE:1e87 c2 21           CLR        24.1                                                       = ??
       CODE:1e89 c2 0a           CLR        21.2                                                       = ??
       CODE:1e8b c2 0b           CLR        21.3                                                       = ??
       CODE:1e8d c2 4c           CLR        29.4                                                       = ??
       CODE:1e8f c2 1f           CLR        23.7                                                       = ??
       CODE:1e91 d2 02           SETB       20.2                                                       = ??
       CODE:1e93 75 62 81        MOV        DAT_INTMEM_62,#0x81                                        = ??
       CODE:1e96 d2 47           SETB       28.7                                                       = ??
       CODE:1e98 d2 48           SETB       29.0                                                       = ??
       CODE:1e9a 20 1c 05        JB         23.4,LAB_CODE_1ea2                                         = ??
       CODE:1e9d d2 0d           SETB       21.5                                                       = ??
       CODE:1e9f 02 1f 38        LJMP       LAB_CODE_1f38
                             LAB_CODE_1ea2                                   XREF[1]:     CODE:1e9a(j)  
       CODE:1ea2 02 20 2d        LJMP       LAB_CODE_202d
                             LAB_CODE_1ea5                                   XREF[1]:     CODE:1e07(j)  
       CODE:1ea5 20 10 2b        JB         22.0,LAB_CODE_1ed3                                         = ??
       CODE:1ea8 12 08 0d        LCALL      FUN_CODE_080d                                              undefined FUN_CODE_080d()
       CODE:1eab d2 0c           SETB       21.4                                                       = ??
       CODE:1ead 02 1f 2e        LJMP       LAB_CODE_1f2e
                             LAB_CODE_1eb0                                   XREF[1]:     CODE:1df5(j)  
       CODE:1eb0 20 0c 20        JB         21.4,LAB_CODE_1ed3                                         = ??
       CODE:1eb3 80 7e           SJMP       LAB_CODE_1f33
                             LAB_CODE_1eb5                                   XREF[1]:     CODE:1dfe(j)  
       CODE:1eb5 75 3b aa        MOV        DAT_INTMEM_3b,#0xaa                                        = ??
       CODE:1eb8 75 3a 00        MOV        DAT_INTMEM_3a,#0x0                                         = ??
       CODE:1ebb 20 1c 6d        JB         23.4,LAB_CODE_1f2b                                         = ??
       CODE:1ebe 20 1d 6a        JB         23.5,LAB_CODE_1f2b                                         = ??
       CODE:1ec1 30 0e 50        JNB        21.6,LAB_CODE_1f14                                         = ??
       CODE:1ec4 20 09 0e        JB         21.1,LAB_CODE_1ed5                                         = ??
       CODE:1ec7 20 23 25        JB         24.3,LAB_CODE_1eef                                         = ??
       CODE:1eca 20 12 06        JB         22.2,LAB_CODE_1ed3                                         = ??
       CODE:1ecd 20 08 39        JB         21.0,LAB_CODE_1f09                                         = ??
       CODE:1ed0 20 20 36        JB         24.0,LAB_CODE_1f09                                         = ??
                             LAB_CODE_1ed3                                   XREF[3]:     CODE:1ea5(j), CODE:1eb0(j), 
                                                                                          CODE:1eca(j)  
       CODE:1ed3 80 7c           SJMP       LAB_CODE_1f51
                             LAB_CODE_1ed5                                   XREF[1]:     CODE:1ec4(j)  
       CODE:1ed5 c2 09           CLR        21.1                                                       = ??
       CODE:1ed7 e5 37           MOV        A,DAT_INTMEM_37                                            = ??
       CODE:1ed9 75 37 60        MOV        DAT_INTMEM_37,#0x60                                        = ??
       CODE:1edc b4 60 05        CJNE       A,#0x60,LAB_CODE_1ee4
       CODE:1edf 75 37 62        MOV        DAT_INTMEM_37,#0x62                                        = ??
       CODE:1ee2 80 09           SJMP       LAB_CODE_1eed
                             LAB_CODE_1ee4                                   XREF[1]:     CODE:1edc(j)  
       CODE:1ee4 b4 65 06        CJNE       A,#0x65,LAB_CODE_1eed
       CODE:1ee7 20 28 03        JB         25.0,LAB_CODE_1eed                                         = ??
       CODE:1eea 75 37 62        MOV        DAT_INTMEM_37,#0x62                                        = ??
                             LAB_CODE_1eed                                   XREF[3]:     CODE:1ee2(j), CODE:1ee4(j), 
                                                                                          CODE:1ee7(j)  
       CODE:1eed 80 62           SJMP       LAB_CODE_1f51
                             LAB_CODE_1eef                                   XREF[1]:     CODE:1ec7(j)  
       CODE:1eef c2 23           CLR        24.3                                                       = ??
       CODE:1ef1 e5 37           MOV        A,DAT_INTMEM_37                                            = ??
       CODE:1ef3 75 37 60        MOV        DAT_INTMEM_37,#0x60                                        = ??
       CODE:1ef6 b4 60 05        CJNE       A,#0x60,LAB_CODE_1efe
       CODE:1ef9 75 37 62        MOV        DAT_INTMEM_37,#0x62                                        = ??
       CODE:1efc 80 09           SJMP       LAB_CODE_1f07
                             LAB_CODE_1efe                                   XREF[1]:     CODE:1ef6(j)  
       CODE:1efe b4 65 06        CJNE       A,#0x65,LAB_CODE_1f07
       CODE:1f01 20 28 03        JB         25.0,LAB_CODE_1f07                                         = ??
       CODE:1f04 75 37 62        MOV        DAT_INTMEM_37,#0x62                                        = ??
                             LAB_CODE_1f07                                   XREF[3]:     CODE:1efc(j), CODE:1efe(j), 
                                                                                          CODE:1f01(j)  
       CODE:1f07 80 48           SJMP       LAB_CODE_1f51
                             LAB_CODE_1f09                                   XREF[2]:     CODE:1ecd(j), CODE:1ed0(j)  
       CODE:1f09 c2 0d           CLR        21.5                                                       = ??
       CODE:1f0b c2 10           CLR        22.0                                                       = ??
       CODE:1f0d c2 0e           CLR        21.6                                                       = ??
       CODE:1f0f c2 0f           CLR        21.7                                                       = ??
       CODE:1f11 02 1f df        LJMP       LAB_CODE_1fdf
                             LAB_CODE_1f14                                   XREF[1]:     CODE:1ec1(j)  
       CODE:1f14 90 1f 25        MOV        DPTR,#0x1f25
       CODE:1f17 e5 3f           MOV        A,DAT_INTMEM_3f                                            = ??
       CODE:1f19 93              MOVC       A,@A+DPTR=>DAT_CODE_1f25
       CODE:1f1a f5 3a           MOV        DAT_INTMEM_3a,A                                            = ??
       CODE:1f1c d2 37           SETB       26.7                                                       = ??
       CODE:1f1e d2 3e           SETB       27.6                                                       = ??
       CODE:1f20 75 3d 00        MOV        DAT_INTMEM_3d,#0x0                                         = ??
       CODE:1f23 80 1d           SJMP       LAB_CODE_1f42
                             DAT_CODE_1f25                                   XREF[1]:     CODE:1f19(*)  
       CODE:1f25 00              ??         00h
       CODE:1f26 80              ??         80h
       CODE:1f27 a0              ??         A0h
       CODE:1f28 a8              ??         A8h
       CODE:1f29 aa              ??         AAh
       CODE:1f2a ff              ??         FFh
                             LAB_CODE_1f2b                                   XREF[6]:     CODE:1ebb(j), CODE:1ebe(j), 
                                                                                          CODE:1f55(j), CODE:1f58(j), 
                                                                                          CODE:1f68(j), CODE:1f6b(j)  
       CODE:1f2b 02 20 2d        LJMP       LAB_CODE_202d
                             LAB_CODE_1f2e                                   XREF[1]:     CODE:1ead(j)  
       CODE:1f2e 78 7e           MOV        R0,#0x7e
       CODE:1f30 76 00           MOV        @R0=>DAT_INTMEM_7e,#0x0                                    = ??
       CODE:1f32 22              RET
                             LAB_CODE_1f33                                   XREF[1]:     CODE:1eb3(j)  
       CODE:1f33 78 7e           MOV        R0,#0x7e
       CODE:1f35 76 01           MOV        @R0=>DAT_INTMEM_7e,#0x1                                    = ??
       CODE:1f37 22              RET
                             LAB_CODE_1f38                                   XREF[1]:     CODE:1e9f(j)  
       CODE:1f38 78 7e           MOV        R0,#0x7e
       CODE:1f3a 76 02           MOV        @R0=>DAT_INTMEM_7e,#0x2                                    = ??
       CODE:1f3c 22              RET
                             LAB_CODE_1f3d                                   XREF[2]:     CODE:1f63(j), CODE:201c(j)  
       CODE:1f3d 78 7e           MOV        R0,#0x7e
       CODE:1f3f 76 03           MOV        @R0=>DAT_INTMEM_7e,#0x3                                    = ??
       CODE:1f41 22              RET
                             LAB_CODE_1f42                                   XREF[7]:     CODE:1f23(j), CODE:1f96(j), 
                                                                                          CODE:1f98(j), CODE:1fa5(j), 
                                                                                          CODE:1fa7(j), CODE:1fbf(j), 
                                                                                          CODE:1fd7(j)  
       CODE:1f42 78 7e           MOV        R0,#0x7e
       CODE:1f44 76 04           MOV        @R0=>DAT_INTMEM_7e,#0x4                                    = ??
       CODE:1f46 22              RET
                             LAB_CODE_1f47                                   XREF[1]:     CODE:1feb(j)  
       CODE:1f47 78 7e           MOV        R0,#0x7e
       CODE:1f49 76 05           MOV        @R0=>DAT_INTMEM_7e,#0x5                                    = ??
       CODE:1f4b 22              RET
                             LAB_CODE_1f4c                                   XREF[1]:     CODE:2027(j)  
       CODE:1f4c 78 7e           MOV        R0,#0x7e
       CODE:1f4e 76 06           MOV        @R0=>DAT_INTMEM_7e,#0x6                                    = ??
       CODE:1f50 22              RET
                             LAB_CODE_1f51                                   XREF[6]:     CODE:1e3a(j), CODE:1ed3(j), 
                                                                                          CODE:1eed(j), CODE:1f07(j), 
                                                                                          CODE:1f5b(j), CODE:202a(j)  
       CODE:1f51 22              RET
                             LAB_CODE_1f52                                   XREF[1]:     CODE:1dfb(j)  
       CODE:1f52 75 3b aa        MOV        DAT_INTMEM_3b,#0xaa                                        = ??
       CODE:1f55 20 1c d3        JB         23.4,LAB_CODE_1f2b                                         = ??
       CODE:1f58 20 1d d0        JB         23.5,LAB_CODE_1f2b                                         = ??
       CODE:1f5b 20 0d f3        JB         21.5,LAB_CODE_1f51                                         = ??
       CODE:1f5e d2 0e           SETB       21.6                                                       = ??
       CODE:1f60 75 3f 00        MOV        DAT_INTMEM_3f,#0x0                                         = ??
       CODE:1f63 80 d8           SJMP       LAB_CODE_1f3d
                             LAB_CODE_1f65                                   XREF[1]:     CODE:1e01(j)  
       CODE:1f65 75 3b fe        MOV        DAT_INTMEM_3b,#0xfe                                        = ??
       CODE:1f68 20 1c c0        JB         23.4,LAB_CODE_1f2b                                         = ??
       CODE:1f6b 20 1d bd        JB         23.5,LAB_CODE_1f2b                                         = ??
       CODE:1f6e e5 3d           MOV        A,DAT_INTMEM_3d                                            = ??
       CODE:1f70 70 26           JNZ        LAB_CODE_1f98
       CODE:1f72 20 04 6a        JB         20.4,LAB_CODE_1fdf                                         = ??
       CODE:1f75 20 03 67        JB         20.3,LAB_CODE_1fdf                                         = ??
       CODE:1f78 20 14 22        JB         22.4,LAB_CODE_1f9d                                         = ??
       CODE:1f7b 20 08 1f        JB         21.0,LAB_CODE_1f9d                                         = ??
       CODE:1f7e 20 20 1c        JB         24.0,LAB_CODE_1f9d                                         = ??
       CODE:1f81 20 0b 19        JB         21.3,LAB_CODE_1f9d                                         = ??
       CODE:1f84 30 58 05        JNB        2b.0,LAB_CODE_1f8c                                         = ??
       CODE:1f87 12 2d 27        LCALL      FUN_CODE_2d27                                              undefined FUN_CODE_2d27()
       CODE:1f8a 40 62           JC         LAB_CODE_1fee
                             LAB_CODE_1f8c                                   XREF[1]:     CODE:1f84(j)  
       CODE:1f8c e5 66           MOV        A,DAT_INTMEM_66                                            = ??
       CODE:1f8e 70 17           JNZ        LAB_CODE_1fa7
       CODE:1f90 20 09 19        JB         21.1,LAB_CODE_1fac                                         = ??
       CODE:1f93 20 23 1a        JB         24.3,LAB_CODE_1fb0                                         = ??
       CODE:1f96 80 aa           SJMP       LAB_CODE_1f42
                             LAB_CODE_1f98                                   XREF[1]:     CODE:1f70(j)  
       CODE:1f98 d5 3d a7        DJNZ       DAT_INTMEM_3d,LAB_CODE_1f42                                = ??
       CODE:1f9b 80 3d           SJMP       LAB_CODE_1fda
                             LAB_CODE_1f9d                                   XREF[4]:     CODE:1f78(j), CODE:1f7b(j), 
                                                                                          CODE:1f7e(j), CODE:1f81(j)  
       CODE:1f9d 30 13 3a        JNB        22.3,LAB_CODE_1fda                                         = ??
       CODE:1fa0 d2 3a           SETB       27.2                                                       = ??
       CODE:1fa2 75 3d 0d        MOV        DAT_INTMEM_3d,#0xd                                         = ??
       CODE:1fa5 80 9b           SJMP       LAB_CODE_1f42
                             LAB_CODE_1fa7                                   XREF[1]:     CODE:1f8e(j)  
       CODE:1fa7 d5 66 98        DJNZ       DAT_INTMEM_66,LAB_CODE_1f42                                = ??
       CODE:1faa 80 15           SJMP       LAB_CODE_1fc1
                             LAB_CODE_1fac                                   XREF[1]:     CODE:1f90(j)  
       CODE:1fac c2 09           CLR        21.1                                                       = ??
       CODE:1fae 80 02           SJMP       LAB_CODE_1fb2
                             LAB_CODE_1fb0                                   XREF[1]:     CODE:1f93(j)  
       CODE:1fb0 c2 23           CLR        24.3                                                       = ??
                             LAB_CODE_1fb2                                   XREF[1]:     CODE:1fae(j)  
       CODE:1fb2 30 13 0c        JNB        22.3,LAB_CODE_1fc1                                         = ??
       CODE:1fb5 e5 36           MOV        A,DAT_INTMEM_36                                            = ??
       CODE:1fb7 b4 62 07        CJNE       A,#0x62,LAB_CODE_1fc1
       CODE:1fba d2 3d           SETB       27.5                                                       = ??
       CODE:1fbc 75 66 02        MOV        DAT_INTMEM_66,#0x2                                         = ??
       CODE:1fbf 80 81           SJMP       LAB_CODE_1f42
                             LAB_CODE_1fc1                                   XREF[3]:     CODE:1faa(j), CODE:1fb2(j), 
                                                                                          CODE:1fb7(j)  
       CODE:1fc1 e5 37           MOV        A,DAT_INTMEM_37                                            = ??
       CODE:1fc3 75 37 60        MOV        DAT_INTMEM_37,#0x60                                        = ??
       CODE:1fc6 b4 60 05        CJNE       A,#0x60,LAB_CODE_1fce
       CODE:1fc9 75 37 62        MOV        DAT_INTMEM_37,#0x62                                        = ??
       CODE:1fcc 80 09           SJMP       LAB_CODE_1fd7
                             LAB_CODE_1fce                                   XREF[1]:     CODE:1fc6(j)  
       CODE:1fce b4 65 06        CJNE       A,#0x65,LAB_CODE_1fd7
       CODE:1fd1 20 28 03        JB         25.0,LAB_CODE_1fd7                                         = ??
       CODE:1fd4 75 37 62        MOV        DAT_INTMEM_37,#0x62                                        = ??
                             LAB_CODE_1fd7                                   XREF[3]:     CODE:1fcc(j), CODE:1fce(j), 
                                                                                          CODE:1fd1(j)  
       CODE:1fd7 02 1f 42        LJMP       LAB_CODE_1f42
                             LAB_CODE_1fda                                   XREF[2]:     CODE:1f9b(j), CODE:1f9d(j)  
       CODE:1fda 20 14 20        JB         22.4,LAB_CODE_1ffd                                         = ??
       CODE:1fdd 80 00           SJMP       LAB_CODE_1fdf
                             LAB_CODE_1fdf                                   XREF[4]:     CODE:1f11(j), CODE:1f72(j), 
                                                                                          CODE:1f75(j), CODE:1fdd(j)  
       CODE:1fdf 75 62 00        MOV        DAT_INTMEM_62,#0x0                                         = ??
       CODE:1fe2 d2 47           SETB       28.7                                                       = ??
       CODE:1fe4 75 37 62        MOV        DAT_INTMEM_37,#0x62                                        = ??
                             LAB_CODE_1fe7                                   XREF[1]:     CODE:2042(j)  
       CODE:1fe7 d2 02           SETB       20.2                                                       = ??
       CODE:1fe9 d2 0f           SETB       21.7                                                       = ??
       CODE:1feb 02 1f 47        LJMP       LAB_CODE_1f47
                             LAB_CODE_1fee                                   XREF[1]:     CODE:1f8a(j)  
       CODE:1fee c2 57           CLR        2a.7                                                       = ??
       CODE:1ff0 75 67 00        MOV        DAT_INTMEM_67,#0x0                                         = ??
       CODE:1ff3 75 68 00        MOV        DAT_INTMEM_68,#0x0                                         = ??
       CODE:1ff6 75 63 16        MOV        DAT_INTMEM_63,#0x16                                        = ??
       CODE:1ff9 d2 14           SETB       22.4                                                       = ??
       CODE:1ffb 80 03           SJMP       LAB_CODE_2000
                             LAB_CODE_1ffd                                   XREF[1]:     CODE:1fda(j)  
       CODE:1ffd 75 63 31        MOV        DAT_INTMEM_63,#0x31                                        = ??
                             LAB_CODE_2000                                   XREF[1]:     CODE:1ffb(j)  
       CODE:2000 c2 4e           CLR        29.6                                                       = ??
       CODE:2002 20 16 03        JB         22.6,LAB_CODE_2008                                         = ??
       CODE:2005 53 62 c3        ANL        DAT_INTMEM_62,#0xc3                                        = ??
                             LAB_CODE_2008                                   XREF[1]:     CODE:2002(j)  
       CODE:2008 c2 16           CLR        22.6                                                       = ??
       CODE:200a 78 b0           MOV        R0,#0xb0
       CODE:200c 76 00           MOV        @R0=>DAT_INTMEM_b0,#0x0                                    = ??
       CODE:200e d2 47           SETB       28.7                                                       = ??
       CODE:2010 d2 48           SETB       29.0                                                       = ??
       CODE:2012 30 15 02        JNB        22.5,LAB_CODE_2017                                         = ??
       CODE:2015 d2 4a           SETB       29.2                                                       = ??
                             LAB_CODE_2017                                   XREF[1]:     CODE:2012(j)  
       CODE:2017 d2 0e           SETB       21.6                                                       = ??
       CODE:2019 75 3f 00        MOV        DAT_INTMEM_3f,#0x0                                         = ??
       CODE:201c 02 1f 3d        LJMP       LAB_CODE_1f3d
                             LAB_CODE_201f                                   XREF[1]:     CODE:1e04(j)  
       CODE:201f 75 3b aa        MOV        DAT_INTMEM_3b,#0xaa                                        = ??
       CODE:2022 20 0f 05        JB         21.7,LAB_CODE_202a                                         = ??
       CODE:2025 d2 10           SETB       22.0                                                       = ??
       CODE:2027 02 1f 4c        LJMP       LAB_CODE_1f4c
                             LAB_CODE_202a                                   XREF[1]:     CODE:2022(j)  
       CODE:202a 02 1f 51        LJMP       LAB_CODE_1f51
                             LAB_CODE_202d                                   XREF[2]:     CODE:1ea2(j), CODE:1f2b(j)  
       CODE:202d c2 0d           CLR        21.5                                                       = ??
       CODE:202f c2 10           CLR        22.0                                                       = ??
       CODE:2031 c2 0e           CLR        21.6                                                       = ??
       CODE:2033 c2 0f           CLR        21.7                                                       = ??
       CODE:2035 78 b0           MOV        R0,#0xb0
       CODE:2037 76 0d           MOV        @R0=>DAT_INTMEM_b0,#0xd                                    = ??
       CODE:2039 20 1c 04        JB         23.4,LAB_CODE_2040                                         = ??
       CODE:203c 78 b0           MOV        R0,#0xb0
       CODE:203e 76 0a           MOV        @R0=>DAT_INTMEM_b0,#0xa                                    = ??
                             LAB_CODE_2040                                   XREF[1]:     CODE:2039(j)  
       CODE:2040 d2 48           SETB       29.0                                                       = ??
       CODE:2042 80 a3           SJMP       LAB_CODE_1fe7
                             **************************************************************
                             *                          FUNCTION                          *
                             **************************************************************
                             undefined FUN_CODE_2044()
             undefined         ACC:1          <RETURN>
                             FUN_CODE_2044                                   XREF[1]:     FUN_CODE_0756:07bc(c)  
       CODE:2044 30 17 17        JNB        22.7,LAB_CODE_205e                                         = ??
       CODE:2047 20 4d 08        JB         29.5,LAB_CODE_2052                                         = ??
       CODE:204a d5 54 05        DJNZ       DAT_INTMEM_54,LAB_CODE_2052                                = ??
       CODE:204d 75 54 10        MOV        DAT_INTMEM_54,#0x10                                        = ??
       CODE:2050 d2 32           SETB       26.2                                                       = ??
                             LAB_CODE_2052                                   XREF[2]:     CODE:2047(j), CODE:204a(j)  
       CODE:2052 30 51 15        JNB        2a.1,LAB_CODE_206a                                         = ??
       CODE:2055 30 52 12        JNB        2a.2,LAB_CODE_206a                                         = ??
       CODE:2058 30 53 0f        JNB        2a.3,LAB_CODE_206a                                         = ??
       CODE:205b 30 54 0c        JNB        2a.4,LAB_CODE_206a                                         = ??
                             LAB_CODE_205e                                   XREF[1]:     CODE:2044(j)  
       CODE:205e c2 51           CLR        2a.1                                                       = ??
       CODE:2060 c2 52           CLR        2a.2                                                       = ??
       CODE:2062 c2 53           CLR        2a.3                                                       = ??
       CODE:2064 c2 54           CLR        2a.4                                                       = ??
       CODE:2066 75 55 fa        MOV        DAT_INTMEM_55,#0xfa                                        = ??
                             LAB_CODE_2069                                   XREF[1]:     CODE:206a(j)  
       CODE:2069 22              RET
                             LAB_CODE_206a                                   XREF[4]:     CODE:2052(j), CODE:2055(j), 
                                                                                          CODE:2058(j), CODE:205b(j)  
       CODE:206a d5 55 fc        DJNZ       DAT_INTMEM_55,LAB_CODE_2069                                = ??
       CODE:206d d2 1c           SETB       23.4                                                       = ??
       CODE:206f 75 5a 0c        MOV        DAT_INTMEM_5a,#0xc                                         = ??
       CODE:2072 75 5c 0c        MOV        DAT_INTMEM_5c,#0xc                                         = ??
       CODE:2075 75 5b 00        MOV        DAT_INTMEM_5b,#0x0                                         = ??
       CODE:2078 d2 46           SETB       28.6                                                       = ??
       CODE:207a d2 33           SETB       26.3                                                       = ??
       CODE:207c 22              RET
                             LAB_CODE_207d                                   XREF[3]:     CODE:2098(j), 
                                                                                          FUN_CODE_209c:209f(j), 
                                                                                          FUN_CODE_20b6:20c4(j)  
       CODE:207d 78 7f           MOV        R0,#0x7f
       CODE:207f 76 00           MOV        @R0=>DAT_INTMEM_7f,#0x0                                    = ??
       CODE:2081 22              RET
                             **************************************************************
                             *                          FUNCTION                          *
                             **************************************************************
                             undefined FUN_CODE_2082()
             undefined         ACC:1          <RETURN>
                             FUN_CODE_2082                                   XREF[2]:     FUN_CODE_2092:209a(c), 
                                                                                          FUN_CODE_209c:20a1(j)  
       CODE:2082 78 7f           MOV        R0,#0x7f
       CODE:2084 76 01           MOV        @R0=>DAT_INTMEM_7f,#0x1                                    = ??
       CODE:2086 22              RET
                             **************************************************************
                             *                          FUNCTION                          *
                             **************************************************************
                             undefined FUN_CODE_2087()
             undefined         ACC:1          <RETURN>
                             FUN_CODE_2087                                   XREF[3]:     FUN_CODE_209c:20aa(c), 
                                                                                          FUN_CODE_20ac:20b2(j), 
                                                                                          FUN_CODE_20b6:20b9(j)  
       CODE:2087 78 7f           MOV        R0,#0x7f
       CODE:2089 76 02           MOV        @R0=>DAT_INTMEM_7f,#0x2                                    = ??
       CODE:208b 22              RET
                             **************************************************************
                             *                          FUNCTION                          *
                             **************************************************************
                             undefined FUN_CODE_208c()
             undefined         ACC:1          <RETURN>
                             FUN_CODE_208c                                   XREF[2]:     FUN_CODE_20ac:20b4(c), 
                                                                                          FUN_CODE_20b6:20bb(j)  
       CODE:208c 78 7f           MOV        R0,#0x7f
       CODE:208e 76 03           MOV        @R0=>DAT_INTMEM_7f,#0x3                                    = ??
       CODE:2090 22              RET
       CODE:2091 22              ??         22h    "
                             **************************************************************
                             *                          FUNCTION                          *
                             **************************************************************
                             undefined FUN_CODE_2092()
             undefined         ACC:1          <RETURN>
                             FUN_CODE_2092                                   XREF[1]:     CODE:20cf(c)  
       CODE:2092 75 65 04        MOV        DAT_INTMEM_65,#0x4                                         = ??
       CODE:2095 12 25 fc        LCALL      FUN_CODE_25fc                                              undefined FUN_CODE_25fc()
       CODE:2098 50 e3           JNC        LAB_CODE_207d
       CODE:209a 80 e6           SJMP       FUN_CODE_2082                                              undefined FUN_CODE_2082()
                             -- Flow Override: CALL_RETURN (CALL_TERMINATOR)
                             **************************************************************
                             *                          FUNCTION                          *
                             **************************************************************
                             undefined FUN_CODE_209c()
             undefined         ACC:1          <RETURN>
                             FUN_CODE_209c                                   XREF[1]:     CODE:20d2(c)  
       CODE:209c 12 25 fc        LCALL      FUN_CODE_25fc                                              undefined FUN_CODE_25fc()
       CODE:209f 50 dc           JNC        LAB_CODE_207d
       CODE:20a1 d5 65 de        DJNZ       DAT_INTMEM_65,FUN_CODE_2082                                = ??
       CODE:20a4 d2 05           SETB       20.5                                                       = ??
       CODE:20a6 d2 39           SETB       27.1                                                       = ??
       CODE:20a8 d2 43           SETB       28.3                                                       = ??
       CODE:20aa 80 db           SJMP       FUN_CODE_2087                                              undefined FUN_CODE_2087()
                             -- Flow Override: CALL_RETURN (CALL_TERMINATOR)
                             **************************************************************
                             *                          FUNCTION                          *
                             **************************************************************
                             undefined FUN_CODE_20ac()
             undefined         ACC:1          <RETURN>
                             FUN_CODE_20ac                                   XREF[1]:     CODE:20d5(c)  
       CODE:20ac 75 65 19        MOV        DAT_INTMEM_65,#0x19                                        = ??
       CODE:20af 12 25 fc        LCALL      FUN_CODE_25fc                                              undefined FUN_CODE_25fc()
       CODE:20b2 40 d3           JC         FUN_CODE_2087
       CODE:20b4 80 d6           SJMP       FUN_CODE_208c                                              undefined FUN_CODE_208c()
                             -- Flow Override: CALL_RETURN (CALL_TERMINATOR)
                             **************************************************************
                             *                          FUNCTION                          *
                             **************************************************************
                             undefined FUN_CODE_20b6()
             undefined         ACC:1          <RETURN>
                             FUN_CODE_20b6                                   XREF[1]:     CODE:20d8(c)  
       CODE:20b6 12 25 fc        LCALL      FUN_CODE_25fc                                              undefined FUN_CODE_25fc()
       CODE:20b9 40 cc           JC         FUN_CODE_2087
       CODE:20bb d5 65 ce        DJNZ       DAT_INTMEM_65,FUN_CODE_208c                                = ??
       CODE:20be c2 05           CLR        20.5                                                       = ??
       CODE:20c0 d2 39           SETB       27.1                                                       = ??
       CODE:20c2 d2 43           SETB       28.3                                                       = ??
       CODE:20c4 80 b7           SJMP       LAB_CODE_207d
                             **************************************************************
                             *                          FUNCTION                          *
                             **************************************************************
                             undefined FUN_CODE_20c6()
             undefined         ACC:1          <RETURN>
                             FUN_CODE_20c6                                   XREF[1]:     FUN_CODE_0756:07b0(c)  
       CODE:20c6 78 7f           MOV        R0,#0x7f
       CODE:20c8 e6              MOV        A,@R0=>DAT_INTMEM_7f                                       = ??
       CODE:20c9 26              ADD        A,@R0=>DAT_INTMEM_7f                                       = ??
       CODE:20ca 26              ADD        A,@R0=>DAT_INTMEM_7f                                       = ??
       CODE:20cb 90 20 cf        MOV        DPTR,#LAB_CODE_20cf
       CODE:20ce 73              JMP        @A+DPTR
                             LAB_CODE_20cf                                   XREF[1]:     FUN_CODE_20c6:20cb(*)  
       CODE:20cf 02 20 92        LJMP       FUN_CODE_2092                                              undefined FUN_CODE_2092()
                             -- Flow Override: CALL_RETURN (CALL_TERMINATOR)
       CODE:20d2 02 20 9c        LJMP       FUN_CODE_209c                                              undefined FUN_CODE_209c()
                             -- Flow Override: CALL_RETURN (CALL_TERMINATOR)
       CODE:20d5 02 20 ac        LJMP       FUN_CODE_20ac                                              undefined FUN_CODE_20ac()
                             -- Flow Override: CALL_RETURN (CALL_TERMINATOR)
       CODE:20d8 02 20 b6        LJMP       FUN_CODE_20b6                                              undefined FUN_CODE_20b6()
                             -- Flow Override: CALL_RETURN (CALL_TERMINATOR)
                             **************************************************************
                             *                          FUNCTION                          *
                             **************************************************************
                             undefined FUN_CODE_20db()
             undefined         ACC:1          <RETURN>
                             FUN_CODE_20db                                   XREF[1]:     CODE:2262(c)  
       CODE:20db 30 25 10        JNB        24.5,LAB_CODE_20ee                                         = ??
       CODE:20de c2 25           CLR        24.5                                                       = ??
       CODE:20e0 e5 36           MOV        A,DAT_INTMEM_36                                            = ??
       CODE:20e2 b4 62 09        CJNE       A,#0x62,LAB_CODE_20ee
       CODE:20e5 75 35 04        MOV        DAT_INTMEM_35,#0x4                                         = ??
       CODE:20e8 12 00 f1        LCALL      FUN_CODE_00f1                                              undefined FUN_CODE_00f1()
       CODE:20eb 02 21 7b        LJMP       FUN_CODE_217b                                              undefined FUN_CODE_217b()
                             -- Flow Override: CALL_RETURN (CALL_TERMINATOR)
                             LAB_CODE_20ee                                   XREF[2]:     CODE:20db(j), CODE:20e2(j)  
       CODE:20ee e5 37           MOV        A,DAT_INTMEM_37                                            = ??
       CODE:20f0 b4 65 03        CJNE       A,#0x65,LAB_CODE_20f6
       CODE:20f3 02 21 76        LJMP       FUN_CODE_2176                                              undefined FUN_CODE_2176()
                             -- Flow Override: CALL_RETURN (CALL_TERMINATOR)
                             LAB_CODE_20f6                                   XREF[1]:     CODE:20f0(j)  
       CODE:20f6 b5 36 1a        CJNE       A,DAT_INTMEM_36,LAB_CODE_2113                              = ??
       CODE:20f9 12 00 e3        LCALL      FUN_CODE_00e3                                              undefined FUN_CODE_00e3()
       CODE:20fc 40 78           JC         FUN_CODE_2176
       CODE:20fe e5 36           MOV        A,DAT_INTMEM_36                                            = ??
       CODE:2100 b4 62 0d        CJNE       A,#0x62,LAB_CODE_2110
       CODE:2103 75 36 65        MOV        DAT_INTMEM_36,#0x65                                        = ??
       CODE:2106 12 22 77        LCALL      FUN_CODE_2277                                              undefined FUN_CODE_2277()
       CODE:2109 75 37 65        MOV        DAT_INTMEM_37,#0x65                                        = ??
       CODE:210c d2 28           SETB       25.0                                                       = ??
       CODE:210e 80 66           SJMP       FUN_CODE_2176                                              undefined FUN_CODE_2176()
                             -- Flow Override: CALL_RETURN (CALL_TERMINATOR)
                             LAB_CODE_2110                                   XREF[1]:     CODE:2100(j)  
       CODE:2110 75 37 62        MOV        DAT_INTMEM_37,#0x62                                        = ??
                             LAB_CODE_2113                                   XREF[1]:     CODE:20f6(j)  
       CODE:2113 c2 26           CLR        24.6                                                       = ??
       CODE:2115 e5 36           MOV        A,DAT_INTMEM_36                                            = ??
       CODE:2117 b4 62 02        CJNE       A,#0x62,LAB_CODE_211c
       CODE:211a d2 26           SETB       24.6                                                       = ??
                             LAB_CODE_211c                                   XREF[1]:     CODE:2117(j)  
       CODE:211c 75 35 04        MOV        DAT_INTMEM_35,#0x4                                         = ??
       CODE:211f 12 00 f1        LCALL      FUN_CODE_00f1                                              undefined FUN_CODE_00f1()
       CODE:2122 e5 37           MOV        A,DAT_INTMEM_37                                            = ??
       CODE:2124 b4 62 08        CJNE       A,#0x62,LAB_CODE_212f
       CODE:2127 75 36 64        MOV        DAT_INTMEM_36,#0x64                                        = ??
       CODE:212a 12 22 77        LCALL      FUN_CODE_2277                                              undefined FUN_CODE_2277()
       CODE:212d 80 51           SJMP       FUN_CODE_2180                                              undefined FUN_CODE_2180()
                             -- Flow Override: CALL_RETURN (CALL_TERMINATOR)
                             LAB_CODE_212f                                   XREF[1]:     CODE:2124(j)  
       CODE:212f 75 36 63        MOV        DAT_INTMEM_36,#0x63                                        = ??
       CODE:2132 12 22 77        LCALL      FUN_CODE_2277                                              undefined FUN_CODE_2277()
       CODE:2135 80 49           SJMP       FUN_CODE_2180                                              undefined FUN_CODE_2180()
                             -- Flow Override: CALL_RETURN (CALL_TERMINATOR)
                             **************************************************************
                             *                          FUNCTION                          *
                             **************************************************************
                             undefined FUN_CODE_2137()
             undefined         ACC:1          <RETURN>
                             FUN_CODE_2137                                   XREF[1]:     CODE:2259(c)  
       CODE:2137 d5 35 2d        DJNZ       DAT_INTMEM_35,LAB_CODE_2167                                = ??
       CODE:213a 12 00 e3        LCALL      FUN_CODE_00e3                                              undefined FUN_CODE_00e3()
       CODE:213d 50 05           JNC        LAB_CODE_2144
       CODE:213f 75 36 62        MOV        DAT_INTMEM_36,#0x62                                        = ??
       CODE:2142 80 32           SJMP       FUN_CODE_2176                                              undefined FUN_CODE_2176()
                             -- Flow Override: CALL_RETURN (CALL_TERMINATOR)
                             LAB_CODE_2144                                   XREF[1]:     CODE:213d(j)  
       CODE:2144 75 35 02        MOV        DAT_INTMEM_35,#0x2                                         = ??
       CODE:2147 12 00 f1        LCALL      FUN_CODE_00f1                                              undefined FUN_CODE_00f1()
       CODE:214a 80 20           SJMP       FUN_CODE_216c                                              undefined FUN_CODE_216c()
                             -- Flow Override: CALL_RETURN (CALL_TERMINATOR)
                             **************************************************************
                             *                          FUNCTION                          *
                             **************************************************************
                             undefined FUN_CODE_214c()
             undefined         ACC:1          <RETURN>
                             FUN_CODE_214c                                   XREF[1]:     CODE:225c(c)  
       CODE:214c d5 35 45        DJNZ       DAT_INTMEM_35,LAB_CODE_2194                                = ??
       CODE:214f 12 00 e3        LCALL      FUN_CODE_00e3                                              undefined FUN_CODE_00e3()
       CODE:2152 40 0b           JC         LAB_CODE_215f
       CODE:2154 12 00 f1        LCALL      FUN_CODE_00f1                                              undefined FUN_CODE_00f1()
       CODE:2157 75 36 65        MOV        DAT_INTMEM_36,#0x65                                        = ??
       CODE:215a 75 35 05        MOV        DAT_INTMEM_35,#0x5                                         = ??
       CODE:215d 80 12           SJMP       FUN_CODE_2171                                              undefined FUN_CODE_2171()
                             -- Flow Override: CALL_RETURN (CALL_TERMINATOR)
                             LAB_CODE_215f                                   XREF[1]:     CODE:2152(j)  
       CODE:215f 75 36 60        MOV        DAT_INTMEM_36,#0x60                                        = ??
       CODE:2162 75 35 03        MOV        DAT_INTMEM_35,#0x3                                         = ??
       CODE:2165 80 0a           SJMP       FUN_CODE_2171                                              undefined FUN_CODE_2171()
                             -- Flow Override: CALL_RETURN (CALL_TERMINATOR)
                             LAB_CODE_2167                                   XREF[1]:     CODE:2137(j)  
       CODE:2167 78 a9           MOV        R0,#0xa9
       CODE:2169 76 00           MOV        @R0=>DAT_INTMEM_a9,#0x0                                    = ??
       CODE:216b 22              RET
                             **************************************************************
                             *                          FUNCTION                          *
                             **************************************************************
                             undefined FUN_CODE_216c()
             undefined         ACC:1          <RETURN>
                             FUN_CODE_216c                                   XREF[1]:     FUN_CODE_2137:214a(c)  
       CODE:216c 78 a9           MOV        R0,#0xa9
       CODE:216e 76 01           MOV        @R0=>DAT_INTMEM_a9,#0x1                                    = ??
       CODE:2170 22              RET
                             **************************************************************
                             *                          FUNCTION                          *
                             **************************************************************
                             undefined FUN_CODE_2171()
             undefined         ACC:1          <RETURN>
                             FUN_CODE_2171                                   XREF[3]:     FUN_CODE_214c:215d(c), 
                                                                                          FUN_CODE_214c:2165(c), 
                                                                                          CODE:21a3(c)  
       CODE:2171 78 a9           MOV        R0,#0xa9
       CODE:2173 76 02           MOV        @R0=>DAT_INTMEM_a9,#0x2                                    = ??
       CODE:2175 22              RET
                             **************************************************************
                             *                          FUNCTION                          *
                             **************************************************************
                             undefined FUN_CODE_2176()
             undefined         ACC:1          <RETURN>
                             FUN_CODE_2176                                   XREF[9]:     FUN_CODE_20db:20f3(c), 
                                                                                          FUN_CODE_20db:20fc(j), 
                                                                                          FUN_CODE_20db:210e(c), 
                                                                                          FUN_CODE_2137:2142(c), 
                                                                                          FUN_CODE_2195:2198(c), 
                                                                                          CODE:21df(c), CODE:21f8(c), 
                                                                                          CODE:2218(c), CODE:2228(c)  
       CODE:2176 78 a9           MOV        R0,#0xa9
       CODE:2178 76 03           MOV        @R0=>DAT_INTMEM_a9,#0x3                                    = ??
       CODE:217a 22              RET
                             **************************************************************
                             *                          FUNCTION                          *
                             **************************************************************
                             undefined FUN_CODE_217b()
             undefined         ACC:1          <RETURN>
                             FUN_CODE_217b                                   XREF[1]:     FUN_CODE_20db:20eb(c)  
       CODE:217b 78 a9           MOV        R0,#0xa9
       CODE:217d 76 04           MOV        @R0=>DAT_INTMEM_a9,#0x4                                    = ??
       CODE:217f 22              RET
                             **************************************************************
                             *                          FUNCTION                          *
                             **************************************************************
                             undefined FUN_CODE_2180()
             undefined         ACC:1          <RETURN>
                             FUN_CODE_2180                                   XREF[2]:     FUN_CODE_20db:212d(c), 
                                                                                          FUN_CODE_20db:2135(c)  
       CODE:2180 78 a9           MOV        R0,#0xa9
       CODE:2182 76 05           MOV        @R0=>DAT_INTMEM_a9,#0x5                                    = ??
       CODE:2184 22              RET
                             LAB_CODE_2185                                   XREF[2]:     CODE:21b3(j), CODE:21b8(j)  
       CODE:2185 78 a9           MOV        R0,#0xa9
       CODE:2187 76 06           MOV        @R0=>DAT_INTMEM_a9,#0x6                                    = ??
       CODE:2189 22              RET
                             LAB_CODE_218a                                   XREF[1]:     CODE:21c8(j)  
       CODE:218a 78 a9           MOV        R0,#0xa9
       CODE:218c 76 07           MOV        @R0=>DAT_INTMEM_a9,#0x7                                    = ??
       CODE:218e 22              RET
                             LAB_CODE_218f                                   XREF[1]:     CODE:21cb(j)  
       CODE:218f 78 a9           MOV        R0,#0xa9
       CODE:2191 76 08           MOV        @R0=>DAT_INTMEM_a9,#0x8                                    = ??
       CODE:2193 22              RET
                             LAB_CODE_2194                                   XREF[8]:     CODE:214c(j), 
                                                                                          FUN_CODE_2195:2195(j), 
                                                                                          CODE:219a(j), CODE:21a5(j), 
                                                                                          CODE:21ba(j), CODE:21e1(j), 
                                                                                          CODE:21ec(j), CODE:2274(j)  
       CODE:2194 22              RET
                             **************************************************************
                             *                          FUNCTION                          *
                             **************************************************************
                             undefined FUN_CODE_2195()
             undefined         ACC:1          <RETURN>
                             FUN_CODE_2195                                   XREF[1]:     CODE:225f(c)  
       CODE:2195 d5 35 fc        DJNZ       DAT_INTMEM_35,LAB_CODE_2194                                = ??
       CODE:2198 80 dc           SJMP       FUN_CODE_2176                                              undefined FUN_CODE_2176()
                             -- Flow Override: CALL_RETURN (CALL_TERMINATOR)
                             LAB_CODE_219a                                   XREF[1]:     CODE:2265(j)  
       CODE:219a d5 35 f7        DJNZ       DAT_INTMEM_35,LAB_CODE_2194                                = ??
       CODE:219d 12 00 ee        LCALL      FUN_CODE_00ee                                              undefined FUN_CODE_00ee()
       CODE:21a0 75 35 03        MOV        DAT_INTMEM_35,#0x3                                         = ??
       CODE:21a3 80 cc           SJMP       FUN_CODE_2171                                              undefined FUN_CODE_2171()
                             -- Flow Override: CALL_RETURN (CALL_TERMINATOR)
                             LAB_CODE_21a5                                   XREF[1]:     CODE:2268(j)  
       CODE:21a5 d5 35 ec        DJNZ       DAT_INTMEM_35,LAB_CODE_2194                                = ??
       CODE:21a8 75 35 03        MOV        DAT_INTMEM_35,#0x3                                         = ??
       CODE:21ab e5 36           MOV        A,DAT_INTMEM_36                                            = ??
       CODE:21ad b4 64 05        CJNE       A,#0x64,LAB_CODE_21b5
       CODE:21b0 12 00 ee        LCALL      FUN_CODE_00ee                                              undefined FUN_CODE_00ee()
       CODE:21b3 80 d0           SJMP       LAB_CODE_2185
                             LAB_CODE_21b5                                   XREF[1]:     CODE:21ad(j)  
       CODE:21b5 12 00 eb        LCALL      FUN_CODE_00eb                                              undefined FUN_CODE_00eb()
       CODE:21b8 80 cb           SJMP       LAB_CODE_2185
                             LAB_CODE_21ba                                   XREF[1]:     CODE:226b(j)  
       CODE:21ba d5 35 d7        DJNZ       DAT_INTMEM_35,LAB_CODE_2194                                = ??
       CODE:21bd 75 35 fa        MOV        DAT_INTMEM_35,#0xfa                                        = ??
       CODE:21c0 20 26 03        JB         24.6,LAB_CODE_21c6                                         = ??
       CODE:21c3 75 35 7d        MOV        DAT_INTMEM_35,#0x7d                                        = ??
                             LAB_CODE_21c6                                   XREF[1]:     CODE:21c0(j)  
       CODE:21c6 e5 36           MOV        A,DAT_INTMEM_36                                            = ??
       CODE:21c8 b4 64 bf        CJNE       A,#0x64,LAB_CODE_218a
       CODE:21cb 80 c2           SJMP       LAB_CODE_218f
                             LAB_CODE_21cd                                   XREF[1]:     CODE:226e(j)  
       CODE:21cd e5 37           MOV        A,DAT_INTMEM_37                                            = ??
       CODE:21cf b4 60 0b        CJNE       A,#0x60,LAB_CODE_21dd
       CODE:21d2 12 00 e3        LCALL      FUN_CODE_00e3                                              undefined FUN_CODE_00e3()
       CODE:21d5 50 0a           JNC        LAB_CODE_21e1
       CODE:21d7 75 36 60        MOV        DAT_INTMEM_36,#0x60                                        = ??
       CODE:21da 12 22 77        LCALL      FUN_CODE_2277                                              undefined FUN_CODE_2277()
                             LAB_CODE_21dd                                   XREF[2]:     CODE:21cf(j), CODE:2204(j)  
       CODE:21dd c2 27           CLR        24.7                                                       = ??
       CODE:21df 80 95           SJMP       FUN_CODE_2176                                              undefined FUN_CODE_2176()
                             -- Flow Override: CALL_RETURN (CALL_TERMINATOR)
                             LAB_CODE_21e1                                   XREF[1]:     CODE:21d5(j)  
       CODE:21e1 d5 35 b0        DJNZ       DAT_INTMEM_35,LAB_CODE_2194                                = ??
       CODE:21e4 30 26 07        JNB        24.6,LAB_CODE_21ee                                         = ??
       CODE:21e7 c2 26           CLR        24.6                                                       = ??
       CODE:21e9 75 35 7d        MOV        DAT_INTMEM_35,#0x7d                                        = ??
       CODE:21ec 80 a6           SJMP       LAB_CODE_2194
                             LAB_CODE_21ee                                   XREF[1]:     CODE:21e4(j)  
       CODE:21ee 20 27 0a        JB         24.7,LAB_CODE_21fb                                         = ??
       CODE:21f1 75 37 62        MOV        DAT_INTMEM_37,#0x62                                        = ??
       CODE:21f4 d2 28           SETB       25.0                                                       = ??
       CODE:21f6 d2 27           SETB       24.7                                                       = ??
       CODE:21f8 02 21 76        LJMP       FUN_CODE_2176                                              undefined FUN_CODE_2176()
                             -- Flow Override: CALL_RETURN (CALL_TERMINATOR)
                             LAB_CODE_21fb                                   XREF[1]:     CODE:21ee(j)  
       CODE:21fb 75 36 65        MOV        DAT_INTMEM_36,#0x65                                        = ??
       CODE:21fe 12 22 77        LCALL      FUN_CODE_2277                                              undefined FUN_CODE_2277()
       CODE:2201 75 37 65        MOV        DAT_INTMEM_37,#0x65                                        = ??
       CODE:2204 80 d7           SJMP       LAB_CODE_21dd
                             LAB_CODE_2206                                   XREF[1]:     CODE:2271(j)  
       CODE:2206 e5 37           MOV        A,DAT_INTMEM_37                                            = ??
       CODE:2208 b4 62 0b        CJNE       A,#0x62,LAB_CODE_2216
       CODE:220b 12 00 e3        LCALL      FUN_CODE_00e3                                              undefined FUN_CODE_00e3()
       CODE:220e 50 0b           JNC        LAB_CODE_221b
       CODE:2210 75 36 62        MOV        DAT_INTMEM_36,#0x62                                        = ??
       CODE:2213 12 22 77        LCALL      FUN_CODE_2277                                              undefined FUN_CODE_2277()
                             LAB_CODE_2216                                   XREF[2]:     CODE:2208(j), CODE:2234(j)  
       CODE:2216 c2 27           CLR        24.7                                                       = ??
       CODE:2218 02 21 76        LJMP       FUN_CODE_2176                                              undefined FUN_CODE_2176()
                             -- Flow Override: CALL_RETURN (CALL_TERMINATOR)
                             LAB_CODE_221b                                   XREF[1]:     CODE:220e(j)  
       CODE:221b d5 35 56        DJNZ       DAT_INTMEM_35,LAB_CODE_2274                                = ??
       CODE:221e 20 27 0a        JB         24.7,LAB_CODE_222b                                         = ??
       CODE:2221 75 37 60        MOV        DAT_INTMEM_37,#0x60                                        = ??
       CODE:2224 c2 28           CLR        25.0                                                       = ??
       CODE:2226 d2 27           SETB       24.7                                                       = ??
       CODE:2228 02 21 76        LJMP       FUN_CODE_2176                                              undefined FUN_CODE_2176()
                             -- Flow Override: CALL_RETURN (CALL_TERMINATOR)
                             LAB_CODE_222b                                   XREF[1]:     CODE:221e(j)  
       CODE:222b 75 36 65        MOV        DAT_INTMEM_36,#0x65                                        = ??
       CODE:222e 12 22 77        LCALL      FUN_CODE_2277                                              undefined FUN_CODE_2277()
       CODE:2231 75 37 65        MOV        DAT_INTMEM_37,#0x65                                        = ??
       CODE:2234 80 e0           SJMP       LAB_CODE_2216
                             **************************************************************
                             *                          FUNCTION                          *
                             **************************************************************
                             undefined FUN_CODE_2236()
             undefined         ACC:1          <RETURN>
                             FUN_CODE_2236                                   XREF[1]:     FUN_CODE_0756:07b9(c)  
       CODE:2236 20 24 08        JB         24.4,LAB_CODE_2241                                         = ??
       CODE:2239 75 35 12        MOV        DAT_INTMEM_35,#0x12                                        = ??
       CODE:223c 78 a9           MOV        R0,#0xa9
       CODE:223e 76 00           MOV        @R0=>DAT_INTMEM_a9,#0x0                                    = ??
       CODE:2240 22              RET
                             LAB_CODE_2241                                   XREF[1]:     CODE:2236(j)  
       CODE:2241 e5 36           MOV        A,DAT_INTMEM_36                                            = ??
       CODE:2243 64 62           XRL        A,#0x62
       CODE:2245 60 09           JZ         LAB_CODE_2250
       CODE:2247 75 66 00        MOV        DAT_INTMEM_66,#0x0                                         = ??
       CODE:224a a2 14           MOV        CY,22.4                                                    = ??
       CODE:224c 72 29           ORL        CY,25.1                                                    = ??
       CODE:224e 92 14           MOV        22.4,CY                                                    = ??
                             LAB_CODE_2250                                   XREF[1]:     CODE:2245(j)  
       CODE:2250 78 a9           MOV        R0,#0xa9
       CODE:2252 e6              MOV        A,@R0=>DAT_INTMEM_a9                                       = ??
       CODE:2253 26              ADD        A,@R0=>DAT_INTMEM_a9                                       = ??
       CODE:2254 26              ADD        A,@R0=>DAT_INTMEM_a9                                       = ??
       CODE:2255 90 22 59        MOV        DPTR,#LAB_CODE_2259
       CODE:2258 73              JMP        @A+DPTR
                             LAB_CODE_2259                                   XREF[1]:     FUN_CODE_2236:2255(*)  
       CODE:2259 02 21 37        LJMP       FUN_CODE_2137                                              undefined FUN_CODE_2137()
                             -- Flow Override: CALL_RETURN (CALL_TERMINATOR)
       CODE:225c 02 21 4c        LJMP       FUN_CODE_214c                                              undefined FUN_CODE_214c()
                             -- Flow Override: CALL_RETURN (CALL_TERMINATOR)
       CODE:225f 02 21 95        LJMP       FUN_CODE_2195                                              undefined FUN_CODE_2195()
                             -- Flow Override: CALL_RETURN (CALL_TERMINATOR)
       CODE:2262 02 20 db        LJMP       FUN_CODE_20db                                              undefined FUN_CODE_20db()
                             -- Flow Override: CALL_RETURN (CALL_TERMINATOR)
       CODE:2265 02 21 9a        LJMP       LAB_CODE_219a
       CODE:2268 02 21 a5        LJMP       LAB_CODE_21a5
       CODE:226b 02 21 ba        LJMP       LAB_CODE_21ba
       CODE:226e 02 21 cd        LJMP       LAB_CODE_21cd
       CODE:2271 02 22 06        LJMP       LAB_CODE_2206
                             LAB_CODE_2274                                   XREF[1]:     CODE:221b(j)  
       CODE:2274 02 21 94        LJMP       LAB_CODE_2194
                             **************************************************************
                             *                          FUNCTION                          *
                             **************************************************************
                             undefined FUN_CODE_2277()
             undefined         ACC:1          <RETURN>
                             FUN_CODE_2277                                   XREF[7]:     FUN_CODE_20db:2106(c), 
                                                                                          FUN_CODE_20db:212a(c), 
                                                                                          FUN_CODE_20db:2132(c), 
                                                                                          CODE:21da(c), CODE:21fe(c), 
                                                                                          CODE:2213(c), CODE:222e(c)  
       CODE:2277 d2 3e           SETB       27.6                                                       = ??
       CODE:2279 e5 36           MOV        A,DAT_INTMEM_36                                            = ??
       CODE:227b b4 60 02        CJNE       A,#0x60,LAB_CODE_2280
       CODE:227e 80 03           SJMP       LAB_CODE_2283
                             LAB_CODE_2280                                   XREF[1]:     CODE:227b(j)  
       CODE:2280 b4 62 0b        CJNE       A,#0x62,LAB_CODE_228e
                             LAB_CODE_2283                                   XREF[1]:     CODE:227e(j)  
       CODE:2283 e5 62           MOV        A,DAT_INTMEM_62                                            = ??
       CODE:2285 d2 e0           SETB       ACC.0                                                      = ??
       CODE:2287 c2 e1           CLR        ACC.1                                                      = ??
       CODE:2289 f5 62           MOV        DAT_INTMEM_62,A                                            = ??
       CODE:228b d2 47           SETB       28.7                                                       = ??
       CODE:228d 22              RET
                             LAB_CODE_228e                                   XREF[1]:     CODE:2280(j)  
       CODE:228e e5 62           MOV        A,DAT_INTMEM_62                                            = ??
       CODE:2290 d2 e0           SETB       ACC.0                                                      = ??
       CODE:2292 d2 e1           SETB       ACC.1                                                      = ??
       CODE:2294 f5 62           MOV        DAT_INTMEM_62,A                                            = ??
       CODE:2296 d2 47           SETB       28.7                                                       = ??
       CODE:2298 22              RET
                             LAB_CODE_2299                                   XREF[3]:     CODE:22a7(j), CODE:22b4(j), 
                                                                                          CODE:22c0(j)  
       CODE:2299 78 aa           MOV        R0,#0xaa
       CODE:229b 76 00           MOV        @R0=>DAT_INTMEM_aa,#0x0                                    = ??
       CODE:229d 22              RET
                             LAB_CODE_229e                                   XREF[2]:     CODE:22b8(j), CODE:22ba(j)  
       CODE:229e 78 aa           MOV        R0,#0xaa
       CODE:22a0 76 01           MOV        @R0=>DAT_INTMEM_aa,#0x1                                    = ??
       CODE:22a2 22              RET
       CODE:22a3 22              ??         22h    "
                             LAB_CODE_22a4                                   XREF[1]:     CODE:22cb(j)  
       CODE:22a4 12 24 34        LCALL      FUN_CODE_2434                                              undefined FUN_CODE_2434()
       CODE:22a7 50 f0           JNC        LAB_CODE_2299
       CODE:22a9 12 24 39        LCALL      FUN_CODE_2439                                              undefined FUN_CODE_2439()
       CODE:22ac 50 08           JNC        LAB_CODE_22b6
       CODE:22ae 12 08 3e        LCALL      FUN_CODE_083e                                              undefined FUN_CODE_083e()
       CODE:22b1 12 24 54        LCALL      FUN_CODE_2454                                              undefined FUN_CODE_2454()
       CODE:22b4 80 e3           SJMP       LAB_CODE_2299
                             LAB_CODE_22b6                                   XREF[1]:     CODE:22ac(j)  
       CODE:22b6 d2 35           SETB       26.5                                                       = ??
       CODE:22b8 80 e4           SJMP       LAB_CODE_229e
                             LAB_CODE_22ba                                   XREF[1]:     CODE:22ce(j)  
       CODE:22ba 20 35 e1        JB         26.5,LAB_CODE_229e                                         = ??
       CODE:22bd 12 24 54        LCALL      FUN_CODE_2454                                              undefined FUN_CODE_2454()
       CODE:22c0 80 d7           SJMP       LAB_CODE_2299
                             **************************************************************
                             *                          FUNCTION                          *
                             **************************************************************
                             undefined FUN_CODE_22c2()
             undefined         ACC:1          <RETURN>
                             FUN_CODE_22c2                                   XREF[1]:     FUN_CODE_0756:07da(c)  
       CODE:22c2 78 aa           MOV        R0,#0xaa
       CODE:22c4 e6              MOV        A,@R0=>DAT_INTMEM_aa                                       = ??
       CODE:22c5 26              ADD        A,@R0=>DAT_INTMEM_aa                                       = ??
       CODE:22c6 26              ADD        A,@R0=>DAT_INTMEM_aa                                       = ??
       CODE:22c7 90 22 cb        MOV        DPTR,#LAB_CODE_22cb
       CODE:22ca 73              JMP        @A+DPTR
                             LAB_CODE_22cb                                   XREF[1]:     FUN_CODE_22c2:22c7(*)  
       CODE:22cb 02 22 a4        LJMP       LAB_CODE_22a4
       CODE:22ce 02 22 ba        LJMP       LAB_CODE_22ba
                             **************************************************************
                             *                          FUNCTION                          *
                             **************************************************************
                             undefined FUN_CODE_22d1()
             undefined         ACC:1          <RETURN>
                             FUN_CODE_22d1                                   XREF[2]:     FUN_CODE_0756:0759(c), 
                                                                                          FUN_CODE_0756:0778(c)  
       CODE:22d1 c2 d3           CLR        RS0                                                        = ??
       CODE:22d3 c2 d4           CLR        RS1                                                        = ??
       CODE:22d5 53 8f f9        ANL        FADDR,#0xf9                                                = ??
       CODE:22d8 22              RET
                             **************************************************************
                             *                          FUNCTION                          *
                             **************************************************************
                             undefined FUN_CODE_22d9()
             undefined         ACC:1          <RETURN>
                             FUN_CODE_22d9                                   XREF[2]:     FUN_CODE_0756:075f(c), 
                                                                                          CODE:1159(c)  
       CODE:22d9 75 bf 01        MOV        DAT_SFR_bf,#0x1                                            = ??
       CODE:22dc 75 bc ff        MOV        DAT_SFR_bc,#0xff                                           = ??
       CODE:22df 75 bd ff        MOV        DAT_SFR_bd,#0xff                                           = ??
       CODE:22e2 75 be ff        MOV        SPH,#0xff                                                  = ??
       CODE:22e5 75 b9 00        MOV        SADEN,#0x0                                                 = ??
       CODE:22e8 75 ba 00        MOV        DAT_SFR_ba,#0x0                                            = ??
       CODE:22eb 75 bb 00        MOV        DAT_SFR_bb,#0x0                                            = ??
       CODE:22ee 75 a8 00        MOV        IE,#0x0                                                    = ??
       CODE:22f1 75 b8 00        MOV        IP,#0x0                                                    = ??
       CODE:22f4 75 c1 00        MOV        FIFLG1,#0x0                                                = ??
       CODE:22f7 75 c2 00        MOV        DAT_SFR_c2,#0x0                                            = ??
       CODE:22fa 75 c3 1f        MOV        DAT_SFR_c3,#0x1f                                           = ??
       CODE:22fd 75 c4 00        MOV        DAT_SFR_c4,#0x0                                            = ??
       CODE:2300 75 c5 c9        MOV        DAT_SFR_c5,#0xc9                                           = ??
       CODE:2303 75 c6 d5        MOV        DAT_SFR_c6,#0xd5                                           = ??
       CODE:2306 75 c7 d9        MOV        EPCONFIG,#0xd9                                             = ??
       CODE:2309 75 c9 ce        MOV        T2MOD,#0xce                                                = ??
       CODE:230c 75 ca d4        MOV        RCAP2L,#0xd4                                               = ??
       CODE:230f 75 cb ff        MOV        RCAP2H,#0xff                                               = ??
       CODE:2312 75 cc ff        MOV        TL2,#0xff                                                  = ??
       CODE:2315 75 cd ff        MOV        TH2,#0xff                                                  = ??
       CODE:2318 75 ce ff        MOV        DAT_SFR_ce,#0xff                                           = ??
       CODE:231b 75 cf ff        MOV        HPCON,#0xff                                                = ??
       CODE:231e 75 d1 ff        MOV        PSW1,#0xff                                                 = ??
       CODE:2321 75 d2 ff        MOV        SOFL,#0xff                                                 = ??
       CODE:2324 75 d3 ff        MOV        DAT_SFR_d3,#0xff                                           = ??
       CODE:2327 75 d4 ff        MOV        HPINDEX,#0xff                                              = ??
       CODE:232a 22              RET
                             **************************************************************
                             *                          FUNCTION                          *
                             **************************************************************
                             undefined FUN_CODE_232b()
             undefined         ACC:1          <RETURN>
                             FUN_CODE_232b                                   XREF[2]:     FUN_CODE_0756:0762(c), 
                                                                                          CODE:116e(c)  
       CODE:232b 75 77 00        MOV        DAT_INTMEM_77,#0x0                                         = ??
       CODE:232e 53 bc 7f        ANL        DAT_SFR_bc,#0x7f                                           = ??
       CODE:2331 53 bf fe        ANL        DAT_SFR_bf,#0xfe                                           = ??
       CODE:2334 22              RET
       CODE:2335 e5              ??         E5h
       CODE:2336 77              ??         77h    w
       CODE:2337 22              ??         22h    "
                             **************************************************************
                             *                          FUNCTION                          *
                             **************************************************************
                             undefined FUN_CODE_2338()
             undefined         ACC:1          <RETURN>
                             FUN_CODE_2338                                   XREF[1]:     FUN_CODE_0756:07e3(c)  
       CODE:2338 e5 77           MOV        A,DAT_INTMEM_77                                            = ??
       CODE:233a 24 eb           ADD        A,#0xeb
       CODE:233c 40 02           JC         LAB_CODE_2340
       CODE:233e c3              CLR        CY
       CODE:233f 22              RET
                             LAB_CODE_2340                                   XREF[1]:     CODE:233c(j)  
       CODE:2340 43 bf 01        ORL        DAT_SFR_bf,#0x1                                            = ??
       CODE:2343 e5 77           MOV        A,DAT_INTMEM_77                                            = ??
       CODE:2345 c3              CLR        CY
       CODE:2346 94 14           SUBB       A,#0x14
       CODE:2348 f5 77           MOV        DAT_INTMEM_77,A                                            = ??
       CODE:234a d3              SETB       CY
       CODE:234b 53 bf fe        ANL        DAT_SFR_bf,#0xfe                                           = ??
       CODE:234e 22              RET
                             **************************************************************
                             *                          FUNCTION                          *
                             **************************************************************
                             undefined FUN_CODE_234f()
             undefined         ACC:1          <RETURN>
                             FUN_CODE_234f                                   XREF[2]:     FUN_CODE_0756:0765(c), 
                                                                                          FUN_CODE_1de9:1de9(c)  
       CODE:234f 75 fe 00        MOV        CCAP4H,#0x0                                                = ??
       CODE:2352 75 ff 00        MOV        DAT_SFR_ff,#0x0
       CODE:2355 75 fe 00        MOV        CCAP4H,#0x0                                                = ??
       CODE:2358 22              RET
                             **************************************************************
                             *                          FUNCTION                          *
                             **************************************************************
                             undefined FUN_CODE_2359()
             undefined         ACC:1          <RETURN>
                             FUN_CODE_2359                                   XREF[1]:     CODE:115c(c)  
       CODE:2359 43 a5 01        ORL        DAT_SFR_a5,#0x1                                            = ??
       CODE:235c a2 c0           MOV        CY,FIFLG.0                                                 = ??
       CODE:235e 92 11           MOV        22.1,CY                                                    = ??
       CODE:2360 22              RET
                             **************************************************************
                             *                          FUNCTION                          *
                             **************************************************************
                             undefined FUN_CODE_2361()
             undefined         ACC:1          <RETURN>
                             FUN_CODE_2361                                   XREF[1]:     CODE:115f(c)  
       CODE:2361 43 a2 80        ORL        FIE,#0x80                                                  = ??
       CODE:2364 43 a3 47        ORL        FIE1,#0x47                                                 = ??
       CODE:2367 43 a4 b0        ORL        DAT_SFR_a4,#0xb0                                           = ??
       CODE:236a 43 a5 f6        ORL        DAT_SFR_a5,#0xf6                                           = ??
       CODE:236d 43 a6 6f        ORL        WDTRST,#0x6f                                               = ??
       CODE:2370 75 9d 0c        MOV        DAT_SFR_9d,#0xc                                            = ??
       CODE:2373 75 9e 00        MOV        DAT_SFR_9e,#0x0                                            = ??
       CODE:2376 75 9f 04        MOV        DAT_SFR_9f,#0x4                                            = ??
       CODE:2379 75 a1 00        MOV        HIE,#0x0                                                   = ??
       CODE:237c 75 a7 00        MOV        WCON,#0x0                                                  = ??
       CODE:237f 75 80 00        MOV        P0,#0x0                                                    = ??
       CODE:2382 75 90 10        MOV        P1,#0x10                                                   = ??
       CODE:2385 75 a0 04        MOV        P2,#0x4                                                    = ??
       CODE:2388 75 c0 00        MOV        FIFLG,#0x0                                                 = ??
       CODE:238b 75 c8 10        MOV        T2CON,#0x10                                                = ??
       CODE:238e 75 a2 80        MOV        FIE,#0x80                                                  = ??
       CODE:2391 75 a3 47        MOV        FIE1,#0x47                                                 = ??
       CODE:2394 75 a4 b0        MOV        DAT_SFR_a4,#0xb0                                           = ??
       CODE:2397 75 a5 f6        MOV        DAT_SFR_a5,#0xf6                                           = ??
       CODE:239a 75 a6 6f        MOV        WDTRST,#0x6f                                               = ??
       CODE:239d 22              RET
                             **************************************************************
                             *                          FUNCTION                          *
                             **************************************************************
                             undefined FUN_CODE_239e()
             undefined         ACC:1          <RETURN>
                             FUN_CODE_239e                                   XREF[1]:     CODE:1165(c)  
       CODE:239e c2 62           CLR        2c.2                                                       = ??
       CODE:23a0 12 04 96        LCALL      FUN_CODE_0496                                              undefined FUN_CODE_0496()
       CODE:23a3 12 02 ad        LCALL      FUN_CODE_02ad                                              undefined FUN_CODE_02ad()
       CODE:23a6 c2 64           CLR        2c.4                                                       = ??
       CODE:23a8 c2 63           CLR        2c.3                                                       = ??
       CODE:23aa 75 69 00        MOV        DAT_INTMEM_69,#0x0                                         = ??
       CODE:23ad 75 96 00        MOV        DAT_SFR_96,#0x0                                            = ??
       CODE:23b0 75 92 64        MOV        DAT_SFR_92,#0x64                                           = ??
       CODE:23b3 75 94 64        MOV        DAT_SFR_94,#0x64                                           = ??
       CODE:23b6 75 88 00        MOV        TCON,#0x0                                                  = ??
       CODE:23b9 75 98 00        MOV        SCON,#0x0                                                  = ??
       CODE:23bc 75 95 88        MOV        DAT_SFR_95,#0x88                                           = ??
       CODE:23bf c2 6b           CLR        2d.3                                                       = ??
       CODE:23c1 c2 6c           CLR        2d.4                                                       = ??
       CODE:23c3 c2 6d           CLR        2d.5                                                       = ??
       CODE:23c5 75 1f 00        MOV        BANK3_R7,#0x0                                              = ??
       CODE:23c8 75 e8 00        MOV        HIFLG,#0x0                                                 = ??
       CODE:23cb 43 c2 40        ORL        DAT_SFR_c2,#0x40                                           = ??
       CODE:23ce 43 87 80        ORL        PCON,#0x80                                                 = ??
       CODE:23d1 22              RET
                             **************************************************************
                             *                          FUNCTION                          *
                             **************************************************************
                             undefined FUN_CODE_23d2()
             undefined         ACC:1          <RETURN>
                             FUN_CODE_23d2                                   XREF[2]:     FUN_CODE_0756:075c(c), 
                                                                                          CODE:1156(c)  
       CODE:23d2 c2 5b           CLR        2b.3                                                       = ??
       CODE:23d4 22              RET
                             **************************************************************
                             *                          FUNCTION                          *
                             **************************************************************
                             undefined FUN_CODE_23d5()
             undefined         ACC:1          <RETURN>
                             FUN_CODE_23d5                                   XREF[1]:     CODE:1171(c)  
       CODE:23d5 d2 5b           SETB       2b.3                                                       = ??
       CODE:23d7 22              RET
                             **************************************************************
                             *                          FUNCTION                          *
                             **************************************************************
                             undefined FUN_CODE_23d8()
             undefined         ACC:1          <RETURN>
                             FUN_CODE_23d8                                   XREF[2]:     thunk_FUN_CODE_23d8:0137(T), 
                                                                                          thunk_FUN_CODE_23d8:0137(c), 
                                                                                          CODE:1179(c)  
       CODE:23d8 43 bf 01        ORL        DAT_SFR_bf,#0x1                                            = ??
       CODE:23db 75 ff 00        MOV        DAT_SFR_ff,#0x0
       CODE:23de 75 fe ff        MOV        CCAP4H,#0xff                                               = ??
                             LAB_CODE_23e1                                   XREF[1]:     CODE:23e1(j)  
       CODE:23e1 80 fe           SJMP       LAB_CODE_23e1
                             **************************************************************
                             *                          FUNCTION                          *
                             **************************************************************
                             undefined FUN_CODE_23e3()
             undefined         ACC:1          <RETURN>
                             FUN_CODE_23e3                                   XREF[1]:     CODE:0fdd(c)  
       CODE:23e3 d2 a1           SETB       P2.1                                                       = ??
       CODE:23e5 22              RET
                             **************************************************************
                             *                          FUNCTION                          *
                             **************************************************************
                             undefined FUN_CODE_23e6()
             undefined         ACC:1          <RETURN>
                             FUN_CODE_23e6                                   XREF[1]:     CODE:0f75(c)  
       CODE:23e6 c2 a1           CLR        P2.1                                                       = ??
       CODE:23e8 22              RET
                             **************************************************************
                             *                          FUNCTION                          *
                             **************************************************************
                             undefined FUN_CODE_23e9()
             undefined         ACC:1          <RETURN>
                             FUN_CODE_23e9                                   XREF[3]:     CODE:0fe8(c), CODE:1005(c), 
                                                                                          FUN_CODE_1d2a:1d2d(c)  
       CODE:23e9 a2 a5           MOV        CY,P2.5                                                    = ??
       CODE:23eb 20 17 03        JB         22.7,LAB_CODE_23f1                                         = ??
       CODE:23ee c2 a9           CLR        ET0                                                        = ??
       CODE:23f0 22              RET
                             LAB_CODE_23f1                                   XREF[1]:     CODE:23eb(j)  
       CODE:23f1 b0 a9           ANL        CY,/ET0                                                    = ??
       CODE:23f3 22              RET
                             **************************************************************
                             *                          FUNCTION                          *
                             **************************************************************
                             undefined FUN_CODE_23f4()
             undefined         ACC:1          <RETURN>
                             FUN_CODE_23f4                                   XREF[1]:     CODE:102c(c)  
       CODE:23f4 d2 95           SETB       P1.5                                                       = ??
       CODE:23f6 22              RET
                             **************************************************************
                             *                          FUNCTION                          *
                             **************************************************************
                             undefined FUN_CODE_23f7()
             undefined         ACC:1          <RETURN>
                             FUN_CODE_23f7                                   XREF[1]:     CODE:0f44(c)  
       CODE:23f7 c2 95           CLR        P1.5                                                       = ??
       CODE:23f9 22              RET
                             **************************************************************
                             *                          FUNCTION                          *
                             **************************************************************
                             undefined FUN_CODE_23fa()
             undefined         ACC:1          <RETURN>
                             FUN_CODE_23fa                                   XREF[1]:     CODE:1044(c)  
       CODE:23fa c2 94           CLR        P1.4                                                       = ??
       CODE:23fc 22              RET
                             **************************************************************
                             *                          FUNCTION                          *
                             **************************************************************
                             undefined FUN_CODE_23fd()
             undefined         ACC:1          <RETURN>
                             FUN_CODE_23fd                                   XREF[1]:     CODE:0efd(c)  
       CODE:23fd d2 94           SETB       P1.4                                                       = ??
       CODE:23ff 22              RET
                             **************************************************************
                             *                          FUNCTION                          *
                             **************************************************************
                             undefined FUN_CODE_2400()
             undefined         ACC:1          <RETURN>
                             FUN_CODE_2400                                   XREF[1]:     CODE:102f(c)  
       CODE:2400 d2 93           SETB       P1.3                                                       = ??
       CODE:2402 22              RET
                             **************************************************************
                             *                          FUNCTION                          *
                             **************************************************************
                             undefined FUN_CODE_2403()
             undefined         ACC:1          <RETURN>
                             FUN_CODE_2403                                   XREF[1]:     CODE:0f3f(c)  
       CODE:2403 c2 93           CLR        P1.3                                                       = ??
       CODE:2405 22              RET
                             **************************************************************
                             *                          FUNCTION                          *
                             **************************************************************
                             undefined FUN_CODE_2406()
             undefined         ACC:1          <RETURN>
                             FUN_CODE_2406                                   XREF[2]:     CODE:1037(c), 
                                                                                          FUN_CODE_1d2a:1d35(c)  
       CODE:2406 a2 c1           MOV        CY,FIFLG.1                                                 = ??
       CODE:2408 20 18 03        JB         23.0,LAB_CODE_240e                                         = ??
       CODE:240b c2 aa           CLR        EX1                                                        = ??
       CODE:240d 22              RET
                             LAB_CODE_240e                                   XREF[1]:     CODE:2408(j)  
       CODE:240e b0 aa           ANL        CY,/EX1                                                    = ??
       CODE:2410 22              RET
                             **************************************************************
                             *                          FUNCTION                          *
                             **************************************************************
                             undefined FUN_CODE_2411()
             undefined         ACC:1          <RETURN>
                             FUN_CODE_2411                                   XREF[1]:     CODE:103f(c)  
       CODE:2411 d2 a6           SETB       P2.6                                                       = ??
       CODE:2413 22              RET
                             **************************************************************
                             *                          FUNCTION                          *
                             **************************************************************
                             undefined FUN_CODE_2414()
             undefined         ACC:1          <RETURN>
                             FUN_CODE_2414                                   XREF[1]:     CODE:0f00(c)  
       CODE:2414 c2 a6           CLR        P2.6                                                       = ??
       CODE:2416 22              RET
                             **************************************************************
                             *                          FUNCTION                          *
                             **************************************************************
                             undefined FUN_CODE_2417()
             undefined         ACC:1          <RETURN>
                             FUN_CODE_2417                                   XREF[1]:     FUN_CODE_0756:077b(c)  
       CODE:2417 e5 8f           MOV        A,FADDR                                                    = ??
       CODE:2419 54 30           ANL        A,#0x30
       CODE:241b 30 d0 06        JNB        P,LAB_CODE_2424                                            = ??
       CODE:241e 20 e4 06        JB         ACC.4,LAB_CODE_2427                                        = ??
       CODE:2421 74 ff           MOV        A,#0xff
       CODE:2423 22              RET
                             LAB_CODE_2424                                   XREF[1]:     CODE:241b(j)  
       CODE:2424 74 00           MOV        A,#0x0
       CODE:2426 22              RET
                             LAB_CODE_2427                                   XREF[1]:     CODE:241e(j)  
       CODE:2427 74 f0           MOV        A,#0xf0
       CODE:2429 22              RET
                             **************************************************************
                             *                          FUNCTION                          *
                             **************************************************************
                             undefined FUN_CODE_242a()
             undefined         ACC:1          <RETURN>
                             FUN_CODE_242a                                   XREF[1]:     CODE:13f6(c)  
       CODE:242a 22              RET
                             **************************************************************
                             *                          FUNCTION                          *
                             **************************************************************
                             undefined FUN_CODE_242b()
             undefined         ACC:1          <RETURN>
                             FUN_CODE_242b                                   XREF[1]:     CODE:13f1(c)  
       CODE:242b 22              RET
                             **************************************************************
                             *                          FUNCTION                          *
                             **************************************************************
                             undefined FUN_CODE_242c()
             undefined         ACC:1          <RETURN>
                             FUN_CODE_242c                                   XREF[1]:     CODE:13e8(c)  
       CODE:242c 22              RET
                             **************************************************************
                             *                          FUNCTION                          *
                             **************************************************************
                             undefined FUN_CODE_242d()
             undefined         ACC:1          <RETURN>
                             FUN_CODE_242d                                   XREF[1]:     CODE:13e3(c)  
       CODE:242d 22              RET
                             **************************************************************
                             *                          FUNCTION                          *
                             **************************************************************
                             undefined FUN_CODE_242e()
             undefined         ACC:1          <RETURN>
                             FUN_CODE_242e                                   XREF[1]:     CODE:13da(c)  
       CODE:242e d2 c0           SETB       FIFLG.0                                                    = ??
       CODE:2430 22              RET
                             **************************************************************
                             *                          FUNCTION                          *
                             **************************************************************
                             undefined FUN_CODE_2431()
             undefined         ACC:1          <RETURN>
                             FUN_CODE_2431                                   XREF[1]:     CODE:13d5(c)  
       CODE:2431 c2 c0           CLR        FIFLG.0                                                    = ??
       CODE:2433 22              RET
                             **************************************************************
                             *                          FUNCTION                          *
                             **************************************************************
                             undefined FUN_CODE_2434()
             undefined         ACC:1          <RETURN>
                             FUN_CODE_2434                                   XREF[1]:     CODE:22a4(c)  
       CODE:2434 e5 e2           MOV        A,RXSTAT                                                   = ??
       CODE:2436 a2 e4           MOV        CY,ACC.4                                                   = ??
       CODE:2438 22              RET
                             **************************************************************
                             *                          FUNCTION                          *
                             **************************************************************
                             undefined FUN_CODE_2439()
             undefined         ACC:1          <RETURN>
                             FUN_CODE_2439                                   XREF[2]:     FUN_CODE_083e:083e(c), 
                                                                                          CODE:22a9(c)  
       CODE:2439 75 e0 00        MOV        A,#0x0
       CODE:243c d2 e4           SETB       ACC.4                                                      = ??
       CODE:243e f5 e2           MOV        RXSTAT,A                                                   = ??
       CODE:2440 e5 e1           MOV        A,EPCON                                                    = ??
       CODE:2442 a2 e7           MOV        CY,ACC.7                                                   = ??
       CODE:2444 22              RET
                             **************************************************************
                             *                          FUNCTION                          *
                             **************************************************************
                             undefined FUN_CODE_2445()
             undefined         ACC:1          <RETURN>
                             FUN_CODE_2445                                   XREF[22]:    FUN_CODE_083e:0984(c), 
                                                                                          FUN_CODE_083e:0a28(c), 
                                                                                          FUN_CODE_083e:0a55(c), 
                                                                                          FUN_CODE_083e:0aa2(c), 
                                                                                          FUN_CODE_083e:0b37(c), 
                                                                                          FUN_CODE_083e:0b9a(c), 
                                                                                          FUN_CODE_083e:0bbd(c), 
                                                                                          FUN_CODE_083e:0bf6(c), 
                                                                                          FUN_CODE_083e:0c0d(c), 
                                                                                          FUN_CODE_083e:0c18(c), 
                                                                                          FUN_CODE_083e:0c23(c), 
                                                                                          FUN_CODE_083e:0c5a(c), 
                                                                                          FUN_CODE_083e:0c7f(c), 
                                                                                          FUN_CODE_083e:0c9b(c), 
                                                                                          FUN_CODE_083e:0cae(c), 
                                                                                          FUN_CODE_083e:0cc8(c), 
                                                                                          FUN_CODE_083e:0ce1(c), 
                                                                                          FUN_CODE_083e:0d1e(c), 
                                                                                          FUN_CODE_083e:0d30(c), 
                                                                                          FUN_CODE_083e:0d3d(c), [more]
       CODE:2445 d2 e4           SETB       ACC.4                                                      = ??
       CODE:2447 f5 e2           MOV        RXSTAT,A                                                   = ??
       CODE:2449 22              RET
                             **************************************************************
                             *                          FUNCTION                          *
                             **************************************************************
                             undefined FUN_CODE_244a()
             undefined         ACC:1          <RETURN>
                             FUN_CODE_244a                                   XREF[45]:    FUN_CODE_083e:0987(c), 
                                                                                          FUN_CODE_083e:098b(c), 
                                                                                          FUN_CODE_083e:098f(c), 
                                                                                          FUN_CODE_083e:0993(c), 
                                                                                          FUN_CODE_083e:0997(c), 
                                                                                          FUN_CODE_083e:0a2b(c), 
                                                                                          FUN_CODE_083e:0a58(c), 
                                                                                          FUN_CODE_083e:0aac(c), 
                                                                                          FUN_CODE_083e:0b3a(c), 
                                                                                          FUN_CODE_083e:0b3e(c), 
                                                                                          FUN_CODE_083e:0b42(c), 
                                                                                          FUN_CODE_083e:0b46(c), 
                                                                                          FUN_CODE_083e:0b9d(c), 
                                                                                          FUN_CODE_083e:0ba1(c), 
                                                                                          FUN_CODE_083e:0ba5(c), 
                                                                                          FUN_CODE_083e:0ba9(c), 
                                                                                          FUN_CODE_083e:0bad(c), 
                                                                                          FUN_CODE_083e:0bc0(c), 
                                                                                          FUN_CODE_083e:0bc4(c), 
                                                                                          FUN_CODE_083e:0bc8(c), [more]
       CODE:244a e5 e1           MOV        A,EPCON                                                    = ??
       CODE:244c 22              RET
                             **************************************************************
                             *                          FUNCTION                          *
                             **************************************************************
                             undefined FUN_CODE_244d()
             undefined         ACC:1          <RETURN>
                             FUN_CODE_244d                                   XREF[3]:     FUN_CODE_083e:0d37(c), 
                                                                                          FUN_CODE_083e:0d44(c), 
                                                                                          CODE:2451(j)  
       CODE:244d e5 e1           MOV        A,EPCON                                                    = ??
       CODE:244f f6              MOV        @R0,A
       CODE:2450 08              INC        R0
       CODE:2451 da fa           DJNZ       R2,FUN_CODE_244d
       CODE:2453 22              RET
                             **************************************************************
                             *                          FUNCTION                          *
                             **************************************************************
                             undefined FUN_CODE_2454()
             undefined         ACC:1          <RETURN>
                             FUN_CODE_2454                                   XREF[2]:     CODE:22b1(c), CODE:22bd(c)  
       CODE:2454 75 e2 00        MOV        RXSTAT,#0x0                                                = ??
       CODE:2457 22              RET
                             **************************************************************
                             *                          FUNCTION                          *
                             **************************************************************
                             undefined FUN_CODE_2458()
             undefined         ACC:1          <RETURN>
                             FUN_CODE_2458                                   XREF[1]:     CODE:1dae(c)  
       CODE:2458 e4              CLR        A
       CODE:2459 d2 e4           SETB       ACC.4                                                      = ??
       CODE:245b f5 d6           MOV        DAT_SFR_d6,A                                               = ??
       CODE:245d 7a 10           MOV        R2,#0x10
                             LAB_CODE_245f                                   XREF[1]:     CODE:2464(j)  
       CODE:245f 75 d5 00        MOV        HPSC,#0x0                                                  = ??
       CODE:2462 e5 d6           MOV        A,DAT_SFR_d6                                               = ??
       CODE:2464 da f9           DJNZ       R2,LAB_CODE_245f
       CODE:2466 22              RET
                             **************************************************************
                             *                          FUNCTION                          *
                             **************************************************************
                             undefined FUN_CODE_2467()
             undefined         ACC:1          <RETURN>
                             FUN_CODE_2467                                   XREF[32]:    FUN_CODE_083e:084a(c), 
                                                                                          FUN_CODE_083e:08a6(c), 
                                                                                          FUN_CODE_083e:08d5(c), 
                                                                                          FUN_CODE_083e:0908(c), 
                                                                                          FUN_CODE_083e:093b(c), 
                                                                                          FUN_CODE_083e:0946(c), 
                                                                                          FUN_CODE_083e:0955(c), 
                                                                                          FUN_CODE_083e:0967(c), 
                                                                                          FUN_CODE_083e:09af(c), 
                                                                                          FUN_CODE_083e:09bf(c), 
                                                                                          FUN_CODE_083e:09cd(c), 
                                                                                          FUN_CODE_083e:09fe(c), 
                                                                                          FUN_CODE_083e:0a09(c), 
                                                                                          FUN_CODE_083e:0a83(c), 
                                                                                          FUN_CODE_083e:0aa7(c), 
                                                                                          FUN_CODE_083e:0ab7(c), 
                                                                                          FUN_CODE_083e:0ac4(c), 
                                                                                          FUN_CODE_0d48:0d8f(c), 
                                                                                          FUN_CODE_0d48:0dad(c), 
                                                                                          FUN_CODE_0d48:0dbe(c), [more]
       CODE:2467 d2 e4           SETB       ACC.4                                                      = ??
       CODE:2469 f5 d6           MOV        DAT_SFR_d6,A                                               = ??
       CODE:246b 22              RET
                             **************************************************************
                             *                          FUNCTION                          *
                             **************************************************************
                             undefined FUN_CODE_246c()
             undefined         ACC:1          <RETURN>
                             FUN_CODE_246c                                   XREF[67]:    FUN_CODE_083e:084f(c), 
                                                                                          FUN_CODE_083e:08ab(c), 
                                                                                          FUN_CODE_083e:08b0(c), 
                                                                                          FUN_CODE_083e:08b5(c), 
                                                                                          FUN_CODE_083e:08ba(c), 
                                                                                          FUN_CODE_083e:08bf(c), 
                                                                                          FUN_CODE_083e:08d9(c), 
                                                                                          FUN_CODE_083e:08dd(c), 
                                                                                          FUN_CODE_083e:08e1(c), 
                                                                                          FUN_CODE_083e:08e5(c), 
                                                                                          FUN_CODE_083e:08e9(c), 
                                                                                          FUN_CODE_083e:08ee(c), 
                                                                                          FUN_CODE_083e:08f3(c), 
                                                                                          FUN_CODE_083e:08f8(c), 
                                                                                          FUN_CODE_083e:08fd(c), 
                                                                                          FUN_CODE_083e:0902(c), 
                                                                                          FUN_CODE_083e:090d(c), 
                                                                                          FUN_CODE_083e:0912(c), 
                                                                                          FUN_CODE_083e:0917(c), 
                                                                                          FUN_CODE_083e:091c(c), [more]
       CODE:246c f5 d5           MOV        HPSC,A                                                     = ??
       CODE:246e 22              RET
                             **************************************************************
                             *                          FUNCTION                          *
                             **************************************************************
                             undefined FUN_CODE_246f()
             undefined         ACC:1          <RETURN>
                             FUN_CODE_246f                                   XREF[3]:     FUN_CODE_083e:0abe(c), 
                                                                                          FUN_CODE_083e:0acb(c), 
                                                                                          CODE:2473(j)  
       CODE:246f e6              MOV        A,@R0
       CODE:2470 f5 d5           MOV        HPSC,A                                                     = ??
       CODE:2472 08              INC        R0
       CODE:2473 da fa           DJNZ       R2,FUN_CODE_246f
       CODE:2475 22              RET
                             **************************************************************
                             *                          FUNCTION                          *
                             **************************************************************
                             undefined FUN_CODE_2476()
             undefined         ACC:1          <RETURN>
                             FUN_CODE_2476                                   XREF[2]:     FUN_CODE_0d48:0d97(c), 
                                                                                          CODE:1dc9(c)  
       CODE:2476 75 d6 00        MOV        DAT_SFR_d6,#0x0                                            = ??
       CODE:2479 22              RET
                             **************************************************************
                             *                          FUNCTION                          *
                             **************************************************************
                             undefined FUN_CODE_247a()
             undefined         ACC:1          <RETURN>
                             FUN_CODE_247a                                   XREF[1]:     CODE:1dd0(c)  
       CODE:247a e5 d6           MOV        A,DAT_SFR_d6                                               = ??
       CODE:247c a2 e4           MOV        CY,ACC.4                                                   = ??
       CODE:247e 22              RET
                             **************************************************************
                             *                          FUNCTION                          *
                             **************************************************************
                             undefined FUN_CODE_247f()
             undefined         ACC:1          <RETURN>
                             FUN_CODE_247f                                   XREF[2]:     CODE:1174(c), CODE:11bf(c)  
       CODE:247f 90 24 ac        MOV        DPTR,#smcconfig_defaults                                   = 58h    X
       CODE:2482 12 2d 58        LCALL      FUN_CODE_2d58                                              undefined FUN_CODE_2d58()
       CODE:2485 e5 e3           MOV        A,RXDAT                                                    = ??
       CODE:2487 c4              SWAP       A
       CODE:2488 54 03           ANL        A,#0x3
       CODE:248a 75 f0 03        MOV        B,#0x3
       CODE:248d a4              MUL        AB
       CODE:248e fa              MOV        R2,A
       CODE:248f 90 24 df        MOV        DPTR,#small_block_smcconfig_loc_table
       CODE:2492 85 e5 f0        MOV        B,RXFLG                                                    = ??
       CODE:2495 30 f1 03        JNB        B.1,LAB_CODE_249b                                          = ??
       CODE:2498 90 24 eb        MOV        DPTR,#big_block_smcconfig_loc_table
                             LAB_CODE_249b                                   XREF[1]:     CODE:2495(j)  
       CODE:249b 93              MOVC       A,@A+DPTR=>big_block_smcconfig_loc_table
       CODE:249c f5 ed           MOV        CCAP3L,A                                                   = ??
       CODE:249e 0a              INC        R2
       CODE:249f ea              MOV        A,R2
       CODE:24a0 93              MOVC       A,@A+DPTR=>big_block_smcconfig_loc_table
       CODE:24a1 f5 ec           MOV        CCAP2L,A                                                   = ??
       CODE:24a3 0a              INC        R2
       CODE:24a4 ea              MOV        A,R2
       CODE:24a5 93              MOVC       A,@A+DPTR=>big_block_smcconfig_loc_table
       CODE:24a6 f5 eb           MOV        CCAP1L,A                                                   = ??
       CODE:24a8 75 f5 02        MOV        TXFLG,#0x2                                                 = ??
       CODE:24ab 22              RET
                             smcconfig_defaults                              XREF[1]:     FUN_CODE_247f:247f(*)  
       CODE:24ac 58              ??         DAT_INTMEM_58                                              = ??
       CODE:24ad e4              ??         E4h
       CODE:24ae 59              ??         DAT_INTMEM_59                                              = ??
       CODE:24af e4              ??         E4h
       CODE:24b0 e4              ??         DAT_INTMEM_e4                                              = ??
       CODE:24b1 57              ??         57h    W
       CODE:24b2 e5              ??         DAT_INTMEM_e5                                              = ??
       CODE:24b3 2a              ??         2Ah    *
       CODE:24b4 e6              ??         DAT_INTMEM_e6                                              = ??
       CODE:24b5 be              ??         BEh
       CODE:24b6 e7              ??         DAT_INTMEM_e7                                              = ??
       CODE:24b7 8a              ??         8Ah
       CODE:24b8 e8              ??         DAT_INTMEM_e8                                              = ??
       CODE:24b9 4b              ??         4Bh    K
       CODE:24ba e9              ??         DAT_INTMEM_e9                                              = ??
       CODE:24bb f1              ??         F1h
       CODE:24bc ea              ??         EAh
       CODE:24bd 74              ??         74h    t
       CODE:24be eb              ??         EBh
       CODE:24bf b9              ??         B9h
       CODE:24c0 ec              ??         ECh
       CODE:24c1 4b              ??         4Bh    K
       CODE:24c2 ed              ??         EDh
       CODE:24c3 f1              ??         F1h
       CODE:24c4 ee              ??         EEh
       CODE:24c5 74              ??         74h    t
       CODE:24c6 ef              ??         EFh
       CODE:24c7 b9              ??         B9h
       CODE:24c8 f0              ??         F0h
       CODE:24c9 4a              ??         4Ah    J
       CODE:24ca f1              ??         F1h
       CODE:24cb b4              ??         B4h
       CODE:24cc f2              ??         F2h
       CODE:24cd 75              ??         75h    u
       CODE:24ce f3              ??         F3h
       CODE:24cf 6a              ??         6Ah    j
       CODE:24d0 e3              ??         E3h
       CODE:24d1 03              ??         03h
       CODE:24d2 4e              ??         4Eh    N
       CODE:24d3 50              ??         50h    P
       CODE:24d4 4f              ??         4Fh    O
       CODE:24d5 47              ??         47h    G
       CODE:24d6 50              ??         50h    P
       CODE:24d7 49              ??         49h    I
       CODE:24d8 51              ??         51h    Q
       CODE:24d9 64              ??         64h    d
       CODE:24da 52              ??         52h    R
       CODE:24db 6e              ??         6Eh    n
       CODE:24dc 53              ??         53h    S
       CODE:24dd 75              ??         75h    u
       CODE:24de 00              ??         00h
                             small_block_smcconfig_loc_table                 XREF[4]:     FUN_CODE_247f:248f(*), 
                                                                                          FUN_CODE_247f:249b(*), 
                                                                                          FUN_CODE_247f:24a0(*), 
                                                                                          FUN_CODE_247f:24a5(*)  
       CODE:24df 00              ??         00h
       CODE:24e0 7b              ??         7Bh    {
       CODE:24e1 e0              ??         E0h
       CODE:24e2 00              ??         00h
       CODE:24e3 f7              ??         F7h
       CODE:24e4 c0              ??         C0h
       CODE:24e5 01              ??         01h
       CODE:24e6 ef              ??         EFh
       CODE:24e7 c0              ??         C0h
       CODE:24e8 03              ??         03h
       CODE:24e9 df              ??         DFh
       CODE:24ea c0              ??         C0h
                             big_block_smcconfig_loc_table                   XREF[4]:     FUN_CODE_247f:2498(*), 
                                                                                          FUN_CODE_247f:249b(*), 
                                                                                          FUN_CODE_247f:24a0(*), 
                                                                                          FUN_CODE_247f:24a5(*)  
       CODE:24eb 00              ??         00h
       CODE:24ec f7              ??         F7h
       CODE:24ed c0              ??         C0h
       CODE:24ee 00              ??         00h
       CODE:24ef f7              ??         F7h
       CODE:24f0 c0              ??         C0h
       CODE:24f1 03              ??         03h
       CODE:24f2 be              ??         BEh
       CODE:24f3 00              ??         00h
       CODE:24f4 03              ??         03h
       CODE:24f5 bc              ??         BCh
       CODE:24f6 00              ??         00h
                             **************************************************************
                             *                          FUNCTION                          *
                             **************************************************************
                             undefined FUN_CODE_24f7()
             undefined         ACC:1          <RETURN>
                             FUN_CODE_24f7                                   XREF[2]:     CODE:117c(c), CODE:11ce(c)  
       CODE:24f7 c2 59           CLR        2b.1                                                       = ??
       CODE:24f9 e5 ee           MOV        A,CCAP4L                                                   = ??
       CODE:24fb 20 e0 04        JB         ACC.0,LAB_CODE_2502                                        = ??
       CODE:24fe 54 b0           ANL        A,#0xb0
       CODE:2500 60 06           JZ         LAB_CODE_2508
                             LAB_CODE_2502                                   XREF[3]:     CODE:24fb(j), CODE:2513(j), 
                                                                                          CODE:2559(j)  
       CODE:2502 20 11 02        JB         22.1,LAB_CODE_2507                                         = ??
       CODE:2505 d2 59           SETB       2b.1                                                       = ??
                             LAB_CODE_2507                                   XREF[1]:     CODE:2502(j)  
       CODE:2507 22              RET
                             LAB_CODE_2508                                   XREF[1]:     CODE:2500(j)  
       CODE:2508 75 eb 00        MOV        CCAP1L,#0x0                                                = ??
       CODE:250b 75 ea 0c        MOV        CCAP0L,#0xc                                                = ??
       CODE:250e 75 f5 00        MOV        TXFLG,#0x0                                                 = ??
       CODE:2511 e5 f3           MOV        A,TXDAT                                                    = ??
       CODE:2513 b4 04 ec        CJNE       A,#0x4,LAB_CODE_2502
       CODE:2516 75 ea 00        MOV        CCAP0L,#0x0                                                = ??
       CODE:2519 75 f5 00        MOV        TXFLG,#0x0                                                 = ??
       CODE:251c aa f1           MOV        R2,EPINDEX                                                 = ??
       CODE:251e ab f2           MOV        R3,TXSTAT                                                  = ??
       CODE:2520 7c 3f           MOV        R4,#0x3f
       CODE:2522 75 ea 10        MOV        CCAP0L,#0x10                                               = ??
                             LAB_CODE_2525                                   XREF[1]:     CODE:254f(j)  
       CODE:2525 75 f5 00        MOV        TXFLG,#0x0                                                 = ??
       CODE:2528 75 f0 00        MOV        B,#0x0
       CODE:252b ea              MOV        A,R2
       CODE:252c 25 f1           ADD        A,EPINDEX                                                  = ??
       CODE:252e 92 f0           MOV        B.0,CY                                                     = ??
       CODE:2530 25 f2           ADD        A,TXSTAT                                                   = ??
       CODE:2532 92 f1           MOV        B.1,CY                                                     = ??
       CODE:2534 25 f3           ADD        A,TXDAT                                                    = ??
       CODE:2536 92 f2           MOV        B.2,CY                                                     = ??
       CODE:2538 25 f4           ADD        A,TXCON                                                    = ??
       CODE:253a 92 f3           MOV        B.3,CY                                                     = ??
       CODE:253c fa              MOV        R2,A
       CODE:253d eb              MOV        A,R3
       CODE:253e a2 f0           MOV        CY,B.0                                                     = ??
       CODE:2540 34 00           ADDC       A,#0x0
       CODE:2542 a2 f1           MOV        CY,B.1                                                     = ??
       CODE:2544 34 00           ADDC       A,#0x0
       CODE:2546 a2 f2           MOV        CY,B.2                                                     = ??
       CODE:2548 34 00           ADDC       A,#0x0
       CODE:254a a2 f3           MOV        CY,B.3                                                     = ??
       CODE:254c 34 00           ADDC       A,#0x0
       CODE:254e fb              MOV        R3,A
       CODE:254f dc d4           DJNZ       R4,LAB_CODE_2525
       CODE:2551 ea              MOV        A,R2
       CODE:2552 24 01           ADD        A,#0x1
       CODE:2554 fa              MOV        R2,A
       CODE:2555 eb              MOV        A,R3
       CODE:2556 34 00           ADDC       A,#0x0
       CODE:2558 4a              ORL        A,R2
       CODE:2559 70 a7           JNZ        LAB_CODE_2502
       CODE:255b 75 eb 00        MOV        CCAP1L,#0x0                                                = ??
       CODE:255e 75 ea 14        MOV        CCAP0L,#0x14                                               = ??
       CODE:2561 75 f5 00        MOV        TXFLG,#0x0                                                 = ??
       CODE:2564 e5 f1           MOV        A,EPINDEX                                                  = ??
       CODE:2566 20 e1 7a        JB         ACC.1,LAB_CODE_25e3                                        = ??
       CODE:2569 75 ea 10        MOV        CCAP0L,#0x10                                               = ??
       CODE:256c 75 f5 00        MOV        TXFLG,#0x0                                                 = ??
       CODE:256f 85 f2 58        MOV        DAT_INTMEM_58,TXSTAT                                       = ??
       CODE:2572 85 f3 59        MOV        DAT_INTMEM_59,TXDAT                                        = ??
       CODE:2575 75 ea 18        MOV        CCAP0L,#0x18                                               = ??
       CODE:2578 75 f5 00        MOV        TXFLG,#0x0                                                 = ??
       CODE:257b 78 e4           MOV        R0,#0xe4
       CODE:257d a6 f2           MOV        @R0=>DAT_INTMEM_e4,TXSTAT                                  = ??
       CODE:257f 08              INC        R0
       CODE:2580 a6 f1           MOV        @R0=>DAT_INTMEM_e5,EPINDEX                                 = ??
       CODE:2582 08              INC        R0
       CODE:2583 a6 f4           MOV        @R0=>DAT_INTMEM_e6,TXCON                                   = ??
       CODE:2585 08              INC        R0
       CODE:2586 a6 f3           MOV        @R0=>DAT_INTMEM_e7,TXDAT                                   = ??
       CODE:2588 75 ea 1c        MOV        CCAP0L,#0x1c                                               = ??
       CODE:258b 75 f5 00        MOV        TXFLG,#0x0                                                 = ??
       CODE:258e 78 e8           MOV        R0,#0xe8
       CODE:2590 a6 f2           MOV        @R0=>DAT_INTMEM_e8,TXSTAT                                  = ??
       CODE:2592 08              INC        R0
       CODE:2593 a6 f1           MOV        @R0=>DAT_INTMEM_e9,EPINDEX                                 = ??
       CODE:2595 08              INC        R0
       CODE:2596 a6 f4           MOV        @R0=>DAT_INTMEM_ea,TXCON                                   = ??
       CODE:2598 08              INC        R0
       CODE:2599 a6 f3           MOV        @R0=>DAT_INTMEM_eb,TXDAT                                   = ??
       CODE:259b 75 ea 20        MOV        CCAP0L,#0x20                                               = ??
       CODE:259e 75 f5 00        MOV        TXFLG,#0x0                                                 = ??
       CODE:25a1 78 ec           MOV        R0,#0xec
       CODE:25a3 a6 f2           MOV        @R0=>DAT_INTMEM_ec,TXSTAT                                  = ??
       CODE:25a5 08              INC        R0
       CODE:25a6 a6 f1           MOV        @R0=>DAT_INTMEM_ed,EPINDEX                                 = ??
       CODE:25a8 08              INC        R0
       CODE:25a9 a6 f4           MOV        @R0=>DAT_INTMEM_ee,TXCON                                   = ??
       CODE:25ab 08              INC        R0
       CODE:25ac a6 f3           MOV        @R0=>DAT_INTMEM_ef,TXDAT                                   = ??
       CODE:25ae 75 ea 24        MOV        CCAP0L,#0x24                                               = ??
       CODE:25b1 75 f5 00        MOV        TXFLG,#0x0                                                 = ??
       CODE:25b4 78 f0           MOV        R0,#0xf0
       CODE:25b6 a6 f2           MOV        @R0=>DAT_INTMEM_f0,TXSTAT                                  = ??
       CODE:25b8 08              INC        R0
       CODE:25b9 a6 f1           MOV        @R0=>EPINDEX,EPINDEX                                       = ??
       CODE:25bb 08              INC        R0
       CODE:25bc a6 f4           MOV        @R0=>DAT_INTMEM_f2,TXCON                                   = ??
       CODE:25be 08              INC        R0
       CODE:25bf a6 f3           MOV        @R0=>TXDAT,TXDAT                                           = ??
       CODE:25c1 75 ea 28        MOV        CCAP0L,#0x28                                               = ??
       CODE:25c4 75 f5 00        MOV        TXFLG,#0x0                                                 = ??
       CODE:25c7 78 e3           MOV        R0,#0xe3
       CODE:25c9 a6 f1           MOV        @R0=>DAT_INTMEM_e3,EPINDEX                                 = ??
       CODE:25cb 85 f2 4e        MOV        DAT_INTMEM_4e,TXSTAT                                       = ??
       CODE:25ce 85 f3 4f        MOV        DAT_INTMEM_4f,TXDAT                                        = ??
       CODE:25d1 85 f4 50        MOV        DAT_INTMEM_50,TXCON                                        = ??
       CODE:25d4 75 ea 2c        MOV        CCAP0L,#0x2c                                               = ??
       CODE:25d7 75 f5 00        MOV        TXFLG,#0x0                                                 = ??
       CODE:25da 85 f1 51        MOV        DAT_INTMEM_51,EPINDEX                                      = ??
       CODE:25dd 85 f2 52        MOV        DAT_INTMEM_52,TXSTAT                                       = ??
       CODE:25e0 85 f3 53        MOV        DAT_INTMEM_53,TXDAT                                        = ??
                             LAB_CODE_25e3                                   XREF[1]:     CODE:2566(j)  
       CODE:25e3 22              RET
                             **************************************************************
                             *                          FUNCTION                          *
                             **************************************************************
                             undefined FUN_CODE_25e4()
             undefined         ACC:1          <RETURN>
                             FUN_CODE_25e4                                   XREF[1]:     CODE:1335(c)  
       CODE:25e4 c2 cc           CLR        TCLK                                                       = ??
       CODE:25e6 22              RET
                             **************************************************************
                             *                          FUNCTION                          *
                             **************************************************************
                             undefined FUN_CODE_25e7()
             undefined         ACC:1          <RETURN>
                             FUN_CODE_25e7                                   XREF[2]:     CODE:10b9(c), CODE:132d(c)  
       CODE:25e7 d2 cc           SETB       TCLK                                                       = ??
       CODE:25e9 22              RET
                             **************************************************************
                             *                          FUNCTION                          *
                             **************************************************************
                             undefined FUN_CODE_25ea()
             undefined         ACC:1          <RETURN>
                             FUN_CODE_25ea                                   XREF[1]:     FUN_CODE_14c6:15bd(c)  
       CODE:25ea f5 91           MOV        DAT_SFR_91,A                                               = ??
       CODE:25ec 22              RET
                             **************************************************************
                             *                          FUNCTION                          *
                             **************************************************************
                             undefined FUN_CODE_25ed()
             undefined         ACC:1          <RETURN>
                             FUN_CODE_25ed                                   XREF[1]:     FUN_CODE_14c6:15b9(c)  
       CODE:25ed f5 93           MOV        DPX,A                                                      = ??
       CODE:25ef 22              RET
                             **************************************************************
                             *                          FUNCTION                          *
                             **************************************************************
                             undefined FUN_CODE_25f0()
             undefined         ACC:1          <RETURN>
                             FUN_CODE_25f0                                   XREF[5]:     CODE:1cba(c), CODE:1cc6(c), 
                                                                                          CODE:1cd3(c), CODE:1cea(c), 
                                                                                          CODE:1cf3(c)  
       CODE:25f0 a2 a7           MOV        CY,P2.7                                                    = ??
       CODE:25f2 b3              CPL        CY
       CODE:25f3 22              RET
                             **************************************************************
                             *                          FUNCTION                          *
                             **************************************************************
                             undefined FUN_CODE_25f4()
             undefined         ACC:1          <RETURN>
                             FUN_CODE_25f4                                   XREF[5]:     CODE:1cbf(c), CODE:1ccb(c), 
                                                                                          CODE:1cd8(c), CODE:1ce5(c), 
                                                                                          CODE:1cf8(c)  
       CODE:25f4 a2 90           MOV        CY,P1.0                                                    = ??
       CODE:25f6 b3              CPL        CY
       CODE:25f7 22              RET
                             **************************************************************
                             *                          FUNCTION                          *
                             **************************************************************
                             undefined FUN_CODE_25f8()
             undefined         ACC:1          <RETURN>
                             FUN_CODE_25f8                                   XREF[5]:     CODE:13a6(c), CODE:13ad(c), 
                                                                                          CODE:13b4(c), CODE:13bb(c), 
                                                                                          CODE:1d02(c)  
       CODE:25f8 a2 92           MOV        CY,P1.2                                                    = ??
       CODE:25fa b3              CPL        CY
       CODE:25fb 22              RET
                             **************************************************************
                             *                          FUNCTION                          *
                             **************************************************************
                             undefined FUN_CODE_25fc()
             undefined         ACC:1          <RETURN>
                             FUN_CODE_25fc                                   XREF[4]:     FUN_CODE_2092:2095(c), 
                                                                                          FUN_CODE_209c:209c(c), 
                                                                                          FUN_CODE_20ac:20af(c), 
                                                                                          FUN_CODE_20b6:20b6(c)  
       CODE:25fc a2 a8           MOV        CY,EX0                                                     = ??
       CODE:25fe c2 a8           CLR        EX0                                                        = ??
       CODE:2600 40 03           JC         LAB_CODE_2605
       CODE:2602 a2 91           MOV        CY,P1.1                                                    = ??
       CODE:2604 b3              CPL        CY
                             LAB_CODE_2605                                   XREF[1]:     CODE:2600(j)  
       CODE:2605 22              RET
                             **************************************************************
                             *                          FUNCTION                          *
                             **************************************************************
                             undefined FUN_CODE_2606()
             undefined         ACC:1          <RETURN>
                             FUN_CODE_2606                                   XREF[2]:     CODE:131a(c), CODE:133d(c)  
       CODE:2606 e4              CLR        A
       CODE:2607 a2 c2           MOV        CY,FIFLG.2                                                 = ??
       CODE:2609 92 e6           MOV        ACC.6,CY                                                   = ??
       CODE:260b a2 c7           MOV        CY,FIFLG.7                                                 = ??
       CODE:260d 92 e4           MOV        ACC.4,CY                                                   = ??
       CODE:260f a2 c6           MOV        CY,FIFLG.6                                                 = ??
       CODE:2611 92 e3           MOV        ACC.3,CY                                                   = ??
       CODE:2613 a2 c5           MOV        CY,FIFLG.5                                                 = ??
       CODE:2615 92 e2           MOV        ACC.2,CY                                                   = ??
       CODE:2617 a2 c4           MOV        CY,FIFLG.4                                                 = ??
       CODE:2619 92 e1           MOV        ACC.1,CY                                                   = ??
       CODE:261b a2 cb           MOV        CY,EXEN2                                                   = ??
       CODE:261d 92 e0           MOV        ACC.0,CY                                                   = ??
       CODE:261f 22              RET
                             **************************************************************
                             *                          FUNCTION                          *
                             **************************************************************
                             undefined FUN_CODE_2620()
             undefined         ACC:1          <RETURN>
                             FUN_CODE_2620                                   XREF[2]:     CODE:141c(c), CODE:144d(c)  
       CODE:2620 75 78 00        MOV        DAT_INTMEM_78,#0x0                                         = ??
       CODE:2623 22              RET
                             **************************************************************
                             *                          FUNCTION                          *
                             **************************************************************
                             undefined FUN_CODE_2624()
             undefined         ACC:1          <RETURN>
                             FUN_CODE_2624                                   XREF[3]:     FUN_CODE_0756:0770(c), 
                                                                                          CODE:1417(c), CODE:1431(c)  
       CODE:2624 e5 78           MOV        A,DAT_INTMEM_78                                            = ??
       CODE:2626 a2 cd           MOV        CY,RCLK                                                    = ??
       CODE:2628 b3              CPL        CY
       CODE:2629 22              RET
                             **************************************************************
                             *                          FUNCTION                          *
                             **************************************************************
                             undefined FUN_CODE_262a()
             undefined         ACC:1          <RETURN>
                             FUN_CODE_262a                                   XREF[3]:     FUN_CODE_0756:0780(c), 
                                                                                          FUN_CODE_083e:08c5(c), 
                                                                                          FUN_CODE_2d27:2d27(c)  
       CODE:262a 43 af 01        ORL        DAT_SFR_af,#0x1                                            = ??
       CODE:262d ae ae           MOV        R6,HSTAT                                                   = ??
       CODE:262f ad ad           MOV        R5,DAT_SFR_ad                                              = ??
       CODE:2631 ac ac           MOV        R4,DAT_SFR_ac                                              = ??
       CODE:2633 ab ab           MOV        R3,DAT_SFR_ab                                              = ??
       CODE:2635 aa aa           MOV        R2,DAT_SFR_aa                                              = ??
       CODE:2637 22              RET
                             **************************************************************
                             *                          FUNCTION                          *
                             **************************************************************
                             undefined FUN_CODE_2638()
             undefined         ACC:1          <RETURN>
                             FUN_CODE_2638                                   XREF[1]:     FUN_CODE_083e:0bb1(c)  
       CODE:2638 8e ae           MOV        HSTAT,R6                                                   = ??
       CODE:263a 8d ad           MOV        DAT_SFR_ad,R5                                              = ??
       CODE:263c 8c ac           MOV        DAT_SFR_ac,R4                                              = ??
       CODE:263e 8b ab           MOV        DAT_SFR_ab,R3                                              = ??
       CODE:2640 8a aa           MOV        DAT_SFR_aa,R2                                              = ??
       CODE:2642 43 af 02        ORL        DAT_SFR_af,#0x2                                            = ??
       CODE:2645 22              RET
                             **************************************************************
                             *                          FUNCTION                          *
                             **************************************************************
                             undefined FUN_CODE_2646()
             undefined         ACC:1          <RETURN>
                             FUN_CODE_2646                                   XREF[1]:     CODE:1a68(c)  
       CODE:2646 75 79 00        MOV        DAT_INTMEM_79,#0x0                                         = ??
       CODE:2649 75 7b 01        MOV        DAT_INTMEM_7b,#0x1                                         = ??
       CODE:264c 80 26           SJMP       LAB_CODE_2674
                             **************************************************************
                             *                          FUNCTION                          *
                             **************************************************************
                             undefined FUN_CODE_264e()
             undefined         ACC:1          <RETURN>
                             FUN_CODE_264e                                   XREF[1]:     CODE:1a76(c)  
       CODE:264e 75 79 03        MOV        DAT_INTMEM_79,#0x3                                         = ??
       CODE:2651 80 1e           SJMP       FUN_CODE_2671                                              undefined FUN_CODE_2671()
                             -- Flow Override: CALL_RETURN (CALL_TERMINATOR)
                             **************************************************************
                             *                          FUNCTION                          *
                             **************************************************************
                             undefined FUN_CODE_2653()
             undefined         ACC:1          <RETURN>
                             FUN_CODE_2653                                   XREF[1]:     CODE:1a85(c)  
       CODE:2653 75 79 34        MOV        DAT_INTMEM_79,#0x34                                        = ??
       CODE:2656 80 19           SJMP       FUN_CODE_2671                                              undefined FUN_CODE_2671()
                             -- Flow Override: CALL_RETURN (CALL_TERMINATOR)
                             **************************************************************
                             *                          FUNCTION                          *
                             **************************************************************
                             undefined FUN_CODE_2658()
             undefined         ACC:1          <RETURN>
                             FUN_CODE_2658                                   XREF[1]:     CODE:1a94(c)  
       CODE:2658 75 79 60        MOV        DAT_INTMEM_79,#0x60                                        = ??
       CODE:265b 80 14           SJMP       FUN_CODE_2671                                              undefined FUN_CODE_2671()
                             -- Flow Override: CALL_RETURN (CALL_TERMINATOR)
                             **************************************************************
                             *                          FUNCTION                          *
                             **************************************************************
                             undefined FUN_CODE_265d()
             undefined         ACC:1          <RETURN>
                             FUN_CODE_265d                                   XREF[1]:     CODE:1aa6(c)  
       CODE:265d 75 79 7a        MOV        DAT_INTMEM_79,#0x7a                                        = ??
       CODE:2660 80 0f           SJMP       FUN_CODE_2671                                              undefined FUN_CODE_2671()
                             -- Flow Override: CALL_RETURN (CALL_TERMINATOR)
                             **************************************************************
                             *                          FUNCTION                          *
                             **************************************************************
                             undefined FUN_CODE_2662()
             undefined         ACC:1          <RETURN>
                             FUN_CODE_2662                                   XREF[1]:     CODE:1ab5(c)  
       CODE:2662 75 79 7c        MOV        DAT_INTMEM_79,#0x7c                                        = ??
       CODE:2665 80 0a           SJMP       FUN_CODE_2671                                              undefined FUN_CODE_2671()
                             -- Flow Override: CALL_RETURN (CALL_TERMINATOR)
                             **************************************************************
                             *                          FUNCTION                          *
                             **************************************************************
                             undefined FUN_CODE_2667()
             undefined         ACC:1          <RETURN>
                             FUN_CODE_2667                                   XREF[1]:     CODE:1ac4(c)  
       CODE:2667 75 79 ac        MOV        DAT_INTMEM_79,#0xac                                        = ??
       CODE:266a 80 05           SJMP       FUN_CODE_2671                                              undefined FUN_CODE_2671()
                             -- Flow Override: CALL_RETURN (CALL_TERMINATOR)
                             **************************************************************
                             *                          FUNCTION                          *
                             **************************************************************
                             undefined FUN_CODE_266c()
             undefined         ACC:1          <RETURN>
                             FUN_CODE_266c                                   XREF[1]:     CODE:1ad6(c)  
       CODE:266c 75 79 b7        MOV        DAT_INTMEM_79,#0xb7                                        = ??
       CODE:266f 80 00           SJMP       FUN_CODE_2671                                              undefined FUN_CODE_2671()
                             -- Flow Override: CALL_RETURN (CALL_TERMINATOR)
                             **************************************************************
                             *                          FUNCTION                          *
                             **************************************************************
                             undefined FUN_CODE_2671()
             undefined         ACC:1          <RETURN>
                             FUN_CODE_2671                                   XREF[7]:     FUN_CODE_264e:2651(c), 
                                                                                          FUN_CODE_2653:2656(c), 
                                                                                          FUN_CODE_2658:265b(c), 
                                                                                          FUN_CODE_265d:2660(c), 
                                                                                          FUN_CODE_2662:2665(c), 
                                                                                          FUN_CODE_2667:266a(c), 
                                                                                          FUN_CODE_266c:266f(c)  
       CODE:2671 75 7b 03        MOV        DAT_INTMEM_7b,#0x3                                         = ??
                             LAB_CODE_2674                                   XREF[1]:     FUN_CODE_2646:264c(j)  
       CODE:2674 85 79 7a        MOV        DAT_INTMEM_7a,DAT_INTMEM_79                                = ??
       CODE:2677 80 35           SJMP       FUN_CODE_26ae                                              undefined FUN_CODE_26ae()
                             -- Flow Override: CALL_RETURN (CALL_TERMINATOR)
                             **************************************************************
                             *                          FUNCTION                          *
                             **************************************************************
                             undefined FUN_CODE_2679()
             undefined         ACC:1          <RETURN>
                             FUN_CODE_2679                                   XREF[8]:     CODE:1ae5(c), CODE:1b17(c), 
                                                                                          CODE:1b60(c), CODE:1b6c(c), 
                                                                                          CODE:1b75(c), CODE:1b81(c), 
                                                                                          CODE:1b8a(c), CODE:1ba4(c)  
       CODE:2679 30 60 02        JNB        2c.0,LAB_CODE_267e                                         = ??
       CODE:267c 80 2c           SJMP       LAB_CODE_26aa
                             LAB_CODE_267e                                   XREF[1]:     CODE:2679(j)  
       CODE:267e 30 da 09        JNB        CCF.2,LAB_CODE_268a                                        = ??
       CODE:2681 12 2a 38        LCALL      FUN_CODE_2a38                                              undefined FUN_CODE_2a38()
       CODE:2684 30 da 03        JNB        CCF.2,LAB_CODE_268a                                        = ??
       CODE:2687 12 2a 38        LCALL      FUN_CODE_2a38                                              undefined FUN_CODE_2a38()
                             LAB_CODE_268a                                   XREF[2]:     CODE:267e(j), CODE:2684(j)  
       CODE:268a 30 61 21        JNB        2c.1,FUN_CODE_26ae                                         = ??
                             LAB_CODE_268d                                   XREF[4]:     CODE:26c5(j), CODE:27c2(j), 
                                                                                          CODE:28ac(j), CODE:28c7(j)  
       CODE:268d d5 7b 07        DJNZ       DAT_INTMEM_7b,LAB_CODE_2697                                = ??
       CODE:2690 d2 d5           SETB       F0                                                         = ??
                             LAB_CODE_2692                                   XREF[1]:     CODE:26da(j)  
       CODE:2692 12 02 ad        LCALL      FUN_CODE_02ad                                              undefined FUN_CODE_02ad()
       CODE:2695 d3              SETB       CY
       CODE:2696 22              RET
                             LAB_CODE_2697                                   XREF[1]:     CODE:268d(j)  
       CODE:2697 85 79 7a        MOV        DAT_INTMEM_7a,DAT_INTMEM_79                                = ??
       CODE:269a c2 61           CLR        2c.1                                                       = ??
       CODE:269c 80 0c           SJMP       LAB_CODE_26aa
                             **************************************************************
                             *                          FUNCTION                          *
                             **************************************************************
                             undefined FUN_CODE_269e()
             undefined         ACC:1          <RETURN>
                             FUN_CODE_269e                                   XREF[8]:     CODE:2725(c), CODE:2748(c), 
                                                                                          CODE:277b(c), CODE:27a4(c), 
                                                                                          CODE:27ec(c), CODE:289f(c), 
                                                                                          CODE:28e0(c), CODE:2928(c)  
       CODE:269e d2 61           SETB       2c.1                                                       = ??
       CODE:26a0 d2 60           SETB       2c.0                                                       = ??
       CODE:26a2 75 10 00        MOV        BANK2_R0,#0x0                                              = ??
       CODE:26a5 d2 d9           SETB       CCF.1                                                      = ??
       CODE:26a7 53 bc f7        ANL        DAT_SFR_bc,#0xf7                                           = ??
                             LAB_CODE_26aa                                   XREF[2]:     FUN_CODE_2679:267c(j), 
                                                                                          FUN_CODE_2679:269c(j)  
       CODE:26aa c2 d5           CLR        F0                                                         = ??
       CODE:26ac c3              CLR        CY
       CODE:26ad 22              RET
                             **************************************************************
                             *                          FUNCTION                          *
                             **************************************************************
                             undefined FUN_CODE_26ae()
             undefined         ACC:1          <RETURN>
                             FUN_CODE_26ae                                   XREF[12]:    FUN_CODE_2671:2677(c), 
                                                                                          FUN_CODE_2679:268a(j), 
                                                                                          CODE:26d6(c), CODE:26de(c), 
                                                                                          CODE:2778(c), CODE:27bc(c), 
                                                                                          CODE:2839(c), CODE:2862(c), 
                                                                                          CODE:2885(c), CODE:28a9(c), 
                                                                                          CODE:28c4(c), CODE:28d7(c)  
       CODE:26ae 90 29 59        MOV        DPTR,#DAT_CODE_2959
       CODE:26b1 e5 7a           MOV        A,DAT_INTMEM_7a                                            = ??
       CODE:26b3 93              MOVC       A,@A+DPTR=>DAT_CODE_2959
       CODE:26b4 90 29 2b        MOV        DPTR,#LAB_CODE_292b
       CODE:26b7 73              JMP        @A+DPTR
                             LAB_CODE_26b8                                   XREF[1]:     CODE:292b(j)  
       CODE:26b8 12 02 ad        LCALL      FUN_CODE_02ad                                              undefined FUN_CODE_02ad()
       CODE:26bb 12 2a 48        LCALL      FUN_CODE_2a48                                              undefined FUN_CODE_2a48()
       CODE:26be 50 07           JNC        LAB_CODE_26c7
       CODE:26c0 12 2a 62        LCALL      FUN_CODE_2a62                                              undefined FUN_CODE_2a62()
       CODE:26c3 50 02           JNC        LAB_CODE_26c7
       CODE:26c5 80 c6           SJMP       LAB_CODE_268d
                             LAB_CODE_26c7                                   XREF[2]:     CODE:26be(j), CODE:26c3(j)  
       CODE:26c7 c2 c9           CLR        CT2                                                        = ??
       CODE:26c9 12 2a 38        LCALL      FUN_CODE_2a38                                              undefined FUN_CODE_2a38()
       CODE:26cc d2 c9           SETB       CT2                                                        = ??
       CODE:26ce 12 2a 38        LCALL      FUN_CODE_2a38                                              undefined FUN_CODE_2a38()
       CODE:26d1 12 2a 4c        LCALL      FUN_CODE_2a4c                                              undefined FUN_CODE_2a4c()
       CODE:26d4 05 7a           INC        DAT_INTMEM_7a                                              = ??
       CODE:26d6 80 d6           SJMP       FUN_CODE_26ae                                              undefined FUN_CODE_26ae()
                             -- Flow Override: CALL_RETURN (CALL_TERMINATOR)
                             LAB_CODE_26d8                                   XREF[1]:     CODE:292e(j)  
       CODE:26d8 c2 d5           CLR        F0                                                         = ??
       CODE:26da 80 b6           SJMP       LAB_CODE_2692
                             LAB_CODE_26dc                                   XREF[1]:     CODE:2931(j)  
       CODE:26dc 05 7a           INC        DAT_INTMEM_7a                                              = ??
       CODE:26de 80 ce           SJMP       FUN_CODE_26ae                                              undefined FUN_CODE_26ae()
                             -- Flow Override: CALL_RETURN (CALL_TERMINATOR)
                             LAB_CODE_26e0                                   XREF[1]:     CODE:2936(j)  
       CODE:26e0 d2 5d           SETB       2b.5                                                       = ??
       CODE:26e2 75 11 e0        MOV        BANK2_R1,#0xe0                                             = ??
       CODE:26e5 75 12 06        MOV        BANK2_R2,#0x6                                              = ??
       CODE:26e8 c2 5e           CLR        2b.6                                                       = ??
       CODE:26ea c2 5f           CLR        2b.7                                                       = ??
       CODE:26ec 90 29 59        MOV        DPTR,#DAT_CODE_2959
       CODE:26ef 05 7a           INC        DAT_INTMEM_7a                                              = ??
       CODE:26f1 e5 7a           MOV        A,DAT_INTMEM_7a                                            = ??
       CODE:26f3 93              MOVC       A,@A+DPTR=>DAT_CODE_2959
       CODE:26f4 f5 1a           MOV        BANK3_R2,A                                                 = ??
       CODE:26f6 75 19 04        MOV        BANK3_R1,#0x4                                              = ??
       CODE:26f9 05 7a           INC        DAT_INTMEM_7a                                              = ??
       CODE:26fb e5 7a           MOV        A,DAT_INTMEM_7a                                            = ??
       CODE:26fd 93              MOVC       A,@A+DPTR=>DAT_CODE_2959
       CODE:26fe f5 15           MOV        BANK2_R5,A                                                 = ??
       CODE:2700 05 7a           INC        DAT_INTMEM_7a                                              = ??
       CODE:2702 e5 7a           MOV        A,DAT_INTMEM_7a                                            = ??
       CODE:2704 93              MOVC       A,@A+DPTR=>DAT_CODE_2959
       CODE:2705 f5 16           MOV        BANK2_R6,A                                                 = ??
       CODE:2707 05 7a           INC        DAT_INTMEM_7a                                              = ??
       CODE:2709 e5 7a           MOV        A,DAT_INTMEM_7a                                            = ??
       CODE:270b 93              MOVC       A,@A+DPTR=>DAT_CODE_2959
       CODE:270c f5 17           MOV        BANK2_R7,A                                                 = ??
       CODE:270e e5 1a           MOV        A,BANK3_R2                                                 = ??
       CODE:2710 b4 db 07        CJNE       A,#0xdb,LAB_CODE_271a
       CODE:2713 78 e3           MOV        R0,#0xe3
       CODE:2715 e6              MOV        A,@R0=>DAT_INTMEM_e3                                       = ??
       CODE:2716 f5 18           MOV        BANK3_R0,A                                                 = ??
       CODE:2718 80 07           SJMP       LAB_CODE_2721
                             LAB_CODE_271a                                   XREF[1]:     CODE:2710(j)  
       CODE:271a 05 7a           INC        DAT_INTMEM_7a                                              = ??
       CODE:271c e5 7a           MOV        A,DAT_INTMEM_7a                                            = ??
       CODE:271e 93              MOVC       A,@A+DPTR=>DAT_CODE_2959
       CODE:271f f5 18           MOV        BANK3_R0,A                                                 = ??
                             LAB_CODE_2721                                   XREF[1]:     CODE:2718(j)  
       CODE:2721 c2 5c           CLR        2b.4                                                       = ??
       CODE:2723 05 7a           INC        DAT_INTMEM_7a                                              = ??
       CODE:2725 02 26 9e        LJMP       FUN_CODE_269e                                              undefined FUN_CODE_269e()
                             -- Flow Override: CALL_RETURN (CALL_TERMINATOR)
                             LAB_CODE_2728                                   XREF[1]:     CODE:2939(j)  
       CODE:2728 d2 5d           SETB       2b.5                                                       = ??
       CODE:272a 75 11 e0        MOV        BANK2_R1,#0xe0                                             = ??
       CODE:272d 75 12 01        MOV        BANK2_R2,#0x1                                              = ??
       CODE:2730 c2 5e           CLR        2b.6                                                       = ??
       CODE:2732 d2 5f           SETB       2b.7                                                       = ??
       CODE:2734 75 13 e1        MOV        BANK2_R3,#0xe1                                             = ??
       CODE:2737 75 14 05        MOV        BANK2_R4,#0x5                                              = ??
       CODE:273a 90 29 59        MOV        DPTR,#0x2959
       CODE:273d 05 7a           INC        DAT_INTMEM_7a                                              = ??
       CODE:273f e5 7a           MOV        A,DAT_INTMEM_7a                                            = ??
       CODE:2741 93              MOVC       A,@A+DPTR=>DAT_CODE_2959
       CODE:2742 f5 15           MOV        BANK2_R5,A                                                 = ??
       CODE:2744 c2 5c           CLR        2b.4                                                       = ??
       CODE:2746 05 7a           INC        DAT_INTMEM_7a                                              = ??
       CODE:2748 02 26 9e        LJMP       FUN_CODE_269e                                              undefined FUN_CODE_269e()
                             -- Flow Override: CALL_RETURN (CALL_TERMINATOR)
                             LAB_CODE_274b                                   XREF[1]:     CODE:293c(j)  
       CODE:274b d2 5d           SETB       2b.5                                                       = ??
       CODE:274d 75 11 72        MOV        BANK2_R1,#0x72                                             = ??
       CODE:2750 c2 5e           CLR        2b.6                                                       = ??
       CODE:2752 c2 5f           CLR        2b.7                                                       = ??
       CODE:2754 90 29 59        MOV        DPTR,#0x2959
       CODE:2757 05 7a           INC        DAT_INTMEM_7a                                              = ??
       CODE:2759 e5 7a           MOV        A,DAT_INTMEM_7a                                            = ??
       CODE:275b 93              MOVC       A,@A+DPTR=>DAT_CODE_2959
       CODE:275c f5 12           MOV        BANK2_R2,A                                                 = ??
       CODE:275e 24 15           ADD        A,#0x15
       CODE:2760 f8              MOV        R0,A
                             LAB_CODE_2761                                   XREF[1]:     CODE:2768(j)  
       CODE:2761 18              DEC        R0
       CODE:2762 05 7a           INC        DAT_INTMEM_7a                                              = ??
       CODE:2764 e5 7a           MOV        A,DAT_INTMEM_7a                                            = ??
       CODE:2766 93              MOVC       A,@A+DPTR=>DAT_CODE_2959
       CODE:2767 f6              MOV        @R0,A
       CODE:2768 b8 15 f6        CJNE       R0,#0x15,LAB_CODE_2761
       CODE:276b 05 7a           INC        DAT_INTMEM_7a                                              = ??
       CODE:276d e5 7a           MOV        A,DAT_INTMEM_7a                                            = ??
       CODE:276f 93              MOVC       A,@A+DPTR=>DAT_CODE_2959
       CODE:2770 d2 77           SETB       2e.7                                                       = ??
       CODE:2772 c2 5c           CLR        2b.4                                                       = ??
       CODE:2774 05 7a           INC        DAT_INTMEM_7a                                              = ??
       CODE:2776 70 03           JNZ        LAB_CODE_277b
       CODE:2778 02 26 ae        LJMP       FUN_CODE_26ae                                              undefined FUN_CODE_26ae()
                             -- Flow Override: CALL_RETURN (CALL_TERMINATOR)
                             LAB_CODE_277b                                   XREF[1]:     CODE:2776(j)  
       CODE:277b 02 26 9e        LJMP       FUN_CODE_269e                                              undefined FUN_CODE_269e()
                             -- Flow Override: CALL_RETURN (CALL_TERMINATOR)
                             LAB_CODE_277e                                   XREF[1]:     CODE:293f(j)  
       CODE:277e d2 5d           SETB       2b.5                                                       = ??
       CODE:2780 75 11 72        MOV        BANK2_R1,#0x72                                             = ??
       CODE:2783 75 12 01        MOV        BANK2_R2,#0x1                                              = ??
       CODE:2786 c2 5e           CLR        2b.6                                                       = ??
       CODE:2788 d2 5f           SETB       2b.7                                                       = ??
       CODE:278a 75 13 73        MOV        BANK2_R3,#0x73                                             = ??
       CODE:278d 90 29 59        MOV        DPTR,#0x2959
       CODE:2790 05 7a           INC        DAT_INTMEM_7a                                              = ??
       CODE:2792 e5 7a           MOV        A,DAT_INTMEM_7a                                            = ??
       CODE:2794 93              MOVC       A,@A+DPTR=>DAT_CODE_2959
       CODE:2795 f5 14           MOV        BANK2_R4,A                                                 = ??
       CODE:2797 05 7a           INC        DAT_INTMEM_7a                                              = ??
       CODE:2799 e5 7a           MOV        A,DAT_INTMEM_7a                                            = ??
       CODE:279b 93              MOVC       A,@A+DPTR=>DAT_CODE_2959
       CODE:279c f5 15           MOV        BANK2_R5,A                                                 = ??
       CODE:279e d2 77           SETB       2e.7                                                       = ??
       CODE:27a0 c2 5c           CLR        2b.4                                                       = ??
       CODE:27a2 05 7a           INC        DAT_INTMEM_7a                                              = ??
       CODE:27a4 02 26 9e        LJMP       FUN_CODE_269e                                              undefined FUN_CODE_269e()
                             -- Flow Override: CALL_RETURN (CALL_TERMINATOR)
                             LAB_CODE_27a7                                   XREF[1]:     CODE:2942(j)  
       CODE:27a7 20 77 1b        JB         2e.7,LAB_CODE_27c5                                         = ??
       CODE:27aa e5 15           MOV        A,BANK2_R5                                                 = ??
       CODE:27ac 54 10           ANL        A,#0x10
       CODE:27ae 70 0f           JNZ        LAB_CODE_27bf
       CODE:27b0 75 98 00        MOV        SCON,#0x0                                                  = ??
       CODE:27b3 e5 15           MOV        A,BANK2_R5                                                 = ??
       CODE:27b5 54 fb           ANL        A,#0xfb
       CODE:27b7 b4 00 08        CJNE       A,#0x0,LAB_CODE_27c2
       CODE:27ba 05 7a           INC        DAT_INTMEM_7a                                              = ??
       CODE:27bc 02 26 ae        LJMP       FUN_CODE_26ae                                              undefined FUN_CODE_26ae()
                             -- Flow Override: CALL_RETURN (CALL_TERMINATOR)
                             LAB_CODE_27bf                                   XREF[1]:     CODE:27ae(j)  
       CODE:27bf 30 9f 11        JNB        SM0,LAB_CODE_27d3                                          = ??
                             LAB_CODE_27c2                                   XREF[1]:     CODE:27b7(j)  
       CODE:27c2 02 26 8d        LJMP       LAB_CODE_268d
                             LAB_CODE_27c5                                   XREF[1]:     CODE:27a7(j)  
       CODE:27c5 75 98 00        MOV        SCON,#0x0                                                  = ??
       CODE:27c8 75 95 88        MOV        DAT_SFR_95,#0x88                                           = ??
       CODE:27cb 75 9b 4f        MOV        DAT_SFR_9b,#0x4f                                           = ??
       CODE:27ce 75 9c ff        MOV        DAT_SFR_9c,#0xff                                           = ??
       CODE:27d1 d2 9a           SETB       RB8                                                        = ??
                             LAB_CODE_27d3                                   XREF[1]:     CODE:27bf(j)  
       CODE:27d3 c2 77           CLR        2e.7                                                       = ??
       CODE:27d5 d2 5d           SETB       2b.5                                                       = ??
       CODE:27d7 75 11 72        MOV        BANK2_R1,#0x72                                             = ??
       CODE:27da 75 12 01        MOV        BANK2_R2,#0x1                                              = ??
       CODE:27dd 75 15 f2        MOV        BANK2_R5,#0xf2                                             = ??
       CODE:27e0 c2 5e           CLR        2b.6                                                       = ??
       CODE:27e2 d2 5f           SETB       2b.7                                                       = ??
       CODE:27e4 75 13 73        MOV        BANK2_R3,#0x73                                             = ??
       CODE:27e7 75 14 01        MOV        BANK2_R4,#0x1                                              = ??
       CODE:27ea c2 5c           CLR        2b.4                                                       = ??
       CODE:27ec 02 26 9e        LJMP       FUN_CODE_269e                                              undefined FUN_CODE_269e()
                             -- Flow Override: CALL_RETURN (CALL_TERMINATOR)
                             LAB_CODE_27ef                                   XREF[1]:     CODE:2945(j)  
       CODE:27ef e5 18           MOV        A,BANK3_R0                                                 = ??
       CODE:27f1 45 17           ORL        A,BANK2_R7                                                 = ??
       CODE:27f3 60 1e           JZ         LAB_CODE_2813
       CODE:27f5 d2 53           SETB       2a.3                                                       = ??
       CODE:27f7 85 45 4d        MOV        DAT_INTMEM_4d,DAT_INTMEM_45                                = ??
       CODE:27fa 85 44 4c        MOV        DAT_INTMEM_4c,DAT_INTMEM_44                                = ??
       CODE:27fd 78 18           MOV        R0,#0x18
       CODE:27ff 79 ef           MOV        R1,#0xef
       CODE:2801 c2 d5           CLR        F0                                                         = ??
       CODE:2803 12 2a cb        LCALL      FUN_CODE_2acb                                              undefined FUN_CODE_2acb()
       CODE:2806 78 18           MOV        R0,#0x18
       CODE:2808 79 ed           MOV        R1,#0xed
       CODE:280a 12 2a e5        LCALL      FUN_CODE_2ae5                                              undefined FUN_CODE_2ae5()
       CODE:280d 85 17 45        MOV        DAT_INTMEM_45,BANK2_R7                                     = ??
       CODE:2810 85 18 44        MOV        DAT_INTMEM_44,BANK3_R0                                     = ??
                             LAB_CODE_2813                                   XREF[1]:     CODE:27f3(j)  
       CODE:2813 e5 16           MOV        A,BANK2_R6                                                 = ??
       CODE:2815 45 15           ORL        A,BANK2_R5                                                 = ??
       CODE:2817 60 1e           JZ         LAB_CODE_2837
       CODE:2819 d2 52           SETB       2a.2                                                       = ??
       CODE:281b 85 43 4b        MOV        DAT_INTMEM_4b,DAT_INTMEM_43                                = ??
       CODE:281e 85 42 4a        MOV        DAT_INTMEM_4a,DAT_INTMEM_42                                = ??
       CODE:2821 78 16           MOV        R0,#0x16
       CODE:2823 79 eb           MOV        R1,#0xeb
       CODE:2825 c2 d5           CLR        F0                                                         = ??
       CODE:2827 12 2a cb        LCALL      FUN_CODE_2acb                                              undefined FUN_CODE_2acb()
       CODE:282a 78 16           MOV        R0,#0x16
       CODE:282c 79 e9           MOV        R1,#0xe9
       CODE:282e 12 2a e5        LCALL      FUN_CODE_2ae5                                              undefined FUN_CODE_2ae5()
       CODE:2831 85 15 43        MOV        DAT_INTMEM_43,BANK2_R5                                     = ??
       CODE:2834 85 16 42        MOV        DAT_INTMEM_42,BANK2_R6                                     = ??
                             LAB_CODE_2837                                   XREF[1]:     CODE:2817(j)  
       CODE:2837 05 7a           INC        DAT_INTMEM_7a                                              = ??
       CODE:2839 02 26 ae        LJMP       FUN_CODE_26ae                                              undefined FUN_CODE_26ae()
                             -- Flow Override: CALL_RETURN (CALL_TERMINATOR)
                             LAB_CODE_283c                                   XREF[1]:     CODE:2948(j)  
       CODE:283c e5 18           MOV        A,BANK3_R0                                                 = ??
       CODE:283e 45 17           ORL        A,BANK2_R7                                                 = ??
       CODE:2840 60 1e           JZ         LAB_CODE_2860
       CODE:2842 d2 51           SETB       2a.1                                                       = ??
       CODE:2844 85 41 49        MOV        DAT_INTMEM_49,DAT_INTMEM_41                                = ??
       CODE:2847 85 40 48        MOV        DAT_INTMEM_48,DAT_INTMEM_40                                = ??
       CODE:284a 78 18           MOV        R0,#0x18
       CODE:284c 79 e7           MOV        R1,#0xe7
       CODE:284e d2 d5           SETB       F0                                                         = ??
       CODE:2850 12 2a cb        LCALL      FUN_CODE_2acb                                              undefined FUN_CODE_2acb()
       CODE:2853 78 18           MOV        R0,#0x18
       CODE:2855 79 e5           MOV        R1,#0xe5
       CODE:2857 12 2a e5        LCALL      FUN_CODE_2ae5                                              undefined FUN_CODE_2ae5()
       CODE:285a 85 17 41        MOV        DAT_INTMEM_41,BANK2_R7                                     = ??
       CODE:285d 85 18 40        MOV        DAT_INTMEM_40,BANK3_R0                                     = ??
                             LAB_CODE_2860                                   XREF[1]:     CODE:2840(j)  
       CODE:2860 05 7a           INC        DAT_INTMEM_7a                                              = ??
       CODE:2862 02 26 ae        LJMP       FUN_CODE_26ae                                              undefined FUN_CODE_26ae()
                             -- Flow Override: CALL_RETURN (CALL_TERMINATOR)
                             LAB_CODE_2865                                   XREF[1]:     CODE:294b(j)  
       CODE:2865 e5 18           MOV        A,BANK3_R0                                                 = ??
       CODE:2867 45 17           ORL        A,BANK2_R7                                                 = ??
       CODE:2869 60 18           JZ         LAB_CODE_2883
       CODE:286b d2 54           SETB       2a.4                                                       = ??
       CODE:286d 78 18           MOV        R0,#0x18
       CODE:286f 79 f3           MOV        R1,#0xf3
       CODE:2871 c2 d5           CLR        F0                                                         = ??
       CODE:2873 12 2a cb        LCALL      FUN_CODE_2acb                                              undefined FUN_CODE_2acb()
       CODE:2876 78 18           MOV        R0,#0x18
       CODE:2878 79 f1           MOV        R1,#0xf1
       CODE:287a 12 2a e5        LCALL      FUN_CODE_2ae5                                              undefined FUN_CODE_2ae5()
       CODE:287d 85 17 47        MOV        DAT_INTMEM_47,BANK2_R7                                     = ??
       CODE:2880 85 18 46        MOV        DAT_INTMEM_46,BANK3_R0                                     = ??
                             LAB_CODE_2883                                   XREF[1]:     CODE:2869(j)  
       CODE:2883 05 7a           INC        DAT_INTMEM_7a                                              = ??
       CODE:2885 02 26 ae        LJMP       FUN_CODE_26ae                                              undefined FUN_CODE_26ae()
                             -- Flow Override: CALL_RETURN (CALL_TERMINATOR)
                             LAB_CODE_2888                                   XREF[1]:     CODE:294e(j)  
       CODE:2888 e5 79           MOV        A,DAT_INTMEM_79                                            = ??
       CODE:288a b4 7a 05        CJNE       A,#0x7a,LAB_CODE_2892
       CODE:288d 75 15 00        MOV        BANK2_R5,#0x0                                              = ??
       CODE:2890 80 0b           SJMP       LAB_CODE_289d
                             LAB_CODE_2892                                   XREF[1]:     CODE:288a(j)  
       CODE:2892 b4 7b 05        CJNE       A,#0x7b,LAB_CODE_289a
       CODE:2895 75 15 02        MOV        BANK2_R5,#0x2                                              = ??
       CODE:2898 80 03           SJMP       LAB_CODE_289d
                             LAB_CODE_289a                                   XREF[1]:     CODE:2892(j)  
       CODE:289a 75 15 01        MOV        BANK2_R5,#0x1                                              = ??
                             LAB_CODE_289d                                   XREF[2]:     CODE:2890(j), CODE:2898(j)  
       CODE:289d 05 7a           INC        DAT_INTMEM_7a                                              = ??
       CODE:289f 02 26 9e        LJMP       FUN_CODE_269e                                              undefined FUN_CODE_269e()
                             -- Flow Override: CALL_RETURN (CALL_TERMINATOR)
                             LAB_CODE_28a2                                   XREF[1]:     CODE:2951(j)  
       CODE:28a2 e5 15           MOV        A,BANK2_R5                                                 = ??
       CODE:28a4 b4 05 05        CJNE       A,#0x5,LAB_CODE_28ac
       CODE:28a7 05 7a           INC        DAT_INTMEM_7a                                              = ??
       CODE:28a9 02 26 ae        LJMP       FUN_CODE_26ae                                              undefined FUN_CODE_26ae()
                             -- Flow Override: CALL_RETURN (CALL_TERMINATOR)
                             LAB_CODE_28ac                                   XREF[1]:     CODE:28a4(j)  
       CODE:28ac 02 26 8d        LJMP       LAB_CODE_268d
                             LAB_CODE_28af                                   XREF[1]:     CODE:2954(j)  
       CODE:28af e5 79           MOV        A,DAT_INTMEM_79                                            = ??
       CODE:28b1 b4 7a 16        CJNE       A,#0x7a,LAB_CODE_28ca
       CODE:28b4 e5 18           MOV        A,BANK3_R0                                                 = ??
       CODE:28b6 b4 ca 0e        CJNE       A,#0xca,LAB_CODE_28c7
       CODE:28b9 e5 17           MOV        A,BANK2_R7                                                 = ??
       CODE:28bb b4 8d 09        CJNE       A,#0x8d,LAB_CODE_28c7
       CODE:28be 75 79 7b        MOV        DAT_INTMEM_79,#0x7b                                        = ??
       CODE:28c1 85 79 7a        MOV        DAT_INTMEM_7a,DAT_INTMEM_79                                = ??
       CODE:28c4 02 26 ae        LJMP       FUN_CODE_26ae                                              undefined FUN_CODE_26ae()
                             -- Flow Override: CALL_RETURN (CALL_TERMINATOR)
                             LAB_CODE_28c7                                   XREF[2]:     CODE:28b6(j), CODE:28bb(j)  
       CODE:28c7 02 26 8d        LJMP       LAB_CODE_268d
                             LAB_CODE_28ca                                   XREF[1]:     CODE:28b1(j)  
       CODE:28ca e5 18           MOV        A,BANK3_R0                                                 = ??
       CODE:28cc 78 b9           MOV        R0,#0xb9
       CODE:28ce f6              MOV        @R0=>DAT_INTMEM_b9,A                                       = ??
       CODE:28cf e5 17           MOV        A,BANK2_R7                                                 = ??
       CODE:28d1 a2 e0           MOV        CY,ACC.0                                                   = ??
       CODE:28d3 92 56           MOV        2a.6,CY                                                    = ??
       CODE:28d5 05 7a           INC        DAT_INTMEM_7a                                              = ??
       CODE:28d7 02 26 ae        LJMP       FUN_CODE_26ae                                              undefined FUN_CODE_26ae()
                             -- Flow Override: CALL_RETURN (CALL_TERMINATOR)
                             LAB_CODE_28da                                   XREF[1]:     CODE:2957(j)  
       CODE:28da e5 5a           MOV        A,DAT_INTMEM_5a                                            = ??
       CODE:28dc f5 15           MOV        BANK2_R5,A                                                 = ??
       CODE:28de 05 7a           INC        DAT_INTMEM_7a                                              = ??
       CODE:28e0 02 26 9e        LJMP       FUN_CODE_269e                                              undefined FUN_CODE_269e()
                             -- Flow Override: CALL_RETURN (CALL_TERMINATOR)
                             LAB_CODE_28e3                                   XREF[1]:     CODE:2934(j)  
       CODE:28e3 74 01           MOV        A,#0x1
       CODE:28e5 12 24 45        LCALL      FUN_CODE_2445                                              undefined FUN_CODE_2445()
       CODE:28e8 12 24 4a        LCALL      FUN_CODE_244a                                              undefined FUN_CODE_244a()
       CODE:28eb c4              SWAP       A
       CODE:28ec 54 0f           ANL        A,#0xf
       CODE:28ee f5 12           MOV        BANK2_R2,A                                                 = ??
       CODE:28f0 12 24 4a        LCALL      FUN_CODE_244a                                              undefined FUN_CODE_244a()
       CODE:28f3 f5 14           MOV        BANK2_R4,A                                                 = ??
       CODE:28f5 53 14 0f        ANL        BANK2_R4,#0xf                                              = ??
       CODE:28f8 c4              SWAP       A
       CODE:28f9 f5 16           MOV        BANK2_R6,A                                                 = ??
       CODE:28fb 53 16 0f        ANL        BANK2_R6,#0xf                                              = ??
       CODE:28fe 12 24 4a        LCALL      FUN_CODE_244a                                              undefined FUN_CODE_244a()
       CODE:2901 a2 e7           MOV        CY,ACC.7                                                   = ??
       CODE:2903 92 5d           MOV        2b.5,CY                                                    = ??
       CODE:2905 c3              CLR        CY
       CODE:2906 33              RLC        A
       CODE:2907 f5 11           MOV        BANK2_R1,A                                                 = ??
       CODE:2909 12 24 4a        LCALL      FUN_CODE_244a                                              undefined FUN_CODE_244a()
       CODE:290c a2 e7           MOV        CY,ACC.7                                                   = ??
       CODE:290e 92 5e           MOV        2b.6,CY                                                    = ??
       CODE:2910 c3              CLR        CY
       CODE:2911 33              RLC        A
       CODE:2912 f5 15           MOV        BANK2_R5,A                                                 = ??
       CODE:2914 12 24 4a        LCALL      FUN_CODE_244a                                              undefined FUN_CODE_244a()
       CODE:2917 a2 e7           MOV        CY,ACC.7                                                   = ??
       CODE:2919 92 5f           MOV        2b.7,CY                                                    = ??
       CODE:291b d3              SETB       CY
       CODE:291c 33              RLC        A
       CODE:291d f5 13           MOV        BANK2_R3,A                                                 = ??
       CODE:291f 74 03           MOV        A,#0x3
       CODE:2921 12 24 67        LCALL      FUN_CODE_2467                                              undefined FUN_CODE_2467()
       CODE:2924 d2 5c           SETB       2b.4                                                       = ??
       CODE:2926 05 7a           INC        DAT_INTMEM_7a                                              = ??
       CODE:2928 02 26 9e        LJMP       FUN_CODE_269e                                              undefined FUN_CODE_269e()
                             -- Flow Override: CALL_RETURN (CALL_TERMINATOR)
                             LAB_CODE_292b                                   XREF[1]:     FUN_CODE_26ae:26b4(*)  
       CODE:292b 02 26 b8        LJMP       LAB_CODE_26b8
       CODE:292e 02 26 d8        LJMP       LAB_CODE_26d8
       CODE:2931 02 26 dc        LJMP       LAB_CODE_26dc
       CODE:2934 80 ad           SJMP       LAB_CODE_28e3
       CODE:2936 02 26 e0        LJMP       LAB_CODE_26e0
       CODE:2939 02 27 28        LJMP       LAB_CODE_2728
       CODE:293c 02 27 4b        LJMP       LAB_CODE_274b
       CODE:293f 02 27 7e        LJMP       LAB_CODE_277e
       CODE:2942 02 27 a7        LJMP       LAB_CODE_27a7
       CODE:2945 02 27 ef        LJMP       LAB_CODE_27ef
       CODE:2948 02 28 3c        LJMP       LAB_CODE_283c
       CODE:294b 02 28 65        LJMP       LAB_CODE_2865
       CODE:294e 02 28 88        LJMP       LAB_CODE_2888
       CODE:2951 02 28 a2        LJMP       LAB_CODE_28a2
       CODE:2954 02 28 af        LJMP       LAB_CODE_28af
       CODE:2957 80 81           SJMP       LAB_CODE_28da
                             DAT_CODE_2959                                   XREF[14]:    FUN_CODE_26ae:26ae(*), 
                                                                                          FUN_CODE_26ae:26b3(*), 
                                                                                          CODE:26ec(*), CODE:26f3(*), 
                                                                                          CODE:26fd(*), CODE:2704(*), 
                                                                                          CODE:270b(*), CODE:271e(*), 
                                                                                          CODE:2741(*), CODE:275b(*), 
                                                                                          CODE:2766(*), CODE:276f(*), 
                                                                                          CODE:2794(*), CODE:279b(*)  
       CODE:2959 00              ??         00h
       CODE:295a 09              ??         09h
       CODE:295b 03              ??         03h
       CODE:295c 00              ??         00h
       CODE:295d 0b              ??         0Bh
       CODE:295e e4              ??         E4h
       CODE:295f 00              ??         00h
       CODE:2960 00              ??         00h
       CODE:2961 00              ??         00h
       CODE:2962 1b              ??         1Bh
       CODE:2963 0b              ??         0Bh
       CODE:2964 e3              ??         E3h
       CODE:2965 0f              ??         0Fh
       CODE:2966 ff              ??         FFh
       CODE:2967 ff              ??         FFh
       CODE:2968 ff              ??         FFh
       CODE:2969 0b              ??         0Bh
       CODE:296a db              ??         DBh
       CODE:296b 00              ??         00h
       CODE:296c 00              ??         00h
       CODE:296d 00              ??         00h
       CODE:296e 0b              ??         0Bh
       CODE:296f d5              ??         D5h
       CODE:2970 00              ??         00h
       CODE:2971 00              ??         00h
       CODE:2972 00              ??         00h
       CODE:2973 75              ??         75h    u
       CODE:2974 0b              ??         0Bh
       CODE:2975 d9              ??         D9h
       CODE:2976 00              ??         00h
       CODE:2977 00              ??         00h
       CODE:2978 00              ??         00h
       CODE:2979 88              ??         88h
       CODE:297a 0b              ??         0Bh
       CODE:297b d4              ??         D4h
       CODE:297c 09              ??         09h
       CODE:297d 90              ??         90h
       CODE:297e e0              ??         E0h
       CODE:297f 0e              ??         0Eh
       CODE:2980 0b              ??         0Bh
       CODE:2981 dc              ??         DCh
       CODE:2982 00              ??         00h
       CODE:2983 00              ??         00h
       CODE:2984 42              ??         42h    B
       CODE:2985 aa              ??         AAh
       CODE:2986 0b              ??         0Bh
       CODE:2987 df              ??         DFh
       CODE:2988 00              ??         00h
       CODE:2989 00              ??         00h
       CODE:298a 00              ??         00h
       CODE:298b 00              ??         00h
       CODE:298c 03              ??         03h
       CODE:298d 00              ??         00h
       CODE:298e 0b              ??         0Bh
       CODE:298f d6              ??         D6h
       CODE:2990 00              ??         00h
       CODE:2991 00              ??         00h
       CODE:2992 00              ??         00h
       CODE:2993 75              ??         75h    u
       CODE:2994 0b              ??         0Bh
       CODE:2995 d9              ??         D9h
       CODE:2996 00              ??         00h
       CODE:2997 00              ??         00h
       CODE:2998 00              ??         00h
       CODE:2999 20              ??         20h     
       CODE:299a 0b              ??         0Bh
       CODE:299b d3              ??         D3h
       CODE:299c 89              ??         89h
       CODE:299d 83              ??         83h
       CODE:299e 20              ??         20h     
       CODE:299f 17              ??         17h
       CODE:29a0 0b              ??         0Bh
       CODE:29a1 ce              ??         CEh
       CODE:29a2 88              ??         88h
       CODE:29a3 e8              ??         E8h
       CODE:29a4 40              ??         40h    @
       CODE:29a5 14              ??         14h
       CODE:29a6 0b              ??         0Bh
       CODE:29a7 d3              ??         D3h
       CODE:29a8 09              ??         09h
       CODE:29a9 83              ??         83h
       CODE:29aa 20              ??         20h     
       CODE:29ab 17              ??         17h
       CODE:29ac 0b              ??         0Bh
       CODE:29ad ce              ??         CEh
       CODE:29ae 08              ??         08h
       CODE:29af e8              ??         E8h
       CODE:29b0 40              ??         40h    @
       CODE:29b1 14              ??         14h
       CODE:29b2 0b              ??         0Bh
       CODE:29b3 e3              ??         E3h
       CODE:29b4 84              ??         84h
       CODE:29b5 36              ??         36h    6
       CODE:29b6 f6              ??         F6h
       CODE:29b7 66              ??         66h    f
       CODE:29b8 03              ??         03h
       CODE:29b9 00              ??         00h
       CODE:29ba 0b              ??         0Bh
       CODE:29bb e3              ??         E3h
       CODE:29bc 0f              ??         0Fh
       CODE:29bd ff              ??         FFh
       CODE:29be ff              ??         FFh
       CODE:29bf ff              ??         FFh
       CODE:29c0 0b              ??         0Bh
       CODE:29c1 d5              ??         D5h
       CODE:29c2 00              ??         00h
       CODE:29c3 00              ??         00h
       CODE:29c4 00              ??         00h
       CODE:29c5 75              ??         75h    u
       CODE:29c6 0b              ??         0Bh
       CODE:29c7 d9              ??         D9h
       CODE:29c8 00              ??         00h
       CODE:29c9 00              ??         00h
       CODE:29ca 00              ??         00h
       CODE:29cb 88              ??         88h
       CODE:29cc 0b              ??         0Bh
       CODE:29cd df              ??         DFh
       CODE:29ce 00              ??         00h
       CODE:29cf 00              ??         00h
       CODE:29d0 00              ??         00h
       CODE:29d1 00              ??         00h
       CODE:29d2 03              ??         03h
       CODE:29d3 06              ??         06h
       CODE:29d4 06              ??         06h
       CODE:29d5 00              ??         00h
       CODE:29d6 11              ??         11h
       CODE:29d7 02              ??         02h
       CODE:29d8 f3              ??         F3h
       CODE:29d9 0f              ??         0Fh
       CODE:29da 01              ??         01h
       CODE:29db 11              ??         11h
       CODE:29dc 02              ??         02h
       CODE:29dd f3              ??         F3h
       CODE:29de 0a              ??         0Ah
       CODE:29df 01              ??         01h
       CODE:29e0 11              ??         11h
       CODE:29e1 02              ??         02h
       CODE:29e2 ec              ??         ECh
       CODE:29e3 90              ??         90h
       CODE:29e4 01              ??         01h
       CODE:29e5 11              ??         11h
       CODE:29e6 05              ??         05h
       CODE:29e7 ec              ??         ECh
       CODE:29e8 00              ??         00h
       CODE:29e9 90              ??         90h
       CODE:29ea 00              ??         00h
       CODE:29eb 00              ??         00h
       CODE:29ec 00              ??         00h
       CODE:29ed 23              ??         23h    #
       CODE:29ee 11              ??         11h
       CODE:29ef 05              ??         05h
       CODE:29f0 f0              ??         F0h
       CODE:29f1 05              ??         05h
       CODE:29f2 00              ??         00h
       CODE:29f3 00              ??         00h
       CODE:29f4 09              ??         09h
       CODE:29f5 01              ??         01h
       CODE:29f6 11              ??         11h
       CODE:29f7 02              ??         02h
       CODE:29f8 f3              ??         F3h
       CODE:29f9 02              ??         02h
       CODE:29fa 01              ??         01h
       CODE:29fb 17              ??         17h
       CODE:29fc 14              ??         14h
       CODE:29fd 01              ??         01h
       CODE:29fe f5              ??         F5h
       CODE:29ff 26              ??         26h    &
       CODE:2a00 14              ??         14h
       CODE:2a01 05              ??         05h
       CODE:2a02 f4              ??         F4h
       CODE:2a03 29              ??         29h    )
       CODE:2a04 03              ??         03h
       CODE:2a05 00              ??         00h
       CODE:2a06 0e              ??         0Eh
       CODE:2a07 e0              ??         E0h
       CODE:2a08 1a              ??         1Ah
       CODE:2a09 0e              ??         0Eh
       CODE:2a0a e1              ??         E1h
       CODE:2a0b 1d              ??         1Dh
       CODE:2a0c 0e              ??         0Eh
       CODE:2a0d e2              ??         E2h
       CODE:2a0e 20              ??         20h     
       CODE:2a0f 03              ??         03h
       CODE:2a10 00              ??         00h
       CODE:2a11 11              ??         11h
       CODE:2a12 02              ??         02h
       CODE:2a13 f3              ??         F3h
       CODE:2a14 0f              ??         0Fh
       CODE:2a15 01              ??         01h
       CODE:2a16 11              ??         11h
       CODE:2a17 02              ??         02h
       CODE:2a18 f3              ??         F3h
       CODE:2a19 0a              ??         0Ah
       CODE:2a1a 01              ??         01h
       CODE:2a1b 11              ??         11h
       CODE:2a1c 02              ??         02h
       CODE:2a1d ec              ??         ECh
       CODE:2a1e 90              ??         90h
       CODE:2a1f 01              ??         01h
       CODE:2a20 11              ??         11h
       CODE:2a21 05              ??         05h
       CODE:2a22 ec              ??         ECh
       CODE:2a23 00              ??         00h
       CODE:2a24 60              ??         60h    `
       CODE:2a25 00              ??         00h
       CODE:2a26 00              ??         00h
       CODE:2a27 00              ??         00h
       CODE:2a28 2c              ??         2Ch    ,
       CODE:2a29 11              ??         11h
       CODE:2a2a 05              ??         05h
       CODE:2a2b f0              ??         F0h
       CODE:2a2c 00              ??         00h
       CODE:2a2d 00              ??         00h
       CODE:2a2e 00              ??         00h
       CODE:2a2f 09              ??         09h
       CODE:2a30 01              ??         01h
       CODE:2a31 11              ??         11h
       CODE:2a32 02              ??         02h
       CODE:2a33 f3              ??         F3h
       CODE:2a34 06              ??         06h
       CODE:2a35 01              ??         01h
       CODE:2a36 17              ??         17h
       CODE:2a37 03              ??         03h
                             **************************************************************
                             *                          FUNCTION                          *
                             **************************************************************
                             undefined FUN_CODE_2a38()
             undefined         ACC:1          <RETURN>
                             FUN_CODE_2a38                                   XREF[6]:     FUN_CODE_2679:2681(c), 
                                                                                          FUN_CODE_2679:2687(c), 
                                                                                          CODE:26c9(c), CODE:26ce(c), 
                                                                                          FUN_CODE_2a62:2a67(c), 
                                                                                          FUN_CODE_2a62:2a6c(c)  
       CODE:2a38 f2              MOVX       @R0,A
       CODE:2a39 f2              MOVX       @R0,A
       CODE:2a3a f2              MOVX       @R0,A
       CODE:2a3b f2              MOVX       @R0,A
       CODE:2a3c f2              MOVX       @R0,A
       CODE:2a3d f2              MOVX       @R0,A
       CODE:2a3e f2              MOVX       @R0,A
       CODE:2a3f f2              MOVX       @R0,A
       CODE:2a40 f2              MOVX       @R0,A
       CODE:2a41 f2              MOVX       @R0,A
       CODE:2a42 f2              MOVX       @R0,A
       CODE:2a43 f2              MOVX       @R0,A
       CODE:2a44 f2              MOVX       @R0,A
       CODE:2a45 f2              MOVX       @R0,A
       CODE:2a46 f2              MOVX       @R0,A
       CODE:2a47 22              RET
                             **************************************************************
                             *                          FUNCTION                          *
                             **************************************************************
                             undefined FUN_CODE_2a48()
             undefined         ACC:1          <RETURN>
                             FUN_CODE_2a48                                   XREF[2]:     CODE:26bb(c), 
                                                                                          FUN_CODE_2a62:2a6f(c)  
       CODE:2a48 a2 c9           MOV        CY,CT2                                                     = ??
       CODE:2a4a b3              CPL        CY
       CODE:2a4b 22              RET
                             **************************************************************
                             *                          FUNCTION                          *
                             **************************************************************
                             undefined FUN_CODE_2a4c()
             undefined         ACC:1          <RETURN>
                             FUN_CODE_2a4c                                   XREF[1]:     CODE:26d1(c)  
       CODE:2a4c 75 db 00        MOV        CCAPM1,#0x0                                                = ??
       CODE:2a4f 75 dc 00        MOV        CCAPM2,#0x0                                                = ??
       CODE:2a52 75 dd e1        MOV        CCAPM3,#0xe1                                               = ??
       CODE:2a55 75 de 83        MOV        CCAPM4,#0x83                                               = ??
       CODE:2a58 75 d8 b0        MOV        CCON,#0xb0                                                 = ??
       CODE:2a5b 75 88 00        MOV        TCON,#0x0                                                  = ??
       CODE:2a5e 75 95 88        MOV        DAT_SFR_95,#0x88                                           = ??
       CODE:2a61 22              RET
                             **************************************************************
                             *                          FUNCTION                          *
                             **************************************************************
                             undefined FUN_CODE_2a62()
             undefined         ACC:1          <RETURN>
                             FUN_CODE_2a62                                   XREF[1]:     CODE:26c0(c)  
       CODE:2a62 75 15 09        MOV        BANK2_R5,#0x9                                              = ??
                             LAB_CODE_2a65                                   XREF[1]:     CODE:2a76(j)  
       CODE:2a65 c2 c8           CLR        CPRL2                                                      = ??
       CODE:2a67 12 2a 38        LCALL      FUN_CODE_2a38                                              undefined FUN_CODE_2a38()
       CODE:2a6a d2 c8           SETB       CPRL2                                                      = ??
       CODE:2a6c 12 2a 38        LCALL      FUN_CODE_2a38                                              undefined FUN_CODE_2a38()
       CODE:2a6f 12 2a 48        LCALL      FUN_CODE_2a48                                              undefined FUN_CODE_2a48()
       CODE:2a72 40 02           JC         LAB_CODE_2a76
       CODE:2a74 c3              CLR        CY
       CODE:2a75 22              RET
                             LAB_CODE_2a76                                   XREF[1]:     CODE:2a72(j)  
       CODE:2a76 d5 15 ec        DJNZ       BANK2_R5,LAB_CODE_2a65                                     = ??
       CODE:2a79 d3              SETB       CY
       CODE:2a7a 22              RET
                             **************************************************************
                             *                          FUNCTION                          *
                             **************************************************************
                             undefined FUN_CODE_2a7b()
             undefined         ACC:1          <RETURN>
                             FUN_CODE_2a7b                                   XREF[1]:     FUN_CODE_19f3:19f3(c)  
       CODE:2a7b c3              CLR        CY
       CODE:2a7c e4              CLR        A
       CODE:2a7d 30 63 04        JNB        2c.3,LAB_CODE_2a84                                         = ??
       CODE:2a80 e5 6c           MOV        A,DAT_INTMEM_6c                                            = ??
       CODE:2a82 c2 63           CLR        2c.3                                                       = ??
                             LAB_CODE_2a84                                   XREF[1]:     CODE:2a7d(j)  
       CODE:2a84 22              RET
                             **************************************************************
                             *                          FUNCTION                          *
                             **************************************************************
                             undefined FUN_CODE_2a85()
             undefined         ACC:1          <RETURN>
                             FUN_CODE_2a85                                   XREF[18]:    CODE:1761(c), CODE:1771(c), 
                                                                                          CODE:17ab(c), CODE:17bc(c), 
                                                                                          CODE:17c8(c), CODE:17dd(c), 
                                                                                          CODE:17fb(c), CODE:185b(c), 
                                                                                          CODE:1865(c), CODE:1881(c), 
                                                                                          CODE:189d(c), CODE:18e9(c), 
                                                                                          CODE:18f2(c), CODE:1922(c), 
                                                                                          CODE:1935(c), CODE:1949(c), 
                                                                                          CODE:198c(c), CODE:19ed(c)  
       CODE:2a85 f5 6d           MOV        DAT_INTMEM_6d,A                                            = ??
       CODE:2a87 85 f0 6e        MOV        DAT_INTMEM_6e,B                                            = ??
       CODE:2a8a 78 e2           MOV        R0,#0xe2
       CODE:2a8c f6              MOV        @R0=>DAT_INTMEM_e2,A                                       = ??
       CODE:2a8d 75 7d 03        MOV        DAT_INTMEM_7d,#0x3                                         = ??
       CODE:2a90 75 6f 00        MOV        DAT_INTMEM_6f,#0x0                                         = ??
                             LAB_CODE_2a93                                   XREF[1]:     FUN_CODE_2aae:2ac9(j)  
       CODE:2a93 c2 66           CLR        2c.6                                                       = ??
       CODE:2a95 c2 67           CLR        2c.7                                                       = ??
       CODE:2a97 d2 65           SETB       2c.5                                                       = ??
       CODE:2a99 e5 6d           MOV        A,DAT_INTMEM_6d                                            = ??
       CODE:2a9b 20 e7 06        JB         ACC.7,LAB_CODE_2aa4                                        = ??
       CODE:2a9e 20 e6 06        JB         ACC.6,LAB_CODE_2aa7                                        = ??
       CODE:2aa1 20 e5 05        JB         ACC.5,LAB_CODE_2aa9                                        = ??
                             LAB_CODE_2aa4                                   XREF[1]:     CODE:2a9b(j)  
       CODE:2aa4 d2 64           SETB       2c.4                                                       = ??
       CODE:2aa6 22              RET
                             LAB_CODE_2aa7                                   XREF[1]:     CODE:2a9e(j)  
       CODE:2aa7 d2 67           SETB       2c.7                                                       = ??
                             LAB_CODE_2aa9                                   XREF[1]:     CODE:2aa1(j)  
       CODE:2aa9 d2 66           SETB       2c.6                                                       = ??
       CODE:2aab d2 64           SETB       2c.4                                                       = ??
       CODE:2aad 22              RET
                             **************************************************************
                             *                          FUNCTION                          *
                             **************************************************************
                             undefined FUN_CODE_2aae()
             undefined         ACC:1          <RETURN>
                             FUN_CODE_2aae                                   XREF[8]:     CODE:18f9(c), CODE:1900(c), 
                                                                                          CODE:1927(c), CODE:193a(c), 
                                                                                          CODE:197c(c), CODE:1991(c), 
                                                                                          CODE:19a9(c), CODE:19be(c)  
       CODE:2aae c3              CLR        CY
       CODE:2aaf 20 64 08        JB         2c.4,LAB_CODE_2aba                                         = ??
       CODE:2ab2 20 65 06        JB         2c.5,LAB_CODE_2abb                                         = ??
       CODE:2ab5 d3              SETB       CY
       CODE:2ab6 c2 d5           CLR        F0                                                         = ??
       CODE:2ab8 e5 6e           MOV        A,DAT_INTMEM_6e                                            = ??
                             LAB_CODE_2aba                                   XREF[1]:     CODE:2aaf(j)  
       CODE:2aba 22              RET
                             LAB_CODE_2abb                                   XREF[1]:     CODE:2ab2(j)  
       CODE:2abb d5 7d 04        DJNZ       DAT_INTMEM_7d,LAB_CODE_2ac2                                = ??
       CODE:2abe d3              SETB       CY
       CODE:2abf d2 d5           SETB       F0                                                         = ??
       CODE:2ac1 22              RET
                             LAB_CODE_2ac2                                   XREF[1]:     CODE:2abb(j)  
       CODE:2ac2 78 e2           MOV        R0,#0xe2
       CODE:2ac4 86 6d           MOV        DAT_INTMEM_6d,@R0=>DAT_INTMEM_e2                           = ??
       CODE:2ac6 75 6f 14        MOV        DAT_INTMEM_6f,#0x14                                        = ??
       CODE:2ac9 80 c8           SJMP       LAB_CODE_2a93
                             **************************************************************
                             *                          FUNCTION                          *
                             **************************************************************
                             undefined FUN_CODE_2acb()
             undefined         ACC:1          <RETURN>
                             FUN_CODE_2acb                                   XREF[4]:     CODE:2803(c), CODE:2827(c), 
                                                                                          CODE:2850(c), CODE:2873(c)  
       CODE:2acb c3              CLR        CY
       CODE:2acc e6              MOV        A,@R0
       CODE:2acd 97              SUBB       A,@R1
       CODE:2ace 30 d5 01        JNB        F0,LAB_CODE_2ad2                                           = ??
       CODE:2ad1 f4              CPL        A
                             LAB_CODE_2ad2                                   XREF[1]:     CODE:2ace(j)  
       CODE:2ad2 f6              MOV        @R0,A
       CODE:2ad3 18              DEC        R0
       CODE:2ad4 19              DEC        R1
       CODE:2ad5 e6              MOV        A,@R0
       CODE:2ad6 97              SUBB       A,@R1
       CODE:2ad7 30 d5 02        JNB        F0,LAB_CODE_2adc                                           = ??
       CODE:2ada f4              CPL        A
       CODE:2adb b3              CPL        CY
                             LAB_CODE_2adc                                   XREF[1]:     CODE:2ad7(j)  
       CODE:2adc f6              MOV        @R0,A
       CODE:2add 50 05           JNC        LAB_CODE_2ae4
       CODE:2adf 76 00           MOV        @R0,#0x0
       CODE:2ae1 08              INC        R0
       CODE:2ae2 76 00           MOV        @R0,#0x0
                             LAB_CODE_2ae4                                   XREF[1]:     CODE:2add(j)  
       CODE:2ae4 22              RET
                             **************************************************************
                             *                          FUNCTION                          *
                             **************************************************************
                             undefined FUN_CODE_2ae5()
             undefined         ACC:1          <RETURN>
                             FUN_CODE_2ae5                                   XREF[4]:     CODE:280a(c), CODE:282e(c), 
                                                                                          CODE:2857(c), CODE:287a(c)  
       CODE:2ae5 e6              MOV        A,@R0
       CODE:2ae6 87 f0           MOV        B,@R1
       CODE:2ae8 a4              MUL        AB
       CODE:2ae9 aa f0           MOV        R2,B
       CODE:2aeb 18              DEC        R0
       CODE:2aec e6              MOV        A,@R0
       CODE:2aed 87 f0           MOV        B,@R1
       CODE:2aef a4              MUL        AB
       CODE:2af0 2a              ADD        A,R2
       CODE:2af1 fa              MOV        R2,A
       CODE:2af2 e5 f0           MOV        A,B
       CODE:2af4 34 00           ADDC       A,#0x0
       CODE:2af6 fb              MOV        R3,A
       CODE:2af7 08              INC        R0
       CODE:2af8 19              DEC        R1
       CODE:2af9 e6              MOV        A,@R0
       CODE:2afa 87 f0           MOV        B,@R1
       CODE:2afc a4              MUL        AB
       CODE:2afd 2a              ADD        A,R2
       CODE:2afe fa              MOV        R2,A
       CODE:2aff e5 f0           MOV        A,B
       CODE:2b01 3b              ADDC       A,R3
       CODE:2b02 fb              MOV        R3,A
       CODE:2b03 74 00           MOV        A,#0x0
       CODE:2b05 34 00           ADDC       A,#0x0
       CODE:2b07 fc              MOV        R4,A
       CODE:2b08 18              DEC        R0
       CODE:2b09 e6              MOV        A,@R0
       CODE:2b0a 87 f0           MOV        B,@R1
       CODE:2b0c a4              MUL        AB
       CODE:2b0d 2b              ADD        A,R3
       CODE:2b0e fb              MOV        R3,A
       CODE:2b0f e5 f0           MOV        A,B
       CODE:2b11 3c              ADDC       A,R4
       CODE:2b12 fc              MOV        R4,A
       CODE:2b13 7d 03           MOV        R5,#0x3
                             LAB_CODE_2b15                                   XREF[1]:     CODE:2b20(j)  
       CODE:2b15 ea              MOV        A,R2
       CODE:2b16 33              RLC        A
       CODE:2b17 fa              MOV        R2,A
       CODE:2b18 eb              MOV        A,R3
       CODE:2b19 33              RLC        A
       CODE:2b1a fb              MOV        R3,A
       CODE:2b1b ec              MOV        A,R4
       CODE:2b1c 33              RLC        A
       CODE:2b1d fc              MOV        R4,A
       CODE:2b1e 40 0e           JC         LAB_CODE_2b2e
       CODE:2b20 dd f3           DJNZ       R5,LAB_CODE_2b15
       CODE:2b22 ec              MOV        A,R4
       CODE:2b23 70 04           JNZ        LAB_CODE_2b29
       CODE:2b25 74 01           MOV        A,#0x1
       CODE:2b27 7b 00           MOV        R3,#0x0
                             LAB_CODE_2b29                                   XREF[2]:     CODE:2b23(j), CODE:2b32(j)  
       CODE:2b29 f6              MOV        @R0,A
       CODE:2b2a 08              INC        R0
       CODE:2b2b eb              MOV        A,R3
       CODE:2b2c f6              MOV        @R0,A
       CODE:2b2d 22              RET
                             LAB_CODE_2b2e                                   XREF[1]:     CODE:2b1e(j)  
       CODE:2b2e 74 ff           MOV        A,#0xff
       CODE:2b30 7b ff           MOV        R3,#0xff
       CODE:2b32 80 f5           SJMP       LAB_CODE_2b29
                             **************************************************************
                             *                          FUNCTION                          *
                             **************************************************************
                             undefined FUN_CODE_2b34()
             undefined         ACC:1          <RETURN>
                             FUN_CODE_2b34                                   XREF[1]:     FUN_CODE_1bd9:1be1(c)  
       CODE:2b34 30 62 1d        JNB        2c.2,LAB_CODE_2b54                                         = ??
       CODE:2b37 e5 71           MOV        A,DAT_INTMEM_71                                            = ??
       CODE:2b39 70 1b           JNZ        LAB_CODE_2b56
       CODE:2b3b e5 72           MOV        A,DAT_INTMEM_72                                            = ??
       CODE:2b3d a2 e3           MOV        CY,ACC.3                                                   = ??
       CODE:2b3f 92 d5           MOV        F0,CY                                                      = ??
       CODE:2b41 12 2d 0b        LCALL      FUN_CODE_2d0b                                              undefined FUN_CODE_2d0b()
       CODE:2b44 50 0c           JNC        LAB_CODE_2b52
       CODE:2b46 e4              CLR        A
       CODE:2b47 d2 e6           SETB       ACC.6                                                      = ??
       CODE:2b49 a2 d5           MOV        CY,F0                                                      = ??
       CODE:2b4b 92 e7           MOV        ACC.7,CY                                                   = ??
       CODE:2b4d aa 73           MOV        R2,DAT_INTMEM_73                                           = ??
                             LAB_CODE_2b4f                                   XREF[3]:     CODE:2b67(j), CODE:2b9b(j), 
                                                                                          CODE:2baf(j)  
       CODE:2b4f c2 62           CLR        2c.2                                                       = ??
       CODE:2b51 22              RET
                             LAB_CODE_2b52                                   XREF[7]:     CODE:2b44(j), CODE:2b5c(j), 
                                                                                          CODE:2b61(j), CODE:2b6f(j), 
                                                                                          CODE:2b74(j), CODE:2ba0(j), 
                                                                                          CODE:2ba5(j)  
       CODE:2b52 c2 62           CLR        2c.2                                                       = ??
                             LAB_CODE_2b54                                   XREF[1]:     CODE:2b34(j)  
       CODE:2b54 e4              CLR        A
       CODE:2b55 22              RET
                             LAB_CODE_2b56                                   XREF[1]:     CODE:2b39(j)  
       CODE:2b56 b4 07 10        CJNE       A,#0x7,LAB_CODE_2b69
       CODE:2b59 12 2b b1        LCALL      FUN_CODE_2bb1                                              undefined FUN_CODE_2bb1()
       CODE:2b5c 70 f4           JNZ        LAB_CODE_2b52
       CODE:2b5e 12 2d 07        LCALL      FUN_CODE_2d07                                              undefined FUN_CODE_2d07()
       CODE:2b61 50 ef           JNC        LAB_CODE_2b52
       CODE:2b63 e5 71           MOV        A,DAT_INTMEM_71                                            = ??
       CODE:2b65 aa 75           MOV        R2,DAT_INTMEM_75                                           = ??
       CODE:2b67 80 e6           SJMP       LAB_CODE_2b4f
                             LAB_CODE_2b69                                   XREF[1]:     CODE:2b56(j)  
       CODE:2b69 b4 01 31        CJNE       A,#0x1,LAB_CODE_2b9d
       CODE:2b6c 12 2b f4        LCALL      FUN_CODE_2bf4                                              undefined FUN_CODE_2bf4()
       CODE:2b6f 70 e1           JNZ        LAB_CODE_2b52
       CODE:2b71 12 2d 07        LCALL      FUN_CODE_2d07                                              undefined FUN_CODE_2d07()
       CODE:2b74 50 dc           JNC        LAB_CODE_2b52
       CODE:2b76 e5 75           MOV        A,DAT_INTMEM_75                                            = ??
       CODE:2b78 33              RLC        A
       CODE:2b79 f5 75           MOV        DAT_INTMEM_75,A                                            = ??
       CODE:2b7b e5 74           MOV        A,DAT_INTMEM_74                                            = ??
       CODE:2b7d 33              RLC        A
       CODE:2b7e f5 74           MOV        DAT_INTMEM_74,A                                            = ??
       CODE:2b80 e5 73           MOV        A,DAT_INTMEM_73                                            = ??
       CODE:2b82 33              RLC        A
       CODE:2b83 f5 73           MOV        DAT_INTMEM_73,A                                            = ??
       CODE:2b85 e5 75           MOV        A,DAT_INTMEM_75                                            = ??
       CODE:2b87 23              RL         A
       CODE:2b88 23              RL         A
       CODE:2b89 54 03           ANL        A,#0x3
       CODE:2b8b fc              MOV        R4,A
       CODE:2b8c e5 74           MOV        A,DAT_INTMEM_74                                            = ??
       CODE:2b8e a2 e7           MOV        CY,ACC.7                                                   = ??
       CODE:2b90 c2 e7           CLR        ACC.7                                                      = ??
       CODE:2b92 fb              MOV        R3,A
       CODE:2b93 e5 73           MOV        A,DAT_INTMEM_73                                            = ??
       CODE:2b95 33              RLC        A
       CODE:2b96 c2 e7           CLR        ACC.7                                                      = ??
       CODE:2b98 fa              MOV        R2,A
       CODE:2b99 e5 71           MOV        A,DAT_INTMEM_71                                            = ??
       CODE:2b9b 80 b2           SJMP       LAB_CODE_2b4f
                             LAB_CODE_2b9d                                   XREF[1]:     CODE:2b69(j)  
       CODE:2b9d 12 2c 6e        LCALL      FUN_CODE_2c6e                                              undefined FUN_CODE_2c6e()
       CODE:2ba0 70 b0           JNZ        LAB_CODE_2b52
       CODE:2ba2 12 2d 07        LCALL      FUN_CODE_2d07                                              undefined FUN_CODE_2d07()
       CODE:2ba5 50 ab           JNC        LAB_CODE_2b52
       CODE:2ba7 e5 71           MOV        A,DAT_INTMEM_71                                            = ??
       CODE:2ba9 aa 73           MOV        R2,DAT_INTMEM_73                                           = ??
       CODE:2bab ab 74           MOV        R3,DAT_INTMEM_74                                           = ??
       CODE:2bad ac 75           MOV        R4,DAT_INTMEM_75                                           = ??
       CODE:2baf 80 9e           SJMP       LAB_CODE_2b4f
                             **************************************************************
                             *                          FUNCTION                          *
                             **************************************************************
                             undefined FUN_CODE_2bb1()
             undefined         ACC:1          <RETURN>
                             FUN_CODE_2bb1                                   XREF[1]:     FUN_CODE_2b34:2b59(c)  
       CODE:2bb1 e4              CLR        A
       CODE:2bb2 85 72 f0        MOV        B,DAT_INTMEM_72                                            = ??
       CODE:2bb5 30 f7 02        JNB        B.7,LAB_CODE_2bba                                          = ??
       CODE:2bb8 64 0f           XRL        A,#0xf
                             LAB_CODE_2bba                                   XREF[1]:     CODE:2bb5(j)  
       CODE:2bba 30 f6 02        JNB        B.6,LAB_CODE_2bbf                                          = ??
       CODE:2bbd 64 0e           XRL        A,#0xe
                             LAB_CODE_2bbf                                   XREF[1]:     CODE:2bba(j)  
       CODE:2bbf 30 f5 02        JNB        B.5,LAB_CODE_2bc4                                          = ??
       CODE:2bc2 64 0d           XRL        A,#0xd
                             LAB_CODE_2bc4                                   XREF[1]:     CODE:2bbf(j)  
       CODE:2bc4 85 75 f0        MOV        B,DAT_INTMEM_75                                            = ??
       CODE:2bc7 30 f7 02        JNB        B.7,LAB_CODE_2bcc                                          = ??
       CODE:2bca 64 0c           XRL        A,#0xc
                             LAB_CODE_2bcc                                   XREF[1]:     CODE:2bc7(j)  
       CODE:2bcc 30 f6 02        JNB        B.6,LAB_CODE_2bd1                                          = ??
       CODE:2bcf 64 0b           XRL        A,#0xb
                             LAB_CODE_2bd1                                   XREF[1]:     CODE:2bcc(j)  
       CODE:2bd1 30 f5 02        JNB        B.5,LAB_CODE_2bd6                                          = ??
       CODE:2bd4 64 0a           XRL        A,#0xa
                             LAB_CODE_2bd6                                   XREF[1]:     CODE:2bd1(j)  
       CODE:2bd6 30 f4 02        JNB        B.4,LAB_CODE_2bdb                                          = ??
       CODE:2bd9 64 09           XRL        A,#0x9
                             LAB_CODE_2bdb                                   XREF[1]:     CODE:2bd6(j)  
       CODE:2bdb 30 f3 02        JNB        B.3,LAB_CODE_2be0                                          = ??
       CODE:2bde 64 07           XRL        A,#0x7
                             LAB_CODE_2be0                                   XREF[1]:     CODE:2bdb(j)  
       CODE:2be0 30 f2 02        JNB        B.2,LAB_CODE_2be5                                          = ??
       CODE:2be3 64 06           XRL        A,#0x6
                             LAB_CODE_2be5                                   XREF[1]:     CODE:2be0(j)  
       CODE:2be5 30 f1 02        JNB        B.1,LAB_CODE_2bea                                          = ??
       CODE:2be8 64 05           XRL        A,#0x5
                             LAB_CODE_2bea                                   XREF[1]:     CODE:2be5(j)  
       CODE:2bea 30 f0 02        JNB        B.0,LAB_CODE_2bef                                          = ??
       CODE:2bed 64 03           XRL        A,#0x3
                             LAB_CODE_2bef                                   XREF[1]:     CODE:2bea(j)  
       CODE:2bef 65 72           XRL        A,DAT_INTMEM_72                                            = ??
       CODE:2bf1 54 1f           ANL        A,#0x1f
       CODE:2bf3 22              RET
                             **************************************************************
                             *                          FUNCTION                          *
                             **************************************************************
                             undefined FUN_CODE_2bf4()
             undefined         ACC:1          <RETURN>
                             FUN_CODE_2bf4                                   XREF[1]:     FUN_CODE_2b34:2b6c(c)  
       CODE:2bf4 e5 75           MOV        A,DAT_INTMEM_75                                            = ??
       CODE:2bf6 f4              CPL        A
       CODE:2bf7 65 72           XRL        A,DAT_INTMEM_72                                            = ??
       CODE:2bf9 54 1f           ANL        A,#0x1f
       CODE:2bfb 70 70           JNZ        LAB_CODE_2c6d
       CODE:2bfd e4              CLR        A
       CODE:2bfe 85 72 f0        MOV        B,DAT_INTMEM_72                                            = ??
       CODE:2c01 30 f7 02        JNB        B.7,LAB_CODE_2c06                                          = ??
       CODE:2c04 64 18           XRL        A,#0x18
                             LAB_CODE_2c06                                   XREF[1]:     CODE:2c01(j)  
       CODE:2c06 30 f6 02        JNB        B.6,LAB_CODE_2c0b                                          = ??
       CODE:2c09 64 17           XRL        A,#0x17
                             LAB_CODE_2c0b                                   XREF[1]:     CODE:2c06(j)  
       CODE:2c0b 30 f5 02        JNB        B.5,LAB_CODE_2c10                                          = ??
       CODE:2c0e 64 16           XRL        A,#0x16
                             LAB_CODE_2c10                                   XREF[1]:     CODE:2c0b(j)  
       CODE:2c10 85 73 f0        MOV        B,DAT_INTMEM_73                                            = ??
       CODE:2c13 30 f4 02        JNB        B.4,LAB_CODE_2c18                                          = ??
       CODE:2c16 64 15           XRL        A,#0x15
                             LAB_CODE_2c18                                   XREF[1]:     CODE:2c13(j)  
       CODE:2c18 30 f3 02        JNB        B.3,LAB_CODE_2c1d                                          = ??
       CODE:2c1b 64 14           XRL        A,#0x14
                             LAB_CODE_2c1d                                   XREF[1]:     CODE:2c18(j)  
       CODE:2c1d 30 f2 02        JNB        B.2,LAB_CODE_2c22                                          = ??
       CODE:2c20 64 13           XRL        A,#0x13
                             LAB_CODE_2c22                                   XREF[1]:     CODE:2c1d(j)  
       CODE:2c22 30 f1 02        JNB        B.1,LAB_CODE_2c27                                          = ??
       CODE:2c25 64 12           XRL        A,#0x12
                             LAB_CODE_2c27                                   XREF[1]:     CODE:2c22(j)  
       CODE:2c27 30 f0 02        JNB        B.0,LAB_CODE_2c2c                                          = ??
       CODE:2c2a 64 11           XRL        A,#0x11
                             LAB_CODE_2c2c                                   XREF[1]:     CODE:2c27(j)  
       CODE:2c2c 85 74 f0        MOV        B,DAT_INTMEM_74                                            = ??
       CODE:2c2f 30 f7 02        JNB        B.7,LAB_CODE_2c34                                          = ??
       CODE:2c32 64 0f           XRL        A,#0xf
                             LAB_CODE_2c34                                   XREF[1]:     CODE:2c2f(j)  
       CODE:2c34 30 f6 02        JNB        B.6,LAB_CODE_2c39                                          = ??
       CODE:2c37 64 0e           XRL        A,#0xe
                             LAB_CODE_2c39                                   XREF[1]:     CODE:2c34(j)  
       CODE:2c39 30 f5 02        JNB        B.5,LAB_CODE_2c3e                                          = ??
       CODE:2c3c 64 0d           XRL        A,#0xd
                             LAB_CODE_2c3e                                   XREF[1]:     CODE:2c39(j)  
       CODE:2c3e 30 f4 02        JNB        B.4,LAB_CODE_2c43                                          = ??
       CODE:2c41 64 0c           XRL        A,#0xc
                             LAB_CODE_2c43                                   XREF[1]:     CODE:2c3e(j)  
       CODE:2c43 30 f3 02        JNB        B.3,LAB_CODE_2c48                                          = ??
       CODE:2c46 64 0b           XRL        A,#0xb
                             LAB_CODE_2c48                                   XREF[1]:     CODE:2c43(j)  
       CODE:2c48 30 f2 02        JNB        B.2,LAB_CODE_2c4d                                          = ??
       CODE:2c4b 64 0a           XRL        A,#0xa
                             LAB_CODE_2c4d                                   XREF[1]:     CODE:2c48(j)  
       CODE:2c4d 30 f1 02        JNB        B.1,LAB_CODE_2c52                                          = ??
       CODE:2c50 64 09           XRL        A,#0x9
                             LAB_CODE_2c52                                   XREF[1]:     CODE:2c4d(j)  
       CODE:2c52 30 f0 02        JNB        B.0,LAB_CODE_2c57                                          = ??
       CODE:2c55 64 07           XRL        A,#0x7
                             LAB_CODE_2c57                                   XREF[1]:     CODE:2c52(j)  
       CODE:2c57 85 75 f0        MOV        B,DAT_INTMEM_75                                            = ??
       CODE:2c5a 30 f7 02        JNB        B.7,LAB_CODE_2c5f                                          = ??
       CODE:2c5d 64 06           XRL        A,#0x6
                             LAB_CODE_2c5f                                   XREF[1]:     CODE:2c5a(j)  
       CODE:2c5f 30 f6 02        JNB        B.6,LAB_CODE_2c64                                          = ??
       CODE:2c62 64 05           XRL        A,#0x5
                             LAB_CODE_2c64                                   XREF[1]:     CODE:2c5f(j)  
       CODE:2c64 30 f5 02        JNB        B.5,LAB_CODE_2c69                                          = ??
       CODE:2c67 64 03           XRL        A,#0x3
                             LAB_CODE_2c69                                   XREF[1]:     CODE:2c64(j)  
       CODE:2c69 65 72           XRL        A,DAT_INTMEM_72                                            = ??
       CODE:2c6b 54 1f           ANL        A,#0x1f
                             LAB_CODE_2c6d                                   XREF[1]:     CODE:2bfb(j)  
       CODE:2c6d 22              RET
                             **************************************************************
                             *                          FUNCTION                          *
                             **************************************************************
                             undefined FUN_CODE_2c6e()
             undefined         ACC:1          <RETURN>
                             FUN_CODE_2c6e                                   XREF[1]:     FUN_CODE_2b34:2b9d(c)  
       CODE:2c6e e4              CLR        A
       CODE:2c6f 85 72 f0        MOV        B,DAT_INTMEM_72                                            = ??
       CODE:2c72 30 f7 02        JNB        B.7,LAB_CODE_2c77                                          = ??
       CODE:2c75 64 1f           XRL        A,#0x1f
                             LAB_CODE_2c77                                   XREF[1]:     CODE:2c72(j)  
       CODE:2c77 30 f6 02        JNB        B.6,LAB_CODE_2c7c                                          = ??
       CODE:2c7a 64 1f           XRL        A,#0x1f
                             LAB_CODE_2c7c                                   XREF[1]:     CODE:2c77(j)  
       CODE:2c7c 30 f5 02        JNB        B.5,LAB_CODE_2c81                                          = ??
       CODE:2c7f 64 1e           XRL        A,#0x1e
                             LAB_CODE_2c81                                   XREF[1]:     CODE:2c7c(j)  
       CODE:2c81 85 73 f0        MOV        B,DAT_INTMEM_73                                            = ??
       CODE:2c84 30 f7 02        JNB        B.7,LAB_CODE_2c89                                          = ??
       CODE:2c87 64 1d           XRL        A,#0x1d
                             LAB_CODE_2c89                                   XREF[1]:     CODE:2c84(j)  
       CODE:2c89 30 f6 02        JNB        B.6,LAB_CODE_2c8e                                          = ??
       CODE:2c8c 64 1c           XRL        A,#0x1c
                             LAB_CODE_2c8e                                   XREF[1]:     CODE:2c89(j)  
       CODE:2c8e 30 f5 02        JNB        B.5,LAB_CODE_2c93                                          = ??
       CODE:2c91 64 1b           XRL        A,#0x1b
                             LAB_CODE_2c93                                   XREF[1]:     CODE:2c8e(j)  
       CODE:2c93 30 f4 02        JNB        B.4,LAB_CODE_2c98                                          = ??
       CODE:2c96 64 1a           XRL        A,#0x1a
                             LAB_CODE_2c98                                   XREF[1]:     CODE:2c93(j)  
       CODE:2c98 30 f3 02        JNB        B.3,LAB_CODE_2c9d                                          = ??
       CODE:2c9b 64 19           XRL        A,#0x19
                             LAB_CODE_2c9d                                   XREF[1]:     CODE:2c98(j)  
       CODE:2c9d 30 f2 02        JNB        B.2,LAB_CODE_2ca2                                          = ??
       CODE:2ca0 64 18           XRL        A,#0x18
                             LAB_CODE_2ca2                                   XREF[1]:     CODE:2c9d(j)  
       CODE:2ca2 30 f1 02        JNB        B.1,LAB_CODE_2ca7                                          = ??
       CODE:2ca5 64 17           XRL        A,#0x17
                             LAB_CODE_2ca7                                   XREF[1]:     CODE:2ca2(j)  
       CODE:2ca7 30 f0 02        JNB        B.0,LAB_CODE_2cac                                          = ??
       CODE:2caa 64 16           XRL        A,#0x16
                             LAB_CODE_2cac                                   XREF[1]:     CODE:2ca7(j)  
       CODE:2cac 85 74 f0        MOV        B,DAT_INTMEM_74                                            = ??
       CODE:2caf 30 f7 02        JNB        B.7,LAB_CODE_2cb4                                          = ??
       CODE:2cb2 64 15           XRL        A,#0x15
                             LAB_CODE_2cb4                                   XREF[1]:     CODE:2caf(j)  
       CODE:2cb4 30 f6 02        JNB        B.6,LAB_CODE_2cb9                                          = ??
       CODE:2cb7 64 14           XRL        A,#0x14
                             LAB_CODE_2cb9                                   XREF[1]:     CODE:2cb4(j)  
       CODE:2cb9 30 f5 02        JNB        B.5,LAB_CODE_2cbe                                          = ??
       CODE:2cbc 64 13           XRL        A,#0x13
                             LAB_CODE_2cbe                                   XREF[1]:     CODE:2cb9(j)  
       CODE:2cbe 30 f4 02        JNB        B.4,LAB_CODE_2cc3                                          = ??
       CODE:2cc1 64 12           XRL        A,#0x12
                             LAB_CODE_2cc3                                   XREF[1]:     CODE:2cbe(j)  
       CODE:2cc3 30 f3 02        JNB        B.3,LAB_CODE_2cc8                                          = ??
       CODE:2cc6 64 11           XRL        A,#0x11
                             LAB_CODE_2cc8                                   XREF[1]:     CODE:2cc3(j)  
       CODE:2cc8 30 f2 02        JNB        B.2,LAB_CODE_2ccd                                          = ??
       CODE:2ccb 64 0f           XRL        A,#0xf
                             LAB_CODE_2ccd                                   XREF[1]:     CODE:2cc8(j)  
       CODE:2ccd 30 f1 02        JNB        B.1,LAB_CODE_2cd2                                          = ??
       CODE:2cd0 64 0e           XRL        A,#0xe
                             LAB_CODE_2cd2                                   XREF[1]:     CODE:2ccd(j)  
       CODE:2cd2 30 f0 02        JNB        B.0,LAB_CODE_2cd7                                          = ??
       CODE:2cd5 64 0d           XRL        A,#0xd
                             LAB_CODE_2cd7                                   XREF[1]:     CODE:2cd2(j)  
       CODE:2cd7 85 75 f0        MOV        B,DAT_INTMEM_75                                            = ??
       CODE:2cda 30 f7 02        JNB        B.7,LAB_CODE_2cdf                                          = ??
       CODE:2cdd 64 0c           XRL        A,#0xc
                             LAB_CODE_2cdf                                   XREF[1]:     CODE:2cda(j)  
       CODE:2cdf 30 f6 02        JNB        B.6,LAB_CODE_2ce4                                          = ??
       CODE:2ce2 64 0b           XRL        A,#0xb
                             LAB_CODE_2ce4                                   XREF[1]:     CODE:2cdf(j)  
       CODE:2ce4 30 f5 02        JNB        B.5,LAB_CODE_2ce9                                          = ??
       CODE:2ce7 64 0a           XRL        A,#0xa
                             LAB_CODE_2ce9                                   XREF[1]:     CODE:2ce4(j)  
       CODE:2ce9 30 f4 02        JNB        B.4,LAB_CODE_2cee                                          = ??
       CODE:2cec 64 09           XRL        A,#0x9
                             LAB_CODE_2cee                                   XREF[1]:     CODE:2ce9(j)  
       CODE:2cee 30 f3 02        JNB        B.3,LAB_CODE_2cf3                                          = ??
       CODE:2cf1 64 07           XRL        A,#0x7
                             LAB_CODE_2cf3                                   XREF[1]:     CODE:2cee(j)  
       CODE:2cf3 30 f2 02        JNB        B.2,LAB_CODE_2cf8                                          = ??
       CODE:2cf6 64 06           XRL        A,#0x6
                             LAB_CODE_2cf8                                   XREF[1]:     CODE:2cf3(j)  
       CODE:2cf8 30 f1 02        JNB        B.1,LAB_CODE_2cfd                                          = ??
       CODE:2cfb 64 05           XRL        A,#0x5
                             LAB_CODE_2cfd                                   XREF[1]:     CODE:2cf8(j)  
       CODE:2cfd 30 f0 02        JNB        B.0,LAB_CODE_2d02                                          = ??
       CODE:2d00 64 03           XRL        A,#0x3
                             LAB_CODE_2d02                                   XREF[1]:     CODE:2cfd(j)  
       CODE:2d02 65 72           XRL        A,DAT_INTMEM_72                                            = ??
       CODE:2d04 54 1f           ANL        A,#0x1f
       CODE:2d06 22              RET
                             **************************************************************
                             *                          FUNCTION                          *
                             **************************************************************
                             undefined FUN_CODE_2d07()
             undefined         ACC:1          <RETURN>
                             FUN_CODE_2d07                                   XREF[3]:     FUN_CODE_2b34:2b5e(c), 
                                                                                          FUN_CODE_2b34:2b71(c), 
                                                                                          FUN_CODE_2b34:2ba2(c)  
       CODE:2d07 e5 72           MOV        A,DAT_INTMEM_72                                            = ??
       CODE:2d09 c4              SWAP       A
       CODE:2d0a 03              RR         A
                             **************************************************************
                             *                          FUNCTION                          *
                             **************************************************************
                             undefined FUN_CODE_2d0b()
             undefined         ACC:1          <RETURN>
                             FUN_CODE_2d0b                                   XREF[1]:     FUN_CODE_2b34:2b41(c)  
       CODE:2d0b 78 80           MOV        R0,#0x80
       CODE:2d0d 86 f0           MOV        B,@R0=>DAT_INTMEM_80                                       = ??
       CODE:2d0f 20 f3 03        JB         B.3,LAB_CODE_2d15                                          = ??
       CODE:2d12 a2 f0           MOV        CY,B.0                                                     = ??
       CODE:2d14 22              RET
                             LAB_CODE_2d15                                   XREF[1]:     CODE:2d0f(j)  
       CODE:2d15 54 07           ANL        A,#0x7
       CODE:2d17 b4 07 02        CJNE       A,#0x7,LAB_CODE_2d1c
                             LAB_CODE_2d1a                                   XREF[1]:     CODE:2d20(j)  
       CODE:2d1a d3              SETB       CY
       CODE:2d1b 22              RET
                             LAB_CODE_2d1c                                   XREF[1]:     CODE:2d17(j)  
       CODE:2d1c 65 f0           XRL        A,B
       CODE:2d1e 54 07           ANL        A,#0x7
       CODE:2d20 60 f8           JZ         LAB_CODE_2d1a
       CODE:2d22 c3              CLR        CY
       CODE:2d23 22              RET
                             **************************************************************
                             *                          FUNCTION                          *
                             **************************************************************
                             undefined FUN_CODE_2d24()
             undefined         ACC:1          <RETURN>
                             FUN_CODE_2d24                                   XREF[1]:     CODE:1e2d(c)  
       CODE:2d24 e5 1f           MOV        A,BANK3_R7                                                 = ??
       CODE:2d26 22              RET
                             **************************************************************
                             *                          FUNCTION                          *
                             **************************************************************
                             undefined FUN_CODE_2d27()
             undefined         ACC:1          <RETURN>
                             FUN_CODE_2d27                                   XREF[2]:     CODE:1e35(c), CODE:1f87(c)  
       CODE:2d27 12 26 2a        LCALL      FUN_CODE_262a                                              undefined FUN_CODE_262a()
       CODE:2d2a c3              CLR        CY
       CODE:2d2b 20 57 01        JB         2a.7,LAB_CODE_2d2f                                         = ??
       CODE:2d2e 22              RET
                             LAB_CODE_2d2f                                   XREF[1]:     CODE:2d2b(j)  
       CODE:2d2f ee              MOV        A,R6
       CODE:2d30 95 30           SUBB       A,DAT_INTMEM_30                                            = ??
       CODE:2d32 40 16           JC         LAB_CODE_2d4a
       CODE:2d34 70 14           JNZ        LAB_CODE_2d4a
       CODE:2d36 c3              CLR        CY
       CODE:2d37 ed              MOV        A,R5
       CODE:2d38 95 31           SUBB       A,DAT_INTMEM_31                                            = ??
       CODE:2d3a 40 0e           JC         LAB_CODE_2d4a
       CODE:2d3c 70 0c           JNZ        LAB_CODE_2d4a
       CODE:2d3e c3              CLR        CY
       CODE:2d3f ec              MOV        A,R4
       CODE:2d40 95 32           SUBB       A,DAT_INTMEM_32                                            = ??
       CODE:2d42 40 06           JC         LAB_CODE_2d4a
       CODE:2d44 70 04           JNZ        LAB_CODE_2d4a
       CODE:2d46 c3              CLR        CY
       CODE:2d47 eb              MOV        A,R3
       CODE:2d48 95 33           SUBB       A,DAT_INTMEM_33                                            = ??
                             LAB_CODE_2d4a                                   XREF[6]:     CODE:2d32(j), CODE:2d34(j), 
                                                                                          CODE:2d3a(j), CODE:2d3c(j), 
                                                                                          CODE:2d42(j), CODE:2d44(j)  
       CODE:2d4a b3              CPL        CY
       CODE:2d4b 22              RET
                             **************************************************************
                             *                          FUNCTION                          *
                             **************************************************************
                             undefined FUN_CODE_2d4c()
             undefined         ACC:1          <RETURN>
                             FUN_CODE_2d4c                                   XREF[5]:     FUN_CODE_07ea:07ee(c), 
                                                                                          FUN_CODE_07ea:07f5(c), 
                                                                                          FUN_CODE_080d:0811(c), 
                                                                                          FUN_CODE_080d:0818(c), 
                                                                                          CODE:2d4f(j)  
       CODE:2d4c 76 00           MOV        @R0,#0x0
       CODE:2d4e 08              INC        R0
       CODE:2d4f da fb           DJNZ       R2,FUN_CODE_2d4c
       CODE:2d51 22              RET
                             LAB_CODE_2d52                                   XREF[1]:     CODE:2d5a(j)  
       CODE:2d52 f9              MOV        R1,A
       CODE:2d53 a3              INC        DPTR
       CODE:2d54 e4              CLR        A
       CODE:2d55 93              MOVC       A,@A+DPTR
       CODE:2d56 f7              MOV        @R1,A
       CODE:2d57 a3              INC        DPTR
                             **************************************************************
                             *                          FUNCTION                          *
                             **************************************************************
                             undefined FUN_CODE_2d58()
             undefined         ACC:1          <RETURN>
                             FUN_CODE_2d58                                   XREF[1]:     FUN_CODE_247f:2482(c)  
       CODE:2d58 e4              CLR        A
       CODE:2d59 93              MOVC       A,@A+DPTR
       CODE:2d5a 70 f6           JNZ        LAB_CODE_2d52
       CODE:2d5c 22              RET
                             **************************************************************
                             *                          FUNCTION                          *
                             **************************************************************
                             undefined FUN_CODE_2d5d()
             undefined         ACC:1          <RETURN>
                             FUN_CODE_2d5d                                   XREF[3]:     FUN_CODE_07ea:07fc(c), 
                                                                                          FUN_CODE_080d:081f(c), 
                                                                                          CODE:2d70(j)  
       CODE:2d5d e8              MOV        A,R0
       CODE:2d5e 75 f0 08        MOV        B,#0x8
       CODE:2d61 84              DIV        AB
       CODE:2d62 24 20           ADD        A,#0x20
       CODE:2d64 f9              MOV        R1,A
       CODE:2d65 05 f0           INC        B
       CODE:2d67 74 7f           MOV        A,#0x7f
                             LAB_CODE_2d69                                   XREF[1]:     CODE:2d6a(j)  
       CODE:2d69 23              RL         A
       CODE:2d6a d5 f0 fc        DJNZ       B,LAB_CODE_2d69
       CODE:2d6d 57              ANL        A,@R1
       CODE:2d6e f7              MOV        @R1,A
       CODE:2d6f 08              INC        R0
       CODE:2d70 da eb           DJNZ       R2,FUN_CODE_2d5d
       CODE:2d72 22              RET
       CODE:2d73 00              ??         00h
       CODE:2d74 00              ??         00h
       CODE:2d75 00              ??         00h
       CODE:2d76 00              ??         00h
       CODE:2d77 00              ??         00h
       CODE:2d78 00              ??         00h
       CODE:2d79 00              ??         00h
       CODE:2d7a 00              ??         00h
       CODE:2d7b 00              ??         00h
       CODE:2d7c 00              ??         00h
       CODE:2d7d 00              ??         00h
       CODE:2d7e 00              ??         00h
       CODE:2d7f 00              ??         00h
       CODE:2d80 00              ??         00h
       CODE:2d81 00              ??         00h
       CODE:2d82 00              ??         00h
       CODE:2d83 00              ??         00h
       CODE:2d84 00              ??         00h
       CODE:2d85 00              ??         00h
       CODE:2d86 00              ??         00h
       CODE:2d87 00              ??         00h
       CODE:2d88 00              ??         00h
       CODE:2d89 00              ??         00h
       CODE:2d8a 00              ??         00h
       CODE:2d8b 00              ??         00h
       CODE:2d8c 00              ??         00h
       CODE:2d8d 00              ??         00h
       CODE:2d8e 00              ??         00h
       CODE:2d8f 00              ??         00h
       CODE:2d90 00              ??         00h
       CODE:2d91 00              ??         00h
       CODE:2d92 00              ??         00h
       CODE:2d93 00              ??         00h
       CODE:2d94 00              ??         00h
       CODE:2d95 00              ??         00h
       CODE:2d96 00              ??         00h
       CODE:2d97 00              ??         00h
       CODE:2d98 00              ??         00h
       CODE:2d99 00              ??         00h
       CODE:2d9a 00              ??         00h
       CODE:2d9b 00              ??         00h
       CODE:2d9c 00              ??         00h
       CODE:2d9d 00              ??         00h
       CODE:2d9e 00              ??         00h
       CODE:2d9f 00              ??         00h
       CODE:2da0 00              ??         00h
       CODE:2da1 00              ??         00h
       CODE:2da2 00              ??         00h
       CODE:2da3 00              ??         00h
       CODE:2da4 00              ??         00h
       CODE:2da5 00              ??         00h
       CODE:2da6 00              ??         00h
       CODE:2da7 00              ??         00h
       CODE:2da8 00              ??         00h
       CODE:2da9 00              ??         00h
       CODE:2daa 00              ??         00h
       CODE:2dab 00              ??         00h
       CODE:2dac 00              ??         00h
       CODE:2dad 00              ??         00h
       CODE:2dae 00              ??         00h
       CODE:2daf 00              ??         00h
       CODE:2db0 00              ??         00h
       CODE:2db1 00              ??         00h
       CODE:2db2 00              ??         00h
       CODE:2db3 00              ??         00h
       CODE:2db4 00              ??         00h
       CODE:2db5 00              ??         00h
       CODE:2db6 00              ??         00h
       CODE:2db7 00              ??         00h
       CODE:2db8 00              ??         00h
       CODE:2db9 00              ??         00h
       CODE:2dba 00              ??         00h
       CODE:2dbb 00              ??         00h
       CODE:2dbc 00              ??         00h
       CODE:2dbd 00              ??         00h
       CODE:2dbe 00              ??         00h
       CODE:2dbf 00              ??         00h
       CODE:2dc0 00              ??         00h
       CODE:2dc1 00              ??         00h
       CODE:2dc2 00              ??         00h
       CODE:2dc3 00              ??         00h
       CODE:2dc4 00              ??         00h
       CODE:2dc5 00              ??         00h
       CODE:2dc6 00              ??         00h
       CODE:2dc7 00              ??         00h
       CODE:2dc8 00              ??         00h
       CODE:2dc9 00              ??         00h
       CODE:2dca 00              ??         00h
       CODE:2dcb 00              ??         00h
       CODE:2dcc 00              ??         00h
       CODE:2dcd 00              ??         00h
       CODE:2dce 00              ??         00h
       CODE:2dcf 00              ??         00h
       CODE:2dd0 00              ??         00h
       CODE:2dd1 00              ??         00h
       CODE:2dd2 00              ??         00h
       CODE:2dd3 00              ??         00h
       CODE:2dd4 00              ??         00h
       CODE:2dd5 00              ??         00h
       CODE:2dd6 00              ??         00h
       CODE:2dd7 00              ??         00h
       CODE:2dd8 00              ??         00h
       CODE:2dd9 00              ??         00h
       CODE:2dda 00              ??         00h
       CODE:2ddb 00              ??         00h
       CODE:2ddc 00              ??         00h
       CODE:2ddd 00              ??         00h
       CODE:2dde 00              ??         00h
       CODE:2ddf 00              ??         00h
       CODE:2de0 00              ??         00h
       CODE:2de1 00              ??         00h
       CODE:2de2 00              ??         00h
       CODE:2de3 00              ??         00h
       CODE:2de4 00              ??         00h
       CODE:2de5 00              ??         00h
       CODE:2de6 00              ??         00h
       CODE:2de7 00              ??         00h
       CODE:2de8 00              ??         00h
       CODE:2de9 00              ??         00h
       CODE:2dea 00              ??         00h
       CODE:2deb 00              ??         00h
       CODE:2dec 00              ??         00h
       CODE:2ded 00              ??         00h
       CODE:2dee 00              ??         00h
       CODE:2def 00              ??         00h
       CODE:2df0 00              ??         00h
       CODE:2df1 00              ??         00h
       CODE:2df2 00              ??         00h
       CODE:2df3 00              ??         00h
       CODE:2df4 00              ??         00h
       CODE:2df5 00              ??         00h
       CODE:2df6 00              ??         00h
       CODE:2df7 00              ??         00h
       CODE:2df8 00              ??         00h
       CODE:2df9 00              ??         00h
       CODE:2dfa 00              ??         00h
       CODE:2dfb 00              ??         00h
       CODE:2dfc 00              ??         00h
       CODE:2dfd 00              ??         00h
       CODE:2dfe 00              ??         00h
       CODE:2dff 00              ??         00h
       CODE:2e00 00              ??         00h
       CODE:2e01 00              ??         00h
       CODE:2e02 00              ??         00h
       CODE:2e03 00              ??         00h
       CODE:2e04 00              ??         00h
       CODE:2e05 00              ??         00h
       CODE:2e06 00              ??         00h
       CODE:2e07 00              ??         00h
       CODE:2e08 00              ??         00h
       CODE:2e09 00              ??         00h
       CODE:2e0a 00              ??         00h
       CODE:2e0b 00              ??         00h
       CODE:2e0c 00              ??         00h
       CODE:2e0d 00              ??         00h
       CODE:2e0e 00              ??         00h
       CODE:2e0f 00              ??         00h
       CODE:2e10 00              ??         00h
       CODE:2e11 00              ??         00h
       CODE:2e12 00              ??         00h
       CODE:2e13 00              ??         00h
       CODE:2e14 00              ??         00h
       CODE:2e15 00              ??         00h
       CODE:2e16 00              ??         00h
       CODE:2e17 00              ??         00h
       CODE:2e18 00              ??         00h
       CODE:2e19 00              ??         00h
       CODE:2e1a 00              ??         00h
       CODE:2e1b 00              ??         00h
       CODE:2e1c 00              ??         00h
       CODE:2e1d 00              ??         00h
       CODE:2e1e 00              ??         00h
       CODE:2e1f 00              ??         00h
       CODE:2e20 00              ??         00h
       CODE:2e21 00              ??         00h
       CODE:2e22 00              ??         00h
       CODE:2e23 00              ??         00h
       CODE:2e24 00              ??         00h
       CODE:2e25 00              ??         00h
       CODE:2e26 00              ??         00h
       CODE:2e27 00              ??         00h
       CODE:2e28 00              ??         00h
       CODE:2e29 00              ??         00h
       CODE:2e2a 00              ??         00h
       CODE:2e2b 00              ??         00h
       CODE:2e2c 00              ??         00h
       CODE:2e2d 00              ??         00h
       CODE:2e2e 00              ??         00h
       CODE:2e2f 00              ??         00h
       CODE:2e30 00              ??         00h
       CODE:2e31 00              ??         00h
       CODE:2e32 00              ??         00h
       CODE:2e33 00              ??         00h
       CODE:2e34 00              ??         00h
       CODE:2e35 00              ??         00h
       CODE:2e36 00              ??         00h
       CODE:2e37 00              ??         00h
       CODE:2e38 00              ??         00h
       CODE:2e39 00              ??         00h
       CODE:2e3a 00              ??         00h
       CODE:2e3b 00              ??         00h
       CODE:2e3c 00              ??         00h
       CODE:2e3d 00              ??         00h
       CODE:2e3e 00              ??         00h
       CODE:2e3f 00              ??         00h
       CODE:2e40 00              ??         00h
       CODE:2e41 00              ??         00h
       CODE:2e42 00              ??         00h
       CODE:2e43 00              ??         00h
       CODE:2e44 00              ??         00h
       CODE:2e45 00              ??         00h
       CODE:2e46 00              ??         00h
       CODE:2e47 00              ??         00h
       CODE:2e48 00              ??         00h
       CODE:2e49 00              ??         00h
       CODE:2e4a 00              ??         00h
       CODE:2e4b 00              ??         00h
       CODE:2e4c 00              ??         00h
       CODE:2e4d 00              ??         00h
       CODE:2e4e 00              ??         00h
       CODE:2e4f 00              ??         00h
       CODE:2e50 00              ??         00h
       CODE:2e51 00              ??         00h
       CODE:2e52 00              ??         00h
       CODE:2e53 00              ??         00h
       CODE:2e54 00              ??         00h
       CODE:2e55 00              ??         00h
       CODE:2e56 00              ??         00h
       CODE:2e57 00              ??         00h
       CODE:2e58 00              ??         00h
       CODE:2e59 00              ??         00h
       CODE:2e5a 00              ??         00h
       CODE:2e5b 00              ??         00h
       CODE:2e5c 00              ??         00h
       CODE:2e5d 00              ??         00h
       CODE:2e5e 00              ??         00h
       CODE:2e5f 00              ??         00h
       CODE:2e60 00              ??         00h
       CODE:2e61 00              ??         00h
       CODE:2e62 00              ??         00h
       CODE:2e63 00              ??         00h
       CODE:2e64 00              ??         00h
       CODE:2e65 00              ??         00h
       CODE:2e66 00              ??         00h
       CODE:2e67 00              ??         00h
       CODE:2e68 00              ??         00h
       CODE:2e69 00              ??         00h
       CODE:2e6a 00              ??         00h
       CODE:2e6b 00              ??         00h
       CODE:2e6c 00              ??         00h
       CODE:2e6d 00              ??         00h
       CODE:2e6e 00              ??         00h
       CODE:2e6f 00              ??         00h
       CODE:2e70 00              ??         00h
       CODE:2e71 00              ??         00h
       CODE:2e72 00              ??         00h
       CODE:2e73 00              ??         00h
       CODE:2e74 00              ??         00h
       CODE:2e75 00              ??         00h
       CODE:2e76 00              ??         00h
       CODE:2e77 00              ??         00h
       CODE:2e78 00              ??         00h
       CODE:2e79 00              ??         00h
       CODE:2e7a 00              ??         00h
       CODE:2e7b 00              ??         00h
       CODE:2e7c 00              ??         00h
       CODE:2e7d 00              ??         00h
       CODE:2e7e 00              ??         00h
       CODE:2e7f 00              ??         00h
       CODE:2e80 00              ??         00h
       CODE:2e81 00              ??         00h
       CODE:2e82 00              ??         00h
       CODE:2e83 00              ??         00h
       CODE:2e84 00              ??         00h
       CODE:2e85 00              ??         00h
       CODE:2e86 00              ??         00h
       CODE:2e87 00              ??         00h
       CODE:2e88 00              ??         00h
       CODE:2e89 00              ??         00h
       CODE:2e8a 00              ??         00h
       CODE:2e8b 00              ??         00h
       CODE:2e8c 00              ??         00h
       CODE:2e8d 00              ??         00h
       CODE:2e8e 00              ??         00h
       CODE:2e8f 00              ??         00h
       CODE:2e90 00              ??         00h
       CODE:2e91 00              ??         00h
       CODE:2e92 00              ??         00h
       CODE:2e93 00              ??         00h
       CODE:2e94 00              ??         00h
       CODE:2e95 00              ??         00h
       CODE:2e96 00              ??         00h
       CODE:2e97 00              ??         00h
       CODE:2e98 00              ??         00h
       CODE:2e99 00              ??         00h
       CODE:2e9a 00              ??         00h
       CODE:2e9b 00              ??         00h
       CODE:2e9c 00              ??         00h
       CODE:2e9d 00              ??         00h
       CODE:2e9e 00              ??         00h
       CODE:2e9f 00              ??         00h
       CODE:2ea0 00              ??         00h
       CODE:2ea1 00              ??         00h
       CODE:2ea2 00              ??         00h
       CODE:2ea3 00              ??         00h
       CODE:2ea4 00              ??         00h
       CODE:2ea5 00              ??         00h
       CODE:2ea6 00              ??         00h
       CODE:2ea7 00              ??         00h
       CODE:2ea8 00              ??         00h
       CODE:2ea9 00              ??         00h
       CODE:2eaa 00              ??         00h
       CODE:2eab 00              ??         00h
       CODE:2eac 00              ??         00h
       CODE:2ead 00              ??         00h
       CODE:2eae 00              ??         00h
       CODE:2eaf 00              ??         00h
       CODE:2eb0 00              ??         00h
       CODE:2eb1 00              ??         00h
       CODE:2eb2 00              ??         00h
       CODE:2eb3 00              ??         00h
       CODE:2eb4 00              ??         00h
       CODE:2eb5 00              ??         00h
       CODE:2eb6 00              ??         00h
       CODE:2eb7 00              ??         00h
       CODE:2eb8 00              ??         00h
       CODE:2eb9 00              ??         00h
       CODE:2eba 00              ??         00h
       CODE:2ebb 00              ??         00h
       CODE:2ebc 00              ??         00h
       CODE:2ebd 00              ??         00h
       CODE:2ebe 00              ??         00h
       CODE:2ebf 00              ??         00h
       CODE:2ec0 00              ??         00h
       CODE:2ec1 00              ??         00h
       CODE:2ec2 00              ??         00h
       CODE:2ec3 00              ??         00h
       CODE:2ec4 00              ??         00h
       CODE:2ec5 00              ??         00h
       CODE:2ec6 00              ??         00h
       CODE:2ec7 00              ??         00h
       CODE:2ec8 00              ??         00h
       CODE:2ec9 00              ??         00h
       CODE:2eca 00              ??         00h
       CODE:2ecb 00              ??         00h
       CODE:2ecc 00              ??         00h
       CODE:2ecd 00              ??         00h
       CODE:2ece 00              ??         00h
       CODE:2ecf 00              ??         00h
       CODE:2ed0 00              ??         00h
       CODE:2ed1 00              ??         00h
       CODE:2ed2 00              ??         00h
       CODE:2ed3 00              ??         00h
       CODE:2ed4 00              ??         00h
       CODE:2ed5 00              ??         00h
       CODE:2ed6 00              ??         00h
       CODE:2ed7 00              ??         00h
       CODE:2ed8 00              ??         00h
       CODE:2ed9 00              ??         00h
       CODE:2eda 00              ??         00h
       CODE:2edb 00              ??         00h
       CODE:2edc 00              ??         00h
       CODE:2edd 00              ??         00h
       CODE:2ede 00              ??         00h
       CODE:2edf 00              ??         00h
       CODE:2ee0 00              ??         00h
       CODE:2ee1 00              ??         00h
       CODE:2ee2 00              ??         00h
       CODE:2ee3 00              ??         00h
       CODE:2ee4 00              ??         00h
       CODE:2ee5 00              ??         00h
       CODE:2ee6 00              ??         00h
       CODE:2ee7 00              ??         00h
       CODE:2ee8 00              ??         00h
       CODE:2ee9 00              ??         00h
       CODE:2eea 00              ??         00h
       CODE:2eeb 00              ??         00h
       CODE:2eec 00              ??         00h
       CODE:2eed 00              ??         00h
       CODE:2eee 00              ??         00h
       CODE:2eef 00              ??         00h
       CODE:2ef0 00              ??         00h
       CODE:2ef1 00              ??         00h
       CODE:2ef2 00              ??         00h
       CODE:2ef3 00              ??         00h
       CODE:2ef4 00              ??         00h
       CODE:2ef5 00              ??         00h
       CODE:2ef6 00              ??         00h
       CODE:2ef7 00              ??         00h
       CODE:2ef8 00              ??         00h
       CODE:2ef9 00              ??         00h
       CODE:2efa 00              ??         00h
       CODE:2efb 00              ??         00h
       CODE:2efc 00              ??         00h
       CODE:2efd 00              ??         00h
       CODE:2efe 00              ??         00h
       CODE:2eff 00              ??         00h
       CODE:2f00 00              ??         00h
       CODE:2f01 00              ??         00h
       CODE:2f02 00              ??         00h
       CODE:2f03 00              ??         00h
       CODE:2f04 00              ??         00h
       CODE:2f05 00              ??         00h
       CODE:2f06 00              ??         00h
       CODE:2f07 00              ??         00h
       CODE:2f08 00              ??         00h
       CODE:2f09 00              ??         00h
       CODE:2f0a 00              ??         00h
       CODE:2f0b 00              ??         00h
       CODE:2f0c 00              ??         00h
       CODE:2f0d 00              ??         00h
       CODE:2f0e 00              ??         00h
       CODE:2f0f 00              ??         00h
       CODE:2f10 00              ??         00h
       CODE:2f11 00              ??         00h
       CODE:2f12 00              ??         00h
       CODE:2f13 00              ??         00h
       CODE:2f14 00              ??         00h
       CODE:2f15 00              ??         00h
       CODE:2f16 00              ??         00h
       CODE:2f17 00              ??         00h
       CODE:2f18 00              ??         00h
       CODE:2f19 00              ??         00h
       CODE:2f1a 00              ??         00h
       CODE:2f1b 00              ??         00h
       CODE:2f1c 00              ??         00h
       CODE:2f1d 00              ??         00h
       CODE:2f1e 00              ??         00h
       CODE:2f1f 00              ??         00h
       CODE:2f20 00              ??         00h
       CODE:2f21 00              ??         00h
       CODE:2f22 00              ??         00h
       CODE:2f23 00              ??         00h
       CODE:2f24 00              ??         00h
       CODE:2f25 00              ??         00h
       CODE:2f26 00              ??         00h
       CODE:2f27 00              ??         00h
       CODE:2f28 00              ??         00h
       CODE:2f29 00              ??         00h
       CODE:2f2a 00              ??         00h
       CODE:2f2b 00              ??         00h
       CODE:2f2c 00              ??         00h
       CODE:2f2d 00              ??         00h
       CODE:2f2e 00              ??         00h
       CODE:2f2f 00              ??         00h
       CODE:2f30 00              ??         00h
       CODE:2f31 00              ??         00h
       CODE:2f32 00              ??         00h
       CODE:2f33 00              ??         00h
       CODE:2f34 00              ??         00h
       CODE:2f35 00              ??         00h
       CODE:2f36 00              ??         00h
       CODE:2f37 00              ??         00h
       CODE:2f38 00              ??         00h
       CODE:2f39 00              ??         00h
       CODE:2f3a 00              ??         00h
       CODE:2f3b 00              ??         00h
       CODE:2f3c 00              ??         00h
       CODE:2f3d 00              ??         00h
       CODE:2f3e 00              ??         00h
       CODE:2f3f 00              ??         00h
       CODE:2f40 00              ??         00h
       CODE:2f41 00              ??         00h
       CODE:2f42 00              ??         00h
       CODE:2f43 00              ??         00h
       CODE:2f44 00              ??         00h
       CODE:2f45 00              ??         00h
       CODE:2f46 00              ??         00h
       CODE:2f47 00              ??         00h
       CODE:2f48 00              ??         00h
       CODE:2f49 00              ??         00h
       CODE:2f4a 00              ??         00h
       CODE:2f4b 00              ??         00h
       CODE:2f4c 00              ??         00h
       CODE:2f4d 00              ??         00h
       CODE:2f4e 00              ??         00h
       CODE:2f4f 00              ??         00h
       CODE:2f50 00              ??         00h
       CODE:2f51 00              ??         00h
       CODE:2f52 00              ??         00h
       CODE:2f53 00              ??         00h
       CODE:2f54 00              ??         00h
       CODE:2f55 00              ??         00h
       CODE:2f56 00              ??         00h
       CODE:2f57 00              ??         00h
       CODE:2f58 00              ??         00h
       CODE:2f59 00              ??         00h
       CODE:2f5a 00              ??         00h
       CODE:2f5b 00              ??         00h
       CODE:2f5c 00              ??         00h
       CODE:2f5d 00              ??         00h
       CODE:2f5e 00              ??         00h
       CODE:2f5f 00              ??         00h
       CODE:2f60 00              ??         00h
       CODE:2f61 00              ??         00h
       CODE:2f62 00              ??         00h
       CODE:2f63 00              ??         00h
       CODE:2f64 00              ??         00h
       CODE:2f65 00              ??         00h
       CODE:2f66 00              ??         00h
       CODE:2f67 00              ??         00h
       CODE:2f68 00              ??         00h
       CODE:2f69 00              ??         00h
       CODE:2f6a 00              ??         00h
       CODE:2f6b 00              ??         00h
       CODE:2f6c 00              ??         00h
       CODE:2f6d 00              ??         00h
       CODE:2f6e 00              ??         00h
       CODE:2f6f 00              ??         00h
       CODE:2f70 00              ??         00h
       CODE:2f71 00              ??         00h
       CODE:2f72 00              ??         00h
       CODE:2f73 00              ??         00h
       CODE:2f74 00              ??         00h
       CODE:2f75 00              ??         00h
       CODE:2f76 00              ??         00h
       CODE:2f77 00              ??         00h
       CODE:2f78 00              ??         00h
       CODE:2f79 00              ??         00h
       CODE:2f7a 00              ??         00h
       CODE:2f7b 00              ??         00h
       CODE:2f7c 00              ??         00h
       CODE:2f7d 00              ??         00h
       CODE:2f7e 00              ??         00h
       CODE:2f7f 00              ??         00h
       CODE:2f80 00              ??         00h
       CODE:2f81 00              ??         00h
       CODE:2f82 00              ??         00h
       CODE:2f83 00              ??         00h
       CODE:2f84 00              ??         00h
       CODE:2f85 00              ??         00h
       CODE:2f86 00              ??         00h
       CODE:2f87 00              ??         00h
       CODE:2f88 00              ??         00h
       CODE:2f89 00              ??         00h
       CODE:2f8a 00              ??         00h
       CODE:2f8b 00              ??         00h
       CODE:2f8c 00              ??         00h
       CODE:2f8d 00              ??         00h
       CODE:2f8e 00              ??         00h
       CODE:2f8f 00              ??         00h
       CODE:2f90 00              ??         00h
       CODE:2f91 00              ??         00h
       CODE:2f92 00              ??         00h
       CODE:2f93 00              ??         00h
       CODE:2f94 00              ??         00h
       CODE:2f95 00              ??         00h
       CODE:2f96 00              ??         00h
       CODE:2f97 00              ??         00h
       CODE:2f98 00              ??         00h
       CODE:2f99 00              ??         00h
       CODE:2f9a 00              ??         00h
       CODE:2f9b 00              ??         00h
       CODE:2f9c 00              ??         00h
       CODE:2f9d 00              ??         00h
       CODE:2f9e 00              ??         00h
       CODE:2f9f 00              ??         00h
       CODE:2fa0 00              ??         00h
       CODE:2fa1 00              ??         00h
       CODE:2fa2 00              ??         00h
       CODE:2fa3 00              ??         00h
       CODE:2fa4 00              ??         00h
       CODE:2fa5 00              ??         00h
       CODE:2fa6 00              ??         00h
       CODE:2fa7 00              ??         00h
       CODE:2fa8 00              ??         00h
       CODE:2fa9 00              ??         00h
       CODE:2faa 00              ??         00h
       CODE:2fab 00              ??         00h
       CODE:2fac 00              ??         00h
       CODE:2fad 00              ??         00h
       CODE:2fae 00              ??         00h
       CODE:2faf 00              ??         00h
       CODE:2fb0 00              ??         00h
       CODE:2fb1 00              ??         00h
       CODE:2fb2 00              ??         00h
       CODE:2fb3 00              ??         00h
       CODE:2fb4 00              ??         00h
       CODE:2fb5 00              ??         00h
       CODE:2fb6 00              ??         00h
       CODE:2fb7 00              ??         00h
       CODE:2fb8 00              ??         00h
       CODE:2fb9 00              ??         00h
       CODE:2fba 00              ??         00h
       CODE:2fbb 00              ??         00h
       CODE:2fbc 00              ??         00h
       CODE:2fbd 00              ??         00h
       CODE:2fbe 00              ??         00h
       CODE:2fbf 00              ??         00h
       CODE:2fc0 00              ??         00h
       CODE:2fc1 00              ??         00h
       CODE:2fc2 00              ??         00h
       CODE:2fc3 00              ??         00h
       CODE:2fc4 00              ??         00h
       CODE:2fc5 00              ??         00h
       CODE:2fc6 00              ??         00h
       CODE:2fc7 00              ??         00h
       CODE:2fc8 00              ??         00h
       CODE:2fc9 00              ??         00h
       CODE:2fca 00              ??         00h
       CODE:2fcb 00              ??         00h
       CODE:2fcc 00              ??         00h
       CODE:2fcd 00              ??         00h
       CODE:2fce 00              ??         00h
       CODE:2fcf 00              ??         00h
       CODE:2fd0 00              ??         00h
       CODE:2fd1 00              ??         00h
       CODE:2fd2 00              ??         00h
       CODE:2fd3 00              ??         00h
       CODE:2fd4 00              ??         00h
       CODE:2fd5 00              ??         00h
       CODE:2fd6 00              ??         00h
       CODE:2fd7 00              ??         00h
       CODE:2fd8 00              ??         00h
       CODE:2fd9 00              ??         00h
       CODE:2fda 00              ??         00h
       CODE:2fdb 00              ??         00h
       CODE:2fdc 00              ??         00h
       CODE:2fdd 00              ??         00h
       CODE:2fde 00              ??         00h
       CODE:2fdf 00              ??         00h
       CODE:2fe0 00              ??         00h
       CODE:2fe1 00              ??         00h
       CODE:2fe2 00              ??         00h
       CODE:2fe3 00              ??         00h
       CODE:2fe4 00              ??         00h
       CODE:2fe5 00              ??         00h
       CODE:2fe6 00              ??         00h
       CODE:2fe7 00              ??         00h
       CODE:2fe8 00              ??         00h
       CODE:2fe9 00              ??         00h
       CODE:2fea 00              ??         00h
       CODE:2feb 00              ??         00h
       CODE:2fec 00              ??         00h
       CODE:2fed 00              ??         00h
       CODE:2fee 00              ??         00h
       CODE:2fef 00              ??         00h
       CODE:2ff0 00              ??         00h
       CODE:2ff1 00              ??         00h
       CODE:2ff2 00              ??         00h
       CODE:2ff3 00              ??         00h
       CODE:2ff4 00              ??         00h
       CODE:2ff5 00              ??         00h
       CODE:2ff6 00              ??         00h
       CODE:2ff7 00              ??         00h
       CODE:2ff8 00              ??         00h
       CODE:2ff9 00              ??         00h
       CODE:2ffa 00              ??         00h
       CODE:2ffb 00              ??         00h
       CODE:2ffc 00              ??         00h
       CODE:2ffd 00              ??         00h
       CODE:2ffe 00              ??         00h
       CODE:2fff 00              ??         00h
                             //
                             // REG_BANK_1 
                             // INTMEM:00-INTMEM:07
                             //
                             BANK0_R0
       INTMEM:00                 ??         ??
                             BANK0_R1
       INTMEM:01                 ??         ??
                             BANK0_R2
       INTMEM:02                 ??         ??
                             BANK0_R3
       INTMEM:03                 ??         ??
                             BANK0_R4
       INTMEM:04                 ??         ??
                             BANK0_R5
       INTMEM:05                 ??         ??
                             BANK0_R6
       INTMEM:06                 ??         ??
                             BANK0_R7
       INTMEM:07                 ??         ??
                             //
                             // REG_BANK_2 
                             // INTMEM:08-INTMEM:0f
                             //
                             BANK1_R0
       INTMEM:08                 ??         ??
                             BANK1_R1
       INTMEM:09                 ??         ??
                             BANK1_R2
       INTMEM:0a                 ??         ??
                             BANK1_R3
       INTMEM:0b                 ??         ??
                             BANK1_R4
       INTMEM:0c                 ??         ??
                             BANK1_R5
       INTMEM:0d                 ??         ??
                             BANK1_R6
       INTMEM:0e                 ??         ??
                             BANK1_R7
       INTMEM:0f                 ??         ??
                             //
                             // REG_BANK_3 
                             // INTMEM:10-INTMEM:17
                             //
                             BANK2_R0                                        XREF[10]:    FUN_CODE_0163:0172(R), 
                                                                                          CODE:01ac(W), CODE:01b1(W), 
                                                                                          CODE:01b6(W), CODE:01cd(W), 
                                                                                          CODE:020a(W), CODE:0218(W), 
                                                                                          CODE:023b(W), CODE:0273(W), 
                                                                                          FUN_CODE_269e:26a2(W)  
       INTMEM:10                 undefined1 ??
                             BANK2_R1                                        XREF[7]:     CODE:01c5(R), CODE:26e2(W), 
                                                                                          CODE:272a(W), CODE:274d(W), 
                                                                                          CODE:2780(W), CODE:27d7(W), 
                                                                                          CODE:2907(W)  
       INTMEM:11                 undefined1 ??
                             BANK2_R2                                        XREF[9]:     CODE:01da(R), CODE:01de(RW), 
                                                                                          CODE:01e5(R), CODE:26e5(W), 
                                                                                          CODE:272d(W), CODE:275c(W), 
                                                                                          CODE:2783(W), CODE:27da(W), 
                                                                                          CODE:28ee(W)  
       INTMEM:12                 undefined1 ??
                             BANK2_R3                                        XREF[5]:     CODE:026b(R), CODE:2734(W), 
                                                                                          CODE:278a(W), CODE:27e4(W), 
                                                                                          CODE:291d(W)  
       INTMEM:13                 undefined1 ??
                             BANK2_R4                                        XREF[8]:     CODE:0283(R), CODE:0290(RW), 
                                                                                          CODE:02a1(R), CODE:2737(W), 
                                                                                          CODE:2795(W), CODE:27e7(W), 
                                                                                          CODE:28f3(W), CODE:28f5(RW)  
       INTMEM:14                 undefined1 ??
                             BANK2_R5                                        XREF[17]:    CODE:0233(R), CODE:26fe(W), 
                                                                                          CODE:2742(W), CODE:279c(W), 
                                                                                          CODE:27aa(R), CODE:27b3(R), 
                                                                                          CODE:27dd(W), CODE:2815(R), 
                                                                                          CODE:2831(R), CODE:288d(W), 
                                                                                          CODE:2895(W), CODE:289a(W), 
                                                                                          CODE:28a2(R), CODE:28dc(W), 
                                                                                          CODE:2912(W), 
                                                                                          FUN_CODE_2a62:2a62(W), 
                                                                                          FUN_CODE_2a62:2a76(RW)  
       INTMEM:15                 undefined1 ??
                             BANK2_R6                                        XREF[7]:     CODE:0248(R), CODE:024f(RW), 
                                                                                          CODE:2705(W), CODE:2813(R), 
                                                                                          CODE:2834(R), CODE:28f9(W), 
                                                                                          CODE:28fb(RW)  
       INTMEM:16                 undefined1 ??
                             BANK2_R7                                        XREF[9]:     CODE:270c(W), CODE:27f1(R), 
                                                                                          CODE:280d(R), CODE:283e(R), 
                                                                                          CODE:285a(R), CODE:2867(R), 
                                                                                          CODE:287d(R), CODE:28b9(R), 
                                                                                          CODE:28cf(R)  
       INTMEM:17                 undefined1 ??
                             //
                             // REG_BANK_4 
                             // INTMEM:18-INTMEM:1f
                             //
                             BANK3_R0                                        XREF[10]:    CODE:2716(W), CODE:271f(W), 
                                                                                          CODE:27ef(R), CODE:2810(R), 
                                                                                          CODE:283c(R), CODE:285d(R), 
                                                                                          CODE:2865(R), CODE:2880(R), 
                                                                                          CODE:28b4(R), CODE:28ca(R)  
       INTMEM:18                 undefined1 ??
                             BANK3_R1                                        XREF[1]:     CODE:26f6(W)  
       INTMEM:19                 ??         ??
                             BANK3_R2                                        XREF[2]:     CODE:26f4(W), CODE:270e(R)  
       INTMEM:1a                 undefined1 ??
                             BANK3_R3                                        XREF[16]:    CODE:01a3(W), CODE:01c0(R), 
                                                                                          CODE:01ca(W), CODE:01d5(R), 
                                                                                          CODE:01f1(W), CODE:0204(W), 
                                                                                          CODE:021d(R), CODE:022e(R), 
                                                                                          CODE:0238(W), CODE:0243(R), 
                                                                                          CODE:0253(W), CODE:0266(R), 
                                                                                          CODE:0270(W), CODE:027b(R), 
                                                                                          CODE:028d(W), CODE:0295(W)  
       INTMEM:1b                 undefined1 ??
                             BANK3_R4                                        XREF[6]:     FUN_CODE_0648:065e(W), 
                                                                                          FUN_CODE_0648:0666(RW), 
                                                                                          FUN_CODE_0648:0682(W), 
                                                                                          FUN_CODE_0648:068d(RW), 
                                                                                          FUN_CODE_0648:0699(RW), 
                                                                                          FUN_CODE_0648:06a2(W)  
       INTMEM:1c                 ??         ??
                             BANK3_R5                                        XREF[6]:     FUN_CODE_0648:06b6(W), 
                                                                                          FUN_CODE_0648:06be(RW), 
                                                                                          FUN_CODE_0648:06da(W), 
                                                                                          FUN_CODE_0648:06e5(RW), 
                                                                                          FUN_CODE_0648:06f1(RW), 
                                                                                          FUN_CODE_0648:06fa(W)  
       INTMEM:1d                 ??         ??
                             BANK3_R6                                        XREF[6]:     FUN_CODE_0648:070e(W), 
                                                                                          FUN_CODE_0648:0716(RW), 
                                                                                          FUN_CODE_0648:0732(W), 
                                                                                          FUN_CODE_0648:073d(RW), 
                                                                                          FUN_CODE_0648:0749(RW), 
                                                                                          FUN_CODE_0648:0752(W)  
       INTMEM:1e                 ??         ??
                             BANK3_R7                                        XREF[6]:     FUN_CODE_0648:0648(R), 
                                                                                          FUN_CODE_0648:069c(W), 
                                                                                          FUN_CODE_0648:06f4(W), 
                                                                                          FUN_CODE_0648:074c(W), 
                                                                                          FUN_CODE_239e:23c5(W), 
                                                                                          FUN_CODE_2d24:2d24(R)  
       INTMEM:1f                 undefined1 ??
                             //
                             // INTMEM 
                             // INTMEM:20-INTMEM:ff
                             //
       INTMEM:20                 ??         ??
       INTMEM:21                 ??         ??
       INTMEM:22                 ??         ??
       INTMEM:23                 ??         ??
       INTMEM:24                 ??         ??
       INTMEM:25                 ??         ??
       INTMEM:26                 ??         ??
       INTMEM:27                 ??         ??
       INTMEM:28                 ??         ??
       INTMEM:29                 ??         ??
       INTMEM:2a                 ??         ??
       INTMEM:2b                 ??         ??
       INTMEM:2c                 ??         ??
       INTMEM:2d                 ??         ??
       INTMEM:2e                 ??         ??
                             DAT_INTMEM_2f                                   XREF[11]:    FUN_CODE_07ea:0807(W), 
                                                                                          FUN_CODE_080d:0835(R), 
                                                                                          FUN_CODE_080d:083b(W), 
                                                                                          FUN_CODE_083e:0949(R), 
                                                                                          FUN_CODE_083e:0972(R), 
                                                                                          FUN_CODE_0d48:0e09(R), 
                                                                                          CODE:131f(R), CODE:1351(R), 
                                                                                          CODE:135f(W), CODE:1473(R), 
                                                                                          FUN_CODE_1bd9:1be7(R)  
       INTMEM:2f                 undefined1 ??
                             DAT_INTMEM_30                                   XREF[3]:     FUN_CODE_083e:0900(R), 
                                                                                          FUN_CODE_083e:0bd5(W), 
                                                                                          FUN_CODE_2d27:2d30(R)  
       INTMEM:30                 undefined1 ??
                             DAT_INTMEM_31                                   XREF[3]:     FUN_CODE_083e:08fb(R), 
                                                                                          FUN_CODE_083e:0bd7(W), 
                                                                                          FUN_CODE_2d27:2d38(R)  
       INTMEM:31                 undefined1 ??
                             DAT_INTMEM_32                                   XREF[3]:     FUN_CODE_083e:08f6(R), 
                                                                                          FUN_CODE_083e:0bd9(W), 
                                                                                          FUN_CODE_2d27:2d40(R)  
       INTMEM:32                 undefined1 ??
                             DAT_INTMEM_33                                   XREF[3]:     FUN_CODE_083e:08f1(R), 
                                                                                          FUN_CODE_083e:0bdb(W), 
                                                                                          FUN_CODE_2d27:2d48(R)  
       INTMEM:33                 undefined1 ??
                             DAT_INTMEM_34                                   XREF[7]:     FUN_CODE_0756:078e(RW), 
                                                                                          FUN_CODE_0756:0793(RW), 
                                                                                          CODE:0fe0(RW), CODE:17eb(R), 
                                                                                          CODE:17f6(RW), CODE:183b(R), 
                                                                                          CODE:19e0(RW)  
       INTMEM:34                 undefined1 ??
                             DAT_INTMEM_35                                   XREF[19]:    FUN_CODE_20db:20e5(W), 
                                                                                          FUN_CODE_20db:211c(W), 
                                                                                          FUN_CODE_2137:2137(RW), 
                                                                                          FUN_CODE_2137:2144(W), 
                                                                                          FUN_CODE_214c:214c(RW), 
                                                                                          FUN_CODE_214c:215a(W), 
                                                                                          FUN_CODE_214c:2162(W), 
                                                                                          FUN_CODE_2195:2195(RW), 
                                                                                          CODE:219a(RW), CODE:21a0(W), 
                                                                                          CODE:21a5(RW), CODE:21a8(W), 
                                                                                          CODE:21ba(RW), CODE:21bd(W), 
                                                                                          CODE:21c3(W), CODE:21e1(RW), 
                                                                                          CODE:21e9(W), CODE:221b(RW), 
                                                                                          FUN_CODE_2236:2239(W)  
       INTMEM:35                 ??         ??
                             DAT_INTMEM_36                                   XREF[23]:    FUN_CODE_083e:093e(R), 
                                                                                          FUN_CODE_083e:0c2a(R), 
                                                                                          FUN_CODE_0d48:0ea1(R), 
                                                                                          CODE:0ee1(R), CODE:1fb5(R), 
                                                                                          FUN_CODE_20db:20e0(R), 
                                                                                          FUN_CODE_20db:20f6(R), 
                                                                                          FUN_CODE_20db:20fe(R), 
                                                                                          FUN_CODE_20db:2103(W), 
                                                                                          FUN_CODE_20db:2115(R), 
                                                                                          FUN_CODE_20db:2127(W), 
                                                                                          FUN_CODE_20db:212f(W), 
                                                                                          FUN_CODE_2137:213f(W), 
                                                                                          FUN_CODE_214c:2157(W), 
                                                                                          FUN_CODE_214c:215f(W), 
                                                                                          CODE:21ab(R), CODE:21c6(R), 
                                                                                          CODE:21d7(W), CODE:21fb(W), 
                                                                                          FUN_CODE_2236:2241(R), [more]
       INTMEM:36                 undefined1 ??
                             DAT_INTMEM_37                                   XREF[28]:    FUN_CODE_083e:0c38(W), 
                                                                                          FUN_CODE_083e:0c48(W), 
                                                                                          CODE:1e0f(W), CODE:1e42(W), 
                                                                                          CODE:1e4a(W), CODE:1ed7(R), 
                                                                                          CODE:1ed9(W), CODE:1edf(W), 
                                                                                          CODE:1eea(W), CODE:1ef1(R), 
                                                                                          CODE:1ef3(W), CODE:1ef9(W), 
                                                                                          CODE:1f04(W), CODE:1fc1(R), 
                                                                                          CODE:1fc3(W), CODE:1fc9(W), 
                                                                                          CODE:1fd4(W), CODE:1fe4(W), 
                                                                                          FUN_CODE_20db:20ee(R), 
                                                                                          FUN_CODE_20db:2109(W), [more]
       INTMEM:37                 undefined1 ??
                             DAT_INTMEM_38                                   XREF[2]:     CODE:13fe(W), CODE:1403(RW)  
       INTMEM:38                 ??         ??
                             DAT_INTMEM_39                                   XREF[2]:     FUN_CODE_0756:077e(W), 
                                                                                          CODE:13eb(R)  
       INTMEM:39                 undefined1 ??
                             DAT_INTMEM_3a                                   XREF[3]:     CODE:13dd(R), CODE:1eb8(W), 
                                                                                          CODE:1f1a(W)  
       INTMEM:3a                 undefined1 ??
                             DAT_INTMEM_3b                                   XREF[6]:     CODE:13cf(R), CODE:1e0a(W), 
                                                                                          CODE:1eb5(W), CODE:1f52(W), 
                                                                                          CODE:1f65(W), CODE:201f(W)  
       INTMEM:3b                 undefined1 ??
                             DAT_INTMEM_3c                                   XREF[6]:     FUN_CODE_080d:082b(W), 
                                                                                          CODE:13d1(R), CODE:13df(R), 
                                                                                          CODE:13ed(R), CODE:13f9(R), 
                                                                                          CODE:13fc(W)  
       INTMEM:3c                 undefined1 ??
                             DAT_INTMEM_3d                                   XREF[30]:    FUN_CODE_083e:0b52(W), 
                                                                                          FUN_CODE_083e:0b5c(W), 
                                                                                          FUN_CODE_083e:0b73(W), 
                                                                                          FUN_CODE_083e:0b7d(W), 
                                                                                          FUN_CODE_083e:0b8d(W), 
                                                                                          CODE:0f47(W), CODE:0f63(RW), 
                                                                                          CODE:0f69(W), CODE:0f8b(W), 
                                                                                          CODE:0f90(RW), CODE:0f95(W), 
                                                                                          CODE:0f9b(RW), CODE:0fe3(W), 
                                                                                          CODE:0fed(RW), CODE:1032(W), 
                                                                                          CODE:103c(RW), CODE:11f8(W), 
                                                                                          CODE:11fd(RW), CODE:1203(W), 
                                                                                          CODE:120d(RW), [more]
       INTMEM:3d                 undefined1 ??
                             DAT_INTMEM_3e                                   XREF[4]:     FUN_CODE_083e:08bd(R), 
                                                                                          CODE:127e(RW), CODE:1280(R), 
                                                                                          CODE:12b7(W)  
       INTMEM:3e                 undefined1 ??
                             DAT_INTMEM_3f                                   XREF[6]:     FUN_CODE_083e:08b3(R), 
                                                                                          CODE:12ba(RW), CODE:12bc(R), 
                                                                                          CODE:1f17(R), CODE:1f60(W), 
                                                                                          CODE:2019(W)  
       INTMEM:3f                 undefined1 ??
                             DAT_INTMEM_40                                   XREF[3]:     FUN_CODE_083e:090b(R), 
                                                                                          CODE:2847(R), CODE:285d(W)  
       INTMEM:40                 undefined1 ??
                             DAT_INTMEM_41                                   XREF[5]:     FUN_CODE_083e:0910(R), 
                                                                                          FUN_CODE_14c6:14de(R), 
                                                                                          FUN_CODE_14c6:14f9(R), 
                                                                                          CODE:2844(R), CODE:285a(W)  
       INTMEM:41                 undefined1 ??
                             DAT_INTMEM_42                                   XREF[3]:     FUN_CODE_083e:0915(R), 
                                                                                          CODE:281e(R), CODE:2834(W)  
       INTMEM:42                 undefined1 ??
                             DAT_INTMEM_43                                   XREF[5]:     FUN_CODE_083e:091a(R), 
                                                                                          FUN_CODE_14c6:14e4(R), 
                                                                                          FUN_CODE_14c6:1504(R), 
                                                                                          CODE:281b(R), CODE:2831(W)  
       INTMEM:43                 undefined1 ??
                             DAT_INTMEM_44                                   XREF[3]:     FUN_CODE_083e:091f(R), 
                                                                                          CODE:27fa(R), CODE:2810(W)  
       INTMEM:44                 undefined1 ??
                             DAT_INTMEM_45                                   XREF[5]:     FUN_CODE_083e:0924(R), 
                                                                                          FUN_CODE_14c6:14ea(R), 
                                                                                          FUN_CODE_14c6:150f(R), 
                                                                                          CODE:27f7(R), CODE:280d(W)  
       INTMEM:45                 undefined1 ??
                             DAT_INTMEM_46                                   XREF[3]:     FUN_CODE_083e:0929(R), 
                                                                                          FUN_CODE_15c1:15eb(R), 
                                                                                          CODE:2880(W)  
       INTMEM:46                 undefined1 ??
                             DAT_INTMEM_47                                   XREF[4]:     FUN_CODE_080d:0828(W), 
                                                                                          FUN_CODE_083e:092e(R), 
                                                                                          FUN_CODE_15c1:15c1(R), 
                                                                                          CODE:287d(W)  
       INTMEM:47                 undefined1 ??
                             DAT_INTMEM_48                                   XREF[1]:     CODE:2847(W)  
       INTMEM:48                 ??         ??
                             DAT_INTMEM_49                                   XREF[2]:     FUN_CODE_14c6:152f(R), 
                                                                                          CODE:2844(W)  
       INTMEM:49                 undefined1 ??
                             DAT_INTMEM_4a                                   XREF[1]:     CODE:281e(W)  
       INTMEM:4a                 ??         ??
                             DAT_INTMEM_4b                                   XREF[2]:     FUN_CODE_14c6:1533(R), 
                                                                                          CODE:281b(W)  
       INTMEM:4b                 undefined1 ??
                             DAT_INTMEM_4c                                   XREF[1]:     CODE:27fa(W)  
       INTMEM:4c                 ??         ??
                             DAT_INTMEM_4d                                   XREF[2]:     FUN_CODE_14c6:1537(R), 
                                                                                          CODE:27f7(W)  
       INTMEM:4d                 undefined1 ??
                             DAT_INTMEM_4e                                   XREF[2]:     FUN_CODE_14c6:153f(R), 
                                                                                          FUN_CODE_24f7:25cb(W)  
       INTMEM:4e                 undefined1 ??
                             DAT_INTMEM_4f                                   XREF[2]:     FUN_CODE_14c6:154d(R), 
                                                                                          FUN_CODE_24f7:25ce(W)  
       INTMEM:4f                 undefined1 ??
                             DAT_INTMEM_50                                   XREF[2]:     FUN_CODE_14c6:155b(R), 
                                                                                          FUN_CODE_24f7:25d1(W)  
       INTMEM:50                 undefined1 ??
                             DAT_INTMEM_51                                   XREF[2]:     FUN_CODE_14c6:14fb(R), 
                                                                                          FUN_CODE_24f7:25da(W)  
       INTMEM:51                 ??         ??
                             DAT_INTMEM_52                                   XREF[2]:     FUN_CODE_14c6:1506(R), 
                                                                                          FUN_CODE_24f7:25dd(W)  
       INTMEM:52                 ??         ??
                             DAT_INTMEM_53                                   XREF[2]:     FUN_CODE_14c6:1511(R), 
                                                                                          FUN_CODE_24f7:25e0(W)  
       INTMEM:53                 ??         ??
                             DAT_INTMEM_54                                   XREF[3]:     FUN_CODE_080d:0822(W), 
                                                                                          FUN_CODE_2044:204a(RW), 
                                                                                          FUN_CODE_2044:204d(W)  
       INTMEM:54                 ??         ??
                             DAT_INTMEM_55                                   XREF[4]:     FUN_CODE_080d:0825(W), 
                                                                                          FUN_CODE_083e:0c07(W), 
                                                                                          FUN_CODE_2044:2066(W), 
                                                                                          FUN_CODE_2044:206a(RW)  
       INTMEM:55                 ??         ??
                             DAT_INTMEM_56                                   XREF[3]:     FUN_CODE_14c6:14cc(W), 
                                                                                          FUN_CODE_14c6:14d6(RW), 
                                                                                          FUN_CODE_14c6:14d9(W)  
       INTMEM:56                 ??         ??
                             DAT_INTMEM_57                                   XREF[10]:    FUN_CODE_083e:0933(R), 
                                                                                          FUN_CODE_14c6:14c9(W), 
                                                                                          FUN_CODE_14c6:1581(R), 
                                                                                          FUN_CODE_14c6:1584(W), 
                                                                                          FUN_CODE_14c6:1590(R), 
                                                                                          FUN_CODE_14c6:15a4(R), 
                                                                                          FUN_CODE_15c1:15f9(W), 
                                                                                          FUN_CODE_166a:170d(R), 
                                                                                          FUN_CODE_166a:1724(R), 
                                                                                          FUN_CODE_166a:172b(R)  
       INTMEM:57                 undefined1 ??
                             DAT_INTMEM_58                                   XREF[4]:     FUN_CODE_083e:0c13(W), 
                                                                                          FUN_CODE_14c6:1592(R), 
                                                                                          CODE:24ac(*), 
                                                                                          FUN_CODE_24f7:256f(W)  
       INTMEM:58                 undefined1 ??
                             DAT_INTMEM_59                                   XREF[4]:     FUN_CODE_083e:0c1e(W), 
                                                                                          FUN_CODE_14c6:15a6(R), 
                                                                                          CODE:24ae(*), 
                                                                                          FUN_CODE_24f7:2572(W)  
       INTMEM:59                 undefined1 ??
                             DAT_INTMEM_5a                                   XREF[19]:    FUN_CODE_083e:0cf5(W), 
                                                                                          CODE:0ff2(W), CODE:1016(W), 
                                                                                          CODE:105c(W), CODE:11e5(W), 
                                                                                          CODE:1210(W), CODE:1265(W), 
                                                                                          CODE:129e(W), 
                                                                                          FUN_CODE_14c6:151f(W), 
                                                                                          CODE:18c8(R), CODE:18cf(R), 
                                                                                          CODE:18dd(R), CODE:1b23(W), 
                                                                                          FUN_CODE_1d2a:1d60(W), 
                                                                                          FUN_CODE_1d2a:1d70(W), 
                                                                                          FUN_CODE_1d2a:1d80(W), 
                                                                                          FUN_CODE_1d2a:1d90(W), 
                                                                                          FUN_CODE_2044:206f(W), 
                                                                                          CODE:28da(R)  
       INTMEM:5a                 undefined1 ??
                             DAT_INTMEM_5b                                   XREF[20]:    FUN_CODE_083e:0cf9(W), 
                                                                                          CODE:0ff8(W), CODE:101c(W), 
                                                                                          CODE:1062(W), CODE:11eb(W), 
                                                                                          CODE:1216(W), CODE:126b(W), 
                                                                                          CODE:12a4(W), 
                                                                                          FUN_CODE_14c6:1523(W), 
                                                                                          CODE:18bf(R), CODE:1b29(W), 
                                                                                          CODE:1d0b(R), CODE:1d0f(W), 
                                                                                          CODE:1d1a(W), CODE:1d1f(W), 
                                                                                          FUN_CODE_1d2a:1d66(W), 
                                                                                          FUN_CODE_1d2a:1d76(W), 
                                                                                          FUN_CODE_1d2a:1d86(W), 
                                                                                          FUN_CODE_1d2a:1d96(W), 
                                                                                          FUN_CODE_2044:2075(W)  
       INTMEM:5b                 undefined1 ??
                             DAT_INTMEM_5c                                   XREF[16]:    FUN_CODE_083e:0cf7(W), 
                                                                                          CODE:0ff5(W), CODE:1019(W), 
                                                                                          CODE:105f(W), CODE:11e8(W), 
                                                                                          CODE:1213(W), CODE:1268(W), 
                                                                                          CODE:12a1(W), 
                                                                                          FUN_CODE_14c6:1521(W), 
                                                                                          CODE:184b(R), CODE:1b26(W), 
                                                                                          FUN_CODE_1d2a:1d63(W), 
                                                                                          FUN_CODE_1d2a:1d73(W), 
                                                                                          FUN_CODE_1d2a:1d83(W), 
                                                                                          FUN_CODE_1d2a:1d93(W), 
                                                                                          FUN_CODE_2044:2072(W)  
       INTMEM:5c                 undefined1 ??
                             DAT_INTMEM_5d                                   XREF[6]:     FUN_CODE_083e:0d03(W), 
                                                                                          FUN_CODE_083e:0d09(W), 
                                                                                          FUN_CODE_083e:0d0f(W), 
                                                                                          FUN_CODE_083e:0d17(R), 
                                                                                          CODE:12c4(W), CODE:12c9(R)  
       INTMEM:5d                 undefined1 ??
                             DAT_INTMEM_5e                                   XREF[9]:     CODE:131d(W), CODE:1325(R), 
                                                                                          CODE:133a(R), CODE:1340(W), 
                                                                                          CODE:134f(R), CODE:135f(R), 
                                                                                          CODE:1b94(RW), CODE:1b9c(R), 
                                                                                          CODE:1ba0(W)  
       INTMEM:5e                 undefined1 ??
                             DAT_INTMEM_5f                                   XREF[3]:     CODE:1317(W), CODE:1348(RW), 
                                                                                          CODE:1357(W)  
       INTMEM:5f                 ??         ??
                             DAT_INTMEM_60                                   XREF[8]:     CODE:17f3(W), CODE:184d(W), 
                                                                                          CODE:1853(R), CODE:1909(R), 
                                                                                          CODE:19c6(R), CODE:19d9(R), 
                                                                                          CODE:19dd(R), CODE:19e4(R)  
       INTMEM:60                 undefined1 ??
                             DAT_INTMEM_61                                   XREF[6]:     FUN_CODE_0756:0798(R), 
                                                                                          FUN_CODE_0756:079c(RW), 
                                                                                          FUN_CODE_0756:079e(R), 
                                                                                          FUN_CODE_083e:09a2(W), 
                                                                                          FUN_CODE_083e:09aa(W), 
                                                                                          CODE:1af7(W)  
       INTMEM:61                 undefined1 ??
                             DAT_INTMEM_62                                   XREF[17]:    FUN_CODE_080d:082e(W), 
                                                                                          FUN_CODE_083e:0c55(R), 
                                                                                          FUN_CODE_083e:0c74(W), 
                                                                                          FUN_CODE_083e:0c7a(R), 
                                                                                          FUN_CODE_083e:0c8f(W), 
                                                                                          CODE:1779(R), CODE:1790(W), 
                                                                                          CODE:1870(R), CODE:18aa(R), 
                                                                                          CODE:18b5(R), CODE:1e93(W), 
                                                                                          CODE:1fdf(W), CODE:2005(RW), 
                                                                                          FUN_CODE_2277:2283(R), 
                                                                                          FUN_CODE_2277:2289(W), 
                                                                                          FUN_CODE_2277:228e(R), 
                                                                                          FUN_CODE_2277:2294(W)  
       INTMEM:62                 undefined1 ??
                             DAT_INTMEM_63                                   XREF[14]:    FUN_CODE_083e:08a9(R), 
                                                                                          CODE:1e3d(W), CODE:1e45(W), 
                                                                                          CODE:1e4d(W), CODE:1e52(W), 
                                                                                          CODE:1e57(W), CODE:1e5c(W), 
                                                                                          CODE:1e61(W), CODE:1e66(W), 
                                                                                          CODE:1e6b(W), CODE:1e70(W), 
                                                                                          CODE:1e78(W), CODE:1ff6(W), 
                                                                                          CODE:1ffd(W)  
       INTMEM:63                 undefined1 ??
                             DAT_INTMEM_64                                   XREF[2]:     FUN_CODE_083e:0b93(W), 
                                                                                          CODE:0f93(R)  
       INTMEM:64                 undefined1 ??
                             DAT_INTMEM_65                                   XREF[4]:     FUN_CODE_2092:2092(W), 
                                                                                          FUN_CODE_209c:20a1(RW), 
                                                                                          FUN_CODE_20ac:20ac(W), 
                                                                                          FUN_CODE_20b6:20bb(RW)  
       INTMEM:65                 ??         ??
                             DAT_INTMEM_66                                   XREF[8]:     FUN_CODE_083e:0c2f(W), 
                                                                                          FUN_CODE_083e:0c3f(W), 
                                                                                          CODE:0f4a(W), CODE:0f6c(RW), 
                                                                                          CODE:1f8c(R), CODE:1fa7(RW), 
                                                                                          CODE:1fbc(W), 
                                                                                          FUN_CODE_2236:2247(W)  
       INTMEM:66                 undefined1 ??
                             DAT_INTMEM_67                                   XREF[3]:     FUN_CODE_083e:0a95(R), 
                                                                                          FUN_CODE_083e:0d29(W), 
                                                                                          CODE:1ff0(W)  
       INTMEM:67                 undefined1 ??
                             DAT_INTMEM_68                                   XREF[3]:     FUN_CODE_083e:0a9a(R), 
                                                                                          FUN_CODE_083e:0d2b(W), 
                                                                                          CODE:1ff3(W)  
       INTMEM:68                 undefined1 ??
                             DAT_INTMEM_69                                   XREF[11]:    CODE:0574(W), CODE:0578(W), 
                                                                                          CODE:057c(W), CODE:0580(W), 
                                                                                          CODE:0584(W), CODE:0588(W), 
                                                                                          CODE:058c(W), CODE:0590(W), 
                                                                                          CODE:0594(W), 
                                                                                          FUN_CODE_062f:062f(R), 
                                                                                          FUN_CODE_239e:23aa(W)  
       INTMEM:69                 undefined1 ??
                             DAT_INTMEM_6a                                   XREF[17]:    CODE:04d0(W), CODE:04f3(W), 
                                                                                          CODE:04f8(RW), CODE:0507(RW), 
                                                                                          CODE:050d(RW), CODE:0515(W), 
                                                                                          CODE:053c(RW), CODE:0559(W), 
                                                                                          CODE:0565(RW), CODE:056f(W), 
                                                                                          CODE:059b(RW), CODE:05c8(W), 
                                                                                          CODE:05d9(RW), CODE:05e0(W), 
                                                                                          CODE:0604(RW), CODE:0615(W), 
                                                                                          CODE:0622(W)  
       INTMEM:6a                 ??         ??
                             DAT_INTMEM_6b                                   XREF[6]:     CODE:04f0(W), CODE:0556(W), 
                                                                                          CODE:05a5(RW), CODE:05e3(R), 
                                                                                          CODE:05e5(RW), CODE:0611(R)  
       INTMEM:6b                 undefined1 ??
                             DAT_INTMEM_6c                                   XREF[4]:     CODE:05b5(R), CODE:05cb(R), 
                                                                                          CODE:05d0(W), 
                                                                                          FUN_CODE_2a7b:2a80(R)  
       INTMEM:6c                 undefined1 ??
                             DAT_INTMEM_6d                                   XREF[7]:     CODE:0545(W), CODE:054c(R), 
                                                                                          CODE:05f8(R), CODE:05fb(W), 
                                                                                          FUN_CODE_2a85:2a85(W), 
                                                                                          FUN_CODE_2a85:2a99(R), 
                                                                                          FUN_CODE_2aae:2ac4(W)  
       INTMEM:6d                 undefined1 ??
                             DAT_INTMEM_6e                                   XREF[4]:     CODE:0545(R), CODE:05b5(W), 
                                                                                          FUN_CODE_2a85:2a87(W), 
                                                                                          FUN_CODE_2aae:2ab8(R)  
       INTMEM:6e                 undefined1 ??
                             DAT_INTMEM_6f                                   XREF[4]:     CODE:052c(R), CODE:0535(RW), 
                                                                                          FUN_CODE_2a85:2a90(W), 
                                                                                          FUN_CODE_2aae:2ac6(W)  
       INTMEM:6f                 undefined1 ??
                             DAT_INTMEM_70                                   XREF[17]:    FUN_CODE_02fe:0321(R), 
                                                                                          FUN_CODE_02fe:03a5(RW), 
                                                                                          FUN_CODE_02fe:03b3(W), 
                                                                                          FUN_CODE_02fe:03c2(W), 
                                                                                          FUN_CODE_02fe:03df(RW), 
                                                                                          FUN_CODE_02fe:03ed(RW), 
                                                                                          FUN_CODE_02fe:03fb(RW), 
                                                                                          FUN_CODE_02fe:03ff(W), 
                                                                                          FUN_CODE_02fe:041f(RW), 
                                                                                          FUN_CODE_02fe:0427(RW), 
                                                                                          FUN_CODE_02fe:0435(RW), 
                                                                                          FUN_CODE_02fe:0459(RW), 
                                                                                          FUN_CODE_02fe:0461(RW), 
                                                                                          FUN_CODE_02fe:0478(W), 
                                                                                          FUN_CODE_02fe:0480(W), 
                                                                                          FUN_CODE_02fe:048a(RW), 
                                                                                          FUN_CODE_0496:04b1(W)  
       INTMEM:70                 undefined1 ??
                             DAT_INTMEM_71                                   XREF[7]:     FUN_CODE_02fe:0393(W), 
                                                                                          FUN_CODE_02fe:046a(W), 
                                                                                          FUN_CODE_02fe:0470(R), 
                                                                                          FUN_CODE_2b34:2b37(R), 
                                                                                          FUN_CODE_2b34:2b63(R), 
                                                                                          FUN_CODE_2b34:2b99(R), 
                                                                                          FUN_CODE_2b34:2ba7(R)  
       INTMEM:71                 undefined1 ??
                             DAT_INTMEM_72                                   XREF[12]:    FUN_CODE_02fe:040e(R), 
                                                                                          FUN_CODE_02fe:0411(W), 
                                                                                          FUN_CODE_02fe:046d(W), 
                                                                                          FUN_CODE_2b34:2b3b(R), 
                                                                                          FUN_CODE_2bb1:2bb2(R), 
                                                                                          FUN_CODE_2bb1:2bef(R), 
                                                                                          FUN_CODE_2bf4:2bf7(R), 
                                                                                          FUN_CODE_2bf4:2bfe(R), 
                                                                                          FUN_CODE_2bf4:2c69(R), 
                                                                                          FUN_CODE_2c6e:2c6f(R), 
                                                                                          FUN_CODE_2c6e:2d02(R), 
                                                                                          FUN_CODE_2d07:2d07(R)  
       INTMEM:72                 undefined1 ??
                             DAT_INTMEM_73                                   XREF[11]:    FUN_CODE_02fe:0409(R), 
                                                                                          FUN_CODE_02fe:040c(W), 
                                                                                          FUN_CODE_02fe:0448(R), 
                                                                                          FUN_CODE_02fe:044b(W), 
                                                                                          FUN_CODE_2b34:2b4d(R), 
                                                                                          FUN_CODE_2b34:2b80(R), 
                                                                                          FUN_CODE_2b34:2b83(W), 
                                                                                          FUN_CODE_2b34:2b93(R), 
                                                                                          FUN_CODE_2b34:2ba9(R), 
                                                                                          FUN_CODE_2bf4:2c10(R), 
                                                                                          FUN_CODE_2c6e:2c81(R)  
       INTMEM:73                 undefined1 ??
                             DAT_INTMEM_74                                   XREF[9]:     FUN_CODE_02fe:0443(R), 
                                                                                          FUN_CODE_02fe:0446(W), 
                                                                                          FUN_CODE_02fe:046a(R), 
                                                                                          FUN_CODE_2b34:2b7b(R), 
                                                                                          FUN_CODE_2b34:2b7e(W), 
                                                                                          FUN_CODE_2b34:2b8c(R), 
                                                                                          FUN_CODE_2b34:2bab(R), 
                                                                                          FUN_CODE_2bf4:2c2c(R), 
                                                                                          FUN_CODE_2c6e:2cac(R)  
       INTMEM:74                 undefined1 ??
                             DAT_INTMEM_75                                   XREF[13]:    FUN_CODE_02fe:0390(W), 
                                                                                          FUN_CODE_02fe:043e(R), 
                                                                                          FUN_CODE_02fe:0441(W), 
                                                                                          FUN_CODE_02fe:046d(R), 
                                                                                          FUN_CODE_2b34:2b65(R), 
                                                                                          FUN_CODE_2b34:2b76(R), 
                                                                                          FUN_CODE_2b34:2b79(W), 
                                                                                          FUN_CODE_2b34:2b85(R), 
                                                                                          FUN_CODE_2b34:2bad(R), 
                                                                                          FUN_CODE_2bb1:2bc4(R), 
                                                                                          FUN_CODE_2bf4:2bf4(R), 
                                                                                          FUN_CODE_2bf4:2c57(R), 
                                                                                          FUN_CODE_2c6e:2cd7(R)  
       INTMEM:75                 undefined1 ??
                             DAT_INTMEM_76                                   XREF[7]:     FUN_CODE_02fe:02e7(RW), 
                                                                                          FUN_CODE_02fe:0311(W), 
                                                                                          FUN_CODE_02fe:0314(R), 
                                                                                          FUN_CODE_02fe:0396(R), 
                                                                                          FUN_CODE_02fe:03c7(R), 
                                                                                          FUN_CODE_02fe:0404(R), 
                                                                                          FUN_CODE_02fe:0439(R)  
       INTMEM:76                 undefined1 ??
                             DAT_INTMEM_77                                   XREF[5]:     FUN_CODE_013a:0146(RW), 
                                                                                          FUN_CODE_232b:232b(W), 
                                                                                          FUN_CODE_2338:2338(R), 
                                                                                          FUN_CODE_2338:2343(R), 
                                                                                          FUN_CODE_2338:2348(W)  
       INTMEM:77                 undefined1 ??
                             DAT_INTMEM_78                                   XREF[3]:     FUN_CODE_013a:0154(RW), 
                                                                                          FUN_CODE_2620:2620(W), 
                                                                                          FUN_CODE_2624:2624(R)  
       INTMEM:78                 undefined1 ??
                             DAT_INTMEM_79                                   XREF[14]:    FUN_CODE_2646:2646(W), 
                                                                                          FUN_CODE_264e:264e(W), 
                                                                                          FUN_CODE_2653:2653(W), 
                                                                                          FUN_CODE_2658:2658(W), 
                                                                                          FUN_CODE_265d:265d(W), 
                                                                                          FUN_CODE_2662:2662(W), 
                                                                                          FUN_CODE_2667:2667(W), 
                                                                                          FUN_CODE_266c:266c(W), 
                                                                                          FUN_CODE_2671:2674(R), 
                                                                                          FUN_CODE_2679:2697(R), 
                                                                                          CODE:2888(R), CODE:28af(R), 
                                                                                          CODE:28be(W), CODE:28c1(R)  
       INTMEM:79                 undefined1 ??
                             DAT_INTMEM_7a                                   XREF[41]:    FUN_CODE_2671:2674(W), 
                                                                                          FUN_CODE_2679:2697(W), 
                                                                                          FUN_CODE_26ae:26b1(R), 
                                                                                          CODE:26d4(RW), CODE:26dc(RW), 
                                                                                          CODE:26ef(RW), CODE:26f1(R), 
                                                                                          CODE:26f9(RW), CODE:26fb(R), 
                                                                                          CODE:2700(RW), CODE:2702(R), 
                                                                                          CODE:2707(RW), CODE:2709(R), 
                                                                                          CODE:271a(RW), CODE:271c(R), 
                                                                                          CODE:2723(RW), CODE:273d(RW), 
                                                                                          CODE:273f(R), CODE:2746(RW), 
                                                                                          CODE:2757(RW), [more]
       INTMEM:7a                 undefined1 ??
                             DAT_INTMEM_7b                                   XREF[3]:     FUN_CODE_2646:2649(W), 
                                                                                          FUN_CODE_2671:2671(W), 
                                                                                          FUN_CODE_2679:268d(RW)  
       INTMEM:7b                 ??         ??
       INTMEM:7c                 ??         ??
                             DAT_INTMEM_7d                                   XREF[2]:     FUN_CODE_2a85:2a8d(W), 
                                                                                          FUN_CODE_2aae:2abb(RW)  
       INTMEM:7d                 ??         ??
                             DAT_INTMEM_7e                                   XREF[10]:    FUN_CODE_1de9:1dee(R), 
                                                                                          FUN_CODE_1de9:1def(R), 
                                                                                          FUN_CODE_1de9:1df0(R), 
                                                                                          CODE:1f30(W), CODE:1f35(W), 
                                                                                          CODE:1f3a(W), CODE:1f3f(W), 
                                                                                          CODE:1f44(W), CODE:1f49(W), 
                                                                                          CODE:1f4e(W)  
       INTMEM:7e                 undefined1 ??
                             DAT_INTMEM_7f                                   XREF[7]:     FUN_CODE_2092:207f(W), 
                                                                                          FUN_CODE_2082:2084(W), 
                                                                                          FUN_CODE_2087:2089(W), 
                                                                                          FUN_CODE_208c:208e(W), 
                                                                                          FUN_CODE_20c6:20c8(R), 
                                                                                          FUN_CODE_20c6:20c9(R), 
                                                                                          FUN_CODE_20c6:20ca(R)  
       INTMEM:7f                 undefined1 ??
                             DAT_INTMEM_80                                   XREF[6]:     FUN_CODE_07ea:0801(W), 
                                                                                          FUN_CODE_083e:0951(R), 
                                                                                          FUN_CODE_083e:0cbb(W), 
                                                                                          CODE:17d2(R), CODE:19bb(W), 
                                                                                          FUN_CODE_2d0b:2d0d(R)  
       INTMEM:80                 undefined1 ??
                             DAT_INTMEM_81                                   XREF[3]:     FUN_CODE_1bd9:1bf8(R), 
                                                                                          FUN_CODE_1bd9:1bfb(W), 
                                                                                          FUN_CODE_1bd9:1c11(W)  
       INTMEM:81                 undefined1 ??
                             DAT_INTMEM_82                                   XREF[5]:     FUN_CODE_07ea:0805(W), 
                                                                                          FUN_CODE_1bd9:1bdb(R), 
                                                                                          FUN_CODE_1bd9:1be0(RW), 
                                                                                          FUN_CODE_1bd9:1c02(R), 
                                                                                          FUN_CODE_1bd9:1c0b(W)  
       INTMEM:82                 undefined1 ??
       INTMEM:83                 ??         ??
       INTMEM:84                 ??         ??
       INTMEM:85                 ??         ??
       INTMEM:86                 ??         ??
       INTMEM:87                 ??         ??
       INTMEM:88                 ??         ??
       INTMEM:89                 ??         ??
       INTMEM:8a                 ??         ??
       INTMEM:8b                 ??         ??
       INTMEM:8c                 ??         ??
       INTMEM:8d                 ??         ??
       INTMEM:8e                 ??         ??
       INTMEM:8f                 ??         ??
       INTMEM:90                 ??         ??
       INTMEM:91                 ??         ??
       INTMEM:92                 ??         ??
       INTMEM:93                 ??         ??
       INTMEM:94                 ??         ??
       INTMEM:95                 ??         ??
       INTMEM:96                 ??         ??
       INTMEM:97                 ??         ??
       INTMEM:98                 ??         ??
       INTMEM:99                 ??         ??
       INTMEM:9a                 ??         ??
                             DAT_INTMEM_9b                                   XREF[8]:     CODE:1143(W), CODE:1148(W), 
                                                                                          CODE:114d(W), CODE:1152(W), 
                                                                                          FUN_CODE_119b:11a0(W), 
                                                                                          FUN_CODE_119b:11a5(R), 
                                                                                          FUN_CODE_119b:11a6(R), 
                                                                                          FUN_CODE_119b:11a7(R)  
       INTMEM:9b                 undefined1 ??
                             DAT_INTMEM_9c                                   XREF[14]:    CODE:0fac(W), CODE:0fb1(W), 
                                                                                          CODE:0fb6(W), CODE:0fbb(W), 
                                                                                          CODE:0fc0(W), CODE:0fc5(W), 
                                                                                          CODE:0fca(W), CODE:0fcf(W), 
                                                                                          CODE:0fd4(W), CODE:0fd9(W), 
                                                                                          FUN_CODE_1072:1079(W), 
                                                                                          FUN_CODE_1072:107e(R), 
                                                                                          FUN_CODE_1072:107f(R), 
                                                                                          FUN_CODE_1072:1080(R)  
       INTMEM:9c                 undefined1 ??
                             DAT_INTMEM_9d                                   XREF[15]:    CODE:1227(W), CODE:122c(W), 
                                                                                          CODE:1231(W), CODE:1236(W), 
                                                                                          CODE:123b(W), CODE:1240(W), 
                                                                                          CODE:1245(W), CODE:124a(W), 
                                                                                          CODE:124f(W), CODE:1254(W), 
                                                                                          CODE:1259(W), 
                                                                                          FUN_CODE_12d5:12da(W), 
                                                                                          FUN_CODE_12d5:12df(R), 
                                                                                          FUN_CODE_12d5:12e0(R), 
                                                                                          FUN_CODE_12d5:12e1(R)  
       INTMEM:9d                 undefined1 ??
                             DAT_INTMEM_9e                                   XREF[7]:     CODE:10a5(W), CODE:10aa(W), 
                                                                                          CODE:10af(W), 
                                                                                          FUN_CODE_1127:112c(W), 
                                                                                          FUN_CODE_1127:1131(R), 
                                                                                          FUN_CODE_1127:1132(R), 
                                                                                          FUN_CODE_1127:1133(R)  
       INTMEM:9e                 undefined1 ??
                             DAT_INTMEM_9f                                   XREF[15]:    FUN_CODE_0ea9:0eae(W), 
                                                                                          FUN_CODE_0ea9:0eb3(R), 
                                                                                          FUN_CODE_0ea9:0eb4(R), 
                                                                                          FUN_CODE_0ea9:0eb5(R), 
                                                                                          CODE:0f07(W), CODE:0f0c(W), 
                                                                                          CODE:0f11(W), CODE:0f16(W), 
                                                                                          CODE:0f1b(W), CODE:0f20(W), 
                                                                                          CODE:0f25(W), CODE:0f2a(W), 
                                                                                          CODE:0f2f(W), CODE:0f34(W), 
                                                                                          CODE:0f39(W)  
       INTMEM:9f                 undefined1 ??
                             DAT_INTMEM_a0                                   XREF[6]:     CODE:1309(W), CODE:130e(W), 
                                                                                          CODE:1313(W), 
                                                                                          FUN_CODE_136a:136c(R), 
                                                                                          FUN_CODE_136a:136d(R), 
                                                                                          FUN_CODE_136a:136e(R)  
       INTMEM:a0                 undefined1 ??
                             DAT_INTMEM_a1                                   XREF[7]:     CODE:137e(W), CODE:1383(W), 
                                                                                          CODE:1388(W), CODE:138d(W), 
                                                                                          FUN_CODE_1391:1393(R), 
                                                                                          FUN_CODE_1391:1394(R), 
                                                                                          FUN_CODE_1391:1395(R)  
       INTMEM:a1                 undefined1 ??
                             DAT_INTMEM_a2                                   XREF[5]:     CODE:13c6(W), CODE:13cb(W), 
                                                                                          FUN_CODE_1408:140a(R), 
                                                                                          FUN_CODE_1408:140b(R), 
                                                                                          FUN_CODE_1408:140c(R)  
       INTMEM:a2                 undefined1 ??
                             DAT_INTMEM_a3                                   XREF[6]:     CODE:1423(W), CODE:1428(W), 
                                                                                          CODE:142d(W), 
                                                                                          FUN_CODE_14b1:14b3(R), 
                                                                                          FUN_CODE_14b1:14b4(R), 
                                                                                          FUN_CODE_14b1:14b5(R)  
       INTMEM:a3                 undefined1 ??
       INTMEM:a4                 ??         ??
                             DAT_INTMEM_a5                                   XREF[12]:    CODE:1950(W), CODE:1955(W), 
                                                                                          CODE:195a(W), CODE:195f(W), 
                                                                                          CODE:1964(W), CODE:1969(W), 
                                                                                          CODE:196e(W), CODE:1973(W), 
                                                                                          CODE:1978(W), 
                                                                                          FUN_CODE_19f3:1a18(R), 
                                                                                          FUN_CODE_19f3:1a19(R), 
                                                                                          FUN_CODE_19f3:1a1a(R)  
       INTMEM:a5                 undefined1 ??
                             DAT_INTMEM_a6                                   XREF[12]:    FUN_CODE_1a3a:1a3c(R), 
                                                                                          FUN_CODE_1a3a:1a3d(R), 
                                                                                          FUN_CODE_1a3a:1a3e(R), 
                                                                                          CODE:1b34(W), CODE:1b39(W), 
                                                                                          CODE:1b3e(W), CODE:1b43(W), 
                                                                                          CODE:1b48(W), CODE:1b4d(W), 
                                                                                          CODE:1b52(W), CODE:1b57(W), 
                                                                                          CODE:1b5c(W)  
       INTMEM:a6                 undefined1 ??
                             DAT_INTMEM_a7                                   XREF[8]:     CODE:1c8a(W), CODE:1c8f(W), 
                                                                                          CODE:1c94(W), CODE:1c99(W), 
                                                                                          CODE:1c9e(W), 
                                                                                          FUN_CODE_1ca2:1ca4(R), 
                                                                                          FUN_CODE_1ca2:1ca5(R), 
                                                                                          FUN_CODE_1ca2:1ca6(R)  
       INTMEM:a7                 undefined1 ??
                             DAT_INTMEM_a8                                   XREF[6]:     CODE:1da0(W), CODE:1da5(W), 
                                                                                          CODE:1daa(W), 
                                                                                          FUN_CODE_1dd7:1dd9(R), 
                                                                                          FUN_CODE_1dd7:1dda(R), 
                                                                                          FUN_CODE_1dd7:1ddb(R)  
       INTMEM:a8                 undefined1 ??
                             DAT_INTMEM_a9                                   XREF[13]:    FUN_CODE_2137:2169(W), 
                                                                                          FUN_CODE_216c:216e(W), 
                                                                                          FUN_CODE_2171:2173(W), 
                                                                                          FUN_CODE_2176:2178(W), 
                                                                                          FUN_CODE_217b:217d(W), 
                                                                                          FUN_CODE_2180:2182(W), 
                                                                                          CODE:2187(W), CODE:218c(W), 
                                                                                          CODE:2191(W), 
                                                                                          FUN_CODE_2236:223e(W), 
                                                                                          FUN_CODE_2236:2252(R), 
                                                                                          FUN_CODE_2236:2253(R), 
                                                                                          FUN_CODE_2236:2254(R)  
       INTMEM:a9                 undefined1 ??
                             DAT_INTMEM_aa                                   XREF[5]:     CODE:229b(W), CODE:22a0(W), 
                                                                                          FUN_CODE_22c2:22c4(R), 
                                                                                          FUN_CODE_22c2:22c5(R), 
                                                                                          FUN_CODE_22c2:22c6(R)  
       INTMEM:aa                 undefined1 ??
                             DAT_INTMEM_ab                                   XREF[3]:     FUN_CODE_0d48:0e5f(R), 
                                                                                          CODE:1bbd(W), 
                                                                                          FUN_CODE_1bd9:1c84(W)  
       INTMEM:ab                 undefined1 ??
                             DAT_INTMEM_ac                                   XREF[3]:     FUN_CODE_0d48:0e6f(R), 
                                                                                          CODE:1bba(W), 
                                                                                          FUN_CODE_1bd9:1c74(W)  
       INTMEM:ac                 undefined1 ??
                             DAT_INTMEM_ad                                   XREF[2]:     FUN_CODE_0d48:0e73(R), 
                                                                                          FUN_CODE_1bd9:1c7a(W)  
       INTMEM:ad                 undefined1 ??
                             DAT_INTMEM_ae                                   XREF[2]:     FUN_CODE_0d48:0e77(R), 
                                                                                          FUN_CODE_1bd9:1c80(W)  
       INTMEM:ae                 undefined1 ??
                             DAT_INTMEM_af                                   XREF[3]:     FUN_CODE_083e:0c95(W), 
                                                                                          CODE:1944(R), CODE:1986(R)  
       INTMEM:af                 undefined1 ??
                             DAT_INTMEM_b0                                   XREF[9]:     FUN_CODE_083e:0d17(W), 
                                                                                          CODE:12c9(W), CODE:177f(R), 
                                                                                          CODE:187a(R), CODE:18b2(R), 
                                                                                          CODE:1cff(R), CODE:200c(W), 
                                                                                          CODE:2037(W), CODE:203e(W)  
       INTMEM:b0                 undefined1 ??
                             DAT_INTMEM_b1                                   XREF[5]:     FUN_CODE_083e:0cd6(W), 
                                                                                          FUN_CODE_0d48:0e3f(R), 
                                                                                          CODE:188d(R), CODE:199b(R), 
                                                                                          CODE:19a2(W)  
       INTMEM:b1                 undefined1 ??
                             DAT_INTMEM_b2                                   XREF[4]:     FUN_CODE_083e:0cdb(W), 
                                                                                          FUN_CODE_0d48:0e43(R), 
                                                                                          CODE:1889(R), CODE:1998(W)  
       INTMEM:b2                 undefined1 ??
       INTMEM:b3                 ??         ??
                             DAT_INTMEM_b4                                   XREF[1]:     FUN_CODE_14c6:1583(R)  
       INTMEM:b4                 undefined1 ??
       INTMEM:b5                 ??         ??
       INTMEM:b6                 ??         ??
       INTMEM:b7                 ??         ??
       INTMEM:b8                 ??         ??
                             DAT_INTMEM_b9                                   XREF[3]:     CODE:1b99(R), CODE:1bb4(R), 
                                                                                          CODE:28ce(W)  
       INTMEM:b9                 undefined1 ??
       INTMEM:ba                 ??         ??
       INTMEM:bb                 ??         ??
       INTMEM:bc                 ??         ??
       INTMEM:bd                 ??         ??
       INTMEM:be                 ??         ??
       INTMEM:bf                 ??         ??
       INTMEM:c0                 ??         ??
       INTMEM:c1                 ??         ??
       INTMEM:c2                 ??         ??
       INTMEM:c3                 ??         ??
       INTMEM:c4                 ??         ??
       INTMEM:c5                 ??         ??
       INTMEM:c6                 ??         ??
       INTMEM:c7                 ??         ??
       INTMEM:c8                 ??         ??
       INTMEM:c9                 ??         ??
       INTMEM:ca                 ??         ??
       INTMEM:cb                 ??         ??
       INTMEM:cc                 ??         ??
       INTMEM:cd                 ??         ??
       INTMEM:ce                 ??         ??
       INTMEM:cf                 ??         ??
       INTMEM:d0                 ??         ??
       INTMEM:d1                 ??         ??
       INTMEM:d2                 ??         ??
       INTMEM:d3                 ??         ??
       INTMEM:d4                 ??         ??
       INTMEM:d5                 ??         ??
       INTMEM:d6                 ??         ??
       INTMEM:d7                 ??         ??
       INTMEM:d8                 ??         ??
       INTMEM:d9                 ??         ??
       INTMEM:da                 ??         ??
       INTMEM:db                 ??         ??
       INTMEM:dc                 ??         ??
       INTMEM:dd                 ??         ??
       INTMEM:de                 ??         ??
       INTMEM:df                 ??         ??
       INTMEM:e0                 ??         ??
       INTMEM:e1                 ??         ??
                             DAT_INTMEM_e2                                   XREF[2]:     FUN_CODE_2a85:2a8c(W), 
                                                                                          FUN_CODE_2aae:2ac4(R)  
       INTMEM:e2                 undefined1 ??
                             DAT_INTMEM_e3                                   XREF[2]:     FUN_CODE_24f7:25c9(W), 
                                                                                          CODE:2715(R)  
       INTMEM:e3                 undefined1 ??
                             DAT_INTMEM_e4                                   XREF[2]:     CODE:24b0(*), 
                                                                                          FUN_CODE_24f7:257d(W)  
       INTMEM:e4                 undefined1 ??
                             DAT_INTMEM_e5                                   XREF[2]:     CODE:24b2(*), 
                                                                                          FUN_CODE_24f7:2580(W)  
       INTMEM:e5                 undefined1 ??
                             DAT_INTMEM_e6                                   XREF[2]:     CODE:24b4(*), 
                                                                                          FUN_CODE_24f7:2583(W)  
       INTMEM:e6                 undefined1 ??
                             DAT_INTMEM_e7                                   XREF[2]:     CODE:24b6(*), 
                                                                                          FUN_CODE_24f7:2586(W)  
       INTMEM:e7                 undefined1 ??
                             DAT_INTMEM_e8                                   XREF[2]:     CODE:24b8(*), 
                                                                                          FUN_CODE_24f7:2590(W)  
       INTMEM:e8                 undefined1 ??
                             DAT_INTMEM_e9                                   XREF[2]:     CODE:24ba(*), 
                                                                                          FUN_CODE_24f7:2593(W)  
       INTMEM:e9                 undefined1 ??
                             DAT_INTMEM_ea                                   XREF[1]:     FUN_CODE_24f7:2596(W)  
       INTMEM:ea                 undefined1 ??
                             DAT_INTMEM_eb                                   XREF[1]:     FUN_CODE_24f7:2599(W)  
       INTMEM:eb                 undefined1 ??
                             DAT_INTMEM_ec                                   XREF[1]:     FUN_CODE_24f7:25a3(W)  
       INTMEM:ec                 undefined1 ??
                             DAT_INTMEM_ed                                   XREF[1]:     FUN_CODE_24f7:25a6(W)  
       INTMEM:ed                 undefined1 ??
                             DAT_INTMEM_ee                                   XREF[1]:     FUN_CODE_24f7:25a9(W)  
       INTMEM:ee                 undefined1 ??
                             DAT_INTMEM_ef                                   XREF[1]:     FUN_CODE_24f7:25ac(W)  
       INTMEM:ef                 undefined1 ??
                             DAT_INTMEM_f0                                   XREF[1]:     FUN_CODE_24f7:25b6(W)  
       INTMEM:f0                 undefined1 ??
                             DAT_INTMEM_f1                                   XREF[1]:     FUN_CODE_24f7:25b9(W)  
       INTMEM:f1                 undefined1 ??
                             DAT_INTMEM_f2                                   XREF[1]:     FUN_CODE_24f7:25bc(W)  
       INTMEM:f2                 undefined1 ??
                             DAT_INTMEM_f3                                   XREF[1]:     FUN_CODE_24f7:25bf(W)  
       INTMEM:f3                 undefined1 ??
       INTMEM:f4                 ??         ??
       INTMEM:f5                 ??         ??
       INTMEM:f6                 ??         ??
       INTMEM:f7                 ??         ??
       INTMEM:f8                 ??         ??
       INTMEM:f9                 ??         ??
       INTMEM:fa                 ??         ??
       INTMEM:fb                 ??         ??
       INTMEM:fc                 ??         ??
       INTMEM:fd                 ??         ??
       INTMEM:fe                 ??         ??
       INTMEM:ff                 ??         ??
                             //
                             // SFR 
                             // SFR:80-SFR:ff
                             //
                             P0                                              XREF[1]:     FUN_CODE_2361:237f(W)  
          SFR:80                 ??         ??
                             SP                                              XREF[2]:     FUN_CODE_0756:0756(W), 
                                                                                          FUN_CODE_0756:0775(W)  
          SFR:81                 ??         ??
                             DPL
          SFR:82                 ??         ??
                             DPH
          SFR:83                 ??         ??
                             DPXL
          SFR:84                 ??         ??
          SFR:85                 ??         ??
          SFR:86                 ??         ??
                             PCON                                            XREF[1]:     FUN_CODE_239e:23ce(RW)  
          SFR:87                 ??         ??
                             TCON                                            XREF[2]:     FUN_CODE_239e:23b6(W), 
                                                                                          FUN_CODE_2a4c:2a5b(W)  
          SFR:88                 ??         ??
                             TMOD
          SFR:89                 ??         ??
                             TL0
          SFR:8a                 ??         ??
                             TL1                                             XREF[1]:     CODE:0187(W)  
          SFR:8b                 ??         ??
                             TH0                                             XREF[1]:     CODE:018a(W)  
          SFR:8c                 ??         ??
                             TH1
          SFR:8d                 ??         ??
          SFR:8e                 ??         ??
                             FADDR                                           XREF[9]:     FUN_CODE_0078:0078(R), 
                                                                                          FUN_CODE_013a:0143(RW), 
                                                                                          FUN_CODE_013a:0156(RW), 
                                                                                          FUN_CODE_0163:016c(RW), 
                                                                                          CODE:0192(RW), 
                                                                                          FUN_CODE_02fe:02f1(RW), 
                                                                                          FUN_CODE_02fe:0307(RW), 
                                                                                          FUN_CODE_22d1:22d5(RW), 
                                                                                          FUN_CODE_2417:2417(R)  
          SFR:8f                 undefined1 ??
                             P1                                              XREF[1]:     FUN_CODE_2361:2382(W)  
          SFR:90                 ??         ??
                             DAT_SFR_91                                      XREF[1]:     FUN_CODE_25ea:25ea(W)  
          SFR:91                 ??         ??
                             DAT_SFR_92                                      XREF[1]:     FUN_CODE_239e:23b0(W)  
          SFR:92                 ??         ??
                             DPX                                             XREF[1]:     FUN_CODE_25ed:25ed(W)  
          SFR:93                 ??         ??
                             DAT_SFR_94                                      XREF[1]:     FUN_CODE_239e:23b3(W)  
          SFR:94                 ??         ??
                             DAT_SFR_95                                      XREF[3]:     FUN_CODE_239e:23bc(W), 
                                                                                          CODE:27c8(W), 
                                                                                          FUN_CODE_2a4c:2a5e(W)  
          SFR:95                 ??         ??
                             DAT_SFR_96                                      XREF[1]:     FUN_CODE_239e:23ad(W)  
          SFR:96                 ??         ??
                             HADDR                                           XREF[2]:     FUN_CODE_006c:006c(W), 
                                                                                          FUN_CODE_0084:008e(R)  
          SFR:97                 undefined1 ??
                             SCON                                            XREF[3]:     FUN_CODE_239e:23b9(W), 
                                                                                          CODE:27b0(W), CODE:27c5(W)  
          SFR:98                 ??         ??
                             SBUF
          SFR:99                 ??         ??
          SFR:9a                 ??         ??
                             DAT_SFR_9b                                      XREF[1]:     CODE:27cb(W)  
          SFR:9b                 ??         ??
                             DAT_SFR_9c                                      XREF[1]:     CODE:27ce(W)  
          SFR:9c                 ??         ??
                             DAT_SFR_9d                                      XREF[7]:     CODE:04be(RW), CODE:04c1(RW), 
                                                                                          CODE:04d5(RW), CODE:04d8(RW), 
                                                                                          CODE:051a(RW), CODE:051d(RW), 
                                                                                          FUN_CODE_2361:2370(W)  
          SFR:9d                 ??         ??
                             DAT_SFR_9e                                      XREF[1]:     FUN_CODE_2361:2373(W)  
          SFR:9e                 ??         ??
                             DAT_SFR_9f                                      XREF[1]:     FUN_CODE_2361:2376(W)  
          SFR:9f                 ??         ??
                             P2                                              XREF[1]:     FUN_CODE_2361:2385(W)  
          SFR:a0                 ??         ??
                             HIE                                             XREF[1]:     FUN_CODE_2361:2379(W)  
          SFR:a1                 ??         ??
                             FIE                                             XREF[8]:     CODE:04c4(RW), CODE:04c7(RW), 
                                                                                          CODE:04db(RW), CODE:04de(RW), 
                                                                                          CODE:0520(RW), CODE:0523(RW), 
                                                                                          FUN_CODE_2361:2361(RW), 
                                                                                          FUN_CODE_2361:238e(W)  
          SFR:a2                 ??         ??
                             FIE1                                            XREF[2]:     FUN_CODE_2361:2364(RW), 
                                                                                          FUN_CODE_2361:2391(W)  
          SFR:a3                 ??         ??
                             DAT_SFR_a4                                      XREF[2]:     FUN_CODE_2361:2367(RW), 
                                                                                          FUN_CODE_2361:2394(W)  
          SFR:a4                 ??         ??
                             DAT_SFR_a5                                      XREF[4]:     FUN_CODE_02ad:02b3(RW), 
                                                                                          FUN_CODE_2359:2359(RW), 
                                                                                          FUN_CODE_2361:236a(RW), 
                                                                                          FUN_CODE_2361:2397(W)  
          SFR:a5                 ??         ??
                             WDTRST                                          XREF[7]:     FUN_CODE_02ad:02ad(RW), 
                                                                                          FUN_CODE_02ad:02b0(RW), 
                                                                                          FUN_CODE_02ad:02b6(RW), 
                                                                                          FUN_CODE_02ad:02c3(RW), 
                                                                                          FUN_CODE_02ad:02c6(RW), 
                                                                                          FUN_CODE_2361:236d(RW), 
                                                                                          FUN_CODE_2361:239a(W)  
          SFR:a6                 ??         ??
                             WCON                                            XREF[3]:     FUN_CODE_02ad:02b9(RW), 
                                                                                          FUN_CODE_02ad:02bc(RW), 
                                                                                          FUN_CODE_2361:237c(W)  
          SFR:a7                 ??         ??
                             IE                                              XREF[1]:     FUN_CODE_22d9:22ee(W)  
          SFR:a8                 ??         ??
                             SADDR                                           XREF[1]:     FUN_CODE_006c:006f(W)  
          SFR:a9                 ??         ??
                             DAT_SFR_aa                                      XREF[2]:     FUN_CODE_262a:2635(R), 
                                                                                          FUN_CODE_2638:2640(W)  
          SFR:aa                 undefined1 ??
                             DAT_SFR_ab                                      XREF[2]:     FUN_CODE_262a:2633(R), 
                                                                                          FUN_CODE_2638:263e(W)  
          SFR:ab                 undefined1 ??
                             DAT_SFR_ac                                      XREF[2]:     FUN_CODE_262a:2631(R), 
                                                                                          FUN_CODE_2638:263c(W)  
          SFR:ac                 undefined1 ??
                             DAT_SFR_ad                                      XREF[2]:     FUN_CODE_262a:262f(R), 
                                                                                          FUN_CODE_2638:263a(W)  
          SFR:ad                 undefined1 ??
                             HSTAT                                           XREF[2]:     FUN_CODE_262a:262d(R), 
                                                                                          FUN_CODE_2638:2638(W)  
          SFR:ae                 undefined1 ??
                             DAT_SFR_af                                      XREF[2]:     FUN_CODE_262a:262a(RW), 
                                                                                          FUN_CODE_2638:2642(RW)  
          SFR:af                 ??         ??
                             P3                                              XREF[3]:     FUN_CODE_02fe:02ee(W), 
                                                                                          FUN_CODE_02fe:030a(R), 
                                                                                          FUN_CODE_0496:04ab(W)  
          SFR:b0                 undefined1 ??
                             IEN1                                            XREF[2]:     FUN_CODE_0496:049c(W), 
                                                                                          FUN_CODE_0496:04ae(W)  
          SFR:b1                 ??         ??
                             IPL1                                            XREF[2]:     FUN_CODE_0496:049f(W), 
                                                                                          FUN_CODE_0496:04a2(W)  
          SFR:b2                 ??         ??
                             IPH1                                            XREF[1]:     FUN_CODE_0496:04a5(W)  
          SFR:b3                 ??         ??
                             DAT_SFR_b4                                      XREF[1]:     FUN_CODE_0496:04a8(W)  
          SFR:b4                 ??         ??
                             DAT_SFR_b5                                      XREF[1]:     FUN_CODE_02fe:030f(R)  
          SFR:b5                 undefined1 ??
                             DAT_SFR_b6                                      XREF[1]:     FUN_CODE_02fe:0311(R)  
          SFR:b6                 undefined1 ??
                             IPH0                                            XREF[3]:     FUN_CODE_0496:0496(W), 
                                                                                          FUN_CODE_0496:0499(W), 
                                                                                          FUN_CODE_0496:04b4(RW)  
          SFR:b7                 ??         ??
                             IP                                              XREF[1]:     FUN_CODE_22d9:22f1(W)  
          SFR:b8                 ??         ??
                             SADEN                                           XREF[2]:     FUN_CODE_0496:04b7(RW), 
                                                                                          FUN_CODE_22d9:22e5(W)  
          SFR:b9                 ??         ??
                             DAT_SFR_ba                                      XREF[1]:     FUN_CODE_22d9:22e8(W)  
          SFR:ba                 ??         ??
                             DAT_SFR_bb                                      XREF[1]:     FUN_CODE_22d9:22eb(W)  
          SFR:bb                 ??         ??
                             DAT_SFR_bc                                      XREF[8]:     FUN_CODE_012d:012d(RW), 
                                                                                          FUN_CODE_0163:016f(RW), 
                                                                                          CODE:018f(RW), CODE:0213(RW), 
                                                                                          FUN_CODE_0496:04ba(RW), 
                                                                                          FUN_CODE_22d9:22dc(W), 
                                                                                          FUN_CODE_232b:232e(RW), 
                                                                                          FUN_CODE_269e:26a7(RW)  
          SFR:bc                 ??         ??
                             DAT_SFR_bd                                      XREF[3]:     FUN_CODE_012d:0130(RW), 
                                                                                          FUN_CODE_012d:0133(RW), 
                                                                                          FUN_CODE_22d9:22df(W)  
          SFR:bd                 ??         ??
                             SPH                                             XREF[1]:     FUN_CODE_22d9:22e2(W)  
          SFR:be                 ??         ??
                             DAT_SFR_bf                                      XREF[11]:    FUN_CODE_013a:013a(RW), 
                                                                                          FUN_CODE_013a:015f(RW), 
                                                                                          FUN_CODE_0163:0163(RW), 
                                                                                          CODE:019b(RW), 
                                                                                          FUN_CODE_02fe:02fa(RW), 
                                                                                          FUN_CODE_02fe:02fe(RW), 
                                                                                          FUN_CODE_22d9:22d9(W), 
                                                                                          FUN_CODE_232b:2331(RW), 
                                                                                          FUN_CODE_2338:2340(RW), 
                                                                                          FUN_CODE_2338:234b(RW), 
                                                                                          FUN_CODE_23d8:23d8(RW)  
          SFR:bf                 ??         ??
                             FIFLG                                           XREF[1]:     FUN_CODE_2361:2388(W)  
          SFR:c0                 ??         ??
                             FIFLG1                                          XREF[1]:     FUN_CODE_22d9:22f4(W)  
          SFR:c1                 ??         ??
                             DAT_SFR_c2                                      XREF[2]:     FUN_CODE_22d9:22f7(W), 
                                                                                          FUN_CODE_239e:23cb(RW)  
          SFR:c2                 ??         ??
                             DAT_SFR_c3                                      XREF[1]:     FUN_CODE_22d9:22fa(W)  
          SFR:c3                 ??         ??
                             DAT_SFR_c4                                      XREF[1]:     FUN_CODE_22d9:22fd(W)  
          SFR:c4                 ??         ??
                             DAT_SFR_c5                                      XREF[1]:     FUN_CODE_22d9:2300(W)  
          SFR:c5                 ??         ??
                             DAT_SFR_c6                                      XREF[1]:     FUN_CODE_22d9:2303(W)  
          SFR:c6                 ??         ??
                             EPCONFIG                                        XREF[1]:     FUN_CODE_22d9:2306(W)  
          SFR:c7                 ??         ??
                             T2CON                                           XREF[1]:     FUN_CODE_2361:238b(W)  
          SFR:c8                 ??         ??
                             T2MOD                                           XREF[1]:     FUN_CODE_22d9:2309(W)  
          SFR:c9                 ??         ??
                             RCAP2L                                          XREF[1]:     FUN_CODE_22d9:230c(W)  
          SFR:ca                 ??         ??
                             RCAP2H                                          XREF[1]:     FUN_CODE_22d9:230f(W)  
          SFR:cb                 ??         ??
                             TL2                                             XREF[1]:     FUN_CODE_22d9:2312(W)  
          SFR:cc                 ??         ??
                             TH2                                             XREF[1]:     FUN_CODE_22d9:2315(W)  
          SFR:cd                 ??         ??
                             DAT_SFR_ce                                      XREF[1]:     FUN_CODE_22d9:2318(W)  
          SFR:ce                 ??         ??
                             HPCON                                           XREF[1]:     FUN_CODE_22d9:231b(W)  
          SFR:cf                 ??         ??
                             PSW
          SFR:d0                 ??         ??
                             PSW1                                            XREF[1]:     FUN_CODE_22d9:231e(W)  
          SFR:d1                 ??         ??
                             SOFL                                            XREF[1]:     FUN_CODE_22d9:2321(W)  
          SFR:d2                 ??         ??
                             DAT_SFR_d3                                      XREF[1]:     FUN_CODE_22d9:2324(W)  
          SFR:d3                 ??         ??
                             HPINDEX                                         XREF[1]:     FUN_CODE_22d9:2327(W)  
          SFR:d4                 ??         ??
                             HPSC                                            XREF[4]:     CODE:02a8(W), 
                                                                                          FUN_CODE_2458:245f(W), 
                                                                                          FUN_CODE_246c:246c(W), 
                                                                                          FUN_CODE_246f:2470(W)  
          SFR:d5                 ??         ??
                             DAT_SFR_d6                                      XREF[5]:     FUN_CODE_2458:245b(W), 
                                                                                          FUN_CODE_2458:2462(R), 
                                                                                          FUN_CODE_2467:2469(W), 
                                                                                          FUN_CODE_2476:2476(W), 
                                                                                          FUN_CODE_247a:247a(R)  
          SFR:d6                 undefined1 ??
                             HPSTAT                                          XREF[6]:     FUN_CODE_0648:064d(R), 
                                                                                          FUN_CODE_0648:0652(R), 
                                                                                          FUN_CODE_0648:0657(R), 
                                                                                          FUN_CODE_0648:06a5(R), 
                                                                                          FUN_CODE_0648:06aa(R), 
                                                                                          FUN_CODE_0648:06af(R)  
          SFR:d7                 undefined1 ??
                             CCON                                            XREF[1]:     FUN_CODE_2a4c:2a58(W)  
          SFR:d8                 ??         ??
                             CMOD                                            XREF[6]:     CODE:01c2(R), CODE:01d7(R), 
                                                                                          CODE:0230(R), CODE:0245(R), 
                                                                                          CODE:0268(R), CODE:027d(R)  
          SFR:d9                 ??         ??
                             CCAPM0                                          XREF[8]:     CODE:01c5(W), CODE:01e8(W), 
                                                                                          CODE:01ec(W), CODE:0233(W), 
                                                                                          CODE:024c(W), CODE:026b(W), 
                                                                                          CODE:02a4(R), CODE:02a8(R)  
          SFR:da                 undefined1 ??
                             CCAPM1                                          XREF[1]:     FUN_CODE_2a4c:2a4c(W)  
          SFR:db                 ??         ??
                             CCAPM2                                          XREF[2]:     FUN_CODE_02ad:02c9(W), 
                                                                                          FUN_CODE_2a4c:2a4f(W)  
          SFR:dc                 ??         ??
                             CCAPM3                                          XREF[1]:     FUN_CODE_2a4c:2a52(W)  
          SFR:dd                 ??         ??
                             CCAPM4                                          XREF[1]:     FUN_CODE_2a4c:2a55(W)  
          SFR:de                 ??         ??
                             PCON1                                           XREF[2]:     FUN_CODE_006c:0072(W), 
                                                                                          FUN_CODE_0084:0089(R)  
          SFR:df                 undefined1 ??
                             ACC
          SFR:e0                 ??         ??
                             EPCON                                           XREF[5]:     CODE:01ec(R), CODE:024c(R), 
                                                                                          FUN_CODE_2439:2440(R), 
                                                                                          FUN_CODE_244a:244a(R), 
                                                                                          FUN_CODE_244d:244d(R)  
          SFR:e1                 undefined1 ??
                             RXSTAT                                          XREF[4]:     FUN_CODE_2434:2434(R), 
                                                                                          FUN_CODE_2439:243e(W), 
                                                                                          FUN_CODE_2445:2447(W), 
                                                                                          FUN_CODE_2454:2454(W)  
          SFR:e2                 undefined1 ??
                             RXDAT                                           XREF[5]:     FUN_CODE_00ca:00ca(W), 
                                                                                          FUN_CODE_00ca:00cd(W), 
                                                                                          FUN_CODE_00ca:00d0(W), 
                                                                                          FUN_CODE_00ca:00d3(W), 
                                                                                          FUN_CODE_247f:2485(R)  
          SFR:e3                 undefined1 ??
                             RXCON
          SFR:e4                 ??         ??
                             RXFLG                                           XREF[2]:     FUN_CODE_0084:0084(R), 
                                                                                          FUN_CODE_247f:2492(R)  
          SFR:e5                 undefined1 ??
                             RXCNTL
          SFR:e6                 ??         ??
                             RXCNTH
          SFR:e7                 ??         ??
                             HIFLG                                           XREF[1]:     FUN_CODE_239e:23c8(W)  
          SFR:e8                 ??         ??
                             CL
          SFR:e9                 ??         ??
                             CCAP0L                                          XREF[11]:    FUN_CODE_24f7:250b(W), 
                                                                                          FUN_CODE_24f7:2516(W), 
                                                                                          FUN_CODE_24f7:2522(W), 
                                                                                          FUN_CODE_24f7:255e(W), 
                                                                                          FUN_CODE_24f7:2569(W), 
                                                                                          FUN_CODE_24f7:2575(W), 
                                                                                          FUN_CODE_24f7:2588(W), 
                                                                                          FUN_CODE_24f7:259b(W), 
                                                                                          FUN_CODE_24f7:25ae(W), 
                                                                                          FUN_CODE_24f7:25c1(W), 
                                                                                          FUN_CODE_24f7:25d4(W)  
          SFR:ea                 ??         ??
                             CCAP1L                                          XREF[3]:     FUN_CODE_247f:24a6(W), 
                                                                                          FUN_CODE_24f7:2508(W), 
                                                                                          FUN_CODE_24f7:255b(W)  
          SFR:eb                 ??         ??
                             CCAP2L                                          XREF[1]:     FUN_CODE_247f:24a1(W)  
          SFR:ec                 ??         ??
                             CCAP3L                                          XREF[1]:     FUN_CODE_247f:249c(W)  
          SFR:ed                 ??         ??
                             CCAP4L                                          XREF[1]:     FUN_CODE_24f7:24f9(R)  
          SFR:ee                 undefined1 ??
          SFR:ef                 ??         ??
                             B
          SFR:f0                 ??         ??
                             EPINDEX                                         XREF[10]:    FUN_CODE_24f7:251c(R), 
                                                                                          FUN_CODE_24f7:252c(R), 
                                                                                          FUN_CODE_24f7:2564(R), 
                                                                                          FUN_CODE_24f7:2580(R), 
                                                                                          FUN_CODE_24f7:2593(R), 
                                                                                          FUN_CODE_24f7:25a6(R), 
                                                                                          FUN_CODE_24f7:25b9(R), 
                                                                                          FUN_CODE_24f7:25b9(R), 
                                                                                          FUN_CODE_24f7:25c9(R), 
                                                                                          FUN_CODE_24f7:25da(R)  
          SFR:f1                 undefined1 ??
                             TXSTAT                                          XREF[9]:     FUN_CODE_24f7:251e(R), 
                                                                                          FUN_CODE_24f7:2530(R), 
                                                                                          FUN_CODE_24f7:256f(R), 
                                                                                          FUN_CODE_24f7:257d(R), 
                                                                                          FUN_CODE_24f7:2590(R), 
                                                                                          FUN_CODE_24f7:25a3(R), 
                                                                                          FUN_CODE_24f7:25b6(R), 
                                                                                          FUN_CODE_24f7:25cb(R), 
                                                                                          FUN_CODE_24f7:25dd(R)  
          SFR:f2                 undefined1 ??
                             TXDAT                                           XREF[10]:    FUN_CODE_24f7:2511(R), 
                                                                                          FUN_CODE_24f7:2534(R), 
                                                                                          FUN_CODE_24f7:2572(R), 
                                                                                          FUN_CODE_24f7:2586(R), 
                                                                                          FUN_CODE_24f7:2599(R), 
                                                                                          FUN_CODE_24f7:25ac(R), 
                                                                                          FUN_CODE_24f7:25bf(R), 
                                                                                          FUN_CODE_24f7:25bf(R), 
                                                                                          FUN_CODE_24f7:25ce(R), 
                                                                                          FUN_CODE_24f7:25e0(R)  
          SFR:f3                 undefined1 ??
                             TXCON                                           XREF[6]:     FUN_CODE_24f7:2538(R), 
                                                                                          FUN_CODE_24f7:2583(R), 
                                                                                          FUN_CODE_24f7:2596(R), 
                                                                                          FUN_CODE_24f7:25a9(R), 
                                                                                          FUN_CODE_24f7:25bc(R), 
                                                                                          FUN_CODE_24f7:25d1(R)  
          SFR:f4                 undefined1 ??
                             TXFLG                                           XREF[12]:    FUN_CODE_247f:24a8(W), 
                                                                                          FUN_CODE_24f7:250e(W), 
                                                                                          FUN_CODE_24f7:2519(W), 
                                                                                          FUN_CODE_24f7:2525(W), 
                                                                                          FUN_CODE_24f7:2561(W), 
                                                                                          FUN_CODE_24f7:256c(W), 
                                                                                          FUN_CODE_24f7:2578(W), 
                                                                                          FUN_CODE_24f7:258b(W), 
                                                                                          FUN_CODE_24f7:259e(W), 
                                                                                          FUN_CODE_24f7:25b1(W), 
                                                                                          FUN_CODE_24f7:25c4(W), 
                                                                                          FUN_CODE_24f7:25d7(W)  
          SFR:f5                 ??         ??
                             TXCNTL
          SFR:f6                 ??         ??
                             TXCNTH
          SFR:f7                 ??         ??
          SFR:f8                 ??         ??
                             CH
          SFR:f9                 ??         ??
                             CCAP0H
          SFR:fa                 ??         ??
                             CCAP1H
          SFR:fb                 ??         ??
                             CCAP2H                                          XREF[1]:     FUN_CODE_009f:00a1(W)  
          SFR:fc                 ??         ??
                             CCAP3H                                          XREF[3]:     FUN_CODE_0648:06fd(R), 
                                                                                          FUN_CODE_0648:0702(R), 
                                                                                          FUN_CODE_0648:0707(R)  
          SFR:fd                 undefined1 ??
                             CCAP4H                                          XREF[3]:     FUN_CODE_234f:234f(W), 
                                                                                          FUN_CODE_234f:2355(W), 
                                                                                          FUN_CODE_23d8:23de(W)  
          SFR:fe                 ??         ??
                             DAT_SFR_ff                                      XREF[2]:     FUN_CODE_234f:2352(W), 
                                                                                          FUN_CODE_23d8:23db(W)  
          SFR:ff                 ??         ??
                             //
                             // BITS (bitmap[0x0, 0x80, INTMEM:20])
                             // BITS:00-BITS:7f
                             //
                             20.0                                            XREF[3]:     FUN_CODE_07ea:080a(W), 
                                                                                          FUN_CODE_1bd9:1c15(R), 
                                                                                          FUN_CODE_1bd9:1c18(W)  
         BITS:00                 ??         ??
                             20.1                                            XREF[3]:     FUN_CODE_1bd9:1c1d(W), 
                                                                                          FUN_CODE_1bd9:1c1f(R), 
                                                                                          FUN_CODE_1bd9:1c2b(RW)  
         BITS:01                 ??         ??
                             20.2                                            XREF[4]:     FUN_CODE_1bd9:1c2d(R), 
                                                                                          FUN_CODE_1bd9:1c33(W), 
                                                                                          CODE:1e91(W), CODE:1fe7(W)  
         BITS:02                 ??         ??
                             20.3                                            XREF[5]:     FUN_CODE_083e:0b7b(W), 
                                                                                          CODE:17b5(R), CODE:1e12(R), 
                                                                                          CODE:1e7d(W), CODE:1f75(R)  
         BITS:03                 ??         ??
                             20.4                                            XREF[3]:     FUN_CODE_083e:0b5a(W), 
                                                                                          CODE:1162(R), CODE:1f72(R)  
         BITS:04                 ??         ??
                             20.5                                            XREF[5]:     FUN_CODE_083e:0961(R), 
                                                                                          FUN_CODE_0d48:0e25(R), 
                                                                                          CODE:176b(R), 
                                                                                          FUN_CODE_209c:20a4(W), 
                                                                                          FUN_CODE_20b6:20be(W)  
         BITS:05                 ??         ??
                             20.6                                            XREF[2]:     FUN_CODE_0756:0788(R), 
                                                                                          FUN_CODE_0756:0796(W)  
         BITS:06                 ??         ??
                             20.7                                            XREF[2]:     FUN_CODE_083e:08cb(R), 
                                                                                          FUN_CODE_083e:0bb4(W)  
         BITS:07                 ??         ??
                             21.0                                            XREF[10]:    FUN_CODE_083e:0b50(W), 
                                                                                          FUN_CODE_083e:0b87(W), 
                                                                                          FUN_CODE_0d48:0da1(R), 
                                                                                          CODE:0f5a(W), CODE:0f78(R), 
                                                                                          CODE:1cef(W), CODE:1e1b(R), 
                                                                                          CODE:1e83(W), CODE:1ecd(R), 
                                                                                          CODE:1f7b(R)  
         BITS:08                 ??         ??
                             21.1                                            XREF[7]:     CODE:1d25(W), CODE:1e15(R), 
                                                                                          CODE:1e7f(W), CODE:1ec4(R), 
                                                                                          CODE:1ed5(W), CODE:1f90(R), 
                                                                                          CODE:1fac(W)  
         BITS:09                 ??         ??
                             21.2                                            XREF[7]:     FUN_CODE_0756:0773(W), 
                                                                                          CODE:1478(W), CODE:1bae(W), 
                                                                                          CODE:1bca(R), CODE:1bce(W), 
                                                                                          CODE:1e27(R), CODE:1e89(W)  
         BITS:0a                 ??         ??
                             21.3                                            XREF[9]:     FUN_CODE_083e:0b8b(W), 
                                                                                          FUN_CODE_0d48:0da7(R), 
                                                                                          CODE:0f5e(W), CODE:0f7e(R), 
                                                                                          CODE:14a3(W), CODE:1bd0(R), 
                                                                                          CODE:1bd4(W), CODE:1e8b(W), 
                                                                                          CODE:1f81(R)  
         BITS:0b                 ??         ??
                             21.4                                            XREF[5]:     FUN_CODE_0756:076e(W), 
                                                                                          CODE:1195(W), 
                                                                                          FUN_CODE_119b:119b(R), 
                                                                                          CODE:1eab(W), CODE:1eb0(R)  
         BITS:0c                 ??         ??
                             21.5                                            XREF[6]:     FUN_CODE_1072:1072(R), 
                                                                                          FUN_CODE_1072:1075(W), 
                                                                                          CODE:1e9d(W), CODE:1f09(W), 
                                                                                          CODE:1f5b(R), CODE:202d(W)  
         BITS:0d                 ??         ??
                             21.6                                            XREF[8]:     CODE:12ad(W), CODE:12cd(W), 
                                                                                          FUN_CODE_12d5:12d5(R), 
                                                                                          CODE:1ec1(R), CODE:1f0d(W), 
                                                                                          CODE:1f5e(W), CODE:2017(W), 
                                                                                          CODE:2031(W)  
         BITS:0e                 ??         ??
                             21.7                                            XREF[9]:     CODE:1123(W), 
                                                                                          FUN_CODE_1127:1127(R), 
                                                                                          CODE:11c9(W), CODE:12b1(R), 
                                                                                          CODE:12d1(W), CODE:1f0f(W), 
                                                                                          CODE:1fe9(W), CODE:2022(R), 
                                                                                          CODE:2033(W)  
         BITS:0f                 ??         ??
                             22.0                                            XREF[6]:     FUN_CODE_0ea9:0ea9(R), 
                                                                                          CODE:0fa6(W), CODE:1ea5(R), 
                                                                                          CODE:1f0b(W), CODE:2025(W), 
                                                                                          CODE:202f(W)  
         BITS:10                 ??         ??
                             22.1                                            XREF[2]:     FUN_CODE_2359:235e(W), 
                                                                                          FUN_CODE_24f7:2502(R)  
         BITS:11                 ??         ??
                             22.2                                            XREF[4]:     CODE:10c2(W), CODE:11d9(W), 
                                                                                          FUN_CODE_1d2a:1d4a(R), 
                                                                                          CODE:1eca(R)  
         BITS:12                 ??         ??
                             22.3                                            XREF[9]:     FUN_CODE_083e:08c2(W), 
                                                                                          FUN_CODE_083e:0b95(W), 
                                                                                          FUN_CODE_083e:0d12(R), 
                                                                                          FUN_CODE_0d48:0d49(R), 
                                                                                          CODE:10b3(W), CODE:1287(R), 
                                                                                          CODE:1295(R), CODE:1f9d(R), 
                                                                                          CODE:1fb2(R)  
         BITS:13                 ??         ??
                             22.4                                            XREF[12]:    FUN_CODE_083e:0b68(W), 
                                                                                          FUN_CODE_083e:0b85(W), 
                                                                                          FUN_CODE_0d48:0d9e(R), 
                                                                                          CODE:11ba(R), CODE:11c7(W), 
                                                                                          CODE:1bc4(R), CODE:1bc8(W), 
                                                                                          CODE:1f78(R), CODE:1fda(R), 
                                                                                          CODE:1ff9(W), 
                                                                                          FUN_CODE_2236:224a(R), 
                                                                                          FUN_CODE_2236:224e(W)  
         BITS:14                 ??         ??
                             22.5                                            XREF[4]:     FUN_CODE_083e:0b6d(W), 
                                                                                          CODE:17b8(R), CODE:17c1(W), 
                                                                                          CODE:2012(R)  
         BITS:15                 ??         ??
                             22.6                                            XREF[3]:     FUN_CODE_083e:0b71(W), 
                                                                                          CODE:2002(R), CODE:2008(W)  
         BITS:16                 ??         ??
                             22.7                                            XREF[7]:     FUN_CODE_0756:078b(R), 
                                                                                          CODE:0f6f(W), CODE:1008(W), 
                                                                                          FUN_CODE_14c6:14c6(R), 
                                                                                          FUN_CODE_1d2a:1d2a(R), 
                                                                                          FUN_CODE_2044:2044(R), 
                                                                                          FUN_CODE_23e9:23eb(R)  
         BITS:17                 ??         ??
                             23.0                                            XREF[4]:     CODE:0f3d(W), CODE:103a(W), 
                                                                                          FUN_CODE_1d2a:1d32(R), 
                                                                                          FUN_CODE_2406:2408(R)  
         BITS:18                 ??         ??
                             23.1                                            XREF[4]:     FUN_CODE_0058:005a(R), 
                                                                                          CODE:0ef6(W), CODE:106e(W), 
                                                                                          FUN_CODE_1d2a:1d3a(R)  
         BITS:19                 ??         ??
                             23.2                                            XREF[4]:     FUN_CODE_0036:0038(R), 
                                                                                          CODE:0f4f(W), CODE:1028(W), 
                                                                                          FUN_CODE_1d2a:1d42(R)  
         BITS:1a                 ??         ??
                             23.3                                            XREF[3]:     FUN_CODE_1d2a:1d4d(W), 
                                                                                          FUN_CODE_1d2a:1d51(R), 
                                                                                          FUN_CODE_1d2a:1d59(W)  
         BITS:1b                 ??         ??
                             23.4                                            XREF[17]:    CODE:0edb(R), CODE:0f54(R), 
                                                                                          CODE:0f81(R), CODE:0ff0(W), 
                                                                                          CODE:1014(W), CODE:105a(W), 
                                                                                          CODE:1b21(W), 
                                                                                          FUN_CODE_1d2a:1d5e(W), 
                                                                                          FUN_CODE_1d2a:1d6e(W), 
                                                                                          FUN_CODE_1d2a:1d7e(W), 
                                                                                          FUN_CODE_1d2a:1d8e(W), 
                                                                                          CODE:1e9a(R), CODE:1ebb(R), 
                                                                                          CODE:1f55(R), CODE:1f68(R), 
                                                                                          CODE:2039(R), 
                                                                                          FUN_CODE_2044:206d(W)  
         BITS:1c                 ??         ??
                             23.5                                            XREF[9]:     CODE:0ede(R), CODE:0f57(R), 
                                                                                          CODE:0f84(R), 
                                                                                          FUN_CODE_14c6:1517(R), 
                                                                                          FUN_CODE_14c6:151d(W), 
                                                                                          FUN_CODE_14c6:158d(R), 
                                                                                          CODE:1ebe(R), CODE:1f58(R), 
                                                                                          CODE:1f6b(R)  
         BITS:1d                 ??         ??
                             23.6                                            XREF[5]:     FUN_CODE_083e:0d00(W), 
                                                                                          CODE:11b8(W), CODE:128a(R), 
                                                                                          CODE:1298(R), CODE:12c1(R)  
         BITS:1e                 ??         ??
                             23.7                                            XREF[4]:     FUN_CODE_080d:0833(W), 
                                                                                          FUN_CODE_1bd9:1c47(R), 
                                                                                          CODE:1e0d(W), CODE:1e8f(W)  
         BITS:1f                 ??         ??
                             24.0                                            XREF[11]:    FUN_CODE_083e:0b89(W), 
                                                                                          FUN_CODE_0d48:0da4(R), 
                                                                                          CODE:0f5c(W), CODE:0f7b(R), 
                                                                                          FUN_CODE_1bd9:1c3b(W), 
                                                                                          FUN_CODE_1bd9:1c50(W), 
                                                                                          FUN_CODE_1bd9:1c6d(W), 
                                                                                          CODE:1e1e(R), CODE:1e85(W), 
                                                                                          CODE:1ed0(R), CODE:1f7e(R)  
         BITS:20                 ??         ??
                             24.1                                            XREF[3]:     FUN_CODE_1bd9:1c64(W), 
                                                                                          CODE:1e21(R), CODE:1e87(W)  
         BITS:21                 ??         ??
                             24.2                                            XREF[2]:     FUN_CODE_1bd9:1c5b(W), 
                                                                                          CODE:1e24(R)  
         BITS:22                 ??         ??
                             24.3                                            XREF[7]:     FUN_CODE_1bd9:1c44(W), 
                                                                                          CODE:1e18(R), CODE:1e81(W), 
                                                                                          CODE:1ec7(R), CODE:1eef(W), 
                                                                                          CODE:1f93(R), CODE:1fb0(W)  
         BITS:23                 ??         ??
                             24.4                                            XREF[3]:     CODE:0eed(W), CODE:1047(W), 
                                                                                          FUN_CODE_2236:2236(R)  
         BITS:24                 ??         ??
                             24.5                                            XREF[5]:     FUN_CODE_080d:0831(W), 
                                                                                          FUN_CODE_083e:0c4f(W), 
                                                                                          CODE:1e7b(W), 
                                                                                          FUN_CODE_20db:20db(R), 
                                                                                          FUN_CODE_20db:20de(W)  
         BITS:25                 ??         ??
                             24.6                                            XREF[5]:     FUN_CODE_20db:2113(W), 
                                                                                          FUN_CODE_20db:211a(W), 
                                                                                          CODE:21c0(R), CODE:21e4(R), 
                                                                                          CODE:21e7(W)  
         BITS:26                 ??         ??
                             24.7                                            XREF[6]:     CODE:21dd(W), CODE:21ee(R), 
                                                                                          CODE:21f6(W), CODE:2216(W), 
                                                                                          CODE:221e(R), CODE:2226(W)  
         BITS:27                 ??         ??
                             25.0                                            XREF[6]:     CODE:1ee7(R), CODE:1f01(R), 
                                                                                          CODE:1fd1(R), 
                                                                                          FUN_CODE_20db:210c(W), 
                                                                                          CODE:21f4(W), CODE:2224(W)  
         BITS:28                 ??         ??
                             25.1                                            XREF[4]:     FUN_CODE_083e:0c52(W), 
                                                                                          CODE:10b5(W), CODE:11bd(W), 
                                                                                          FUN_CODE_2236:224c(R)  
         BITS:29                 ??         ??
                             25.2                                            XREF[5]:     CODE:0f87(W), CODE:10ca(W), 
                                                                                          CODE:1121(W), CODE:117f(W), 
                                                                                          CODE:1a60(R)  
         BITS:2a                 ??         ??
                             25.3                                            XREF[4]:     CODE:1113(R), CODE:1118(R), 
                                                                                          CODE:1a5e(W), CODE:1ae1(W)  
         BITS:2b                 ??         ??
                             25.4                                            XREF[3]:     FUN_CODE_083e:0a7c(W), 
                                                                                          CODE:1a65(R), CODE:1afa(W)  
         BITS:2c                 ??         ??
                             25.5                                            XREF[4]:     CODE:1183(W), CODE:118f(R), 
                                                                                          CODE:1a73(R), CODE:1b1c(W)  
         BITS:2d                 ??         ??
                             25.6                                            XREF[3]:     CODE:1001(W), CODE:1a82(R), 
                                                                                          CODE:1b65(W)  
         BITS:2e                 ??         ??
                             25.7                                            XREF[3]:     CODE:0f71(W), CODE:1a91(R), 
                                                                                          CODE:1b71(W)  
         BITS:2f                 ??         ??
                             26.0                                            XREF[4]:     CODE:134b(W), CODE:135c(R), 
                                                                                          CODE:1aa3(R), CODE:1b8f(W)  
         BITS:30                 ??         ??
                             26.1                                            XREF[4]:     CODE:147c(W), CODE:14a9(R), 
                                                                                          CODE:1ab2(R), CODE:1ba9(W)  
         BITS:31                 ??         ??
                             26.2                                            XREF[3]:     CODE:1ac1(R), CODE:1b7a(W), 
                                                                                          FUN_CODE_2044:2050(W)  
         BITS:32                 ??         ??
                             26.3                                            XREF[18]:    FUN_CODE_083e:0cfe(W), 
                                                                                          CODE:0ffd(W), CODE:1021(W), 
                                                                                          CODE:1067(W), CODE:11f0(W), 
                                                                                          CODE:121b(W), CODE:1270(W), 
                                                                                          CODE:12a9(W), 
                                                                                          FUN_CODE_14c6:1528(W), 
                                                                                          CODE:1ad3(R), CODE:1b2e(W), 
                                                                                          CODE:1b86(W), CODE:1d09(W), 
                                                                                          FUN_CODE_1d2a:1d6b(W), 
                                                                                          FUN_CODE_1d2a:1d7b(W), 
                                                                                          FUN_CODE_1d2a:1d8b(W), 
                                                                                          FUN_CODE_1d2a:1d9b(W), 
                                                                                          FUN_CODE_2044:207a(W)  
         BITS:33                 ??         ??
                             26.4                                            XREF[6]:     FUN_CODE_0756:07a2(W), 
                                                                                          FUN_CODE_083e:09a8(W), 
                                                                                          FUN_CODE_083e:09bb(W), 
                                                                                          FUN_CODE_083e:09c8(R), 
                                                                                          CODE:1aa0(R), CODE:1ad0(R)  
         BITS:34                 ??         ??
                             26.5                                            XREF[6]:     FUN_CODE_083e:089a(W), 
                                                                                          CODE:1db6(R), CODE:1dbe(R), 
                                                                                          CODE:1dcc(W), CODE:22b6(W), 
                                                                                          CODE:22ba(R)  
         BITS:35                 ??         ??
                             26.6                                            XREF[5]:     FUN_CODE_083e:0a7e(W), 
                                                                                          CODE:1afc(W), CODE:1db9(W), 
                                                                                          CODE:1dc1(R), CODE:1dc6(R)  
         BITS:36                 ??         ??
                             26.7                                            XREF[5]:     FUN_CODE_0d48:0d50(W), 
                                                                                          FUN_CODE_0d48:0d68(R), 
                                                                                          FUN_CODE_0d48:0dfd(W), 
                                                                                          CODE:1362(W), CODE:1f1c(W)  
         BITS:37                 ??         ??
                             27.0                                            XREF[4]:     FUN_CODE_0d48:0d52(W), 
                                                                                          FUN_CODE_0d48:0d6e(R), 
                                                                                          FUN_CODE_0d48:0e11(W), 
                                                                                          CODE:187d(W)  
         BITS:38                 ??         ??
                             27.1                                            XREF[5]:     FUN_CODE_0d48:0d54(W), 
                                                                                          FUN_CODE_0d48:0d74(R), 
                                                                                          FUN_CODE_0d48:0e20(W), 
                                                                                          FUN_CODE_209c:20a6(W), 
                                                                                          FUN_CODE_20b6:20c0(W)  
         BITS:39                 ??         ??
                             27.2                                            XREF[4]:     FUN_CODE_0d48:0d4c(W), 
                                                                                          FUN_CODE_0d48:0d5d(R), 
                                                                                          FUN_CODE_0d48:0d9c(W), 
                                                                                          CODE:1fa0(W)  
         BITS:3a                 ??         ??
                             27.3                                            XREF[5]:     FUN_CODE_083e:0cc3(R), 
                                                                                          FUN_CODE_0d48:0d56(W), 
                                                                                          FUN_CODE_0d48:0d7a(R), 
                                                                                          FUN_CODE_0d48:0e3b(W), 
                                                                                          CODE:19a3(W)  
         BITS:3b                 ??         ??
                             27.4                                            XREF[5]:     FUN_CODE_0d48:0d58(W), 
                                                                                          FUN_CODE_0d48:0d80(R), 
                                                                                          FUN_CODE_0d48:0e5b(W), 
                                                                                          CODE:1bbf(W), 
                                                                                          FUN_CODE_1bd9:1c85(W)  
         BITS:3c                 ??         ??
                             27.5                                            XREF[4]:     FUN_CODE_0d48:0d4e(W), 
                                                                                          FUN_CODE_0d48:0d62(R), 
                                                                                          FUN_CODE_0d48:0def(W), 
                                                                                          CODE:1fba(W)  
         BITS:3d                 ??         ??
                             27.6                                            XREF[7]:     FUN_CODE_083e:0c35(W), 
                                                                                          FUN_CODE_083e:0c45(W), 
                                                                                          FUN_CODE_0d48:0d5a(W), 
                                                                                          FUN_CODE_0d48:0d86(R), 
                                                                                          FUN_CODE_0d48:0e9a(W), 
                                                                                          CODE:1f1e(W), 
                                                                                          FUN_CODE_2277:2277(W)  
         BITS:3e                 ??         ??
                             27.7                                            XREF[3]:     CODE:0f89(W), CODE:1181(W), 
                                                                                          CODE:1803(R)  
         BITS:3f                 ??         ??
                             28.0                                            XREF[4]:     CODE:0f9e(R), CODE:0fa3(R), 
                                                                                          CODE:1801(W), CODE:1844(W)  
         BITS:40                 ??         ??
                             28.1                                            XREF[3]:     CODE:13c0(W), CODE:1831(R), 
                                                                                          CODE:186e(W)  
         BITS:41                 ??         ??
                             28.2                                            XREF[3]:     CODE:1764(W), CODE:1806(R), 
                                                                                          FUN_CODE_19f3:1a06(W)  
         BITS:42                 ??         ??
                             28.3                                            XREF[7]:     CODE:1185(W), CODE:1364(W), 
                                                                                          CODE:1774(W), CODE:1811(R), 
                                                                                          FUN_CODE_19f3:1a14(W), 
                                                                                          FUN_CODE_209c:20a8(W), 
                                                                                          FUN_CODE_20b6:20c2(W)  
         BITS:43                 ??         ??
                             28.4                                            XREF[4]:     CODE:1189(W), CODE:1192(R), 
                                                                                          CODE:180c(R), CODE:19ae(W)  
         BITS:44                 ??         ??
                             28.5                                            XREF[6]:     FUN_CODE_083e:0bb8(W), 
                                                                                          FUN_CODE_083e:0bf1(W), 
                                                                                          FUN_CODE_083e:0cbd(W), 
                                                                                          CODE:17e0(W), CODE:1836(R), 
                                                                                          CODE:1e76(W)  
         BITS:45                 ??         ??
                             28.6                                            XREF[17]:    FUN_CODE_083e:0cfc(W), 
                                                                                          CODE:0ffb(W), CODE:101f(W), 
                                                                                          CODE:1065(W), CODE:11ee(W), 
                                                                                          CODE:1219(W), CODE:126e(W), 
                                                                                          CODE:12a7(W), 
                                                                                          FUN_CODE_14c6:1526(W), 
                                                                                          CODE:1822(R), CODE:1849(W), 
                                                                                          CODE:1b2c(W), 
                                                                                          FUN_CODE_1d2a:1d69(W), 
                                                                                          FUN_CODE_1d2a:1d79(W), 
                                                                                          FUN_CODE_1d2a:1d89(W), 
                                                                                          FUN_CODE_1d2a:1d99(W), 
                                                                                          FUN_CODE_2044:2078(W)  
         BITS:46                 ??         ??
                             28.7                                            XREF[10]:    FUN_CODE_083e:0c77(W), 
                                                                                          CODE:118b(W), CODE:17ae(W), 
                                                                                          CODE:181c(R), 
                                                                                          FUN_CODE_19f3:1a10(W), 
                                                                                          CODE:1e96(W), CODE:1fe2(W), 
                                                                                          CODE:200e(W), 
                                                                                          FUN_CODE_2277:228b(W), 
                                                                                          FUN_CODE_2277:2296(W)  
         BITS:47                 ??         ??
                             29.0                                            XREF[11]:    FUN_CODE_083e:0c96(W), 
                                                                                          FUN_CODE_083e:0d19(W), 
                                                                                          CODE:12cb(W), CODE:1366(W), 
                                                                                          CODE:182c(R), CODE:18ec(W), 
                                                                                          CODE:18f5(W), CODE:1d07(W), 
                                                                                          CODE:1e98(W), CODE:2010(W), 
                                                                                          CODE:2040(W)  
         BITS:48                 ??         ??
                             29.1                                            XREF[3]:     CODE:1827(R), CODE:1861(W), 
                                                                                          FUN_CODE_1d2a:1d5b(W)  
         BITS:49                 ??         ??
                             29.2                                            XREF[4]:     CODE:1187(W), CODE:17bf(W), 
                                                                                          CODE:1817(R), CODE:2015(W)  
         BITS:4a                 ??         ??
                             29.3                                            XREF[4]:     FUN_CODE_083e:0cc0(R), 
                                                                                          FUN_CODE_083e:0cdc(W), 
                                                                                          CODE:183f(R), CODE:19a5(W)  
         BITS:4b                 ??         ??
                             29.4                                            XREF[3]:     FUN_CODE_19f3:1a0a(W), 
                                                                                          CODE:1e2a(R), CODE:1e8d(W)  
         BITS:4c                 ??         ??
                             29.5                                            XREF[3]:     FUN_CODE_083e:0c05(W), 
                                                                                          FUN_CODE_14c6:158a(R), 
                                                                                          FUN_CODE_2044:2047(R)  
         BITS:4d                 ??         ??
                             29.6                                            XREF[3]:     FUN_CODE_083e:0c00(W), 
                                                                                          FUN_CODE_15c1:15c3(R), 
                                                                                          CODE:2000(W)  
         BITS:4e                 ??         ??
                             29.7                                            XREF[3]:     CODE:0f60(R), 
                                                                                          FUN_CODE_14c6:14dc(W), 
                                                                                          FUN_CODE_14c6:14f0(W)  
         BITS:4f                 ??         ??
                             2a.0                                            XREF[4]:     CODE:0f66(R), 
                                                                                          FUN_CODE_14c6:14f2(W), 
                                                                                          FUN_CODE_14c6:1515(W), 
                                                                                          FUN_CODE_14c6:151a(R)  
         BITS:50                 ??         ??
                             2a.1                                            XREF[3]:     FUN_CODE_2044:2052(R), 
                                                                                          FUN_CODE_2044:205e(W), 
                                                                                          CODE:2842(W)  
         BITS:51                 ??         ??
                             2a.2                                            XREF[3]:     FUN_CODE_2044:2055(R), 
                                                                                          FUN_CODE_2044:2060(W), 
                                                                                          CODE:2819(W)  
         BITS:52                 ??         ??
                             2a.3                                            XREF[3]:     FUN_CODE_2044:2058(R), 
                                                                                          FUN_CODE_2044:2062(W), 
                                                                                          CODE:27f5(W)  
         BITS:53                 ??         ??
                             2a.4                                            XREF[3]:     FUN_CODE_2044:205b(R), 
                                                                                          FUN_CODE_2044:2064(W), 
                                                                                          CODE:286b(W)  
         BITS:54                 ??         ??
                             2a.5                                            XREF[4]:     FUN_CODE_083e:0ca6(W), 
                                                                                          FUN_CODE_083e:0ca9(W), 
                                                                                          CODE:10b7(W), CODE:1332(R)  
         BITS:55                 ??         ??
                             2a.6                                            XREF[2]:     CODE:1bb5(R), CODE:28d3(W)  
         BITS:56                 ??         ??
                             2a.7                                            XREF[8]:     FUN_CODE_083e:0bb6(W), 
                                                                                          FUN_CODE_083e:0be1(W), 
                                                                                          FUN_CODE_083e:0bef(W), 
                                                                                          CODE:17d5(R), CODE:19b5(W), 
                                                                                          CODE:1e74(W), CODE:1fee(W), 
                                                                                          FUN_CODE_2d27:2d2b(R)  
         BITS:57                 ??         ??
                             2b.0                                            XREF[5]:     FUN_CODE_083e:08cf(R), 
                                                                                          FUN_CODE_083e:0bdf(W), 
                                                                                          CODE:17d8(R), CODE:1e32(R), 
                                                                                          CODE:1f84(R)  
         BITS:58                 ??         ??
                             2b.1                                            XREF[3]:     FUN_CODE_083e:08a0(R), 
                                                                                          FUN_CODE_24f7:24f7(W), 
                                                                                          FUN_CODE_24f7:2505(W)  
         BITS:59                 ??         ??
                             2b.2
         BITS:5a                 ??         ??
                             2b.3                                            XREF[3]:     FUN_CODE_013a:014a(R), 
                                                                                          FUN_CODE_23d2:23d2(W), 
                                                                                          FUN_CODE_23d5:23d5(W)  
         BITS:5b                 ??         ??
                             2b.4                                            XREF[8]:     CODE:01e0(R), CODE:029c(R), 
                                                                                          CODE:2721(W), CODE:2744(W), 
                                                                                          CODE:2772(W), CODE:27a0(W), 
                                                                                          CODE:27ea(W), CODE:2924(W)  
         BITS:5c                 ??         ??
                             2b.5                                            XREF[7]:     CODE:01a6(R), CODE:26e0(W), 
                                                                                          CODE:2728(W), CODE:274b(W), 
                                                                                          CODE:277e(W), CODE:27d5(W), 
                                                                                          CODE:2903(W)  
         BITS:5d                 ??         ??
                             2b.6                                            XREF[10]:    CODE:01a9(R), CODE:01f6(R), 
                                                                                          CODE:0207(R), CODE:0258(W), 
                                                                                          CODE:26e8(W), CODE:2730(W), 
                                                                                          CODE:2750(W), CODE:2786(W), 
                                                                                          CODE:27e0(W), CODE:290e(W)  
         BITS:5e                 ??         ??
                             2b.7                                            XREF[8]:     CODE:01f9(R), CODE:025a(R), 
                                                                                          CODE:26ea(W), CODE:2732(W), 
                                                                                          CODE:2752(W), CODE:2788(W), 
                                                                                          CODE:27e2(W), CODE:2919(W)  
         BITS:5f                 ??         ??
                             2c.0                                            XREF[3]:     CODE:0216(W), 
                                                                                          FUN_CODE_2679:2679(R), 
                                                                                          FUN_CODE_269e:26a0(W)  
         BITS:60                 ??         ??
                             2c.1                                            XREF[6]:     CODE:01fc(W), CODE:025d(W), 
                                                                                          CODE:0287(W), 
                                                                                          FUN_CODE_2679:268a(R), 
                                                                                          FUN_CODE_2679:269a(W), 
                                                                                          FUN_CODE_269e:269e(W)  
         BITS:61                 ??         ??
                             2c.2                                            XREF[6]:     FUN_CODE_02fe:031b(R), 
                                                                                          FUN_CODE_02fe:03d1(W), 
                                                                                          FUN_CODE_239e:239e(W), 
                                                                                          FUN_CODE_2b34:2b34(R), 
                                                                                          FUN_CODE_2b34:2b4f(W), 
                                                                                          FUN_CODE_2b34:2b52(W)  
         BITS:62                 ??         ??
                             2c.3                                            XREF[6]:     CODE:050a(R), CODE:05ae(W), 
                                                                                          CODE:05c4(W), 
                                                                                          FUN_CODE_239e:23a8(W), 
                                                                                          FUN_CODE_2a7b:2a7d(R), 
                                                                                          FUN_CODE_2a7b:2a82(W)  
         BITS:63                 ??         ??
                             2c.4                                            XREF[16]:    CODE:04ec(W), CODE:04fb(W), 
                                                                                          CODE:0530(R), CODE:053f(W), 
                                                                                          CODE:0550(W), CODE:056b(W), 
                                                                                          CODE:05a1(W), CODE:05b8(W), 
                                                                                          CODE:05c0(W), CODE:05dc(W), 
                                                                                          CODE:0607(W), CODE:0627(W), 
                                                                                          FUN_CODE_239e:23a6(W), 
                                                                                          FUN_CODE_2a85:2aa4(W), 
                                                                                          FUN_CODE_2a85:2aab(W), 
                                                                                          FUN_CODE_2aae:2aaf(R)  
         BITS:64                 ??         ??
                             2c.5                                            XREF[5]:     CODE:0552(W), CODE:05ba(W), 
                                                                                          CODE:0629(W), 
                                                                                          FUN_CODE_2a85:2a97(W), 
                                                                                          FUN_CODE_2aae:2ab2(R)  
         BITS:65                 ??         ??
                             2c.6                                            XREF[3]:     CODE:061d(R), 
                                                                                          FUN_CODE_2a85:2a93(W), 
                                                                                          FUN_CODE_2a85:2aa9(W)  
         BITS:66                 ??         ??
                             2c.7                                            XREF[4]:     CODE:04e9(R), CODE:0539(R), 
                                                                                          FUN_CODE_2a85:2a95(W), 
                                                                                          FUN_CODE_2a85:2aa7(W)  
         BITS:67                 ??         ??
                             2d.0                                            XREF[12]:    CODE:04ca(W), CODE:04e6(R), 
                                                                                          CODE:04ee(W), CODE:0529(R), 
                                                                                          CODE:0568(R), CODE:059e(R), 
                                                                                          CODE:05a8(R), CODE:05bc(W), 
                                                                                          CODE:05c2(W), CODE:061a(R), 
                                                                                          CODE:0620(W), CODE:062b(W)  
         BITS:68                 ??         ??
                             2d.1                                            XREF[7]:     CODE:0543(W), CODE:054a(W), 
                                                                                          CODE:05ab(R), CODE:05b2(R), 
                                                                                          CODE:05d2(W), CODE:05f2(R), 
                                                                                          CODE:05fd(W)  
         BITS:69                 ??         ??
                             2d.2                                            XREF[4]:     CODE:055e(W), CODE:05ea(W), 
                                                                                          CODE:05f6(W), CODE:060b(R)  
         BITS:6a                 ??         ??
                             2d.3                                            XREF[4]:     FUN_CODE_0648:065c(W), 
                                                                                          FUN_CODE_0648:0663(R), 
                                                                                          FUN_CODE_0648:0669(W), 
                                                                                          FUN_CODE_239e:23bf(W)  
         BITS:6b                 ??         ??
                             2d.4                                            XREF[4]:     FUN_CODE_0648:06b4(W), 
                                                                                          FUN_CODE_0648:06bb(R), 
                                                                                          FUN_CODE_0648:06c1(W), 
                                                                                          FUN_CODE_239e:23c1(W)  
         BITS:6c                 ??         ??
                             2d.5                                            XREF[4]:     FUN_CODE_0648:070c(W), 
                                                                                          FUN_CODE_0648:0713(R), 
                                                                                          FUN_CODE_0648:0719(W), 
                                                                                          FUN_CODE_239e:23c3(W)  
         BITS:6d                 ??         ??
                             2d.6                                            XREF[3]:     FUN_CODE_0648:066f(W), 
                                                                                          FUN_CODE_0648:0675(R), 
                                                                                          FUN_CODE_0648:0690(RW)  
         BITS:6e                 ??         ??
                             2d.7                                            XREF[3]:     FUN_CODE_0648:06c7(W), 
                                                                                          FUN_CODE_0648:06cd(R), 
                                                                                          FUN_CODE_0648:06e8(RW)  
         BITS:6f                 ??         ??
                             2e.0                                            XREF[3]:     FUN_CODE_0648:071f(W), 
                                                                                          FUN_CODE_0648:0725(R), 
                                                                                          FUN_CODE_0648:0740(RW)  
         BITS:70                 ??         ??
                             2e.1                                            XREF[4]:     FUN_CODE_0648:066b(W), 
                                                                                          FUN_CODE_0648:0678(R), 
                                                                                          FUN_CODE_0648:067e(W), 
                                                                                          FUN_CODE_0648:0692(W)  
         BITS:71                 ??         ??
                             2e.2                                            XREF[4]:     FUN_CODE_0648:06c3(W), 
                                                                                          FUN_CODE_0648:06d0(R), 
                                                                                          FUN_CODE_0648:06d6(W), 
                                                                                          FUN_CODE_0648:06ea(W)  
         BITS:72                 ??         ??
                             2e.3                                            XREF[4]:     FUN_CODE_0648:071b(W), 
                                                                                          FUN_CODE_0648:0728(R), 
                                                                                          FUN_CODE_0648:072e(W), 
                                                                                          FUN_CODE_0648:0742(W)  
         BITS:73                 ??         ??
                             2e.4                                            XREF[3]:     FUN_CODE_0648:0680(W), 
                                                                                          FUN_CODE_0648:0687(R), 
                                                                                          FUN_CODE_0648:06a0(W)  
         BITS:74                 ??         ??
                             2e.5                                            XREF[3]:     FUN_CODE_0648:06d8(W), 
                                                                                          FUN_CODE_0648:06df(R), 
                                                                                          FUN_CODE_0648:06f8(W)  
         BITS:75                 ??         ??
                             2e.6                                            XREF[3]:     FUN_CODE_0648:0730(W), 
                                                                                          FUN_CODE_0648:0737(R), 
                                                                                          FUN_CODE_0648:0750(W)  
         BITS:76                 ??         ??
                             2e.7                                            XREF[4]:     CODE:2770(W), CODE:279e(W), 
                                                                                          CODE:27a7(R), CODE:27d3(W)  
         BITS:77                 ??         ??
                             2f.0
         BITS:78                 ??         ??
                             2f.1
         BITS:79                 ??         ??
                             2f.2
         BITS:7a                 ??         ??
                             2f.3
         BITS:7b                 ??         ??
                             2f.4
         BITS:7c                 ??         ??
                             2f.5
         BITS:7d                 ??         ??
                             2f.6
         BITS:7e                 ??         ??
                             2f.7
         BITS:7f                 ??         ??
                             //
                             // SFR-BITS (bitmap[0x0, 0x80, SFR:80])
                             // BITS:80-BITS:ff
                             //
                             P0.0                                            XREF[2]:     FUN_CODE_0063:0063(W), 
                                                                                          FUN_CODE_0066:0066(W)  
         BITS:80                 ??         ??
                             P0.1                                            XREF[2]:     FUN_CODE_0041:0041(W), 
                                                                                          FUN_CODE_0044:004c(W)  
         BITS:81                 ??         ??
                             P0.2                                            XREF[9]:     CODE:04cc(W), CODE:04e1(R), 
                                                                                          CODE:04ff(R), CODE:0511(W), 
                                                                                          CODE:0526(R), CODE:0562(R), 
                                                                                          CODE:0598(R), CODE:05d6(R), 
                                                                                          CODE:0601(R)  
         BITS:82                 ??         ??
                             P0.3                                            XREF[8]:     CODE:04ce(W), CODE:0502(R), 
                                                                                          CODE:0513(W), CODE:055c(W), 
                                                                                          CODE:05cd(R), CODE:05e8(W), 
                                                                                          CODE:05f4(W), CODE:060e(R)  
         BITS:83                 ??         ??
                             P0.4                                            XREF[2]:     FUN_CODE_00c4:00c4(W), 
                                                                                          FUN_CODE_00c7:00c7(W)  
         BITS:84                 ??         ??
                             P0.5                                            XREF[2]:     FUN_CODE_0096:0096(W), 
                                                                                          FUN_CODE_0099:0099(W)  
         BITS:85                 ??         ??
                             P0.6                                            XREF[2]:     FUN_CODE_0069:0069(W), 
                                                                                          FUN_CODE_006c:0075(W)  
         BITS:86                 ??         ??
                             P0.7                                            XREF[1]:     FUN_CODE_004f:004f(R)  
         BITS:87                 ??         ??
                             IT0
         BITS:88                 ??         ??
                             IE0
         BITS:89                 ??         ??
                             IT1                                             XREF[1]:     CODE:018d(W)  
         BITS:8a                 ??         ??
                             IE1
         BITS:8b                 ??         ??
                             TR0
         BITS:8c                 ??         ??
                             TF0
         BITS:8d                 ??         ??
                             TR1
         BITS:8e                 ??         ??
                             TF1
         BITS:8f                 ??         ??
                             P1.0                                            XREF[1]:     FUN_CODE_25f4:25f4(R)  
         BITS:90                 ??         ??
                             P1.1                                            XREF[1]:     FUN_CODE_25fc:2602(R)  
         BITS:91                 ??         ??
                             P1.2                                            XREF[1]:     FUN_CODE_25f8:25f8(R)  
         BITS:92                 ??         ??
                             P1.3                                            XREF[2]:     FUN_CODE_2400:2400(W), 
                                                                                          FUN_CODE_2403:2403(W)  
         BITS:93                 ??         ??
                             P1.4                                            XREF[2]:     FUN_CODE_23fa:23fa(W), 
                                                                                          FUN_CODE_23fd:23fd(W)  
         BITS:94                 ??         ??
                             P1.5                                            XREF[2]:     FUN_CODE_23f4:23f4(W), 
                                                                                          FUN_CODE_23f7:23f7(W)  
         BITS:95                 ??         ??
                             P1.6                                            XREF[1]:     FUN_CODE_0058:0058(R)  
         BITS:96                 ??         ??
                             P1.7                                            XREF[2]:     FUN_CODE_0052:0052(W), 
                                                                                          FUN_CODE_0055:0055(W)  
         BITS:97                 ??         ??
                             RI
         BITS:98                 ??         ??
                             TI
         BITS:99                 ??         ??
                             RB8                                             XREF[1]:     CODE:27d1(W)  
         BITS:9a                 ??         ??
                             TB8
         BITS:9b                 ??         ??
                             REN
         BITS:9c                 ??         ??
                             SM2
         BITS:9d                 ??         ??
                             SM1
         BITS:9e                 ??         ??
                             SM0                                             XREF[1]:     CODE:27bf(R)  
         BITS:9f                 ??         ??
                             P2.0                                            XREF[2]:     FUN_CODE_00d7:00d7(W), 
                                                                                          FUN_CODE_00da:00da(W)  
         BITS:a0                 ??         ??
                             P2.1                                            XREF[2]:     FUN_CODE_23e3:23e3(W), 
                                                                                          FUN_CODE_23e6:23e6(W)  
         BITS:a1                 ??         ??
                             P2.2                                            XREF[2]:     FUN_CODE_0030:0030(W), 
                                                                                          FUN_CODE_0033:0033(W)  
         BITS:a2                 ??         ??
                             P2.3                                            XREF[2]:     FUN_CODE_00dd:00dd(W), 
                                                                                          FUN_CODE_00e0:00e0(W)  
         BITS:a3                 ??         ??
                             P2.4                                            XREF[1]:     FUN_CODE_0036:0036(R)  
         BITS:a4                 ??         ??
                             P2.5                                            XREF[1]:     FUN_CODE_23e9:23e9(R)  
         BITS:a5                 ??         ??
                             P2.6                                            XREF[2]:     FUN_CODE_2411:2411(W), 
                                                                                          FUN_CODE_2414:2414(W)  
         BITS:a6                 ??         ??
                             P2.7                                            XREF[1]:     FUN_CODE_25f0:25f0(R)  
         BITS:a7                 ??         ??
                             EX0                                             XREF[2]:     FUN_CODE_25fc:25fc(R), 
                                                                                          FUN_CODE_25fc:25fe(W)  
         BITS:a8                 ??         ??
                             ET0                                             XREF[2]:     FUN_CODE_23e9:23ee(W), 
                                                                                          FUN_CODE_23e9:23f1(R)  
         BITS:a9                 ??         ??
                             EX1                                             XREF[2]:     FUN_CODE_2406:240b(W), 
                                                                                          FUN_CODE_2406:240e(R)  
         BITS:aa                 ??         ??
                             ET1                                             XREF[2]:     FUN_CODE_0058:005d(W), 
                                                                                          FUN_CODE_0058:0060(R)  
         BITS:ab                 ??         ??
                             ES                                              XREF[2]:     FUN_CODE_0036:003b(W), 
                                                                                          FUN_CODE_0036:003e(R)  
         BITS:ac                 ??         ??
                             ET2
         BITS:ad                 ??         ??
                             EC
         BITS:ae                 ??         ??
                             EA
         BITS:af                 ??         ??
                             RXD
         BITS:b0                 ??         ??
                             TXD
         BITS:b1                 ??         ??
                             INT0
         BITS:b2                 ??         ??
                             INT1
         BITS:b3                 ??         ??
                             T0
         BITS:b4                 ??         ??
                             T1
         BITS:b5                 ??         ??
                             WR
         BITS:b6                 ??         ??
                             RD
         BITS:b7                 ??         ??
                             PX0
         BITS:b8                 ??         ??
                             PT0
         BITS:b9                 ??         ??
                             PX1
         BITS:ba                 ??         ??
                             PT1
         BITS:bb                 ??         ??
                             PS
         BITS:bc                 ??         ??
                             PT2
         BITS:bd                 ??         ??
                             PC                                              XREF[2]:     FUN_CODE_009c:009c(W), 
                                                                                          CODE:00c1(W)  
         BITS:be                 ??         ??
                             IP.7                                            XREF[1]:     FUN_CODE_013a:0148(W)  
         BITS:bf                 ??         ??
                             FIFLG.0                                         XREF[3]:     FUN_CODE_2359:235c(R), 
                                                                                          FUN_CODE_242e:242e(W), 
                                                                                          FUN_CODE_2431:2431(W)  
         BITS:c0                 ??         ??
                             FIFLG.1                                         XREF[1]:     FUN_CODE_2406:2406(R)  
         BITS:c1                 ??         ??
                             FIFLG.2                                         XREF[1]:     FUN_CODE_2606:2607(R)  
         BITS:c2                 ??         ??
                             FIFLG.3                                         XREF[4]:     FUN_CODE_0044:0044(W), 
                                                                                          FUN_CODE_0044:0046(W), 
                                                                                          FUN_CODE_0044:0048(W), 
                                                                                          FUN_CODE_0044:004a(W)  
         BITS:c3                 ??         ??
                             FIFLG.4                                         XREF[1]:     FUN_CODE_2606:2617(R)  
         BITS:c4                 ??         ??
                             FIFLG.5                                         XREF[1]:     FUN_CODE_2606:2613(R)  
         BITS:c5                 ??         ??
                             FIFLG.6                                         XREF[1]:     FUN_CODE_2606:260f(R)  
         BITS:c6                 ??         ??
                             FIFLG.7                                         XREF[1]:     FUN_CODE_2606:260b(R)  
         BITS:c7                 ??         ??
                             CPRL2                                           XREF[3]:     FUN_CODE_02ad:02bf(W), 
                                                                                          FUN_CODE_2a62:2a65(W), 
                                                                                          FUN_CODE_2a62:2a6a(W)  
         BITS:c8                 ??         ??
                             CT2                                             XREF[4]:     FUN_CODE_02ad:02c1(W), 
                                                                                          CODE:26c7(W), CODE:26cc(W), 
                                                                                          FUN_CODE_2a48:2a48(R)  
         BITS:c9                 ??         ??
                             TR2                                             XREF[1]:     FUN_CODE_0093:0093(R)  
         BITS:ca                 ??         ??
                             EXEN2                                           XREF[1]:     FUN_CODE_2606:261b(R)  
         BITS:cb                 ??         ??
                             TCLK                                            XREF[2]:     FUN_CODE_25e4:25e4(W), 
                                                                                          FUN_CODE_25e7:25e7(W)  
         BITS:cc                 ??         ??
                             RCLK                                            XREF[2]:     FUN_CODE_013a:0151(R), 
                                                                                          FUN_CODE_2624:2626(R)  
         BITS:cd                 ??         ??
                             EXF2                                            XREF[1]:     FUN_CODE_00e3:00e8(R)  
         BITS:ce                 ??         ??
                             TF2                                             XREF[4]:     FUN_CODE_00e3:00e4(R), 
                                                                                          FUN_CODE_00eb:00eb(W), 
                                                                                          FUN_CODE_00ee:00ee(W), 
                                                                                          FUN_CODE_00f1:00f1(RW)  
         BITS:cf                 ??         ??
                             P                                               XREF[13]:    FUN_CODE_0078:007c(R), 
                                                                                          FUN_CODE_02fe:0472(R), 
                                                                                          FUN_CODE_0648:067b(R), 
                                                                                          FUN_CODE_0648:068a(R), 
                                                                                          FUN_CODE_0648:0696(R), 
                                                                                          FUN_CODE_0648:06d3(R), 
                                                                                          FUN_CODE_0648:06e2(R), 
                                                                                          FUN_CODE_0648:06ee(R), 
                                                                                          FUN_CODE_0648:072b(R), 
                                                                                          FUN_CODE_0648:073a(R), 
                                                                                          FUN_CODE_0648:0746(R), 
                                                                                          CODE:1cdd(R), 
                                                                                          FUN_CODE_2417:241b(R)  
         BITS:d0                 ??         ??
                             UD                                              XREF[20]:    CODE:143c(W), CODE:1445(W), 
                                                                                          CODE:1447(RW), CODE:1452(W), 
                                                                                          CODE:145b(W), CODE:145d(RW), 
                                                                                          CODE:145f(R), CODE:1464(W), 
                                                                                          CODE:146d(W), CODE:146f(RW), 
                                                                                          CODE:1482(W), CODE:148b(W), 
                                                                                          CODE:148d(RW), CODE:148f(R), 
                                                                                          CODE:1494(W), CODE:149d(W), 
                                                                                          CODE:149f(RW), 
                                                                                          FUN_CODE_1632:165b(W), 
                                                                                          FUN_CODE_166a:166d(R), 
                                                                                          FUN_CODE_166a:16b4(R)  
         BITS:d1                 ??         ??
                             OV                                              XREF[2]:     FUN_CODE_166a:1710(R), 
                                                                                          FUN_CODE_1732:1739(R)  
         BITS:d2                 ??         ??
                             RS0                                             XREF[7]:     FUN_CODE_013a:0141(W), 
                                                                                          FUN_CODE_013a:0159(W), 
                                                                                          FUN_CODE_0163:016a(W), 
                                                                                          CODE:0195(W), 
                                                                                          FUN_CODE_02fe:02f4(W), 
                                                                                          FUN_CODE_02fe:0305(W), 
                                                                                          FUN_CODE_22d1:22d1(W)  
         BITS:d3                 ??         ??
                             RS1                                             XREF[1]:     FUN_CODE_22d1:22d3(W)  
         BITS:d4                 ??         ??
                             F0                                              XREF[70]:    FUN_CODE_083e:0970(W), 
                                                                                          FUN_CODE_083e:0980(W), 
                                                                                          FUN_CODE_083e:099f(R), 
                                                                                          FUN_CODE_15c1:15e3(W), 
                                                                                          FUN_CODE_15c1:15f2(R), 
                                                                                          FUN_CODE_1632:1644(W), 
                                                                                          FUN_CODE_166a:16d0(R), 
                                                                                          FUN_CODE_1bd9:1bf4(W), 
                                                                                          FUN_CODE_1bd9:1c05(W), 
                                                                                          FUN_CODE_1bd9:1c21(W), 
                                                                                          FUN_CODE_1bd9:1c26(RW), 
                                                                                          FUN_CODE_1bd9:1c28(R), 
                                                                                          FUN_CODE_1bd9:1c30(R), 
                                                                                          FUN_CODE_1bd9:1c38(R), 
                                                                                          FUN_CODE_1bd9:1c41(R), 
                                                                                          FUN_CODE_1bd9:1c4d(R), 
                                                                                          FUN_CODE_1bd9:1c58(R), 
                                                                                          FUN_CODE_1bd9:1c61(R), 
                                                                                          FUN_CODE_1bd9:1c6a(R), 
                                                                                          FUN_CODE_2b34:2b3f(W), [more]
         BITS:d5                 ??         ??
                             AC
         BITS:d6                 ??         ??
                             C
         BITS:d7                 ??         ??
                             CCF.0                                           XREF[2]:     CODE:028b(W), CODE:0293(W)  
         BITS:d8                 ??         ??
                             CCF.1                                           XREF[16]:    CODE:019f(W), CODE:01bd(R), 
                                                                                          CODE:01c8(W), CODE:01d2(R), 
                                                                                          CODE:01ef(W), CODE:0202(W), 
                                                                                          CODE:0211(W), CODE:022b(R), 
                                                                                          CODE:0236(W), CODE:0240(R), 
                                                                                          CODE:0251(W), CODE:0263(R), 
                                                                                          CODE:026e(W), CODE:0278(R), 
                                                                                          CODE:0298(W), 
                                                                                          FUN_CODE_269e:26a5(W)  
         BITS:d9                 ??         ??
                             CCF.2                                           XREF[3]:     CODE:020f(W), 
                                                                                          FUN_CODE_2679:267e(R), 
                                                                                          FUN_CODE_2679:2684(R)  
         BITS:da                 ??         ??
                             CCF.3                                           XREF[5]:     CODE:01a1(W), CODE:01bb(W), 
                                                                                          CODE:0200(W), CODE:0229(W), 
                                                                                          CODE:0261(W)  
         BITS:db                 ??         ??
                             CCF.4
         BITS:dc                 ??         ??
                             CCON.5
         BITS:dd                 ??         ??
                             CR
         BITS:de                 ??         ??
                             CF                                              XREF[1]:     FUN_CODE_02ad:02cc(W)  
         BITS:df                 ??         ??
                             ACC.0                                           XREF[28]:    FUN_CODE_0084:0090(*), 
                                                                                          FUN_CODE_00e3:00e6(*), 
                                                                                          FUN_CODE_0648:064f(*), 
                                                                                          FUN_CODE_0648:0654(*), 
                                                                                          FUN_CODE_0648:0659(*), 
                                                                                          FUN_CODE_083e:099c(*), 
                                                                                          FUN_CODE_083e:09d6(*), 
                                                                                          FUN_CODE_083e:0b6b(*), 
                                                                                          FUN_CODE_083e:0bfe(*), 
                                                                                          FUN_CODE_083e:0c67(*), 
                                                                                          FUN_CODE_083e:0c70(*), 
                                                                                          FUN_CODE_083e:0c8b(*), 
                                                                                          FUN_CODE_083e:0d06(*), 
                                                                                          FUN_CODE_0d48:0e6a(*), 
                                                                                          FUN_CODE_19f3:1a0e(*), 
                                                                                          CODE:1af4(*), CODE:1bc6(*), 
                                                                                          CODE:1cd6(*), CODE:1ce0(*), 
                                                                                          CODE:1d15(*), [more]
         BITS:e0                 ??         ??
                             ACC.1                                           XREF[14]:    FUN_CODE_0084:0086(*), 
                                                                                          FUN_CODE_0648:066d(*), 
                                                                                          FUN_CODE_083e:09a5(*), 
                                                                                          FUN_CODE_083e:0b6f(*), 
                                                                                          FUN_CODE_083e:0c02(*), 
                                                                                          FUN_CODE_083e:0c6b(*), 
                                                                                          FUN_CODE_083e:0d0c(*), 
                                                                                          CODE:176f(*), 
                                                                                          FUN_CODE_19f3:1a12(*), 
                                                                                          CODE:1cdb(*), 
                                                                                          FUN_CODE_2277:2287(*), 
                                                                                          FUN_CODE_2277:2292(*), 
                                                                                          FUN_CODE_24f7:2566(*), 
                                                                                          FUN_CODE_2606:2619(*)  
         BITS:e1                 ??         ??
                             ACC.2                                           XREF[10]:    FUN_CODE_0084:008b(*), 
                                                                                          FUN_CODE_0648:06a7(*), 
                                                                                          FUN_CODE_0648:06ac(*), 
                                                                                          FUN_CODE_0648:06b1(*), 
                                                                                          FUN_CODE_0756:0784(*), 
                                                                                          FUN_CODE_083e:09b8(*), 
                                                                                          CODE:179b(*), CODE:17a5(*), 
                                                                                          CODE:1bcc(*), 
                                                                                          FUN_CODE_2606:2615(*)  
         BITS:e2                 ??         ??
                             ACC.3                                           XREF[10]:    FUN_CODE_02fe:0398(*), 
                                                                                          FUN_CODE_02fe:03c9(*), 
                                                                                          FUN_CODE_02fe:0406(*), 
                                                                                          FUN_CODE_02fe:043b(*), 
                                                                                          FUN_CODE_0648:06c5(*), 
                                                                                          CODE:179f(*), CODE:17a9(*), 
                                                                                          CODE:1bd2(*), 
                                                                                          FUN_CODE_2606:2611(*), 
                                                                                          FUN_CODE_2b34:2b3d(*)  
         BITS:e3                 ??         ??
                             ACC.4                                           XREF[12]:    FUN_CODE_0648:06ff(*), 
                                                                                          FUN_CODE_0648:0704(*), 
                                                                                          FUN_CODE_0648:0709(*), 
                                                                                          FUN_CODE_19f3:1a03(*), 
                                                                                          FUN_CODE_2417:241e(*), 
                                                                                          FUN_CODE_2434:2436(*), 
                                                                                          FUN_CODE_2439:243c(*), 
                                                                                          FUN_CODE_2445:2445(*), 
                                                                                          FUN_CODE_2458:2459(*), 
                                                                                          FUN_CODE_2467:2467(*), 
                                                                                          FUN_CODE_247a:247c(*), 
                                                                                          FUN_CODE_2606:260d(*)  
         BITS:e4                 ??         ??
                             ACC.5                                           XREF[7]:     FUN_CODE_0648:071d(*), 
                                                                                          FUN_CODE_083e:0974(*), 
                                                                                          CODE:1475(*), CODE:1875(*), 
                                                                                          FUN_CODE_19f3:1a00(*), 
                                                                                          CODE:1b9e(*), 
                                                                                          FUN_CODE_2a85:2aa1(*)  
         BITS:e5                 ??         ??
                             ACC.6                                           XREF[8]:     FUN_CODE_083e:0977(*), 
                                                                                          FUN_CODE_0d48:0e65(*), 
                                                                                          CODE:199e(*), 
                                                                                          FUN_CODE_19f3:19fd(*), 
                                                                                          FUN_CODE_1bd9:1bee(*), 
                                                                                          FUN_CODE_2606:2609(*), 
                                                                                          FUN_CODE_2a85:2a9e(*), 
                                                                                          FUN_CODE_2b34:2b47(*)  
         BITS:e6                 ??         ??
                             ACC.7                                           XREF[26]:    FUN_CODE_083e:09f1(*), 
                                                                                          FUN_CODE_083e:09f5(*), 
                                                                                          FUN_CODE_083e:09f9(*), 
                                                                                          FUN_CODE_083e:0a1a(*), 
                                                                                          FUN_CODE_083e:0a48(*), 
                                                                                          FUN_CODE_083e:0a6f(*), 
                                                                                          FUN_CODE_1632:1642(*), 
                                                                                          FUN_CODE_1632:1659(*), 
                                                                                          FUN_CODE_166a:1713(*), 
                                                                                          FUN_CODE_1732:173c(*), 
                                                                                          FUN_CODE_1732:1742(*), 
                                                                                          FUN_CODE_19f3:19fa(*), 
                                                                                          FUN_CODE_1bd9:1c1a(*), 
                                                                                          FUN_CODE_1bd9:1c23(*), 
                                                                                          FUN_CODE_2439:2442(*), 
                                                                                          CODE:2901(*), CODE:290c(*), 
                                                                                          FUN_CODE_2b34:2b4b(*), 
                                                                                          FUN_CODE_2b34:2b8e(*), 
                                                                                          FUN_CODE_2b34:2b90(*), [more]
         BITS:e7                 ??         ??
                             HIFLG.0
         BITS:e8                 ??         ??
                             HIFLG.1
         BITS:e9                 ??         ??
                             HIFLG.2
         BITS:ea                 ??         ??
                             HIFLG.3
         BITS:eb                 ??         ??
                             HIFLG.4
         BITS:ec                 ??         ??
                             HIFLG.5
         BITS:ed                 ??         ??
                             HIFLG.6
         BITS:ee                 ??         ??
                             HIFLG.7
         BITS:ef                 ??         ??
                             B.0                                             XREF[16]:    FUN_CODE_083e:08a2(*), 
                                                                                          FUN_CODE_083e:08cd(*), 
                                                                                          FUN_CODE_083e:0963(*), 
                                                                                          FUN_CODE_083e:0bdd(*), 
                                                                                          FUN_CODE_083e:0ca3(*), 
                                                                                          FUN_CODE_0d48:0e27(*), 
                                                                                          CODE:1799(*), 
                                                                                          FUN_CODE_24f7:252e(*), 
                                                                                          FUN_CODE_24f7:253e(*), 
                                                                                          FUN_CODE_2bb1:2bea(*), 
                                                                                          FUN_CODE_2bf4:2c27(*), 
                                                                                          FUN_CODE_2bf4:2c52(*), 
                                                                                          FUN_CODE_2c6e:2ca7(*), 
                                                                                          FUN_CODE_2c6e:2cd2(*), 
                                                                                          FUN_CODE_2c6e:2cfd(*), 
                                                                                          FUN_CODE_2d0b:2d12(*)  
         BITS:f0                 ??         ??
                             B.1                                             XREF[11]:    FUN_CODE_083e:08d1(*), 
                                                                                          CODE:179d(*), 
                                                                                          FUN_CODE_247f:2495(*), 
                                                                                          FUN_CODE_24f7:2532(*), 
                                                                                          FUN_CODE_24f7:2542(*), 
                                                                                          FUN_CODE_2bb1:2be5(*), 
                                                                                          FUN_CODE_2bf4:2c22(*), 
                                                                                          FUN_CODE_2bf4:2c4d(*), 
                                                                                          FUN_CODE_2c6e:2ca2(*), 
                                                                                          FUN_CODE_2c6e:2ccd(*), 
                                                                                          FUN_CODE_2c6e:2cf8(*)  
         BITS:f1                 ??         ??
                             B.2                                             XREF[11]:    FUN_CODE_083e:0c69(*), 
                                                                                          CODE:1793(*), CODE:17a3(*), 
                                                                                          FUN_CODE_24f7:2536(*), 
                                                                                          FUN_CODE_24f7:2546(*), 
                                                                                          FUN_CODE_2bb1:2be0(*), 
                                                                                          FUN_CODE_2bf4:2c1d(*), 
                                                                                          FUN_CODE_2bf4:2c48(*), 
                                                                                          FUN_CODE_2c6e:2c9d(*), 
                                                                                          FUN_CODE_2c6e:2cc8(*), 
                                                                                          FUN_CODE_2c6e:2cf3(*)  
         BITS:f2                 ??         ??
                             B.3                                             XREF[12]:    FUN_CODE_083e:0c6d(*), 
                                                                                          CODE:1796(*), CODE:17a7(*), 
                                                                                          FUN_CODE_24f7:253a(*), 
                                                                                          FUN_CODE_24f7:254a(*), 
                                                                                          FUN_CODE_2bb1:2bdb(*), 
                                                                                          FUN_CODE_2bf4:2c18(*), 
                                                                                          FUN_CODE_2bf4:2c43(*), 
                                                                                          FUN_CODE_2c6e:2c98(*), 
                                                                                          FUN_CODE_2c6e:2cc3(*), 
                                                                                          FUN_CODE_2c6e:2cee(*), 
                                                                                          FUN_CODE_2d0b:2d0f(*)  
         BITS:f3                 ??         ??
                             B.4                                             XREF[9]:     FUN_CODE_083e:0c72(*), 
                                                                                          CODE:1785(*), CODE:178e(*), 
                                                                                          FUN_CODE_2bb1:2bd6(*), 
                                                                                          FUN_CODE_2bf4:2c13(*), 
                                                                                          FUN_CODE_2bf4:2c3e(*), 
                                                                                          FUN_CODE_2c6e:2c93(*), 
                                                                                          FUN_CODE_2c6e:2cbe(*), 
                                                                                          FUN_CODE_2c6e:2ce9(*)  
         BITS:f4                 ??         ??
                             B.5                                             XREF[13]:    FUN_CODE_083e:0c8d(*), 
                                                                                          CODE:1782(*), CODE:18b8(*), 
                                                                                          FUN_CODE_1bd9:1bea(*), 
                                                                                          FUN_CODE_2bb1:2bbf(*), 
                                                                                          FUN_CODE_2bb1:2bd1(*), 
                                                                                          FUN_CODE_2bf4:2c0b(*), 
                                                                                          FUN_CODE_2bf4:2c39(*), 
                                                                                          FUN_CODE_2bf4:2c64(*), 
                                                                                          FUN_CODE_2c6e:2c7c(*), 
                                                                                          FUN_CODE_2c6e:2c8e(*), 
                                                                                          FUN_CODE_2c6e:2cb9(*), 
                                                                                          FUN_CODE_2c6e:2ce4(*)  
         BITS:f5                 ??         ??
                             B.6                                             XREF[10]:    FUN_CODE_15c1:15f5(*), 
                                                                                          FUN_CODE_2bb1:2bba(*), 
                                                                                          FUN_CODE_2bb1:2bcc(*), 
                                                                                          FUN_CODE_2bf4:2c06(*), 
                                                                                          FUN_CODE_2bf4:2c34(*), 
                                                                                          FUN_CODE_2bf4:2c5f(*), 
                                                                                          FUN_CODE_2c6e:2c77(*), 
                                                                                          FUN_CODE_2c6e:2c89(*), 
                                                                                          FUN_CODE_2c6e:2cb4(*), 
                                                                                          FUN_CODE_2c6e:2cdf(*)  
         BITS:f6                 ??         ??
                             B.7                                             XREF[17]:    FUN_CODE_14c6:1595(*), 
                                                                                          FUN_CODE_14c6:1598(*), 
                                                                                          FUN_CODE_14c6:15a9(*), 
                                                                                          FUN_CODE_14c6:15ac(*), 
                                                                                          FUN_CODE_15c1:15ee(*), 
                                                                                          CODE:1789(*), CODE:17db(*), 
                                                                                          CODE:18ad(*), 
                                                                                          FUN_CODE_2bb1:2bb5(*), 
                                                                                          FUN_CODE_2bb1:2bc7(*), 
                                                                                          FUN_CODE_2bf4:2c01(*), 
                                                                                          FUN_CODE_2bf4:2c2f(*), 
                                                                                          FUN_CODE_2bf4:2c5a(*), 
                                                                                          FUN_CODE_2c6e:2c72(*), 
                                                                                          FUN_CODE_2c6e:2c84(*), 
                                                                                          FUN_CODE_2c6e:2caf(*), 
                                                                                          FUN_CODE_2c6e:2cda(*)  
         BITS:f7                 ??         ??
                             F8.0
         BITS:f8                 ??         ??
                             F8.1
         BITS:f9                 ??         ??
                             F8.2
         BITS:fa                 ??         ??
                             F8.3
         BITS:fb                 ??         ??
                             F8.4
         BITS:fc                 ??         ??
                             F8.5
         BITS:fd                 ??         ??
                             F8.6
         BITS:fe                 ??         ??
                             F8.7
         BITS:ff                 ??         ??
