                             //
                             // CODE 
                             // CODE:0000-CODE:2fff
                             //
       CODE:0000 e1 e3           AJMP       FUN_CODE_07e3                                              undefined FUN_CODE_07e3()
                             -- Flow Override: CALL_RETURN (CALL_TERMINATOR)
       CODE:0002 01 d3           AJMP       FUN_CODE_00d3                                              undefined FUN_CODE_00d3()
                             -- Flow Override: CALL_RETURN (CALL_TERMINATOR)
       CODE:0004 01 c6           AJMP       FUN_CODE_00c6                                              undefined FUN_CODE_00c6()
                             -- Flow Override: CALL_RETURN (CALL_TERMINATOR)
       CODE:0006 41 bb           AJMP       FUN_CODE_02bb                                              undefined FUN_CODE_02bb()
                             -- Flow Override: CALL_RETURN (CALL_TERMINATOR)
       CODE:0008 01 c6           AJMP       FUN_CODE_00c6                                              undefined FUN_CODE_00c6()
                             -- Flow Override: CALL_RETURN (CALL_TERMINATOR)
       CODE:000a 21 2d           AJMP       FUN_CODE_012d                                              undefined FUN_CODE_012d()
                             -- Flow Override: CALL_RETURN (CALL_TERMINATOR)
       CODE:000c 01 c6           AJMP       FUN_CODE_00c6                                              undefined FUN_CODE_00c6()
                             -- Flow Override: CALL_RETURN (CALL_TERMINATOR)
       CODE:000e 01 c6           AJMP       FUN_CODE_00c6                                              undefined FUN_CODE_00c6()
                             -- Flow Override: CALL_RETURN (CALL_TERMINATOR)
       CODE:0010 01 c6           AJMP       FUN_CODE_00c6                                              undefined FUN_CODE_00c6()
                             -- Flow Override: CALL_RETURN (CALL_TERMINATOR)
       CODE:0012 21 2d           AJMP       FUN_CODE_012d                                              undefined FUN_CODE_012d()
                             -- Flow Override: CALL_RETURN (CALL_TERMINATOR)
       CODE:0014 01 c6           AJMP       FUN_CODE_00c6                                              undefined FUN_CODE_00c6()
                             -- Flow Override: CALL_RETURN (CALL_TERMINATOR)
       CODE:0016 01 c6           AJMP       FUN_CODE_00c6                                              undefined FUN_CODE_00c6()
                             -- Flow Override: CALL_RETURN (CALL_TERMINATOR)
       CODE:0018 01 c6           AJMP       FUN_CODE_00c6                                              undefined FUN_CODE_00c6()
                             -- Flow Override: CALL_RETURN (CALL_TERMINATOR)
       CODE:001a 01 c6           AJMP       FUN_CODE_00c6                                              undefined FUN_CODE_00c6()
                             -- Flow Override: CALL_RETURN (CALL_TERMINATOR)
       CODE:001c 01 c6           AJMP       FUN_CODE_00c6                                              undefined FUN_CODE_00c6()
                             -- Flow Override: CALL_RETURN (CALL_TERMINATOR)
       CODE:001e 01 c6           AJMP       FUN_CODE_00c6                                              undefined FUN_CODE_00c6()
                             -- Flow Override: CALL_RETURN (CALL_TERMINATOR)
       CODE:0020 01 c6           AJMP       FUN_CODE_00c6                                              undefined FUN_CODE_00c6()
                             -- Flow Override: CALL_RETURN (CALL_TERMINATOR)
       CODE:0022 01 c6           AJMP       FUN_CODE_00c6                                              undefined FUN_CODE_00c6()
                             -- Flow Override: CALL_RETURN (CALL_TERMINATOR)
       CODE:0024 01 c6           AJMP       FUN_CODE_00c6                                              undefined FUN_CODE_00c6()
                             -- Flow Override: CALL_RETURN (CALL_TERMINATOR)
       CODE:0026 01 c6           AJMP       FUN_CODE_00c6                                              undefined FUN_CODE_00c6()
                             -- Flow Override: CALL_RETURN (CALL_TERMINATOR)
       CODE:0028 01 c6           AJMP       FUN_CODE_00c6                                              undefined FUN_CODE_00c6()
                             -- Flow Override: CALL_RETURN (CALL_TERMINATOR)
       CODE:002a 01 c6           AJMP       FUN_CODE_00c6                                              undefined FUN_CODE_00c6()
                             -- Flow Override: CALL_RETURN (CALL_TERMINATOR)
       CODE:002c 01 c6           AJMP       FUN_CODE_00c6                                              undefined FUN_CODE_00c6()
                             -- Flow Override: CALL_RETURN (CALL_TERMINATOR)
       CODE:002e 01 d0           AJMP       thunk_FUN_CODE_2510                                        undefined thunk_FUN_CODE_2510()
                             -- Flow Override: CALL_RETURN (CALL_TERMINATOR)
                             **************************************************************
                             *                          FUNCTION                          *
                             **************************************************************
                             undefined FUN_CODE_0030()
             undefined         ACC:1          <RETURN>
                             FUN_CODE_0030                                   XREF[1]:     CODE:11ce(c)  
       CODE:0030 c2 81           CLR        P0.1                                                       = ??
       CODE:0032 22              RET
                             **************************************************************
                             *                          FUNCTION                          *
                             **************************************************************
                             undefined FUN_CODE_0033()
             undefined         ACC:1          <RETURN>
                             FUN_CODE_0033                                   XREF[1]:     CODE:1313(c)  
       CODE:0033 d2 81           SETB       P0.1                                                       = ??
       CODE:0035 22              RET
                             **************************************************************
                             *                          FUNCTION                          *
                             **************************************************************
                             undefined FUN_CODE_0036()
             undefined         ACC:1          <RETURN>
                             FUN_CODE_0036                                   XREF[2]:     CODE:1305(c), CODE:131e(c)  
       CODE:0036 a2 87           MOV        CY,P0.7                                                    = ??
       CODE:0038 22              RET
                             **************************************************************
                             *                          FUNCTION                          *
                             **************************************************************
                             undefined FUN_CODE_0039()
             undefined         ACC:1          <RETURN>
                             FUN_CODE_0039                                   XREF[1]:     CODE:1156(c)  
       CODE:0039 d2 97           SETB       P1.7                                                       = ??
       CODE:003b 22              RET
                             **************************************************************
                             *                          FUNCTION                          *
                             **************************************************************
                             undefined FUN_CODE_003c()
             undefined         ACC:1          <RETURN>
                             FUN_CODE_003c                                   XREF[1]:     CODE:0faf(c)  
       CODE:003c c2 97           CLR        P1.7                                                       = ??
       CODE:003e 22              RET
                             **************************************************************
                             *                          FUNCTION                          *
                             **************************************************************
                             undefined FUN_CODE_003f()
             undefined         ACC:1          <RETURN>
                             FUN_CODE_003f                                   XREF[3]:     CODE:115c(c), CODE:116f(c), 
                                                                                          FUN_CODE_1e47:1e6a(c)  
       CODE:003f a2 96           MOV        CY,P1.6                                                    = ??
       CODE:0041 20 1b 03        JB         23.3,LAB_CODE_0047                                         = ??
       CODE:0044 c2 ad           CLR        ET2                                                        = ??
       CODE:0046 22              RET
                             LAB_CODE_0047                                   XREF[1]:     CODE:0041(j)  
       CODE:0047 b0 ad           ANL        CY,/ET2                                                    = ??
       CODE:0049 22              RET
                             **************************************************************
                             *                          FUNCTION                          *
                             **************************************************************
                             undefined FUN_CODE_004a()
             undefined         ACC:1          <RETURN>
                             FUN_CODE_004a                                   XREF[1]:     CODE:12ef(c)  
       CODE:004a d2 80           SETB       P0.0                                                       = ??
       CODE:004c 22              RET
                             **************************************************************
                             *                          FUNCTION                          *
                             **************************************************************
                             undefined FUN_CODE_004d()
             undefined         ACC:1          <RETURN>
                             FUN_CODE_004d                                   XREF[1]:     CODE:1237(c)  
       CODE:004d c2 80           CLR        P0.0                                                       = ??
       CODE:004f 22              RET
                             **************************************************************
                             *                          FUNCTION                          *
                             **************************************************************
                             undefined FUN_CODE_0050()
             undefined         ACC:1          <RETURN>
                             FUN_CODE_0050                                   XREF[1]:     CODE:11d1(c)  
       CODE:0050 c2 86           CLR        P0.6                                                       = ??
       CODE:0052 22              RET
                             **************************************************************
                             *                          FUNCTION                          *
                             **************************************************************
                             undefined FUN_CODE_0053()
             undefined         ACC:1          <RETURN>
                             FUN_CODE_0053                                   XREF[1]:     CODE:1374(c)  
       CODE:0053 75 97 00        MOV        HADDR,#0x0                                                 = ??
       CODE:0056 75 a9 00        MOV        SADDR,#0x0                                                 = ??
       CODE:0059 75 df 00        MOV        PCON1,#0x0                                                 = ??
       CODE:005c d2 86           SETB       P0.6                                                       = ??
       CODE:005e 22              RET
                             **************************************************************
                             *                          FUNCTION                          *
                             **************************************************************
                             undefined FUN_CODE_005f()
             undefined         ACC:1          <RETURN>
                             FUN_CODE_005f                                   XREF[1]:     CODE:1362(c)  
       CODE:005f e5 8f           MOV        A,FADDR                                                    = ??
       CODE:0061 54 30           ANL        A,#0x30
       CODE:0063 a2 d0           MOV        CY,P                                                       = ??
       CODE:0065 54 20           ANL        A,#0x20
       CODE:0067 70 01           JNZ        LAB_CODE_006a
       CODE:0069 c3              CLR        CY
                             LAB_CODE_006a                                   XREF[1]:     CODE:0067(j)  
       CODE:006a 22              RET
                             **************************************************************
                             *                          FUNCTION                          *
                             **************************************************************
                             undefined FUN_CODE_006b()
             undefined         ACC:1          <RETURN>
                             FUN_CODE_006b                                   XREF[1]:     CODE:1379(c)  
       CODE:006b e5 e5           MOV        A,RXFLG                                                    = ??
       CODE:006d 20 e1 05        JB         ACC.1,LAB_CODE_0075                                        = ??
       CODE:0070 e5 df           MOV        A,PCON1                                                    = ??
       CODE:0072 a2 e2           MOV        CY,ACC.2                                                   = ??
       CODE:0074 22              RET
                             LAB_CODE_0075                                   XREF[1]:     CODE:006d(j)  
       CODE:0075 e5 97           MOV        A,HADDR                                                    = ??
       CODE:0077 a2 e0           MOV        CY,ACC.0                                                   = ??
       CODE:0079 22              RET
                             **************************************************************
                             *                          FUNCTION                          *
                             **************************************************************
                             undefined FUN_CODE_007a()
             undefined         ACC:1          <RETURN>
                             FUN_CODE_007a                                   XREF[1]:     FUN_CODE_1e47:1e81(c)  
       CODE:007a a2 ca           MOV        CY,TR2                                                     = ??
       CODE:007c 22              RET
                             **************************************************************
                             *                          FUNCTION                          *
                             **************************************************************
                             undefined FUN_CODE_007d()
             undefined         ACC:1          <RETURN>
                             FUN_CODE_007d                                   XREF[1]:     CODE:12fd(c)  
       CODE:007d d2 85           SETB       P0.5                                                       = ??
       CODE:007f 22              RET
                             **************************************************************
                             *                          FUNCTION                          *
                             **************************************************************
                             undefined FUN_CODE_0080()
             undefined         ACC:1          <RETURN>
                             FUN_CODE_0080                                   XREF[1]:     CODE:11d6(c)  
       CODE:0080 c2 85           CLR        P0.5                                                       = ??
       CODE:0082 22              RET
                             **************************************************************
                             *                          FUNCTION                          *
                             **************************************************************
                             undefined FUN_CODE_0083()
             undefined         ACC:1          <RETURN>
                             FUN_CODE_0083                                   XREF[2]:     CODE:1234(c), CODE:1292(c)  
       CODE:0083 c2 be           CLR        PC                                                         = ??
       CODE:0085 22              RET
                             **************************************************************
                             *                          FUNCTION                          *
                             **************************************************************
                             undefined FUN_CODE_0086()
             undefined         ACC:1          <RETURN>
                             FUN_CODE_0086                                   XREF[1]:     CODE:1300(c)  
       CODE:0086 75 fc 43        MOV        CCAP2H,#0x43                                               = ??
       CODE:0089 f2              MOVX       @R0,A
       CODE:008a f2              MOVX       @R0,A
       CODE:008b f2              MOVX       @R0,A
       CODE:008c f2              MOVX       @R0,A
       CODE:008d f2              MOVX       @R0,A
       CODE:008e f2              MOVX       @R0,A
       CODE:008f f2              MOVX       @R0,A
       CODE:0090 f2              MOVX       @R0,A
       CODE:0091 f2              MOVX       @R0,A
       CODE:0092 f2              MOVX       @R0,A
       CODE:0093 f2              MOVX       @R0,A
       CODE:0094 f2              MOVX       @R0,A
       CODE:0095 f2              MOVX       @R0,A
       CODE:0096 f2              MOVX       @R0,A
       CODE:0097 f2              MOVX       @R0,A
       CODE:0098 f2              MOVX       @R0,A
       CODE:0099 f2              MOVX       @R0,A
       CODE:009a f2              MOVX       @R0,A
       CODE:009b f2              MOVX       @R0,A
       CODE:009c f2              MOVX       @R0,A
       CODE:009d f2              MOVX       @R0,A
       CODE:009e f2              MOVX       @R0,A
       CODE:009f f2              MOVX       @R0,A
       CODE:00a0 f2              MOVX       @R0,A
       CODE:00a1 f2              MOVX       @R0,A
       CODE:00a2 f2              MOVX       @R0,A
       CODE:00a3 f2              MOVX       @R0,A
       CODE:00a4 f2              MOVX       @R0,A
       CODE:00a5 f2              MOVX       @R0,A
       CODE:00a6 f2              MOVX       @R0,A
       CODE:00a7 d2 be           SETB       PC                                                         = ??
       CODE:00a9 22              RET
                             **************************************************************
                             *                          FUNCTION                          *
                             **************************************************************
                             undefined FUN_CODE_00aa()
             undefined         ACC:1          <RETURN>
                             FUN_CODE_00aa                                   XREF[1]:     CODE:11d9(c)  
       CODE:00aa c2 84           CLR        P0.4                                                       = ??
       CODE:00ac 22              RET
                             **************************************************************
                             *                          FUNCTION                          *
                             **************************************************************
                             undefined FUN_CODE_00ad()
             undefined         ACC:1          <RETURN>
                             FUN_CODE_00ad                                   XREF[1]:     CODE:132c(c)  
       CODE:00ad d2 84           SETB       P0.4                                                       = ??
       CODE:00af 22              RET
                             **************************************************************
                             *                          FUNCTION                          *
                             **************************************************************
                             undefined FUN_CODE_00b0()
             undefined         ACC:1          <RETURN>
                             FUN_CODE_00b0                                   XREF[1]:     CODE:11f5(c)  
       CODE:00b0 75 e3 01        MOV        RXDAT,#0x1                                                 = ??
       CODE:00b3 75 e3 00        MOV        RXDAT,#0x0                                                 = ??
       CODE:00b6 75 e3 01        MOV        RXDAT,#0x1                                                 = ??
       CODE:00b9 75 e3 00        MOV        RXDAT,#0x0                                                 = ??
       CODE:00bc 22              RET
                             **************************************************************
                             *                          FUNCTION                          *
                             **************************************************************
                             undefined FUN_CODE_00bd()
             undefined         ACC:1          <RETURN>
                             FUN_CODE_00bd                                   XREF[1]:     CODE:1150(c)  
       CODE:00bd d2 a0           SETB       P2.0                                                       = ??
       CODE:00bf 22              RET
                             **************************************************************
                             *                          FUNCTION                          *
                             **************************************************************
                             undefined FUN_CODE_00c0()
             undefined         ACC:1          <RETURN>
                             FUN_CODE_00c0                                   XREF[1]:     CODE:0fa8(c)  
       CODE:00c0 c2 a0           CLR        P2.0                                                       = ??
       CODE:00c2 22              RET
                             **************************************************************
                             *                          FUNCTION                          *
                             **************************************************************
                             undefined FUN_CODE_00c3()
             undefined         ACC:1          <RETURN>
                             FUN_CODE_00c3                                   XREF[1]:     CODE:1242(c)  
       CODE:00c3 c2 a3           CLR        P2.3                                                       = ??
       CODE:00c5 22              RET
                             **************************************************************
                             *                          FUNCTION                          *
                             **************************************************************
                             undefined FUN_CODE_00c6()
             undefined         ACC:1          <RETURN>
                             FUN_CODE_00c6                                   XREF[18]:    CODE:0004(c), CODE:0008(c), 
                                                                                          CODE:000c(c), CODE:000e(c), 
                                                                                          CODE:0010(c), CODE:0014(c), 
                                                                                          CODE:0016(c), CODE:0018(c), 
                                                                                          CODE:001a(c), CODE:001c(c), 
                                                                                          CODE:001e(c), CODE:0020(c), 
                                                                                          CODE:0022(c), CODE:0024(c), 
                                                                                          CODE:0026(c), CODE:0028(c), 
                                                                                          CODE:002a(c), CODE:002c(c)  
       CODE:00c6 43 bc 36        ORL        DAT_SFR_bc,#0x36                                           = ??
       CODE:00c9 43 bd ff        ORL        DAT_SFR_bd,#0xff                                           = ??
       CODE:00cc 43 bd 3f        ORL        DAT_SFR_bd,#0x3f                                           = ??
       CODE:00cf 32              RETI
                             **************************************************************
                             *                       THUNK FUNCTION                       *
                             **************************************************************
                             thunk undefined thunk_FUN_CODE_2510()
                               Thunked-Function: FUN_CODE_2510
             undefined         ACC:1          <RETURN>
                             thunk_FUN_CODE_2510                             XREF[1]:     CODE:002e(c)  
       CODE:00d0 02 25 10        LJMP       FUN_CODE_2510                                              undefined FUN_CODE_2510()
                             -- Flow Override: CALL_RETURN (CALL_TERMINATOR)
                             **************************************************************
                             *                          FUNCTION                          *
                             **************************************************************
                             undefined FUN_CODE_00d3()
             undefined         ACC:1          <RETURN>
                             FUN_CODE_00d3                                   XREF[1]:     CODE:0002(c)  
       CODE:00d3 43 bf 01        ORL        DAT_SFR_bf,#0x1                                            = ??
       CODE:00d6 d2 d3           SETB       RS0                                                        = ??
       CODE:00d8 af e0           MOV        R7,A
       CODE:00da ae f0           MOV        R6,B
       CODE:00dc ad d0           MOV        R5,PSW
       CODE:00de 43 8f 02        ORL        FADDR,#0x2                                                 = ??
       CODE:00e1 05 78           INC        DAT_INTMEM_78                                              = ??
       CODE:00e3 c2 bf           CLR        IP.7                                                       = ??
       CODE:00e5 30 5f 09        JNB        2b.7,LAB_CODE_00f1                                         = ??
       CODE:00e8 d1 07           ACALL      FUN_CODE_0607                                              undefined FUN_CODE_0607()
       CODE:00ea b1 ee           ACALL      FUN_CODE_05ee                                              undefined FUN_CODE_05ee()
       CODE:00ec 20 cd 02        JB         RCLK,LAB_CODE_00f1                                         = ??
       CODE:00ef 05 79           INC        DAT_INTMEM_79                                              = ??
                             LAB_CODE_00f1                                   XREF[2]:     CODE:00e5(j), CODE:00ec(j)  
       CODE:00f1 53 8f fd        ANL        FADDR,#0xfd                                                = ??
       CODE:00f4 8d d0           MOV        PSW,R5
       CODE:00f6 8e f0           MOV        B,R6
       CODE:00f8 8f e0           MOV        A,R7
       CODE:00fa c2 d3           CLR        RS0                                                        = ??
       CODE:00fc 53 bf fe        ANL        DAT_SFR_bf,#0xfe                                           = ??
       CODE:00ff 32              RETI
       CODE:0100 51              ??         51h    Q
       CODE:0101 03              ??         03h
       CODE:0102 01              ??         01h
       CODE:0103 01              ??         01h
       CODE:0104 01              ??         01h
       CODE:0105 08              ??         08h
       CODE:0106 00              ??         00h
       CODE:0107 00              ??         00h
       CODE:0108 20              ??         20h     
       CODE:0109 20              ??         20h     
       CODE:010a 20              ??         20h     
       CODE:010b 3c              ??         3Ch    <
       CODE:010c 43              ??         43h    C
       CODE:010d 6f              ??         6Fh    o
       CODE:010e 70              ??         70h    p
       CODE:010f 79              ??         79h    y
       CODE:0110 72              ??         72h    r
       CODE:0111 69              ??         69h    i
       CODE:0112 67              ??         67h    g
       CODE:0113 68              ??         68h    h
       CODE:0114 74              ??         74h    t
       CODE:0115 20              ??         20h     
       CODE:0116 32              ??         32h    2
       CODE:0117 30              ??         30h    0
       CODE:0118 30              ??         30h    0
       CODE:0119 31              ??         31h    1
       CODE:011a 2d              ??         2Dh    -
       CODE:011b 32              ??         32h    2
       CODE:011c 30              ??         30h    0
       CODE:011d 30              ??         30h    0
       CODE:011e 38              ??         38h    8
       CODE:011f 20              ??         20h     
       CODE:0120 4d              ??         4Dh    M
       CODE:0121 69              ??         69h    i
       CODE:0122 63              ??         63h    c
       CODE:0123 72              ??         72h    r
       CODE:0124 6f              ??         6Fh    o
       CODE:0125 73              ??         73h    s
       CODE:0126 6f              ??         6Fh    o
       CODE:0127 66              ??         66h    f
       CODE:0128 74              ??         74h    t
       CODE:0129 3e              ??         3Eh    >
       CODE:012a 20              ??         20h     
       CODE:012b 20              ??         20h     
       CODE:012c 20              ??         20h     
                             **************************************************************
                             *                          FUNCTION                          *
                             **************************************************************
                             undefined FUN_CODE_012d()
             undefined         ACC:1          <RETURN>
                             FUN_CODE_012d                                   XREF[2]:     CODE:000a(c), CODE:0012(c)  
       CODE:012d 43 bf 01        ORL        DAT_SFR_bf,#0x1                                            = ??
       CODE:0130 d2 d3           SETB       RS0                                                        = ??
       CODE:0132 af e0           MOV        R7,A
       CODE:0134 ae f0           MOV        R6,B
       CODE:0136 ad d0           MOV        R5,PSW
       CODE:0138 43 8f 02        ORL        FADDR,#0x2                                                 = ??
       CODE:013b 43 bc 01        ORL        DAT_SFR_bc,#0x1                                            = ??
       CODE:013e e5 65           MOV        A,DAT_INTMEM_65                                            = ??
       CODE:0140 23              RL         A
       CODE:0141 90 01 45        MOV        DPTR,#LAB_CODE_0145
       CODE:0144 73              JMP        @A+DPTR
                             LAB_CODE_0145                                   XREF[1]:     FUN_CODE_012d:0141(*)  
       CODE:0145 21 6d           AJMP       LAB_CODE_016d
       CODE:0147 21 89           AJMP       LAB_CODE_0189
       CODE:0149 21 a0           AJMP       LAB_CODE_01a0
       CODE:014b 21 f7           AJMP       LAB_CODE_01f7
       CODE:014d 41 0e           AJMP       LAB_CODE_020e
       CODE:014f 41 2f           AJMP       LAB_CODE_022f
       CODE:0151 41 46           AJMP       LAB_CODE_0246
                             LAB_CODE_0153                                   XREF[10]:    CODE:017d(j), CODE:0182(j), 
                                                                                          CODE:0187(j), CODE:019e(j), 
                                                                                          CODE:01c2(j), CODE:01db(j), 
                                                                                          CODE:020c(j), CODE:0224(j), 
                                                                                          CODE:0244(j), CODE:0268(j)  
       CODE:0153 75 8b 8a        MOV        TL1,#0x8a                                                  = ??
       CODE:0156 75 8c ff        MOV        TH0,#0xff                                                  = ??
       CODE:0159 d2 8a           SETB       IT1                                                        = ??
       CODE:015b 53 bc fe        ANL        DAT_SFR_bc,#0xfe                                           = ??
                             LAB_CODE_015e                                   XREF[1]:     CODE:01e9(j)  
       CODE:015e 53 8f fd        ANL        FADDR,#0xfd                                                = ??
       CODE:0161 8d d0           MOV        PSW,R5
       CODE:0163 8e f0           MOV        B,R6
       CODE:0165 8f e0           MOV        A,R7
       CODE:0167 c2 d3           CLR        RS0                                                        = ??
       CODE:0169 53 bf fe        ANL        DAT_SFR_bf,#0xfe                                           = ??
       CODE:016c 32              RETI
                             LAB_CODE_016d                                   XREF[1]:     CODE:0145(j)  
       CODE:016d c2 d9           CLR        CCF.1                                                      = ??
       CODE:016f d2 db           SETB       CCF.3                                                      = ??
       CODE:0171 75 70 08        MOV        DAT_INTMEM_70,#0x8                                         = ??
       CODE:0174 20 61 08        JB         2c.1,LAB_CODE_017f                                         = ??
       CODE:0177 20 62 0a        JB         2c.2,LAB_CODE_0184                                         = ??
       CODE:017a 75 65 05        MOV        DAT_INTMEM_65,#0x5                                         = ??
       CODE:017d 21 53           AJMP       LAB_CODE_0153
                             LAB_CODE_017f                                   XREF[1]:     CODE:0174(j)  
       CODE:017f 75 65 01        MOV        DAT_INTMEM_65,#0x1                                         = ??
       CODE:0182 21 53           AJMP       LAB_CODE_0153
                             LAB_CODE_0184                                   XREF[2]:     CODE:0177(j), CODE:01d5(j)  
       CODE:0184 75 65 03        MOV        DAT_INTMEM_65,#0x3                                         = ??
       CODE:0187 21 53           AJMP       LAB_CODE_0153
                             LAB_CODE_0189                                   XREF[1]:     CODE:0147(j)  
       CODE:0189 c2 db           CLR        CCF.3                                                      = ??
       CODE:018b 30 d9 5d        JNB        CCF.1,LAB_CODE_01eb                                        = ??
       CODE:018e e5 70           MOV        A,DAT_INTMEM_70                                            = ??
       CODE:0190 b5 d9 5f        CJNE       A,CMOD,LAB_CODE_01f2                                       = ??
       CODE:0193 85 66 da        MOV        CCAPM0,DAT_INTMEM_66                                       = ??
       CODE:0196 c2 d9           CLR        CCF.1                                                      = ??
       CODE:0198 75 70 18        MOV        DAT_INTMEM_70,#0x18                                        = ??
       CODE:019b 75 65 02        MOV        DAT_INTMEM_65,#0x2                                         = ??
       CODE:019e 21 53           AJMP       LAB_CODE_0153
                             LAB_CODE_01a0                                   XREF[1]:     CODE:0149(j)  
       CODE:01a0 30 d9 48        JNB        CCF.1,LAB_CODE_01eb                                        = ??
       CODE:01a3 e5 70           MOV        A,DAT_INTMEM_70                                            = ??
       CODE:01a5 b5 d9 4a        CJNE       A,CMOD,LAB_CODE_01f2                                       = ??
       CODE:01a8 e5 67           MOV        A,DAT_INTMEM_67                                            = ??
       CODE:01aa 60 18           JZ         LAB_CODE_01c4
       CODE:01ac 15 67           DEC        DAT_INTMEM_67                                              = ??
       CODE:01ae 20 60 09        JB         2c.0,LAB_CODE_01ba                                         = ??
       CODE:01b1 74 6a           MOV        A,#0x6a
       CODE:01b3 25 67           ADD        A,DAT_INTMEM_67                                            = ??
       CODE:01b5 f8              MOV        R0,A
       CODE:01b6 86 da           MOV        CCAPM0,@R0                                                 = ??
       CODE:01b8 21 bd           AJMP       LAB_CODE_01bd
                             LAB_CODE_01ba                                   XREF[1]:     CODE:01ae(j)  
       CODE:01ba 85 e1 da        MOV        CCAPM0,EPCON                                               = ??
                             LAB_CODE_01bd                                   XREF[1]:     CODE:01b8(j)  
       CODE:01bd c2 d9           CLR        CCF.1                                                      = ??
       CODE:01bf 75 70 28        MOV        DAT_INTMEM_70,#0x28                                        = ??
       CODE:01c2 21 53           AJMP       LAB_CODE_0153
                             LAB_CODE_01c4                                   XREF[1]:     CODE:01aa(j)  
       CODE:01c4 20 62 07        JB         2c.2,LAB_CODE_01ce                                         = ??
       CODE:01c7 20 63 04        JB         2c.3,LAB_CODE_01ce                                         = ??
       CODE:01ca c2 65           CLR        2c.5                                                       = ??
       CODE:01cc 21 dd           AJMP       LAB_CODE_01dd
                             LAB_CODE_01ce                                   XREF[3]:     CODE:01c4(j), CODE:01c7(j), 
                                                                                          CODE:0228(j)  
       CODE:01ce d2 db           SETB       CCF.3                                                      = ??
       CODE:01d0 c2 d9           CLR        CCF.1                                                      = ??
       CODE:01d2 75 70 10        MOV        DAT_INTMEM_70,#0x10                                        = ??
       CODE:01d5 20 62 ac        JB         2c.2,LAB_CODE_0184                                         = ??
       CODE:01d8 75 65 05        MOV        DAT_INTMEM_65,#0x5                                         = ??
       CODE:01db 21 53           AJMP       LAB_CODE_0153
                             LAB_CODE_01dd                                   XREF[4]:     CODE:01cc(j), CODE:01ed(j), 
                                                                                          CODE:022d(j), CODE:0257(j)  
       CODE:01dd d2 da           SETB       CCF.2                                                      = ??
       CODE:01df c2 d9           CLR        CCF.1                                                      = ??
                             LAB_CODE_01e1                                   XREF[2]:     CODE:01f0(j), CODE:01f5(j)  
       CODE:01e1 43 bc 08        ORL        DAT_SFR_bc,#0x8                                            = ??
       CODE:01e4 c2 64           CLR        2c.4                                                       = ??
       CODE:01e6 75 65 00        MOV        DAT_INTMEM_65,#0x0                                         = ??
       CODE:01e9 21 5e           AJMP       LAB_CODE_015e
                             LAB_CODE_01eb                                   XREF[7]:     CODE:018b(j), CODE:01a0(j), 
                                                                                          CODE:01f2(j), CODE:01f9(j), 
                                                                                          CODE:020e(j), CODE:0231(j), 
                                                                                          CODE:0246(j)  
       CODE:01eb e5 70           MOV        A,DAT_INTMEM_70                                            = ??
       CODE:01ed b4 08 ed        CJNE       A,#0x8,LAB_CODE_01dd
       CODE:01f0 21 e1           AJMP       LAB_CODE_01e1
                             LAB_CODE_01f2                                   XREF[6]:     CODE:0190(j), CODE:01a5(j), 
                                                                                          CODE:01fe(j), CODE:0213(j), 
                                                                                          CODE:0236(j), CODE:024b(j)  
       CODE:01f2 b4 00 f6        CJNE       A,#0x0,LAB_CODE_01eb
       CODE:01f5 21 e1           AJMP       LAB_CODE_01e1
                             LAB_CODE_01f7                                   XREF[1]:     CODE:014b(j)  
       CODE:01f7 c2 db           CLR        CCF.3                                                      = ??
       CODE:01f9 30 d9 ef        JNB        CCF.1,LAB_CODE_01eb                                        = ??
       CODE:01fc e5 70           MOV        A,DAT_INTMEM_70                                            = ??
       CODE:01fe b5 d9 f1        CJNE       A,CMOD,LAB_CODE_01f2                                       = ??
       CODE:0201 85 6a da        MOV        CCAPM0,DAT_INTMEM_6a                                       = ??
       CODE:0204 c2 d9           CLR        CCF.1                                                      = ??
       CODE:0206 75 70 18        MOV        DAT_INTMEM_70,#0x18                                        = ??
       CODE:0209 75 65 04        MOV        DAT_INTMEM_65,#0x4                                         = ??
       CODE:020c 21 53           AJMP       LAB_CODE_0153
                             LAB_CODE_020e                                   XREF[1]:     CODE:014d(j)  
       CODE:020e 30 d9 da        JNB        CCF.1,LAB_CODE_01eb                                        = ??
       CODE:0211 e5 70           MOV        A,DAT_INTMEM_70                                            = ??
       CODE:0213 b5 d9 dc        CJNE       A,CMOD,LAB_CODE_01f2                                       = ??
       CODE:0216 e5 6b           MOV        A,DAT_INTMEM_6b                                            = ??
       CODE:0218 60 0c           JZ         LAB_CODE_0226
       CODE:021a 85 e1 da        MOV        CCAPM0,EPCON                                               = ??
       CODE:021d 15 6b           DEC        DAT_INTMEM_6b                                              = ??
       CODE:021f c2 d9           CLR        CCF.1                                                      = ??
       CODE:0221 75 70 28        MOV        DAT_INTMEM_70,#0x28                                        = ??
       CODE:0224 21 53           AJMP       LAB_CODE_0153
                             LAB_CODE_0226                                   XREF[1]:     CODE:0218(j)  
       CODE:0226 c2 62           CLR        2c.2                                                       = ??
       CODE:0228 20 63 a3        JB         2c.3,LAB_CODE_01ce                                         = ??
       CODE:022b c2 65           CLR        2c.5                                                       = ??
       CODE:022d 21 dd           AJMP       LAB_CODE_01dd
                             LAB_CODE_022f                                   XREF[1]:     CODE:014f(j)  
       CODE:022f c2 db           CLR        CCF.3                                                      = ??
       CODE:0231 30 d9 b7        JNB        CCF.1,LAB_CODE_01eb                                        = ??
       CODE:0234 e5 70           MOV        A,DAT_INTMEM_70                                            = ??
       CODE:0236 b5 d9 b9        CJNE       A,CMOD,LAB_CODE_01f2                                       = ??
       CODE:0239 85 68 da        MOV        CCAPM0,DAT_INTMEM_68                                       = ??
       CODE:023c c2 d9           CLR        CCF.1                                                      = ??
       CODE:023e 75 70 40        MOV        DAT_INTMEM_70,#0x40                                        = ??
       CODE:0241 75 65 06        MOV        DAT_INTMEM_65,#0x6                                         = ??
       CODE:0244 21 53           AJMP       LAB_CODE_0153
                             LAB_CODE_0246                                   XREF[1]:     CODE:0151(j)  
       CODE:0246 30 d9 a2        JNB        CCF.1,LAB_CODE_01eb                                        = ??
       CODE:0249 e5 70           MOV        A,DAT_INTMEM_70                                            = ??
       CODE:024b b5 d9 a4        CJNE       A,CMOD,LAB_CODE_01f2                                       = ??
       CODE:024e b4 40 19        CJNE       A,#0x40,LAB_CODE_026a
                             LAB_CODE_0251                                   XREF[2]:     CODE:0274(j), CODE:0279(j)  
       CODE:0251 e5 69           MOV        A,DAT_INTMEM_69                                            = ??
       CODE:0253 70 04           JNZ        LAB_CODE_0259
       CODE:0255 c2 65           CLR        2c.5                                                       = ??
       CODE:0257 21 dd           AJMP       LAB_CODE_01dd
                             LAB_CODE_0259                                   XREF[1]:     CODE:0253(j)  
       CODE:0259 d2 d8           SETB       CCF.0                                                      = ??
       CODE:025b 75 70 50        MOV        DAT_INTMEM_70,#0x50                                        = ??
       CODE:025e d5 69 05        DJNZ       DAT_INTMEM_69,LAB_CODE_0266                                = ??
       CODE:0261 c2 d8           CLR        CCF.0                                                      = ??
       CODE:0263 75 70 58        MOV        DAT_INTMEM_70,#0x58                                        = ??
                             LAB_CODE_0266                                   XREF[1]:     CODE:025e(j)  
       CODE:0266 c2 d9           CLR        CCF.1                                                      = ??
       CODE:0268 21 53           AJMP       LAB_CODE_0153
                             LAB_CODE_026a                                   XREF[1]:     CODE:024e(j)  
       CODE:026a 20 60 09        JB         2c.0,LAB_CODE_0276                                         = ??
       CODE:026d 74 6a           MOV        A,#0x6a
       CODE:026f 25 69           ADD        A,DAT_INTMEM_69                                            = ??
       CODE:0271 f8              MOV        R0,A
       CODE:0272 a6 da           MOV        @R0,CCAPM0                                                 = ??
       CODE:0274 41 51           AJMP       LAB_CODE_0251
                             LAB_CODE_0276                                   XREF[1]:     CODE:026a(j)  
       CODE:0276 85 da d5        MOV        HPSC,CCAPM0                                                = ??
       CODE:0279 41 51           AJMP       LAB_CODE_0251
                             **************************************************************
                             *                          FUNCTION                          *
                             **************************************************************
                             undefined FUN_CODE_027b()
             undefined         ACC:1          <RETURN>
                             FUN_CODE_027b                                   XREF[3]:     FUN_CODE_24cf:24d4(c), 
                                                                                          FUN_CODE_27e9:2802(c), 
                                                                                          CODE:2828(c)  
       CODE:027b 43 a6 01        ORL        WDTRST,#0x1                                                = ??
       CODE:027e 43 a6 02        ORL        WDTRST,#0x2                                                = ??
       CODE:0281 43 a5 10        ORL        DAT_SFR_a5,#0x10                                           = ??
       CODE:0284 43 a6 08        ORL        WDTRST,#0x8                                                = ??
       CODE:0287 43 a7 01        ORL        WCON,#0x1                                                  = ??
       CODE:028a 43 a7 02        ORL        WCON,#0x2                                                  = ??
       CODE:028d d2 c8           SETB       CPRL2                                                      = ??
       CODE:028f d2 c9           SETB       CT2                                                        = ??
       CODE:0291 53 a6 fe        ANL        WDTRST,#0xfe                                               = ??
       CODE:0294 53 a6 fd        ANL        WDTRST,#0xfd                                               = ??
       CODE:0297 75 dc 03        MOV        CCAPM2,#0x3                                                = ??
       CODE:029a c2 df           CLR        CF                                                         = ??
       CODE:029c 22              RET
                             LAB_CODE_029d                                   XREF[1]:     CODE:02cb(j)  
       CODE:029d b4 04 07        CJNE       A,#0x4,LAB_CODE_02a7
       CODE:02a0 7a ff           MOV        R2,#0xff
       CODE:02a2 63 77 ff        XRL        DAT_INTMEM_77,#0xff                                        = ??
       CODE:02a5 41 da           AJMP       LAB_CODE_02da
                             LAB_CODE_02a7                                   XREF[2]:     CODE:029d(j), CODE:02d7(j)  
       CODE:02a7 91 55           ACALL      FUN_CODE_0455                                              undefined FUN_CODE_0455()
                             LAB_CODE_02a9                                   XREF[11]:    CODE:0366(j), CODE:0375(j), 
                                                                                          CODE:0384(j), CODE:03a0(j), 
                                                                                          CODE:03ae(j), CODE:03bc(j), 
                                                                                          CODE:03c1(j), CODE:03e0(j), 
                                                                                          CODE:03f6(j), CODE:041a(j), 
                                                                                          CODE:044b(j)  
       CODE:02a9 75 b0 85        MOV        P3,#0x85                                                   = ??
       CODE:02ac 53 8f fd        ANL        FADDR,#0xfd                                                = ??
       CODE:02af 8d d0           MOV        PSW,R5
       CODE:02b1 8e f0           MOV        B,R6
       CODE:02b3 8f e0           MOV        A,R7
       CODE:02b5 c2 d3           CLR        RS0                                                        = ??
       CODE:02b7 53 bf fe        ANL        DAT_SFR_bf,#0xfe                                           = ??
       CODE:02ba 32              RETI
                             **************************************************************
                             *                          FUNCTION                          *
                             **************************************************************
                             undefined FUN_CODE_02bb()
             undefined         ACC:1          <RETURN>
                             FUN_CODE_02bb                                   XREF[1]:     CODE:0006(c)  
       CODE:02bb 43 bf 01        ORL        DAT_SFR_bf,#0x1                                            = ??
       CODE:02be d2 d3           SETB       RS0                                                        = ??
       CODE:02c0 af e0           MOV        R7,A
       CODE:02c2 ae f0           MOV        R6,B
       CODE:02c4 ad d0           MOV        R5,PSW
       CODE:02c6 43 8f 02        ORL        FADDR,#0x2                                                 = ??
       CODE:02c9 e5 b0           MOV        A,P3                                                       = ??
       CODE:02cb b4 01 cf        CJNE       A,#0x1,LAB_CODE_029d
       CODE:02ce aa b5           MOV        R2,DAT_SFR_b5                                              = ??
       CODE:02d0 85 b6 77        MOV        DAT_INTMEM_77,DAT_SFR_b6                                   = ??
       CODE:02d3 e5 77           MOV        A,DAT_INTMEM_77                                            = ??
       CODE:02d5 54 f0           ANL        A,#0xf0
       CODE:02d7 b4 10 cd        CJNE       A,#0x10,LAB_CODE_02a7
                             LAB_CODE_02da                                   XREF[3]:     CODE:02a5(j), CODE:03e8(j), 
                                                                                          CODE:0422(j)  
       CODE:02da 30 66 02        JNB        2c.6,LAB_CODE_02df                                         = ??
       CODE:02dd 61 be           AJMP       LAB_CODE_03be
                             LAB_CODE_02df                                   XREF[1]:     CODE:02da(j)  
       CODE:02df c3              CLR        CY
       CODE:02e0 e5 71           MOV        A,DAT_INTMEM_71                                            = ??
       CODE:02e2 13              RRC        A
       CODE:02e3 83              MOVC       A,@A+PC
       CODE:02e4 50 01           JNC        LAB_CODE_02e7
       CODE:02e6 c4              SWAP       A
                             LAB_CODE_02e7                                   XREF[1]:     CODE:02e4(j)  
       CODE:02e7 54 0f           ANL        A,#0xf
       CODE:02e9 23              RL         A
       CODE:02ea 90 03 37        MOV        DPTR,#switchD_CODE:02ed::caseD_0
                             switchD_CODE:02ed::switchD
       CODE:02ed 73              JMP        @A+DPTR
       CODE:02ee 10              ??         10h
       CODE:02ef 33              ??         33h    3
       CODE:02f0 33              ??         33h    3
       CODE:02f1 43              ??         43h    C
       CODE:02f2 43              ??         43h    C
       CODE:02f3 45              ??         45h    E
       CODE:02f4 33              ??         33h    3
       CODE:02f5 33              ??         33h    3
       CODE:02f6 33              ??         33h    3
       CODE:02f7 33              ??         33h    3
       CODE:02f8 33              ??         33h    3
       CODE:02f9 33              ??         33h    3
       CODE:02fa 33              ??         33h    3
       CODE:02fb 33              ??         33h    3
       CODE:02fc 33              ??         33h    3
       CODE:02fd 33              ??         33h    3
       CODE:02fe 34              ??         34h    4
       CODE:02ff 33              ??         33h    3
       CODE:0300 33              ??         33h    3
       CODE:0301 73              ??         73h    s
       CODE:0302 76              ??         76h    v
       CODE:0303 76              ??         76h    v
       CODE:0304 76              ??         76h    v
       CODE:0305 76              ??         76h    v
       CODE:0306 43              ??         43h    C
       CODE:0307 34              ??         34h    4
       CODE:0308 73              ??         73h    s
       CODE:0309 76              ??         76h    v
       CODE:030a 76              ??         76h    v
       CODE:030b 76              ??         76h    v
       CODE:030c 76              ??         76h    v
       CODE:030d 76              ??         76h    v
       CODE:030e 76              ??         76h    v
       CODE:030f 76              ??         76h    v
       CODE:0310 76              ??         76h    v
       CODE:0311 82              ??         82h
       CODE:0312 a8              ??         A8h
       CODE:0313 a9              ??         A9h
       CODE:0314 a9              ??         A9h
       CODE:0315 a9              ??         A9h
       CODE:0316 a9              ??         A9h
       CODE:0317 a9              ??         A9h
       CODE:0318 a9              ??         A9h
       CODE:0319 a9              ??         A9h
       CODE:031a a9              ??         A9h
       CODE:031b a9              ??         A9h
       CODE:031c a9              ??         A9h
       CODE:031d b9              ??         B9h
       CODE:031e a9              ??         A9h
       CODE:031f a9              ??         A9h
       CODE:0320 a9              ??         A9h
       CODE:0321 a9              ??         A9h
       CODE:0322 a9              ??         A9h
       CODE:0323 a9              ??         A9h
       CODE:0324 a9              ??         A9h
       CODE:0325 a9              ??         A9h
       CODE:0326 a9              ??         A9h
       CODE:0327 a9              ??         A9h
       CODE:0328 a9              ??         A9h
       CODE:0329 a9              ??         A9h
       CODE:032a a9              ??         A9h
       CODE:032b a9              ??         A9h
       CODE:032c a9              ??         A9h
       CODE:032d a9              ??         A9h
       CODE:032e a9              ??         A9h
       CODE:032f a9              ??         A9h
       CODE:0330 a9              ??         A9h
       CODE:0331 a9              ??         A9h
       CODE:0332 a9              ??         A9h
       CODE:0333 a9              ??         A9h
       CODE:0334 a9              ??         A9h
       CODE:0335 a9              ??         A9h
       CODE:0336 02              ??         02h
                             switchD_CODE:02ed::caseD_0                      XREF[2]:     CODE:02ea(*), CODE:02ed(j)  
       CODE:0337 61 4f           AJMP       switchD_CODE:02ed::caseD_c
                             switchD_CODE:02ed::caseD_1                      XREF[1]:     CODE:02ed(j)  
       CODE:0339 61 68           AJMP       LAB_CODE_0368
                             switchD_CODE:02ed::caseD_2                      XREF[1]:     CODE:02ed(j)  
       CODE:033b 61 86           AJMP       LAB_CODE_0386
                             switchD_CODE:02ed::caseD_3                      XREF[1]:     CODE:02ed(j)  
       CODE:033d 61 94           AJMP       LAB_CODE_0394
                             switchD_CODE:02ed::caseD_4                      XREF[1]:     CODE:02ed(j)  
       CODE:033f 61 a2           AJMP       LAB_CODE_03a2
                             switchD_CODE:02ed::caseD_5                      XREF[1]:     CODE:02ed(j)  
       CODE:0341 61 b0           AJMP       LAB_CODE_03b0
                             switchD_CODE:02ed::caseD_6                      XREF[1]:     CODE:02ed(j)  
       CODE:0343 61 c3           AJMP       LAB_CODE_03c3
                             switchD_CODE:02ed::caseD_7                      XREF[1]:     CODE:02ed(j)  
       CODE:0345 61 d4           AJMP       LAB_CODE_03d4
                             switchD_CODE:02ed::caseD_8                      XREF[1]:     CODE:02ed(j)  
       CODE:0347 61 ea           AJMP       LAB_CODE_03ea
                             switchD_CODE:02ed::caseD_9                      XREF[1]:     CODE:02ed(j)  
       CODE:0349 61 f8           AJMP       LAB_CODE_03f8
                             switchD_CODE:02ed::caseD_a                      XREF[1]:     CODE:02ed(j)  
       CODE:034b 81 0e           AJMP       LAB_CODE_040e
                             switchD_CODE:02ed::caseD_b                      XREF[1]:     CODE:02ed(j)  
       CODE:034d 81 24           AJMP       LAB_CODE_0424
                             caseD_d (CODE:034f+2)                           XREF[2,1]:   CODE:02ed(j), CODE:0337(j), 
                             switchD_CODE:02ed::caseD_c                                   CODE:02ed(j)  
       CODE:034f 75 76 00        MOV        DAT_INTMEM_76,#0x0                                         = ??
                             caseD_e (CODE:0352+1)                           XREF[0,1]:   CODE:02ed(j)  
       CODE:0352 75 72 00        MOV        DAT_INTMEM_72,#0x0                                         = ??
                             switchD_CODE:02ed::caseD_f                      XREF[1]:     CODE:02ed(j)  
       CODE:0355 e5 77           MOV        A,DAT_INTMEM_77                                            = ??
       CODE:0357 20 e3 64        JB         ACC.3,LAB_CODE_03be                                        = ??
       CODE:035a ea              MOV        A,R2
       CODE:035b 24 4a           ADD        A,#0x4a
       CODE:035d 50 5f           JNC        LAB_CODE_03be
       CODE:035f ea              MOV        A,R2
       CODE:0360 24 2f           ADD        A,#0x2f
       CODE:0362 40 5a           JC         LAB_CODE_03be
       CODE:0364 05 71           INC        DAT_INTMEM_71                                              = ??
       CODE:0366 41 a9           AJMP       LAB_CODE_02a9
                             LAB_CODE_0368                                   XREF[1]:     CODE:0339(j)  
       CODE:0368 ea              MOV        A,R2
       CODE:0369 24 ca           ADD        A,#0xca
       CODE:036b 50 0a           JNC        LAB_CODE_0377
       CODE:036d ea              MOV        A,R2
       CODE:036e 24 b5           ADD        A,#0xb5
       CODE:0370 40 05           JC         LAB_CODE_0377
       CODE:0372 75 71 16        MOV        DAT_INTMEM_71,#0x16                                        = ??
       CODE:0375 41 a9           AJMP       LAB_CODE_02a9
                             LAB_CODE_0377                                   XREF[2]:     CODE:036b(j), CODE:0370(j)  
       CODE:0377 ea              MOV        A,R2
       CODE:0378 24 f4           ADD        A,#0xf4
       CODE:037a 50 42           JNC        LAB_CODE_03be
       CODE:037c ea              MOV        A,R2
       CODE:037d 24 df           ADD        A,#0xdf
       CODE:037f 40 3d           JC         LAB_CODE_03be
       CODE:0381 75 71 5b        MOV        DAT_INTMEM_71,#0x5b                                        = ??
       CODE:0384 41 a9           AJMP       LAB_CODE_02a9
                             LAB_CODE_0386                                   XREF[1]:     CODE:033b(j)  
       CODE:0386 e5 77           MOV        A,DAT_INTMEM_77                                            = ??
       CODE:0388 30 e3 33        JNB        ACC.3,LAB_CODE_03be                                        = ??
       CODE:038b ea              MOV        A,R2
       CODE:038c 24 4a           ADD        A,#0x4a
       CODE:038e 50 2e           JNC        LAB_CODE_03be
       CODE:0390 d2 66           SETB       2c.6                                                       = ??
       CODE:0392 61 be           AJMP       LAB_CODE_03be
                             LAB_CODE_0394                                   XREF[2]:     CODE:033d(j), CODE:03d2(j)  
       CODE:0394 ea              MOV        A,R2
       CODE:0395 24 ea           ADD        A,#0xea
       CODE:0397 50 25           JNC        LAB_CODE_03be
       CODE:0399 ea              MOV        A,R2
       CODE:039a 24 d5           ADD        A,#0xd5
       CODE:039c 40 20           JC         LAB_CODE_03be
       CODE:039e 05 71           INC        DAT_INTMEM_71                                              = ??
       CODE:03a0 41 a9           AJMP       LAB_CODE_02a9
                             LAB_CODE_03a2                                   XREF[1]:     CODE:033f(j)  
       CODE:03a2 ea              MOV        A,R2
       CODE:03a3 24 ca           ADD        A,#0xca
       CODE:03a5 50 17           JNC        LAB_CODE_03be
       CODE:03a7 ea              MOV        A,R2
       CODE:03a8 24 b5           ADD        A,#0xb5
       CODE:03aa 40 12           JC         LAB_CODE_03be
       CODE:03ac 05 71           INC        DAT_INTMEM_71                                              = ??
       CODE:03ae 41 a9           AJMP       LAB_CODE_02a9
                             LAB_CODE_03b0                                   XREF[1]:     CODE:0341(j)  
       CODE:03b0 ea              MOV        A,R2
       CODE:03b1 24 aa           ADD        A,#0xaa
       CODE:03b3 50 09           JNC        LAB_CODE_03be
       CODE:03b5 ea              MOV        A,R2
       CODE:03b6 24 95           ADD        A,#0x95
       CODE:03b8 40 04           JC         LAB_CODE_03be
       CODE:03ba 05 71           INC        DAT_INTMEM_71                                              = ??
       CODE:03bc 41 a9           AJMP       LAB_CODE_02a9
                             LAB_CODE_03be                                   XREF[21]:    CODE:02dd(j), CODE:0357(j), 
                                                                                          CODE:035d(j), CODE:0362(j), 
                                                                                          CODE:037a(j), CODE:037f(j), 
                                                                                          CODE:0388(j), CODE:038e(j), 
                                                                                          CODE:0392(j), CODE:0397(j), 
                                                                                          CODE:039c(j), CODE:03a5(j), 
                                                                                          CODE:03aa(j), CODE:03b3(j), 
                                                                                          CODE:03b8(j), CODE:03d7(j), 
                                                                                          CODE:03ed(j), CODE:03f2(j), 
                                                                                          CODE:0411(j), CODE:0427(j), [more]
       CODE:03be 75 71 14        MOV        DAT_INTMEM_71,#0x14                                        = ??
       CODE:03c1 41 a9           AJMP       LAB_CODE_02a9
                             LAB_CODE_03c3                                   XREF[1]:     CODE:0343(j)  
       CODE:03c3 e5 77           MOV        A,DAT_INTMEM_77                                            = ??
       CODE:03c5 a2 e3           MOV        CY,ACC.3                                                   = ??
       CODE:03c7 b3              CPL        CY
       CODE:03c8 e5 74           MOV        A,DAT_INTMEM_74                                            = ??
       CODE:03ca 33              RLC        A
       CODE:03cb f5 74           MOV        DAT_INTMEM_74,A                                            = ??
       CODE:03cd e5 73           MOV        A,DAT_INTMEM_73                                            = ??
       CODE:03cf 33              RLC        A
       CODE:03d0 f5 73           MOV        DAT_INTMEM_73,A                                            = ??
       CODE:03d2 61 94           AJMP       LAB_CODE_0394
                             LAB_CODE_03d4                                   XREF[1]:     CODE:0345(j)  
       CODE:03d4 ea              MOV        A,R2
       CODE:03d5 24 ea           ADD        A,#0xea
       CODE:03d7 50 e5           JNC        LAB_CODE_03be
       CODE:03d9 ea              MOV        A,R2
       CODE:03da 24 d5           ADD        A,#0xd5
       CODE:03dc 40 04           JC         LAB_CODE_03e2
       CODE:03de 05 71           INC        DAT_INTMEM_71                                              = ??
       CODE:03e0 41 a9           AJMP       LAB_CODE_02a9
                             LAB_CODE_03e2                                   XREF[1]:     CODE:03dc(j)  
       CODE:03e2 ea              MOV        A,R2
       CODE:03e3 94 20           SUBB       A,#0x20
       CODE:03e5 fa              MOV        R2,A
       CODE:03e6 05 71           INC        DAT_INTMEM_71                                              = ??
       CODE:03e8 41 da           AJMP       LAB_CODE_02da
                             LAB_CODE_03ea                                   XREF[2]:     CODE:0347(j), CODE:040c(j)  
       CODE:03ea ea              MOV        A,R2
       CODE:03eb 24 f4           ADD        A,#0xf4
       CODE:03ed 50 cf           JNC        LAB_CODE_03be
       CODE:03ef ea              MOV        A,R2
       CODE:03f0 24 df           ADD        A,#0xdf
       CODE:03f2 40 ca           JC         LAB_CODE_03be
       CODE:03f4 05 71           INC        DAT_INTMEM_71                                              = ??
       CODE:03f6 41 a9           AJMP       LAB_CODE_02a9
                             LAB_CODE_03f8                                   XREF[1]:     CODE:0349(j)  
       CODE:03f8 e5 77           MOV        A,DAT_INTMEM_77                                            = ??
       CODE:03fa a2 e3           MOV        CY,ACC.3                                                   = ??
       CODE:03fc b3              CPL        CY
       CODE:03fd e5 76           MOV        A,DAT_INTMEM_76                                            = ??
       CODE:03ff 33              RLC        A
       CODE:0400 f5 76           MOV        DAT_INTMEM_76,A                                            = ??
       CODE:0402 e5 75           MOV        A,DAT_INTMEM_75                                            = ??
       CODE:0404 33              RLC        A
       CODE:0405 f5 75           MOV        DAT_INTMEM_75,A                                            = ??
       CODE:0407 e5 74           MOV        A,DAT_INTMEM_74                                            = ??
       CODE:0409 33              RLC        A
       CODE:040a f5 74           MOV        DAT_INTMEM_74,A                                            = ??
       CODE:040c 61 ea           AJMP       LAB_CODE_03ea
                             LAB_CODE_040e                                   XREF[1]:     CODE:034b(j)  
       CODE:040e ea              MOV        A,R2
       CODE:040f 24 f4           ADD        A,#0xf4
       CODE:0411 50 ab           JNC        LAB_CODE_03be
       CODE:0413 ea              MOV        A,R2
       CODE:0414 24 df           ADD        A,#0xdf
       CODE:0416 40 04           JC         LAB_CODE_041c
       CODE:0418 05 71           INC        DAT_INTMEM_71                                              = ??
       CODE:041a 41 a9           AJMP       LAB_CODE_02a9
                             LAB_CODE_041c                                   XREF[2]:     CODE:0416(j), CODE:0447(j)  
       CODE:041c ea              MOV        A,R2
       CODE:041d 94 16           SUBB       A,#0x16
       CODE:041f fa              MOV        R2,A
       CODE:0420 05 71           INC        DAT_INTMEM_71                                              = ??
       CODE:0422 41 da           AJMP       LAB_CODE_02da
                             LAB_CODE_0424                                   XREF[1]:     CODE:034d(j)  
       CODE:0424 ea              MOV        A,R2
       CODE:0425 24 f4           ADD        A,#0xf4
       CODE:0427 50 95           JNC        LAB_CODE_03be
       CODE:0429 85 75 72        MOV        DAT_INTMEM_72,DAT_INTMEM_75                                = ??
       CODE:042c 85 76 73        MOV        DAT_INTMEM_73,DAT_INTMEM_76                                = ??
       CODE:042f e5 72           MOV        A,DAT_INTMEM_72                                            = ??
       CODE:0431 30 d0 8a        JNB        P,LAB_CODE_03be                                            = ??
       CODE:0434 b4 07 05        CJNE       A,#0x7,LAB_CODE_043c
       CODE:0437 75 71 93        MOV        DAT_INTMEM_71,#0x93                                        = ??
       CODE:043a 81 44           AJMP       LAB_CODE_0444
                             LAB_CODE_043c                                   XREF[1]:     CODE:0434(j)  
       CODE:043c b4 01 05        CJNE       A,#0x1,LAB_CODE_0444
       CODE:043f 75 71 79        MOV        DAT_INTMEM_71,#0x79                                        = ??
       CODE:0442 81 44           AJMP       LAB_CODE_0444
                             LAB_CODE_0444                                   XREF[3]:     CODE:043a(j), CODE:043c(j), 
                                                                                          CODE:0442(j)  
       CODE:0444 ea              MOV        A,R2
       CODE:0445 24 df           ADD        A,#0xdf
       CODE:0447 40 d3           JC         LAB_CODE_041c
       CODE:0449 05 71           INC        DAT_INTMEM_71                                              = ??
       CODE:044b 41 a9           AJMP       LAB_CODE_02a9
       CODE:044d ea              ??         EAh
       CODE:044e 94              ??         94h
       CODE:044f 16              ??         16h
       CODE:0450 fa              ??         FAh
       CODE:0451 05              ??         05h
       CODE:0452 71              ??         71h    q
       CODE:0453 41              ??         41h    A
       CODE:0454 da              ??         DAh
                             **************************************************************
                             *                          FUNCTION                          *
                             **************************************************************
                             undefined FUN_CODE_0455()
             undefined         ACC:1          <RETURN>
                             FUN_CODE_0455                                   XREF[2]:     FUN_CODE_02bb:02a7(c), 
                                                                                          FUN_CODE_24cf:24d1(c)  
       CODE:0455 75 b7 f2        MOV        IPH0,#0xf2                                                 = ??
       CODE:0458 75 b7 10        MOV        IPH0,#0x10                                                 = ??
       CODE:045b 75 b1 00        MOV        IEN1,#0x0                                                  = ??
       CODE:045e 75 b2 4c        MOV        IPL1,#0x4c                                                 = ??
       CODE:0461 75 b2 82        MOV        IPL1,#0x82                                                 = ??
       CODE:0464 75 b3 0c        MOV        IPH1,#0xc                                                  = ??
       CODE:0467 75 b4 3f        MOV        DAT_SFR_b4,#0x3f                                           = ??
       CODE:046a 75 b0 87        MOV        P3,#0x87                                                   = ??
       CODE:046d 75 b1 07        MOV        IEN1,#0x7                                                  = ??
       CODE:0470 75 71 14        MOV        DAT_INTMEM_71,#0x14                                        = ??
       CODE:0473 43 b7 01        ORL        IPH0,#0x1                                                  = ??
       CODE:0476 43 b9 40        ORL        SADEN,#0x40                                                = ??
       CODE:0479 53 bc bf        ANL        DAT_SFR_bc,#0xbf                                           = ??
       CODE:047c 22              RET
                             LAB_CODE_047d                                   XREF[1]:     CODE:05f5(j)  
       CODE:047d 43 9d 04        ORL        DAT_SFR_9d,#0x4                                            = ??
       CODE:0480 43 9d 08        ORL        DAT_SFR_9d,#0x8                                            = ??
       CODE:0483 53 a2 fb        ANL        FIE,#0xfb                                                  = ??
       CODE:0486 53 a2 f7        ANL        FIE,#0xf7                                                  = ??
       CODE:0489 c2 6c           CLR        2d.4                                                       = ??
       CODE:048b c2 82           CLR        P0.2                                                       = ??
       CODE:048d c2 83           CLR        P0.3                                                       = ??
       CODE:048f 75 11 0b        MOV        BANK2_R1,#0xb                                              = ??
       CODE:0492 a1 37           AJMP       LAB_CODE_0537
                             LAB_CODE_0494                                   XREF[1]:     CODE:05fb(j)  
       CODE:0494 43 9d 04        ORL        DAT_SFR_9d,#0x4                                            = ??
       CODE:0497 43 9d 08        ORL        DAT_SFR_9d,#0x8                                            = ??
       CODE:049a 53 a2 fb        ANL        FIE,#0xfb                                                  = ??
       CODE:049d 53 a2 f7        ANL        FIE,#0xf7                                                  = ??
       CODE:04a0 30 82 02        JNB        P0.2,LAB_CODE_04a5                                         = ??
       CODE:04a3 a1 43           AJMP       LAB_CODE_0543
                             LAB_CODE_04a5                                   XREF[2]:     CODE:04a0(j), CODE:04e5(j)  
       CODE:04a5 30 6c 07        JNB        2d.4,LAB_CODE_04af                                         = ??
       CODE:04a8 20 6b 04        JB         2d.3,LAB_CODE_04af                                         = ??
       CODE:04ab c2 68           CLR        2d.0                                                       = ??
       CODE:04ad c2 6c           CLR        2d.4                                                       = ??
                             LAB_CODE_04af                                   XREF[2]:     CODE:04a5(j), CODE:04a8(j)  
       CODE:04af 75 12 0b        MOV        BANK2_R2,#0xb                                              = ??
       CODE:04b2 75 11 0b        MOV        BANK2_R1,#0xb                                              = ??
       CODE:04b5 a1 4b           AJMP       LAB_CODE_054b
                             LAB_CODE_04b7                                   XREF[1]:     CODE:05f9(j)  
       CODE:04b7 d5 11 04        DJNZ       BANK2_R1,LAB_CODE_04be                                     = ??
       CODE:04ba c2 68           CLR        2d.0                                                       = ??
       CODE:04bc a1 33           AJMP       LAB_CODE_0533
                             LAB_CODE_04be                                   XREF[1]:     CODE:04b7(j)  
       CODE:04be 30 82 7a        JNB        P0.2,LAB_CODE_053b                                         = ??
       CODE:04c1 30 83 77        JNB        P0.3,LAB_CODE_053b                                         = ??
       CODE:04c4 a1 3f           AJMP       LAB_CODE_053f
                             LAB_CODE_04c6                                   XREF[1]:     CODE:05f7(j)  
       CODE:04c6 d5 11 6e        DJNZ       BANK2_R1,LAB_CODE_0537                                     = ??
       CODE:04c9 30 67 04        JNB        2c.7,LAB_CODE_04d0                                         = ??
       CODE:04cc 05 11           INC        BANK2_R1                                                   = ??
       CODE:04ce a1 37           AJMP       LAB_CODE_0537
                             LAB_CODE_04d0                                   XREF[1]:     CODE:04c9(j)  
       CODE:04d0 d2 82           SETB       P0.2                                                       = ??
       CODE:04d2 d2 83           SETB       P0.3                                                       = ??
       CODE:04d4 75 11 64        MOV        BANK2_R1,#0x64                                             = ??
       CODE:04d7 a1 3b           AJMP       LAB_CODE_053b
                             LAB_CODE_04d9                                   XREF[1]:     CODE:05fd(j)  
       CODE:04d9 43 9d 04        ORL        DAT_SFR_9d,#0x4                                            = ??
       CODE:04dc 43 9d 08        ORL        DAT_SFR_9d,#0x8                                            = ??
       CODE:04df 53 a2 fb        ANL        FIE,#0xfb                                                  = ??
       CODE:04e2 53 a2 f7        ANL        FIE,#0xf7                                                  = ??
       CODE:04e5 30 82 bd        JNB        P0.2,LAB_CODE_04a5                                         = ??
       CODE:04e8 20 6c 0d        JB         2d.4,LAB_CODE_04f8                                         = ??
       CODE:04eb e5 16           MOV        A,BANK2_R6                                                 = ??
       CODE:04ed 70 05           JNZ        LAB_CODE_04f4
       CODE:04ef 20 68 17        JB         2d.0,LAB_CODE_0509                                         = ??
       CODE:04f2 a1 43           AJMP       LAB_CODE_0543
                             LAB_CODE_04f4                                   XREF[1]:     CODE:04ed(j)  
       CODE:04f4 15 16           DEC        BANK2_R6                                                   = ??
       CODE:04f6 a1 43           AJMP       LAB_CODE_0543
                             LAB_CODE_04f8                                   XREF[1]:     CODE:04e8(j)  
       CODE:04f8 30 6b 07        JNB        2d.3,LAB_CODE_0502                                         = ??
       CODE:04fb d5 11 45        DJNZ       BANK2_R1,LAB_CODE_0543                                     = ??
       CODE:04fe c2 68           CLR        2d.0                                                       = ??
       CODE:0500 a1 33           AJMP       LAB_CODE_0533
                             LAB_CODE_0502                                   XREF[1]:     CODE:04f8(j)  
       CODE:0502 d2 6d           SETB       2d.5                                                       = ??
       CODE:0504 85 15 14        MOV        BANK2_R4,BANK2_R5                                          = ??
       CODE:0507 a1 15           AJMP       LAB_CODE_0515
                             LAB_CODE_0509                                   XREF[1]:     CODE:04ef(j)  
       CODE:0509 c2 6d           CLR        2d.5                                                       = ??
       CODE:050b e5 14           MOV        A,BANK2_R4                                                 = ??
       CODE:050d 70 06           JNZ        LAB_CODE_0515
       CODE:050f c2 68           CLR        2d.0                                                       = ??
       CODE:0511 c2 69           CLR        2d.1                                                       = ??
       CODE:0513 a1 33           AJMP       LAB_CODE_0533
                             LAB_CODE_0515                                   XREF[2]:     CODE:0507(j), CODE:050d(j)  
       CODE:0515 75 12 0b        MOV        BANK2_R2,#0xb                                              = ??
       CODE:0518 75 11 0b        MOV        BANK2_R1,#0xb                                              = ??
       CODE:051b c2 83           CLR        P0.3                                                       = ??
       CODE:051d c2 6e           CLR        2d.6                                                       = ??
       CODE:051f a1 4f           AJMP       LAB_CODE_054f
                             LAB_CODE_0521                                   XREF[1]:     CODE:05ff(j)  
       CODE:0521 30 82 0a        JNB        P0.2,LAB_CODE_052e                                         = ??
       CODE:0524 d5 11 20        DJNZ       BANK2_R1,LAB_CODE_0547                                     = ??
       CODE:0527 30 6c 02        JNB        2d.4,LAB_CODE_052c                                         = ??
       CODE:052a c2 68           CLR        2d.0                                                       = ??
                             LAB_CODE_052c                                   XREF[1]:     CODE:0527(j)  
       CODE:052c a1 33           AJMP       LAB_CODE_0533
                             LAB_CODE_052e                                   XREF[1]:     CODE:0521(j)  
       CODE:052e 75 11 0b        MOV        BANK2_R1,#0xb                                              = ??
       CODE:0531 a1 4b           AJMP       LAB_CODE_054b
                             LAB_CODE_0533                                   XREF[8]:     CODE:04bc(j), CODE:0500(j), 
                                                                                          CODE:0513(j), CODE:052c(j), 
                                                                                          CODE:0562(j), CODE:056f(j), 
                                                                                          CODE:059d(j), CODE:05c8(j)  
       CODE:0533 75 10 00        MOV        BANK2_R0,#0x0                                              = ??
       CODE:0536 22              RET
                             LAB_CODE_0537                                   XREF[3]:     CODE:0492(j), CODE:04c6(j), 
                                                                                          CODE:04ce(j)  
       CODE:0537 75 10 01        MOV        BANK2_R0,#0x1                                              = ??
       CODE:053a 22              RET
                             LAB_CODE_053b                                   XREF[3]:     CODE:04be(j), CODE:04c1(j), 
                                                                                          CODE:04d7(j)  
       CODE:053b 75 10 02        MOV        BANK2_R0,#0x2                                              = ??
       CODE:053e 22              RET
                             LAB_CODE_053f                                   XREF[6]:     CODE:04c4(j), CODE:056a(j), 
                                                                                          CODE:057d(j), CODE:0585(j), 
                                                                                          CODE:05e4(j), CODE:05ec(j)  
       CODE:053f 75 10 03        MOV        BANK2_R0,#0x3                                              = ??
       CODE:0542 22              RET
                             LAB_CODE_0543                                   XREF[4]:     CODE:04a3(j), CODE:04f2(j), 
                                                                                          CODE:04f6(j), CODE:04fb(j)  
       CODE:0543 75 10 04        MOV        BANK2_R0,#0x4                                              = ??
       CODE:0546 22              RET
                             LAB_CODE_0547                                   XREF[2]:     CODE:0524(j), CODE:0593(j)  
       CODE:0547 75 10 05        MOV        BANK2_R0,#0x5                                              = ??
       CODE:054a 22              RET
                             LAB_CODE_054b                                   XREF[3]:     CODE:04b5(j), CODE:0531(j), 
                                                                                          CODE:055a(j)  
       CODE:054b 75 10 06        MOV        BANK2_R0,#0x6                                              = ??
       CODE:054e 22              RET
                             LAB_CODE_054f                                   XREF[3]:     CODE:051f(j), CODE:0598(j), 
                                                                                          CODE:05d7(j)  
       CODE:054f 75 10 07        MOV        BANK2_R0,#0x7                                              = ??
       CODE:0552 22              RET
                             LAB_CODE_0553                                   XREF[4]:     CODE:05ab(j), CODE:05af(j), 
                                                                                          CODE:05be(j), CODE:05c3(j)  
       CODE:0553 75 10 08        MOV        BANK2_R0,#0x8                                              = ??
       CODE:0556 22              RET
                             LAB_CODE_0557                                   XREF[1]:     CODE:0601(j)  
       CODE:0557 20 82 0a        JB         P0.2,LAB_CODE_0564                                         = ??
       CODE:055a d5 11 ee        DJNZ       BANK2_R1,LAB_CODE_054b                                     = ??
       CODE:055d 30 6c 02        JNB        2d.4,LAB_CODE_0562                                         = ??
       CODE:0560 c2 68           CLR        2d.0                                                       = ??
                             LAB_CODE_0562                                   XREF[1]:     CODE:055d(j)  
       CODE:0562 a1 33           AJMP       LAB_CODE_0533
                             LAB_CODE_0564                                   XREF[1]:     CODE:0557(j)  
       CODE:0564 d5 12 20        DJNZ       BANK2_R2,LAB_CODE_0587                                     = ??
       CODE:0567 20 6c 07        JB         2d.4,LAB_CODE_0571                                         = ??
       CODE:056a 20 6d d2        JB         2d.5,LAB_CODE_053f                                         = ??
       CODE:056d d2 67           SETB       2c.7                                                       = ??
       CODE:056f a1 33           AJMP       LAB_CODE_0533
                             LAB_CODE_0571                                   XREF[1]:     CODE:0567(j)  
       CODE:0571 30 6d 0b        JNB        2d.5,LAB_CODE_057f                                         = ??
       CODE:0574 85 13 15        MOV        BANK2_R5,BANK2_R3                                          = ??
       CODE:0577 c2 68           CLR        2d.0                                                       = ??
       CODE:0579 c2 69           CLR        2d.1                                                       = ??
       CODE:057b c2 6c           CLR        2d.4                                                       = ??
       CODE:057d a1 3f           AJMP       LAB_CODE_053f
                             LAB_CODE_057f                                   XREF[1]:     CODE:0571(j)  
       CODE:057f c2 68           CLR        2d.0                                                       = ??
       CODE:0581 c2 6c           CLR        2d.4                                                       = ??
       CODE:0583 d2 67           SETB       2c.7                                                       = ??
       CODE:0585 a1 3f           AJMP       LAB_CODE_053f
                             LAB_CODE_0587                                   XREF[1]:     CODE:0564(j)  
       CODE:0587 75 11 0b        MOV        BANK2_R1,#0xb                                              = ??
       CODE:058a e5 13           MOV        A,BANK2_R3                                                 = ??
       CODE:058c a2 83           MOV        CY,P0.3                                                    = ??
       CODE:058e 33              RLC        A
       CODE:058f f5 13           MOV        BANK2_R3,A                                                 = ??
       CODE:0591 92 6d           MOV        2d.5,CY                                                    = ??
       CODE:0593 a1 47           AJMP       LAB_CODE_0547
                             LAB_CODE_0595                                   XREF[1]:     CODE:0603(j)  
       CODE:0595 30 82 07        JNB        P0.2,LAB_CODE_059f                                         = ??
       CODE:0598 d5 11 b4        DJNZ       BANK2_R1,LAB_CODE_054f                                     = ??
       CODE:059b c2 68           CLR        2d.0                                                       = ??
       CODE:059d a1 33           AJMP       LAB_CODE_0533
                             LAB_CODE_059f                                   XREF[1]:     CODE:0595(j)  
       CODE:059f 75 11 0b        MOV        BANK2_R1,#0xb                                              = ??
       CODE:05a2 e5 12           MOV        A,BANK2_R2                                                 = ??
       CODE:05a4 d5 12 06        DJNZ       BANK2_R2,LAB_CODE_05ad                                     = ??
       CODE:05a7 d2 83           SETB       P0.3                                                       = ??
       CODE:05a9 d2 6e           SETB       2d.6                                                       = ??
       CODE:05ab a1 53           AJMP       LAB_CODE_0553
                             LAB_CODE_05ad                                   XREF[1]:     CODE:05a4(j)  
       CODE:05ad 64 0b           XRL        A,#0xb
       CODE:05af 60 a2           JZ         LAB_CODE_0553
       CODE:05b1 a2 6d           MOV        CY,2d.5                                                    = ??
       CODE:05b3 92 83           MOV        P0.3,CY                                                    = ??
       CODE:05b5 92 6e           MOV        2d.6,CY                                                    = ??
       CODE:05b7 e5 14           MOV        A,BANK2_R4                                                 = ??
       CODE:05b9 33              RLC        A
       CODE:05ba f5 14           MOV        BANK2_R4,A                                                 = ??
       CODE:05bc 92 6d           MOV        2d.5,CY                                                    = ??
       CODE:05be a1 53           AJMP       LAB_CODE_0553
                             LAB_CODE_05c0                                   XREF[1]:     CODE:0605(j)  
       CODE:05c0 20 82 07        JB         P0.2,LAB_CODE_05ca                                         = ??
       CODE:05c3 d5 11 8d        DJNZ       BANK2_R1,LAB_CODE_0553                                     = ??
                             LAB_CODE_05c6                                   XREF[1]:     CODE:05cd(j)  
       CODE:05c6 c2 68           CLR        2d.0                                                       = ??
       CODE:05c8 a1 33           AJMP       LAB_CODE_0533
                             LAB_CODE_05ca                                   XREF[1]:     CODE:05c0(j)  
       CODE:05ca 30 6e 03        JNB        2d.6,LAB_CODE_05d0                                         = ??
       CODE:05cd 30 83 f6        JNB        P0.3,LAB_CODE_05c6                                         = ??
                             LAB_CODE_05d0                                   XREF[1]:     CODE:05ca(j)  
       CODE:05d0 e5 12           MOV        A,BANK2_R2                                                 = ??
       CODE:05d2 60 05           JZ         LAB_CODE_05d9
       CODE:05d4 75 11 0b        MOV        BANK2_R1,#0xb                                              = ??
       CODE:05d7 a1 4f           AJMP       LAB_CODE_054f
                             LAB_CODE_05d9                                   XREF[1]:     CODE:05d2(j)  
       CODE:05d9 20 6c 0a        JB         2d.4,LAB_CODE_05e6                                         = ??
       CODE:05dc 30 6a 07        JNB        2d.2,LAB_CODE_05e6                                         = ??
       CODE:05df d2 6c           SETB       2d.4                                                       = ??
       CODE:05e1 75 11 96        MOV        BANK2_R1,#0x96                                             = ??
       CODE:05e4 a1 3f           AJMP       LAB_CODE_053f
                             LAB_CODE_05e6                                   XREF[2]:     CODE:05d9(j), CODE:05dc(j)  
       CODE:05e6 c2 68           CLR        2d.0                                                       = ??
       CODE:05e8 c2 69           CLR        2d.1                                                       = ??
       CODE:05ea c2 6c           CLR        2d.4                                                       = ??
       CODE:05ec a1 3f           AJMP       LAB_CODE_053f
                             **************************************************************
                             *                          FUNCTION                          *
                             **************************************************************
                             undefined FUN_CODE_05ee()
             undefined         ACC:1          <RETURN>
                             FUN_CODE_05ee                                   XREF[1]:     FUN_CODE_00d3:00ea(c)  
       CODE:05ee e5 10           MOV        A,BANK2_R0                                                 = ??
       CODE:05f0 23              RL         A
       CODE:05f1 90 05 f5        MOV        DPTR,#LAB_CODE_05f5
       CODE:05f4 73              JMP        @A+DPTR
                             LAB_CODE_05f5                                   XREF[1]:     FUN_CODE_05ee:05f1(*)  
       CODE:05f5 81 7d           AJMP       LAB_CODE_047d
       CODE:05f7 81 c6           AJMP       LAB_CODE_04c6
       CODE:05f9 81 b7           AJMP       LAB_CODE_04b7
       CODE:05fb 81 94           AJMP       LAB_CODE_0494
       CODE:05fd 81 d9           AJMP       LAB_CODE_04d9
       CODE:05ff a1 21           AJMP       LAB_CODE_0521
       CODE:0601 a1 57           AJMP       LAB_CODE_0557
       CODE:0603 a1 95           AJMP       LAB_CODE_0595
       CODE:0605 a1 c0           AJMP       LAB_CODE_05c0
                             **************************************************************
                             *                          FUNCTION                          *
                             **************************************************************
                             undefined FUN_CODE_0607()
             undefined         ACC:1          <RETURN>
                             FUN_CODE_0607                                   XREF[1]:     FUN_CODE_00d3:00e8(c)  
       CODE:0607 e5 1f           MOV        A,BANK3_R7                                                 = ??
       CODE:0609 60 01           JZ         LAB_CODE_060c
       CODE:060b 22              RET
                             LAB_CODE_060c                                   XREF[1]:     CODE:0609(j)  
       CODE:060c e5 fd           MOV        A,CCAP3H                                                   = ??
       CODE:060e 85 17 f0        MOV        B,BANK2_R7                                                 = ??
       CODE:0611 30 e2 11        JNB        ACC.2,LAB_CODE_0625                                        = ??
       CODE:0614 e5 fd           MOV        A,CCAP3H                                                   = ??
       CODE:0616 30 e2 4e        JNB        ACC.2,LAB_CODE_0667                                        = ??
       CODE:0619 e5 fd           MOV        A,CCAP3H                                                   = ??
       CODE:061b 30 e2 49        JNB        ACC.2,LAB_CODE_0667                                        = ??
       CODE:061e c2 f0           CLR        B.0                                                        = ??
       CODE:0620 75 1a 64        MOV        BANK3_R2,#0x64                                             = ??
       CODE:0623 c1 67           AJMP       LAB_CODE_0667
                             LAB_CODE_0625                                   XREF[1]:     CODE:0611(j)  
       CODE:0625 20 f0 0d        JB         B.0,LAB_CODE_0635                                          = ??
       CODE:0628 d5 1a 3c        DJNZ       BANK3_R2,LAB_CODE_0667                                     = ??
       CODE:062b d2 f0           SETB       B.0                                                        = ??
       CODE:062d c2 f2           CLR        B.2                                                        = ??
       CODE:062f a2 e3           MOV        CY,ACC.3                                                   = ??
       CODE:0631 92 f1           MOV        B.1,CY                                                     = ??
       CODE:0633 c1 67           AJMP       LAB_CODE_0667
                             LAB_CODE_0635                                   XREF[1]:     CODE:0625(j)  
       CODE:0635 54 08           ANL        A,#0x8
       CODE:0637 a2 f1           MOV        CY,B.1                                                     = ??
       CODE:0639 13              RRC        A
       CODE:063a 20 f2 0c        JB         B.2,LAB_CODE_0649                                          = ??
       CODE:063d 30 d0 27        JNB        P,LAB_CODE_0667                                            = ??
       CODE:0640 d2 f2           SETB       B.2                                                        = ??
       CODE:0642 c2 f3           CLR        B.3                                                        = ??
       CODE:0644 75 1a 32        MOV        BANK3_R2,#0x32                                             = ??
       CODE:0647 c1 67           AJMP       LAB_CODE_0667
                             LAB_CODE_0649                                   XREF[1]:     CODE:063a(j)  
       CODE:0649 20 f3 0c        JB         B.3,LAB_CODE_0658                                          = ??
       CODE:064c 30 d0 13        JNB        P,LAB_CODE_0662                                            = ??
       CODE:064f d5 1a 15        DJNZ       BANK3_R2,LAB_CODE_0667                                     = ??
                             LAB_CODE_0652                                   XREF[1]:     CODE:0658(j)  
       CODE:0652 b2 f1           CPL        B.1                                                        = ??
       CODE:0654 c2 f2           CLR        B.2                                                        = ??
       CODE:0656 c1 67           AJMP       LAB_CODE_0667
                             LAB_CODE_0658                                   XREF[1]:     CODE:0649(j)  
       CODE:0658 20 d0 f7        JB         P,LAB_CODE_0652                                            = ??
       CODE:065b d5 1a 09        DJNZ       BANK3_R2,LAB_CODE_0667                                     = ??
       CODE:065e 75 1f 56        MOV        BANK3_R7,#0x56                                             = ??
       CODE:0661 22              RET
                             LAB_CODE_0662                                   XREF[1]:     CODE:064c(j)  
       CODE:0662 d2 f3           SETB       B.3                                                        = ??
       CODE:0664 75 1a 64        MOV        BANK3_R2,#0x64                                             = ??
                             LAB_CODE_0667                                   XREF[10]:    CODE:0616(j), CODE:061b(j), 
                                                                                          CODE:0623(j), CODE:0628(j), 
                                                                                          CODE:0633(j), CODE:063d(j), 
                                                                                          CODE:0647(j), CODE:064f(j), 
                                                                                          CODE:0656(j), CODE:065b(j)  
       CODE:0667 85 f0 17        MOV        BANK2_R7,B                                                 = ??
       CODE:066a e5 fd           MOV        A,CCAP3H                                                   = ??
       CODE:066c 85 17 f0        MOV        B,BANK2_R7                                                 = ??
       CODE:066f 30 e0 11        JNB        ACC.0,LAB_CODE_0683                                        = ??
       CODE:0672 e5 fd           MOV        A,CCAP3H                                                   = ??
       CODE:0674 30 e0 4e        JNB        ACC.0,LAB_CODE_06c5                                        = ??
       CODE:0677 e5 fd           MOV        A,CCAP3H                                                   = ??
       CODE:0679 30 e0 49        JNB        ACC.0,LAB_CODE_06c5                                        = ??
       CODE:067c c2 f4           CLR        B.4                                                        = ??
       CODE:067e 75 1b 64        MOV        BANK3_R3,#0x64                                             = ??
       CODE:0681 c1 c5           AJMP       LAB_CODE_06c5
                             LAB_CODE_0683                                   XREF[1]:     CODE:066f(j)  
       CODE:0683 20 f4 0d        JB         B.4,LAB_CODE_0693                                          = ??
       CODE:0686 d5 1b 3c        DJNZ       BANK3_R3,LAB_CODE_06c5                                     = ??
       CODE:0689 d2 f4           SETB       B.4                                                        = ??
       CODE:068b c2 f6           CLR        B.6                                                        = ??
       CODE:068d a2 e1           MOV        CY,ACC.1                                                   = ??
       CODE:068f 92 f5           MOV        B.5,CY                                                     = ??
       CODE:0691 c1 c5           AJMP       LAB_CODE_06c5
                             LAB_CODE_0693                                   XREF[1]:     CODE:0683(j)  
       CODE:0693 54 02           ANL        A,#0x2
       CODE:0695 a2 f5           MOV        CY,B.5                                                     = ??
       CODE:0697 13              RRC        A
       CODE:0698 20 f6 0c        JB         B.6,LAB_CODE_06a7                                          = ??
       CODE:069b 30 d0 27        JNB        P,LAB_CODE_06c5                                            = ??
       CODE:069e d2 f6           SETB       B.6                                                        = ??
       CODE:06a0 c2 f7           CLR        B.7                                                        = ??
       CODE:06a2 75 1b 32        MOV        BANK3_R3,#0x32                                             = ??
       CODE:06a5 c1 c5           AJMP       LAB_CODE_06c5
                             LAB_CODE_06a7                                   XREF[1]:     CODE:0698(j)  
       CODE:06a7 20 f7 0c        JB         B.7,LAB_CODE_06b6                                          = ??
       CODE:06aa 30 d0 13        JNB        P,LAB_CODE_06c0                                            = ??
       CODE:06ad d5 1b 15        DJNZ       BANK3_R3,LAB_CODE_06c5                                     = ??
                             LAB_CODE_06b0                                   XREF[1]:     CODE:06b6(j)  
       CODE:06b0 b2 f5           CPL        B.5                                                        = ??
       CODE:06b2 c2 f6           CLR        B.6                                                        = ??
       CODE:06b4 c1 c5           AJMP       LAB_CODE_06c5
                             LAB_CODE_06b6                                   XREF[1]:     CODE:06a7(j)  
       CODE:06b6 20 d0 f7        JB         P,LAB_CODE_06b0                                            = ??
       CODE:06b9 d5 1b 09        DJNZ       BANK3_R3,LAB_CODE_06c5                                     = ??
       CODE:06bc 75 1f 57        MOV        BANK3_R7,#0x57                                             = ??
       CODE:06bf 22              RET
                             LAB_CODE_06c0                                   XREF[1]:     CODE:06aa(j)  
       CODE:06c0 d2 f7           SETB       B.7                                                        = ??
       CODE:06c2 75 1b 64        MOV        BANK3_R3,#0x64                                             = ??
                             LAB_CODE_06c5                                   XREF[10]:    CODE:0674(j), CODE:0679(j), 
                                                                                          CODE:0681(j), CODE:0686(j), 
                                                                                          CODE:0691(j), CODE:069b(j), 
                                                                                          CODE:06a5(j), CODE:06ad(j), 
                                                                                          CODE:06b4(j), CODE:06b9(j)  
       CODE:06c5 85 f0 17        MOV        BANK2_R7,B                                                 = ??
       CODE:06c8 e5 d7           MOV        A,HPSTAT                                                   = ??
       CODE:06ca 85 18 f0        MOV        B,BANK3_R0                                                 = ??
       CODE:06cd 30 e4 11        JNB        ACC.4,LAB_CODE_06e1                                        = ??
       CODE:06d0 e5 d7           MOV        A,HPSTAT                                                   = ??
       CODE:06d2 30 e4 4e        JNB        ACC.4,LAB_CODE_0723                                        = ??
       CODE:06d5 e5 d7           MOV        A,HPSTAT                                                   = ??
       CODE:06d7 30 e4 49        JNB        ACC.4,LAB_CODE_0723                                        = ??
       CODE:06da c2 f0           CLR        B.0                                                        = ??
       CODE:06dc 75 1c 64        MOV        BANK3_R4,#0x64                                             = ??
       CODE:06df e1 23           AJMP       LAB_CODE_0723
                             LAB_CODE_06e1                                   XREF[1]:     CODE:06cd(j)  
       CODE:06e1 20 f0 0d        JB         B.0,LAB_CODE_06f1                                          = ??
       CODE:06e4 d5 1c 3c        DJNZ       BANK3_R4,LAB_CODE_0723                                     = ??
       CODE:06e7 d2 f0           SETB       B.0                                                        = ??
       CODE:06e9 c2 f2           CLR        B.2                                                        = ??
       CODE:06eb a2 e5           MOV        CY,ACC.5                                                   = ??
       CODE:06ed 92 f1           MOV        B.1,CY                                                     = ??
       CODE:06ef e1 23           AJMP       LAB_CODE_0723
                             LAB_CODE_06f1                                   XREF[1]:     CODE:06e1(j)  
       CODE:06f1 54 20           ANL        A,#0x20
       CODE:06f3 a2 f1           MOV        CY,B.1                                                     = ??
       CODE:06f5 13              RRC        A
       CODE:06f6 20 f2 0c        JB         B.2,LAB_CODE_0705                                          = ??
       CODE:06f9 30 d0 27        JNB        P,LAB_CODE_0723                                            = ??
       CODE:06fc d2 f2           SETB       B.2                                                        = ??
       CODE:06fe c2 f3           CLR        B.3                                                        = ??
       CODE:0700 75 1c 32        MOV        BANK3_R4,#0x32                                             = ??
       CODE:0703 e1 23           AJMP       LAB_CODE_0723
                             LAB_CODE_0705                                   XREF[1]:     CODE:06f6(j)  
       CODE:0705 20 f3 0c        JB         B.3,LAB_CODE_0714                                          = ??
       CODE:0708 30 d0 13        JNB        P,LAB_CODE_071e                                            = ??
       CODE:070b d5 1c 15        DJNZ       BANK3_R4,LAB_CODE_0723                                     = ??
                             LAB_CODE_070e                                   XREF[1]:     CODE:0714(j)  
       CODE:070e b2 f1           CPL        B.1                                                        = ??
       CODE:0710 c2 f2           CLR        B.2                                                        = ??
       CODE:0712 e1 23           AJMP       LAB_CODE_0723
                             LAB_CODE_0714                                   XREF[1]:     CODE:0705(j)  
       CODE:0714 20 d0 f7        JB         P,LAB_CODE_070e                                            = ??
       CODE:0717 d5 1c 09        DJNZ       BANK3_R4,LAB_CODE_0723                                     = ??
       CODE:071a 75 1f 5a        MOV        BANK3_R7,#0x5a                                             = ??
       CODE:071d 22              RET
                             LAB_CODE_071e                                   XREF[1]:     CODE:0708(j)  
       CODE:071e d2 f3           SETB       B.3                                                        = ??
       CODE:0720 75 1c 64        MOV        BANK3_R4,#0x64                                             = ??
                             LAB_CODE_0723                                   XREF[10]:    CODE:06d2(j), CODE:06d7(j), 
                                                                                          CODE:06df(j), CODE:06e4(j), 
                                                                                          CODE:06ef(j), CODE:06f9(j), 
                                                                                          CODE:0703(j), CODE:070b(j), 
                                                                                          CODE:0712(j), CODE:0717(j)  
       CODE:0723 85 f0 18        MOV        BANK3_R0,B                                                 = ??
       CODE:0726 e5 d7           MOV        A,HPSTAT                                                   = ??
       CODE:0728 85 18 f0        MOV        B,BANK3_R0                                                 = ??
       CODE:072b 30 e6 11        JNB        ACC.6,LAB_CODE_073f                                        = ??
       CODE:072e e5 d7           MOV        A,HPSTAT                                                   = ??
       CODE:0730 30 e6 4e        JNB        ACC.6,LAB_CODE_0781                                        = ??
       CODE:0733 e5 d7           MOV        A,HPSTAT                                                   = ??
       CODE:0735 30 e6 49        JNB        ACC.6,LAB_CODE_0781                                        = ??
       CODE:0738 c2 f4           CLR        B.4                                                        = ??
       CODE:073a 75 1d 64        MOV        BANK3_R5,#0x64                                             = ??
       CODE:073d e1 81           AJMP       LAB_CODE_0781
                             LAB_CODE_073f                                   XREF[1]:     CODE:072b(j)  
       CODE:073f 20 f4 0d        JB         B.4,LAB_CODE_074f                                          = ??
       CODE:0742 d5 1d 3c        DJNZ       BANK3_R5,LAB_CODE_0781                                     = ??
       CODE:0745 d2 f4           SETB       B.4                                                        = ??
       CODE:0747 c2 f6           CLR        B.6                                                        = ??
       CODE:0749 a2 e7           MOV        CY,ACC.7                                                   = ??
       CODE:074b 92 f5           MOV        B.5,CY                                                     = ??
       CODE:074d e1 81           AJMP       LAB_CODE_0781
                             LAB_CODE_074f                                   XREF[1]:     CODE:073f(j)  
       CODE:074f 54 80           ANL        A,#0x80
       CODE:0751 a2 f5           MOV        CY,B.5                                                     = ??
       CODE:0753 13              RRC        A
       CODE:0754 20 f6 0c        JB         B.6,LAB_CODE_0763                                          = ??
       CODE:0757 30 d0 27        JNB        P,LAB_CODE_0781                                            = ??
       CODE:075a d2 f6           SETB       B.6                                                        = ??
       CODE:075c c2 f7           CLR        B.7                                                        = ??
       CODE:075e 75 1d 32        MOV        BANK3_R5,#0x32                                             = ??
       CODE:0761 e1 81           AJMP       LAB_CODE_0781
                             LAB_CODE_0763                                   XREF[1]:     CODE:0754(j)  
       CODE:0763 20 f7 0c        JB         B.7,LAB_CODE_0772                                          = ??
       CODE:0766 30 d0 13        JNB        P,LAB_CODE_077c                                            = ??
       CODE:0769 d5 1d 15        DJNZ       BANK3_R5,LAB_CODE_0781                                     = ??
                             LAB_CODE_076c                                   XREF[1]:     CODE:0772(j)  
       CODE:076c b2 f5           CPL        B.5                                                        = ??
       CODE:076e c2 f6           CLR        B.6                                                        = ??
       CODE:0770 e1 81           AJMP       LAB_CODE_0781
                             LAB_CODE_0772                                   XREF[1]:     CODE:0763(j)  
       CODE:0772 20 d0 f7        JB         P,LAB_CODE_076c                                            = ??
       CODE:0775 d5 1d 09        DJNZ       BANK3_R5,LAB_CODE_0781                                     = ??
       CODE:0778 75 1f 58        MOV        BANK3_R7,#0x58                                             = ??
       CODE:077b 22              RET
                             LAB_CODE_077c                                   XREF[1]:     CODE:0766(j)  
       CODE:077c d2 f7           SETB       B.7                                                        = ??
       CODE:077e 75 1d 64        MOV        BANK3_R5,#0x64                                             = ??
                             LAB_CODE_0781                                   XREF[10]:    CODE:0730(j), CODE:0735(j), 
                                                                                          CODE:073d(j), CODE:0742(j), 
                                                                                          CODE:074d(j), CODE:0757(j), 
                                                                                          CODE:0761(j), CODE:0769(j), 
                                                                                          CODE:0770(j), CODE:0775(j)  
       CODE:0781 85 f0 18        MOV        BANK3_R0,B                                                 = ??
       CODE:0784 e5 d7           MOV        A,HPSTAT                                                   = ??
       CODE:0786 85 19 f0        MOV        B,BANK3_R1                                                 = ??
       CODE:0789 30 e0 11        JNB        ACC.0,LAB_CODE_079d                                        = ??
       CODE:078c e5 d7           MOV        A,HPSTAT                                                   = ??
       CODE:078e 30 e0 4e        JNB        ACC.0,LAB_CODE_07df                                        = ??
       CODE:0791 e5 d7           MOV        A,HPSTAT                                                   = ??
       CODE:0793 30 e0 49        JNB        ACC.0,LAB_CODE_07df                                        = ??
       CODE:0796 c2 f0           CLR        B.0                                                        = ??
       CODE:0798 75 1e 64        MOV        BANK3_R6,#0x64                                             = ??
       CODE:079b e1 df           AJMP       LAB_CODE_07df
                             LAB_CODE_079d                                   XREF[1]:     CODE:0789(j)  
       CODE:079d 20 f0 0d        JB         B.0,LAB_CODE_07ad                                          = ??
       CODE:07a0 d5 1e 3c        DJNZ       BANK3_R6,LAB_CODE_07df                                     = ??
       CODE:07a3 d2 f0           SETB       B.0                                                        = ??
       CODE:07a5 c2 f2           CLR        B.2                                                        = ??
       CODE:07a7 a2 e1           MOV        CY,ACC.1                                                   = ??
       CODE:07a9 92 f1           MOV        B.1,CY                                                     = ??
       CODE:07ab e1 df           AJMP       LAB_CODE_07df
                             LAB_CODE_07ad                                   XREF[1]:     CODE:079d(j)  
       CODE:07ad 54 02           ANL        A,#0x2
       CODE:07af a2 f1           MOV        CY,B.1                                                     = ??
       CODE:07b1 13              RRC        A
       CODE:07b2 20 f2 0c        JB         B.2,LAB_CODE_07c1                                          = ??
       CODE:07b5 30 d0 27        JNB        P,LAB_CODE_07df                                            = ??
       CODE:07b8 d2 f2           SETB       B.2                                                        = ??
       CODE:07ba c2 f3           CLR        B.3                                                        = ??
       CODE:07bc 75 1e 32        MOV        BANK3_R6,#0x32                                             = ??
       CODE:07bf e1 df           AJMP       LAB_CODE_07df
                             LAB_CODE_07c1                                   XREF[1]:     CODE:07b2(j)  
       CODE:07c1 20 f3 0c        JB         B.3,LAB_CODE_07d0                                          = ??
       CODE:07c4 30 d0 13        JNB        P,LAB_CODE_07da                                            = ??
       CODE:07c7 d5 1e 15        DJNZ       BANK3_R6,LAB_CODE_07df                                     = ??
                             LAB_CODE_07ca                                   XREF[1]:     CODE:07d0(j)  
       CODE:07ca b2 f1           CPL        B.1                                                        = ??
       CODE:07cc c2 f2           CLR        B.2                                                        = ??
       CODE:07ce e1 df           AJMP       LAB_CODE_07df
                             LAB_CODE_07d0                                   XREF[1]:     CODE:07c1(j)  
       CODE:07d0 20 d0 f7        JB         P,LAB_CODE_07ca                                            = ??
       CODE:07d3 d5 1e 09        DJNZ       BANK3_R6,LAB_CODE_07df                                     = ??
       CODE:07d6 75 1f 59        MOV        BANK3_R7,#0x59                                             = ??
       CODE:07d9 22              RET
                             LAB_CODE_07da                                   XREF[1]:     CODE:07c4(j)  
       CODE:07da d2 f3           SETB       B.3                                                        = ??
       CODE:07dc 75 1e 64        MOV        BANK3_R6,#0x64                                             = ??
                             LAB_CODE_07df                                   XREF[10]:    CODE:078e(j), CODE:0793(j), 
                                                                                          CODE:079b(j), CODE:07a0(j), 
                                                                                          CODE:07ab(j), CODE:07b5(j), 
                                                                                          CODE:07bf(j), CODE:07c7(j), 
                                                                                          CODE:07ce(j), CODE:07d3(j)  
       CODE:07df 85 f0 19        MOV        BANK3_R1,B                                                 = ??
       CODE:07e2 22              RET
                             **************************************************************
                             *                          FUNCTION                          *
                             **************************************************************
                             undefined FUN_CODE_07e3()
             undefined         ACC:1          <RETURN>
                             FUN_CODE_07e3                                   XREF[1]:     CODE:0000(c)  
       CODE:07e3 75 81 bf        MOV        SP,#0xbf                                                   = ??
       CODE:07e6 12 24 02        LCALL      FUN_CODE_2402                                              undefined FUN_CODE_2402()
       CODE:07e9 12 25 0a        LCALL      FUN_CODE_250a                                              undefined FUN_CODE_250a()
       CODE:07ec 12 24 0a        LCALL      FUN_CODE_240a                                              undefined FUN_CODE_240a()
       CODE:07ef 12 24 5c        LCALL      FUN_CODE_245c                                              undefined FUN_CODE_245c()
       CODE:07f2 12 24 80        LCALL      FUN_CODE_2480                                              undefined FUN_CODE_2480()
       CODE:07f5 12 08 a2        LCALL      FUN_CODE_08a2                                              undefined FUN_CODE_08a2()
       CODE:07f8 12 08 7f        LCALL      FUN_CODE_087f                                              undefined FUN_CODE_087f()
       CODE:07fb d2 0c           SETB       21.4                                                       = ??
       CODE:07fd 12 27 94        LCALL      FUN_CODE_2794                                              undefined FUN_CODE_2794()
       CODE:0800 92 0a           MOV        21.2,CY                                                    = ??
                             LAB_CODE_0802                                   XREF[1]:     CODE:087d(j)  
       CODE:0802 75 81 bf        MOV        SP,#0xbf                                                   = ??
       CODE:0805 12 24 02        LCALL      FUN_CODE_2402                                              undefined FUN_CODE_2402()
       CODE:0808 12 27 9a        LCALL      FUN_CODE_279a                                              undefined FUN_CODE_279a()
       CODE:080b ec              MOV        A,R4
       CODE:080c a2 e2           MOV        CY,ACC.2                                                   = ??
       CODE:080e 50 0e           JNC        LAB_CODE_081e
       CODE:0810 20 06 0b        JB         20.6,LAB_CODE_081e                                         = ??
       CODE:0813 20 17 05        JB         22.7,LAB_CODE_081b                                         = ??
       CODE:0816 43 33 20        ORL        DAT_INTMEM_33,#0x20                                        = ??
       CODE:0819 80 03           SJMP       LAB_CODE_081e
                             LAB_CODE_081b                                   XREF[1]:     CODE:0813(j)  
       CODE:081b 43 33 04        ORL        DAT_INTMEM_33,#0x4                                         = ??
                             LAB_CODE_081e                                   XREF[3]:     CODE:080e(j), CODE:0810(j), 
                                                                                          CODE:0819(j)  
       CODE:081e 92 06           MOV        20.6,CY                                                    = ??
       CODE:0820 e5 5b           MOV        A,DAT_INTMEM_5b                                            = ??
       CODE:0822 60 02           JZ         LAB_CODE_0826
       CODE:0824 15 5b           DEC        DAT_INTMEM_5b                                              = ??
                             LAB_CODE_0826                                   XREF[1]:     CODE:0822(j)  
       CODE:0826 e5 5b           MOV        A,DAT_INTMEM_5b                                            = ??
       CODE:0828 70 02           JNZ        LAB_CODE_082c
       CODE:082a c2 36           CLR        26.6                                                       = ??
                             LAB_CODE_082c                                   XREF[1]:     CODE:0828(j)  
       CODE:082c e5 5c           MOV        A,DAT_INTMEM_5c                                            = ??
       CODE:082e 30 e5 08        JNB        ACC.5,LAB_CODE_0839                                        = ??
       CODE:0831 78 be           MOV        R0,#0xbe
       CODE:0833 16              DEC        @R0=>DAT_INTMEM_be                                         = ??
       CODE:0834 e6              MOV        A,@R0=>DAT_INTMEM_be                                       = ??
       CODE:0835 70 02           JNZ        LAB_CODE_0839
       CODE:0837 d2 35           SETB       26.5                                                       = ??
                             LAB_CODE_0839                                   XREF[2]:     CODE:082e(j), CODE:0835(j)  
       CODE:0839 12 1e 47        LCALL      FUN_CODE_1e47                                              undefined FUN_CODE_1e47()
       CODE:083c 12 15 83        LCALL      FUN_CODE_1583                                              undefined FUN_CODE_1583()
       CODE:083f 12 1d 8e        LCALL      FUN_CODE_1d8e                                              undefined FUN_CODE_1d8e()
       CODE:0842 12 14 82        LCALL      FUN_CODE_1482                                              undefined FUN_CODE_1482()
       CODE:0845 12 22 01        LCALL      FUN_CODE_2201                                              undefined FUN_CODE_2201()
       CODE:0848 12 14 5b        LCALL      FUN_CODE_145b                                              undefined FUN_CODE_145b()
       CODE:084b 12 1c df        LCALL      FUN_CODE_1cdf                                              undefined FUN_CODE_1cdf()
       CODE:084e 12 23 71        LCALL      FUN_CODE_2371                                              undefined FUN_CODE_2371()
       CODE:0851 12 21 7c        LCALL      FUN_CODE_217c                                              undefined FUN_CODE_217c()
       CODE:0854 12 15 98        LCALL      FUN_CODE_1598                                              undefined FUN_CODE_1598()
       CODE:0857 12 14 da        LCALL      FUN_CODE_14da                                              undefined FUN_CODE_14da()
       CODE:085a 12 1f 24        LCALL      FUN_CODE_1f24                                              undefined FUN_CODE_1f24()
       CODE:085d 12 12 c8        LCALL      FUN_CODE_12c8                                              undefined FUN_CODE_12c8()
       CODE:0860 12 11 76        LCALL      FUN_CODE_1176                                              undefined FUN_CODE_1176()
       CODE:0863 12 13 e1        LCALL      FUN_CODE_13e1                                              undefined FUN_CODE_13e1()
       CODE:0866 12 12 4e        LCALL      FUN_CODE_124e                                              undefined FUN_CODE_124e()
       CODE:0869 12 0f 60        LCALL      FUN_CODE_0f60                                              undefined FUN_CODE_0f60()
                             LAB_CODE_086c                                   XREF[1]:     CODE:087b(j)  
       CODE:086c 12 1b 2c        LCALL      FUN_CODE_1b2c                                              undefined FUN_CODE_1b2c()
       CODE:086f 12 23 f3        LCALL      FUN_CODE_23f3                                              undefined FUN_CODE_23f3()
       CODE:0872 12 1f 12        LCALL      FUN_CODE_1f12                                              undefined FUN_CODE_1f12()
       CODE:0875 12 1a e9        LCALL      FUN_CODE_1ae9                                              undefined FUN_CODE_1ae9()
       CODE:0878 12 24 69        LCALL      FUN_CODE_2469                                              undefined FUN_CODE_2469()
       CODE:087b 50 ef           JNC        LAB_CODE_086c
       CODE:087d 80 83           SJMP       LAB_CODE_0802
                             **************************************************************
                             *                          FUNCTION                          *
                             **************************************************************
                             undefined FUN_CODE_087f()
             undefined         ACC:1          <RETURN>
                             FUN_CODE_087f                                   XREF[1]:     FUN_CODE_07e3:07f8(c)  
       CODE:087f 78 7f           MOV        R0,#0x7f
       CODE:0881 7a 1d           MOV        R2,#0x1d
       CODE:0883 12 2e c2        LCALL      FUN_CODE_2ec2                                              undefined FUN_CODE_2ec2()
       CODE:0886 78 2e           MOV        R0,#0x2e
       CODE:0888 7a 08           MOV        R2,#0x8
       CODE:088a 12 2e c2        LCALL      FUN_CODE_2ec2                                              undefined FUN_CODE_2ec2()
       CODE:088d 78 00           MOV        R0,#0x0
       CODE:088f 7a 08           MOV        R2,#0x8
       CODE:0891 12 2e d3        LCALL      FUN_CODE_2ed3                                              undefined FUN_CODE_2ed3()
       CODE:0894 78 81           MOV        R0,#0x81
       CODE:0896 76 0f           MOV        @R0=>DAT_INTMEM_81,#0xf                                    = ??
       CODE:0898 78 83           MOV        R0,#0x83
       CODE:089a 76 0d           MOV        @R0=>DAT_INTMEM_83,#0xd                                    = ??
       CODE:089c 75 2e 5c        MOV        DAT_INTMEM_2e,#0x5c                                        = ??
       CODE:089f d2 00           SETB       20.0
       CODE:08a1 22              RET
                             **************************************************************
                             *                          FUNCTION                          *
                             **************************************************************
                             undefined FUN_CODE_08a2()
             undefined         ACC:1          <RETURN>
                             FUN_CODE_08a2                                   XREF[2]:     FUN_CODE_07e3:07f5(c), 
                                                                                          CODE:1fe3(c)  
       CODE:08a2 78 9c           MOV        R0,#0x9c
       CODE:08a4 7a 24           MOV        R2,#0x24
       CODE:08a6 12 2e c2        LCALL      FUN_CODE_2ec2                                              undefined FUN_CODE_2ec2()
       CODE:08a9 78 36           MOV        R0,#0x36
       CODE:08ab 7a 2f           MOV        R2,#0x2f
       CODE:08ad 12 2e c2        LCALL      FUN_CODE_2ec2                                              undefined FUN_CODE_2ec2()
       CODE:08b0 78 08           MOV        R0,#0x8
       CODE:08b2 7a 57           MOV        R2,#0x57
       CODE:08b4 12 2e d3        LCALL      FUN_CODE_2ed3                                              undefined FUN_CODE_2ed3()
       CODE:08b7 75 4b 10        MOV        DAT_INTMEM_4b,#0x10                                        = ??
       CODE:08ba 75 4c fa        MOV        DAT_INTMEM_4c,#0xfa                                        = ??
       CODE:08bd 75 44 19        MOV        DAT_INTMEM_44,#0x19                                        = ??
       CODE:08c0 75 5c 00        MOV        DAT_INTMEM_5c,#0x0                                         = ??
       CODE:08c3 d2 27           SETB       24.7                                                       = ??
       CODE:08c5 d2 21           SETB       24.1                                                       = ??
       CODE:08c7 e5 2e           MOV        A,DAT_INTMEM_2e                                            = ??
       CODE:08c9 54 20           ANL        A,#0x20
       CODE:08cb 44 5c           ORL        A,#0x5c
       CODE:08cd f5 2e           MOV        DAT_INTMEM_2e,A                                            = ??
       CODE:08cf 22              RET
                             **************************************************************
                             *                          FUNCTION                          *
                             **************************************************************
                             undefined FUN_CODE_08d0()
             undefined         ACC:1          <RETURN>
                             FUN_CODE_08d0                                   XREF[2]:     CODE:1ef6(c), CODE:23df(c)  
       CODE:08d0 12 25 95        LCALL      FUN_CODE_2595                                              undefined FUN_CODE_2595()
       CODE:08d3 50 03           JNC        LAB_CODE_08d8
       CODE:08d5 02 0b 61        LJMP       LAB_CODE_0b61
                             LAB_CODE_08d8                                   XREF[1]:     CODE:08d3(j)  
       CODE:08d8 f5 f0           MOV        B,A
       CODE:08da 74 00           MOV        A,#0x0
       CODE:08dc 12 25 c3        LCALL      FUN_CODE_25c3                                              undefined FUN_CODE_25c3()
       CODE:08df e5 f0           MOV        A,B
       CODE:08e1 12 25 c8        LCALL      FUN_CODE_25c8                                              undefined FUN_CODE_25c8()
       CODE:08e4 e5 f0           MOV        A,B
       CODE:08e6 b4 01 02        CJNE       A,#0x1,LAB_CODE_08eb
       CODE:08e9 80 44           SJMP       LAB_CODE_092f
                             LAB_CODE_08eb                                   XREF[1]:     CODE:08e6(j)  
       CODE:08eb b4 04 02        CJNE       A,#0x4,LAB_CODE_08f0
       CODE:08ee 80 62           SJMP       LAB_CODE_0952
                             LAB_CODE_08f0                                   XREF[1]:     CODE:08eb(j)  
       CODE:08f0 b4 07 03        CJNE       A,#0x7,LAB_CODE_08f6
       CODE:08f3 02 09 93        LJMP       LAB_CODE_0993
                             LAB_CODE_08f6                                   XREF[1]:     CODE:08f0(j)  
       CODE:08f6 b4 0a 03        CJNE       A,#0xa,LAB_CODE_08fc
       CODE:08f9 02 09 c6        LJMP       LAB_CODE_09c6
                             LAB_CODE_08fc                                   XREF[1]:     CODE:08f6(j)  
       CODE:08fc b4 0f 03        CJNE       A,#0xf,LAB_CODE_0902
       CODE:08ff 02 09 d1        LJMP       LAB_CODE_09d1
                             LAB_CODE_0902                                   XREF[1]:     CODE:08fc(j)  
       CODE:0902 b4 16 03        CJNE       A,#0x16,LAB_CODE_0908
       CODE:0905 02 09 dc        LJMP       LAB_CODE_09dc
                             LAB_CODE_0908                                   XREF[1]:     CODE:0902(j)  
       CODE:0908 b4 17 03        CJNE       A,#0x17,LAB_CODE_090e
       CODE:090b 02 09 eb        LJMP       LAB_CODE_09eb
                             LAB_CODE_090e                                   XREF[1]:     CODE:0908(j)  
       CODE:090e b4 11 03        CJNE       A,#0x11,LAB_CODE_0914
       CODE:0911 02 09 fd        LJMP       LAB_CODE_09fd
                             LAB_CODE_0914                                   XREF[1]:     CODE:090e(j)  
       CODE:0914 b4 12 03        CJNE       A,#0x12,LAB_CODE_091a
       CODE:0917 02 0b 0e        LJMP       LAB_CODE_0b0e
                             LAB_CODE_091a                                   XREF[1]:     CODE:0914(j)  
       CODE:091a b4 13 03        CJNE       A,#0x13,LAB_CODE_0920
       CODE:091d 02 0b 32        LJMP       LAB_CODE_0b32
                             LAB_CODE_0920                                   XREF[1]:     CODE:091a(j)  
       CODE:0920 b4 1e 03        CJNE       A,#0x1e,LAB_CODE_0926
       CODE:0923 02 0b 47        LJMP       LAB_CODE_0b47
                             LAB_CODE_0926                                   XREF[1]:     CODE:0920(j)  
       CODE:0926 b4 20 03        CJNE       A,#0x20,LAB_CODE_092c
       CODE:0929 02 0b 54        LJMP       LAB_CODE_0b54
                             LAB_CODE_092c                                   XREF[1]:     CODE:0926(j)  
       CODE:092c c2 37           CLR        26.7                                                       = ??
       CODE:092e 22              RET
                             LAB_CODE_092f                                   XREF[1]:     CODE:08e9(j)  
       CODE:092f 75 f0 00        MOV        B,#0x0
       CODE:0932 a2 5d           MOV        CY,2b.5                                                    = ??
       CODE:0934 92 f0           MOV        B.0,CY                                                     = ??
       CODE:0936 74 01           MOV        A,#0x1
       CODE:0938 12 25 c3        LCALL      FUN_CODE_25c3                                              undefined FUN_CODE_25c3()
       CODE:093b e5 5f           MOV        A,DAT_INTMEM_5f                                            = ??
       CODE:093d 12 25 c8        LCALL      FUN_CODE_25c8                                              undefined FUN_CODE_25c8()
       CODE:0940 74 00           MOV        A,#0x0
       CODE:0942 12 25 c8        LCALL      FUN_CODE_25c8                                              undefined FUN_CODE_25c8()
       CODE:0945 e5 3c           MOV        A,DAT_INTMEM_3c                                            = ??
       CODE:0947 12 25 c8        LCALL      FUN_CODE_25c8                                              undefined FUN_CODE_25c8()
       CODE:094a e5 f0           MOV        A,B
       CODE:094c 12 25 c8        LCALL      FUN_CODE_25c8                                              undefined FUN_CODE_25c8()
       CODE:094f d2 13           SETB       22.3                                                       = ??
       CODE:0951 22              RET
                             LAB_CODE_0952                                   XREF[1]:     CODE:08ee(j)  
       CODE:0952 12 27 9a        LCALL      FUN_CODE_279a                                              undefined FUN_CODE_279a()
       CODE:0955 75 f0 00        MOV        B,#0x0
       CODE:0958 a2 07           MOV        CY,20.7                                                    = ??
       CODE:095a 92 f0           MOV        B.0,CY                                                     = ??
       CODE:095c a2 5c           MOV        CY,2b.4                                                    = ??
       CODE:095e 92 f1           MOV        B.1,CY                                                     = ??
       CODE:0960 74 01           MOV        A,#0x1
       CODE:0962 12 25 c3        LCALL      FUN_CODE_25c3                                              undefined FUN_CODE_25c3()
       CODE:0965 ea              MOV        A,R2
       CODE:0966 12 25 c8        LCALL      FUN_CODE_25c8                                              undefined FUN_CODE_25c8()
       CODE:0969 eb              MOV        A,R3
       CODE:096a 12 25 c8        LCALL      FUN_CODE_25c8                                              undefined FUN_CODE_25c8()
       CODE:096d ec              MOV        A,R4
       CODE:096e 12 25 c8        LCALL      FUN_CODE_25c8                                              undefined FUN_CODE_25c8()
       CODE:0971 ed              MOV        A,R5
       CODE:0972 12 25 c8        LCALL      FUN_CODE_25c8                                              undefined FUN_CODE_25c8()
       CODE:0975 ee              MOV        A,R6
       CODE:0976 12 25 c8        LCALL      FUN_CODE_25c8                                              undefined FUN_CODE_25c8()
       CODE:0979 e5 f0           MOV        A,B
       CODE:097b 12 25 c8        LCALL      FUN_CODE_25c8                                              undefined FUN_CODE_25c8()
       CODE:097e e5 32           MOV        A,DAT_INTMEM_32                                            = ??
       CODE:0980 12 25 c8        LCALL      FUN_CODE_25c8                                              undefined FUN_CODE_25c8()
       CODE:0983 e5 31           MOV        A,DAT_INTMEM_31                                            = ??
       CODE:0985 12 25 c8        LCALL      FUN_CODE_25c8                                              undefined FUN_CODE_25c8()
       CODE:0988 e5 30           MOV        A,DAT_INTMEM_30                                            = ??
       CODE:098a 12 25 c8        LCALL      FUN_CODE_25c8                                              undefined FUN_CODE_25c8()
       CODE:098d e5 2f           MOV        A,DAT_INTMEM_2f                                            = ??
       CODE:098f 12 25 c8        LCALL      FUN_CODE_25c8                                              undefined FUN_CODE_25c8()
       CODE:0992 22              RET
                             LAB_CODE_0993                                   XREF[1]:     CODE:08f3(j)  
       CODE:0993 74 01           MOV        A,#0x1
       CODE:0995 12 25 c3        LCALL      FUN_CODE_25c3                                              undefined FUN_CODE_25c3()
       CODE:0998 e5 3d           MOV        A,DAT_INTMEM_3d                                            = ??
       CODE:099a 12 25 c8        LCALL      FUN_CODE_25c8                                              undefined FUN_CODE_25c8()
       CODE:099d e5 3e           MOV        A,DAT_INTMEM_3e                                            = ??
       CODE:099f 12 25 c8        LCALL      FUN_CODE_25c8                                              undefined FUN_CODE_25c8()
       CODE:09a2 e5 3f           MOV        A,DAT_INTMEM_3f                                            = ??
       CODE:09a4 12 25 c8        LCALL      FUN_CODE_25c8                                              undefined FUN_CODE_25c8()
       CODE:09a7 e5 40           MOV        A,DAT_INTMEM_40                                            = ??
       CODE:09a9 12 25 c8        LCALL      FUN_CODE_25c8                                              undefined FUN_CODE_25c8()
       CODE:09ac e5 41           MOV        A,DAT_INTMEM_41                                            = ??
       CODE:09ae 12 25 c8        LCALL      FUN_CODE_25c8                                              undefined FUN_CODE_25c8()
       CODE:09b1 e5 42           MOV        A,DAT_INTMEM_42                                            = ??
       CODE:09b3 12 25 c8        LCALL      FUN_CODE_25c8                                              undefined FUN_CODE_25c8()
       CODE:09b6 e5 43           MOV        A,DAT_INTMEM_43                                            = ??
       CODE:09b8 12 25 c8        LCALL      FUN_CODE_25c8                                              undefined FUN_CODE_25c8()
       CODE:09bb e5 44           MOV        A,DAT_INTMEM_44                                            = ??
       CODE:09bd 12 25 c8        LCALL      FUN_CODE_25c8                                              undefined FUN_CODE_25c8()
       CODE:09c0 e5 52           MOV        A,DAT_INTMEM_52                                            = ??
       CODE:09c2 12 25 c8        LCALL      FUN_CODE_25c8                                              undefined FUN_CODE_25c8()
       CODE:09c5 22              RET
                             LAB_CODE_09c6                                   XREF[1]:     CODE:08f9(j)  
       CODE:09c6 74 01           MOV        A,#0x1
       CODE:09c8 12 25 c3        LCALL      FUN_CODE_25c3                                              undefined FUN_CODE_25c3()
       CODE:09cb e5 37           MOV        A,DAT_INTMEM_37                                            = ??
       CODE:09cd 12 25 c8        LCALL      FUN_CODE_25c8                                              undefined FUN_CODE_25c8()
       CODE:09d0 22              RET
                             LAB_CODE_09d1                                   XREF[1]:     CODE:08ff(j)  
       CODE:09d1 74 01           MOV        A,#0x1
       CODE:09d3 12 25 c3        LCALL      FUN_CODE_25c3                                              undefined FUN_CODE_25c3()
       CODE:09d6 e5 2e           MOV        A,DAT_INTMEM_2e                                            = ??
       CODE:09d8 12 25 c8        LCALL      FUN_CODE_25c8                                              undefined FUN_CODE_25c8()
       CODE:09db 22              RET
                             LAB_CODE_09dc                                   XREF[1]:     CODE:0905(j)  
       CODE:09dc 78 81           MOV        R0,#0x81
       CODE:09de 86 f0           MOV        B,@R0=>DAT_INTMEM_81                                       = ??
       CODE:09e0 74 01           MOV        A,#0x1
       CODE:09e2 12 25 c3        LCALL      FUN_CODE_25c3                                              undefined FUN_CODE_25c3()
       CODE:09e5 e5 f0           MOV        A,B
       CODE:09e7 12 25 c8        LCALL      FUN_CODE_25c8                                              undefined FUN_CODE_25c8()
       CODE:09ea 22              RET
                             LAB_CODE_09eb                                   XREF[1]:     CODE:090b(j)  
       CODE:09eb 75 f0 00        MOV        B,#0x0
       CODE:09ee a2 05           MOV        CY,20.5                                                    = ??
       CODE:09f0 92 f0           MOV        B.0,CY                                                     = ??
       CODE:09f2 74 01           MOV        A,#0x1
       CODE:09f4 12 25 c3        LCALL      FUN_CODE_25c3                                              undefined FUN_CODE_25c3()
       CODE:09f7 e5 f0           MOV        A,B
       CODE:09f9 12 25 c8        LCALL      FUN_CODE_25c8                                              undefined FUN_CODE_25c8()
       CODE:09fc 22              RET
                             LAB_CODE_09fd                                   XREF[1]:     CODE:0911(j)  
       CODE:09fd d2 d5           SETB       F0                                                         = ??
       CODE:09ff e5 2e           MOV        A,DAT_INTMEM_2e                                            = ??
       CODE:0a01 20 e5 0b        JB         ACC.5,LAB_CODE_0a0f                                        = ??
       CODE:0a04 30 e6 08        JNB        ACC.6,LAB_CODE_0a0f                                        = ??
       CODE:0a07 64 58           XRL        A,#0x58
       CODE:0a09 54 5c           ANL        A,#0x5c
       CODE:0a0b 60 02           JZ         LAB_CODE_0a0f
       CODE:0a0d c2 d5           CLR        F0                                                         = ??
                             LAB_CODE_0a0f                                   XREF[3]:     CODE:0a01(j), CODE:0a04(j), 
                                                                                          CODE:0a0b(j)  
       CODE:0a0f 74 01           MOV        A,#0x1
       CODE:0a11 12 25 a1        LCALL      FUN_CODE_25a1                                              undefined FUN_CODE_25a1()
       CODE:0a14 12 25 a6        LCALL      FUN_CODE_25a6                                              undefined FUN_CODE_25a6()
       CODE:0a17 fa              MOV        R2,A
       CODE:0a18 12 25 a6        LCALL      FUN_CODE_25a6                                              undefined FUN_CODE_25a6()
       CODE:0a1b fb              MOV        R3,A
       CODE:0a1c 12 25 a6        LCALL      FUN_CODE_25a6                                              undefined FUN_CODE_25a6()
       CODE:0a1f fc              MOV        R4,A
       CODE:0a20 12 25 a6        LCALL      FUN_CODE_25a6                                              undefined FUN_CODE_25a6()
       CODE:0a23 fd              MOV        R5,A
       CODE:0a24 12 25 a6        LCALL      FUN_CODE_25a6                                              undefined FUN_CODE_25a6()
       CODE:0a27 fe              MOV        R6,A
       CODE:0a28 ea              MOV        A,R2
       CODE:0a29 30 e0 37        JNB        ACC.0,LAB_CODE_0a63                                        = ??
       CODE:0a2c 30 d5 65        JNB        F0,LAB_CODE_0a94                                           = ??
       CODE:0a2f 75 5b fa        MOV        DAT_INTMEM_5b,#0xfa                                        = ??
       CODE:0a32 30 e1 10        JNB        ACC.1,LAB_CODE_0a45                                        = ??
       CODE:0a35 d2 36           SETB       26.6                                                       = ??
       CODE:0a37 75 5b 02        MOV        DAT_INTMEM_5b,#0x2                                         = ??
       CODE:0a3a 74 01           MOV        A,#0x1
       CODE:0a3c 12 25 c3        LCALL      FUN_CODE_25c3                                              undefined FUN_CODE_25c3()
       CODE:0a3f 74 00           MOV        A,#0x0
       CODE:0a41 12 25 c8        LCALL      FUN_CODE_25c8                                              undefined FUN_CODE_25c8()
       CODE:0a44 22              RET
                             LAB_CODE_0a45                                   XREF[1]:     CODE:0a32(j)  
       CODE:0a45 30 e2 0d        JNB        ACC.2,LAB_CODE_0a55                                        = ??
       CODE:0a48 c2 36           CLR        26.6                                                       = ??
       CODE:0a4a 74 01           MOV        A,#0x1
       CODE:0a4c 12 25 c3        LCALL      FUN_CODE_25c3                                              undefined FUN_CODE_25c3()
       CODE:0a4f 74 00           MOV        A,#0x0
       CODE:0a51 12 25 c8        LCALL      FUN_CODE_25c8                                              undefined FUN_CODE_25c8()
       CODE:0a54 22              RET
                             LAB_CODE_0a55                                   XREF[1]:     CODE:0a45(j)  
       CODE:0a55 20 36 0b        JB         26.6,LAB_CODE_0a63                                         = ??
       CODE:0a58 74 01           MOV        A,#0x1
       CODE:0a5a 12 25 c3        LCALL      FUN_CODE_25c3                                              undefined FUN_CODE_25c3()
       CODE:0a5d 74 04           MOV        A,#0x4
       CODE:0a5f 12 25 c8        LCALL      FUN_CODE_25c8                                              undefined FUN_CODE_25c8()
       CODE:0a62 22              RET
                             LAB_CODE_0a63                                   XREF[2]:     CODE:0a29(j), CODE:0a55(j)  
       CODE:0a63 a2 e0           MOV        CY,ACC.0                                                   = ??
       CODE:0a65 92 d5           MOV        F0,CY                                                      = ??
       CODE:0a67 c4              SWAP       A
       CODE:0a68 54 0f           ANL        A,#0xf
       CODE:0a6a f5 f0           MOV        B,A
       CODE:0a6c eb              MOV        A,R3
       CODE:0a6d c4              SWAP       A
       CODE:0a6e 54 0f           ANL        A,#0xf
       CODE:0a70 25 f0           ADD        A,B
       CODE:0a72 24 f5           ADD        A,#0xf5
       CODE:0a74 40 13           JC         LAB_CODE_0a89
       CODE:0a76 eb              MOV        A,R3
       CODE:0a77 54 0f           ANL        A,#0xf
       CODE:0a79 24 f2           ADD        A,#0xf2
       CODE:0a7b 40 0c           JC         LAB_CODE_0a89
       CODE:0a7d ec              MOV        A,R4
       CODE:0a7e 20 e7 1e        JB         ACC.7,LAB_CODE_0a9f                                        = ??
       CODE:0a81 ed              MOV        A,R5
       CODE:0a82 20 e7 1a        JB         ACC.7,LAB_CODE_0a9f                                        = ??
       CODE:0a85 ee              MOV        A,R6
       CODE:0a86 20 e7 16        JB         ACC.7,LAB_CODE_0a9f                                        = ??
                             LAB_CODE_0a89                                   XREF[7]:     CODE:0a74(j), CODE:0a7b(j), 
                                                                                          CODE:0ac9(j), CODE:0acb(j), 
                                                                                          CODE:0af6(j), CODE:0af8(j), 
                                                                                          CODE:0b06(j)  
       CODE:0a89 74 01           MOV        A,#0x1
       CODE:0a8b 12 25 c3        LCALL      FUN_CODE_25c3                                              undefined FUN_CODE_25c3()
       CODE:0a8e 74 02           MOV        A,#0x2
       CODE:0a90 12 25 c8        LCALL      FUN_CODE_25c8                                              undefined FUN_CODE_25c8()
       CODE:0a93 22              RET
                             LAB_CODE_0a94                                   XREF[1]:     CODE:0a2c(j)  
       CODE:0a94 74 01           MOV        A,#0x1
       CODE:0a96 12 25 c3        LCALL      FUN_CODE_25c3                                              undefined FUN_CODE_25c3()
       CODE:0a99 74 01           MOV        A,#0x1
       CODE:0a9b 12 25 c8        LCALL      FUN_CODE_25c8                                              undefined FUN_CODE_25c8()
       CODE:0a9e 22              RET
                             LAB_CODE_0a9f                                   XREF[3]:     CODE:0a7e(j), CODE:0a82(j), 
                                                                                          CODE:0a86(j)  
       CODE:0a9f ea              MOV        A,R2
       CODE:0aa0 c4              SWAP       A
       CODE:0aa1 54 0f           ANL        A,#0xf
       CODE:0aa3 fa              MOV        R2,A
       CODE:0aa4 60 28           JZ         LAB_CODE_0ace
       CODE:0aa6 ec              MOV        A,R4
       CODE:0aa7 20 e7 04        JB         ACC.7,LAB_CODE_0aae                                        = ??
       CODE:0aaa 7a 00           MOV        R2,#0x0
       CODE:0aac 80 20           SJMP       LAB_CODE_0ace
                             LAB_CODE_0aae                                   XREF[1]:     CODE:0aa7(j)  
       CODE:0aae 54 7f           ANL        A,#0x7f
       CODE:0ab0 b4 39 18        CJNE       A,#0x39,LAB_CODE_0acb
       CODE:0ab3 74 06           MOV        A,#0x6
       CODE:0ab5 12 25 a1        LCALL      FUN_CODE_25a1                                              undefined FUN_CODE_25a1()
       CODE:0ab8 12 25 a6        LCALL      FUN_CODE_25a6                                              undefined FUN_CODE_25a6()
       CODE:0abb fc              MOV        R4,A
       CODE:0abc ec              MOV        A,R4
       CODE:0abd 24 30           ADD        A,#0x30
       CODE:0abf 50 0a           JNC        LAB_CODE_0acb
       CODE:0ac1 ec              MOV        A,R4
       CODE:0ac2 24 0a           ADD        A,#0xa
       CODE:0ac4 40 05           JC         LAB_CODE_0acb
       CODE:0ac6 20 d5 05        JB         F0,LAB_CODE_0ace                                           = ??
       CODE:0ac9 80 be           SJMP       LAB_CODE_0a89
                             LAB_CODE_0acb                                   XREF[3]:     CODE:0ab0(j), CODE:0abf(j), 
                                                                                          CODE:0ac4(j)  
       CODE:0acb 20 d5 bb        JB         F0,LAB_CODE_0a89                                           = ??
                             LAB_CODE_0ace                                   XREF[3]:     CODE:0aa4(j), CODE:0aac(j), 
                                                                                          CODE:0ac6(j)  
       CODE:0ace eb              MOV        A,R3
       CODE:0acf c4              SWAP       A
       CODE:0ad0 54 0f           ANL        A,#0xf
       CODE:0ad2 60 27           JZ         LAB_CODE_0afb
       CODE:0ad4 ed              MOV        A,R5
       CODE:0ad5 30 e7 23        JNB        ACC.7,LAB_CODE_0afb                                        = ??
       CODE:0ad8 54 7f           ANL        A,#0x7f
       CODE:0ada b4 39 1b        CJNE       A,#0x39,LAB_CODE_0af8
       CODE:0add 74 05           MOV        A,#0x5
       CODE:0adf 2a              ADD        A,R2
       CODE:0ae0 fa              MOV        R2,A
       CODE:0ae1 ea              MOV        A,R2
       CODE:0ae2 12 25 a1        LCALL      FUN_CODE_25a1                                              undefined FUN_CODE_25a1()
       CODE:0ae5 12 25 a6        LCALL      FUN_CODE_25a6                                              undefined FUN_CODE_25a6()
       CODE:0ae8 fd              MOV        R5,A
       CODE:0ae9 ed              MOV        A,R5
       CODE:0aea 24 30           ADD        A,#0x30
       CODE:0aec 50 0a           JNC        LAB_CODE_0af8
       CODE:0aee ed              MOV        A,R5
       CODE:0aef 24 2f           ADD        A,#0x2f
       CODE:0af1 40 05           JC         LAB_CODE_0af8
       CODE:0af3 20 d5 05        JB         F0,LAB_CODE_0afb                                           = ??
       CODE:0af6 80 91           SJMP       LAB_CODE_0a89
                             LAB_CODE_0af8                                   XREF[3]:     CODE:0ada(j), CODE:0aec(j), 
                                                                                          CODE:0af1(j)  
       CODE:0af8 20 d5 8e        JB         F0,LAB_CODE_0a89                                           = ??
                             LAB_CODE_0afb                                   XREF[3]:     CODE:0ad2(j), CODE:0ad5(j), 
                                                                                          CODE:0af3(j)  
       CODE:0afb ee              MOV        A,R6
       CODE:0afc 30 e7 0a        JNB        ACC.7,LAB_CODE_0b09                                        = ??
       CODE:0aff 54 7f           ANL        A,#0x7f
       CODE:0b01 b4 39 02        CJNE       A,#0x39,LAB_CODE_0b06
       CODE:0b04 80 03           SJMP       LAB_CODE_0b09
                             LAB_CODE_0b06                                   XREF[1]:     CODE:0b01(j)  
       CODE:0b06 20 d5 80        JB         F0,LAB_CODE_0a89                                           = ??
                             LAB_CODE_0b09                                   XREF[2]:     CODE:0afc(j), CODE:0b04(j)  
       CODE:0b09 d2 2e           SETB       25.6                                                       = ??
       CODE:0b0b d2 38           SETB       27.0                                                       = ??
       CODE:0b0d 22              RET
                             LAB_CODE_0b0e                                   XREF[1]:     CODE:0917(j)  
       CODE:0b0e 74 01           MOV        A,#0x1
       CODE:0b10 12 25 c3        LCALL      FUN_CODE_25c3                                              undefined FUN_CODE_25c3()
       CODE:0b13 74 51           MOV        A,#0x51
       CODE:0b15 12 25 c8        LCALL      FUN_CODE_25c8                                              undefined FUN_CODE_25c8()
       CODE:0b18 74 03           MOV        A,#0x3
       CODE:0b1a 12 25 c8        LCALL      FUN_CODE_25c8                                              undefined FUN_CODE_25c8()
       CODE:0b1d 74 01           MOV        A,#0x1
       CODE:0b1f 12 25 c8        LCALL      FUN_CODE_25c8                                              undefined FUN_CODE_25c8()
       CODE:0b22 e5 63           MOV        A,DAT_INTMEM_63                                            = ??
       CODE:0b24 12 25 c8        LCALL      FUN_CODE_25c8                                              undefined FUN_CODE_25c8()
       CODE:0b27 e5 64           MOV        A,DAT_INTMEM_64                                            = ??
       CODE:0b29 12 25 c8        LCALL      FUN_CODE_25c8                                              undefined FUN_CODE_25c8()
       CODE:0b2c e5 35           MOV        A,DAT_INTMEM_35                                            = ??
       CODE:0b2e 12 25 c8        LCALL      FUN_CODE_25c8                                              undefined FUN_CODE_25c8()
       CODE:0b31 22              RET
                             LAB_CODE_0b32                                   XREF[1]:     CODE:091d(j)  
       CODE:0b32 74 01           MOV        A,#0x1
       CODE:0b34 12 25 a1        LCALL      FUN_CODE_25a1                                              undefined FUN_CODE_25a1()
       CODE:0b37 74 01           MOV        A,#0x1
       CODE:0b39 12 25 c3        LCALL      FUN_CODE_25c3                                              undefined FUN_CODE_25c3()
       CODE:0b3c 7a 0f           MOV        R2,#0xf
                             LAB_CODE_0b3e                                   XREF[1]:     CODE:0b44(j)  
       CODE:0b3e 12 25 a6        LCALL      FUN_CODE_25a6                                              undefined FUN_CODE_25a6()
       CODE:0b41 12 25 c8        LCALL      FUN_CODE_25c8                                              undefined FUN_CODE_25c8()
       CODE:0b44 da f8           DJNZ       R2,LAB_CODE_0b3e
       CODE:0b46 22              RET
                             LAB_CODE_0b47                                   XREF[1]:     CODE:0923(j)  
       CODE:0b47 74 01           MOV        A,#0x1
       CODE:0b49 12 25 c3        LCALL      FUN_CODE_25c3                                              undefined FUN_CODE_25c3()
       CODE:0b4c 78 84           MOV        R0,#0x84
       CODE:0b4e 7a 0c           MOV        R2,#0xc
       CODE:0b50 12 25 cb        LCALL      FUN_CODE_25cb                                              undefined FUN_CODE_25cb()
       CODE:0b53 22              RET
                             LAB_CODE_0b54                                   XREF[1]:     CODE:0929(j)  
       CODE:0b54 74 01           MOV        A,#0x1
       CODE:0b56 12 25 c3        LCALL      FUN_CODE_25c3                                              undefined FUN_CODE_25c3()
       CODE:0b59 78 90           MOV        R0,#0x90
       CODE:0b5b 7a 0c           MOV        R2,#0xc
       CODE:0b5d 12 25 cb        LCALL      FUN_CODE_25cb                                              undefined FUN_CODE_25cb()
       CODE:0b60 22              RET
                             LAB_CODE_0b61                                   XREF[1]:     CODE:08d5(j)  
       CODE:0b61 b4 82 02        CJNE       A,#0x82,LAB_CODE_0b66
       CODE:0b64 80 55           SJMP       LAB_CODE_0bbb
                             LAB_CODE_0b66                                   XREF[1]:     CODE:0b61(j)  
       CODE:0b66 b4 85 03        CJNE       A,#0x85,LAB_CODE_0b6c
       CODE:0b69 02 0c 1e        LJMP       LAB_CODE_0c1e
                             LAB_CODE_0b6c                                   XREF[1]:     CODE:0b66(j)  
       CODE:0b6c b4 9b 03        CJNE       A,#0x9b,LAB_CODE_0b72
       CODE:0b6f 02 0c 41        LJMP       LAB_CODE_0c41
                             LAB_CODE_0b72                                   XREF[1]:     CODE:0b6c(j)  
       CODE:0b72 b4 88 03        CJNE       A,#0x88,LAB_CODE_0b78
       CODE:0b75 02 0c 7a        LJMP       LAB_CODE_0c7a
                             LAB_CODE_0b78                                   XREF[1]:     CODE:0b72(j)  
       CODE:0b78 b4 89 03        CJNE       A,#0x89,LAB_CODE_0b7e
       CODE:0b7b 02 0c 91        LJMP       LAB_CODE_0c91
                             LAB_CODE_0b7e                                   XREF[1]:     CODE:0b78(j)  
       CODE:0b7e b4 8b 03        CJNE       A,#0x8b,LAB_CODE_0b84
       CODE:0b81 02 0c 9c        LJMP       LAB_CODE_0c9c
                             LAB_CODE_0b84                                   XREF[1]:     CODE:0b7e(j)  
       CODE:0b84 b4 98 03        CJNE       A,#0x98,LAB_CODE_0b8a
       CODE:0b87 02 0c cd        LJMP       LAB_CODE_0ccd
                             LAB_CODE_0b8a                                   XREF[1]:     CODE:0b84(j)  
       CODE:0b8a b4 8c 03        CJNE       A,#0x8c,LAB_CODE_0b90
       CODE:0b8d 02 0c d0        LJMP       LAB_CODE_0cd0
                             LAB_CODE_0b90                                   XREF[1]:     CODE:0b8a(j)  
       CODE:0b90 b4 99 03        CJNE       A,#0x99,LAB_CODE_0b96
       CODE:0b93 02 0d 11        LJMP       LAB_CODE_0d11
                             LAB_CODE_0b96                                   XREF[1]:     CODE:0b90(j)  
       CODE:0b96 b4 95 03        CJNE       A,#0x95,LAB_CODE_0b9c
       CODE:0b99 02 0d 34        LJMP       LAB_CODE_0d34
                             LAB_CODE_0b9c                                   XREF[1]:     CODE:0b96(j)  
       CODE:0b9c b4 90 03        CJNE       A,#0x90,LAB_CODE_0ba2
       CODE:0b9f 02 0d 48        LJMP       LAB_CODE_0d48
                             LAB_CODE_0ba2                                   XREF[1]:     CODE:0b9c(j)  
       CODE:0ba2 b4 9a 03        CJNE       A,#0x9a,LAB_CODE_0ba8
       CODE:0ba5 02 0d 67        LJMP       LAB_CODE_0d67
                             LAB_CODE_0ba8                                   XREF[1]:     CODE:0ba2(j)  
       CODE:0ba8 b4 9c 03        CJNE       A,#0x9c,LAB_CODE_0bae
       CODE:0bab 02 0d bc        LJMP       LAB_CODE_0dbc
                             LAB_CODE_0bae                                   XREF[1]:     CODE:0ba8(j)  
       CODE:0bae b4 9d 03        CJNE       A,#0x9d,LAB_CODE_0bb4
       CODE:0bb1 02 0d ce        LJMP       LAB_CODE_0dce
                             LAB_CODE_0bb4                                   XREF[1]:     CODE:0bae(j)  
       CODE:0bb4 b4 9f 03        CJNE       A,#0x9f,LAB_CODE_0bba
       CODE:0bb7 02 0d db        LJMP       LAB_CODE_0ddb
                             LAB_CODE_0bba                                   XREF[1]:     CODE:0bb4(j)  
       CODE:0bba 22              RET
                             LAB_CODE_0bbb                                   XREF[1]:     CODE:0b64(j)  
       CODE:0bbb 74 01           MOV        A,#0x1
       CODE:0bbd 12 25 a1        LCALL      FUN_CODE_25a1                                              undefined FUN_CODE_25a1()
       CODE:0bc0 12 25 a6        LCALL      FUN_CODE_25a6                                              undefined FUN_CODE_25a6()
       CODE:0bc3 fa              MOV        R2,A
       CODE:0bc4 12 25 a6        LCALL      FUN_CODE_25a6                                              undefined FUN_CODE_25a6()
       CODE:0bc7 fb              MOV        R3,A
       CODE:0bc8 12 25 a6        LCALL      FUN_CODE_25a6                                              undefined FUN_CODE_25a6()
       CODE:0bcb fc              MOV        R4,A
       CODE:0bcc 12 25 a6        LCALL      FUN_CODE_25a6                                              undefined FUN_CODE_25a6()
       CODE:0bcf fd              MOV        R5,A
       CODE:0bd0 ba 01 15        CJNE       R2,#0x1,LAB_CODE_0be8
       CODE:0bd3 bb 00 07        CJNE       R3,#0x0,LAB_CODE_0bdd
       CODE:0bd6 d2 08           SETB       21.0                                                       = ??
       CODE:0bd8 75 3b 01        MOV        DAT_INTMEM_3b,#0x1                                         = ??
       CODE:0bdb 80 3c           SJMP       LAB_CODE_0c19
                             LAB_CODE_0bdd                                   XREF[1]:     CODE:0bd3(j)  
       CODE:0bdd bb 32 07        CJNE       R3,#0x32,LAB_CODE_0be7
       CODE:0be0 d2 04           SETB       20.4                                                       = ??
       CODE:0be2 75 3b 00        MOV        DAT_INTMEM_3b,#0x0                                         = ??
       CODE:0be5 80 32           SJMP       LAB_CODE_0c19
                             LAB_CODE_0be7                                   XREF[1]:     CODE:0bdd(j)  
       CODE:0be7 22              RET
                             LAB_CODE_0be8                                   XREF[1]:     CODE:0bd0(j)  
       CODE:0be8 ba 04 2d        CJNE       R2,#0x4,LAB_CODE_0c18
       CODE:0beb bb 31 10        CJNE       R3,#0x31,LAB_CODE_0bfe
       CODE:0bee d2 14           SETB       22.4                                                       = ??
       CODE:0bf0 ed              MOV        A,R5
       CODE:0bf1 a2 e0           MOV        CY,ACC.0                                                   = ??
       CODE:0bf3 92 15           MOV        22.5,CY                                                    = ??
       CODE:0bf5 a2 e1           MOV        CY,ACC.1                                                   = ??
       CODE:0bf7 92 16           MOV        22.6,CY                                                    = ??
       CODE:0bf9 75 3b 01        MOV        DAT_INTMEM_3b,#0x1                                         = ??
       CODE:0bfc 80 1b           SJMP       LAB_CODE_0c19
                             LAB_CODE_0bfe                                   XREF[1]:     CODE:0beb(j)  
       CODE:0bfe bb 30 07        CJNE       R3,#0x30,LAB_CODE_0c08
       CODE:0c01 d2 03           SETB       20.3                                                       = ??
       CODE:0c03 75 3b 00        MOV        DAT_INTMEM_3b,#0x0                                         = ??
       CODE:0c06 80 11           SJMP       LAB_CODE_0c19
                             LAB_CODE_0c08                                   XREF[1]:     CODE:0bfe(j)  
       CODE:0c08 bb 33 0c        CJNE       R3,#0x33,LAB_CODE_0c17
       CODE:0c0b c2 14           CLR        22.4                                                       = ??
       CODE:0c0d c2 08           CLR        21.0                                                       = ??
       CODE:0c0f c2 22           CLR        24.2                                                       = ??
       CODE:0c11 c2 0b           CLR        21.3                                                       = ??
       CODE:0c13 75 3b 00        MOV        DAT_INTMEM_3b,#0x0                                         = ??
       CODE:0c16 22              RET
                             LAB_CODE_0c17                                   XREF[1]:     CODE:0c08(j)  
       CODE:0c17 22              RET
                             LAB_CODE_0c18                                   XREF[1]:     CODE:0be8(j)  
       CODE:0c18 22              RET
                             LAB_CODE_0c19                                   XREF[4]:     CODE:0bdb(j), CODE:0be5(j), 
                                                                                          CODE:0bfc(j), CODE:0c06(j)  
       CODE:0c19 8c 60           MOV        DAT_INTMEM_60,R4                                           = ??
       CODE:0c1b c2 13           CLR        22.3                                                       = ??
       CODE:0c1d 22              RET
                             LAB_CODE_0c1e                                   XREF[1]:     CODE:0b69(j)  
       CODE:0c1e 74 01           MOV        A,#0x1
       CODE:0c20 12 25 a1        LCALL      FUN_CODE_25a1                                              undefined FUN_CODE_25a1()
       CODE:0c23 12 25 a6        LCALL      FUN_CODE_25a6                                              undefined FUN_CODE_25a6()
       CODE:0c26 fa              MOV        R2,A
       CODE:0c27 12 25 a6        LCALL      FUN_CODE_25a6                                              undefined FUN_CODE_25a6()
       CODE:0c2a fb              MOV        R3,A
       CODE:0c2b 12 25 a6        LCALL      FUN_CODE_25a6                                              undefined FUN_CODE_25a6()
       CODE:0c2e fc              MOV        R4,A
       CODE:0c2f 12 25 a6        LCALL      FUN_CODE_25a6                                              undefined FUN_CODE_25a6()
       CODE:0c32 fd              MOV        R5,A
       CODE:0c33 12 25 a6        LCALL      FUN_CODE_25a6                                              undefined FUN_CODE_25a6()
       CODE:0c36 fe              MOV        R6,A
       CODE:0c37 12 27 a8        LCALL      FUN_CODE_27a8                                              undefined FUN_CODE_27a8()
       CODE:0c3a d2 07           SETB       20.7                                                       = ??
       CODE:0c3c c2 5b           CLR        2b.3                                                       = ??
       CODE:0c3e d2 48           SETB       29.0                                                       = ??
       CODE:0c40 22              RET
                             LAB_CODE_0c41                                   XREF[1]:     CODE:0b6f(j)  
       CODE:0c41 74 01           MOV        A,#0x1
       CODE:0c43 12 25 a1        LCALL      FUN_CODE_25a1                                              undefined FUN_CODE_25a1()
       CODE:0c46 12 25 a6        LCALL      FUN_CODE_25a6                                              undefined FUN_CODE_25a6()
       CODE:0c49 fb              MOV        R3,A
       CODE:0c4a 12 25 a6        LCALL      FUN_CODE_25a6                                              undefined FUN_CODE_25a6()
       CODE:0c4d fc              MOV        R4,A
       CODE:0c4e 12 25 a6        LCALL      FUN_CODE_25a6                                              undefined FUN_CODE_25a6()
       CODE:0c51 fd              MOV        R5,A
       CODE:0c52 12 25 a6        LCALL      FUN_CODE_25a6                                              undefined FUN_CODE_25a6()
       CODE:0c55 fe              MOV        R6,A
       CODE:0c56 12 25 a6        LCALL      FUN_CODE_25a6                                              undefined FUN_CODE_25a6()
       CODE:0c59 f5 f0           MOV        B,A
       CODE:0c5b 8e 2f           MOV        DAT_INTMEM_2f,R6                                           = ??
       CODE:0c5d 8d 30           MOV        DAT_INTMEM_30,R5                                           = ??
       CODE:0c5f 8c 31           MOV        DAT_INTMEM_31,R4                                           = ??
       CODE:0c61 8b 32           MOV        DAT_INTMEM_32,R3                                           = ??
       CODE:0c63 a2 f0           MOV        CY,B.0                                                     = ??
       CODE:0c65 92 5c           MOV        2b.4,CY                                                    = ??
       CODE:0c67 d2 5b           SETB       2b.3                                                       = ??
       CODE:0c69 ee              MOV        A,R6
       CODE:0c6a 70 0b           JNZ        LAB_CODE_0c77
       CODE:0c6c ed              MOV        A,R5
       CODE:0c6d 70 08           JNZ        LAB_CODE_0c77
       CODE:0c6f ec              MOV        A,R4
       CODE:0c70 70 05           JNZ        LAB_CODE_0c77
       CODE:0c72 eb              MOV        A,R3
       CODE:0c73 70 02           JNZ        LAB_CODE_0c77
       CODE:0c75 c2 5b           CLR        2b.3                                                       = ??
                             LAB_CODE_0c77                                   XREF[4]:     CODE:0c6a(j), CODE:0c6d(j), 
                                                                                          CODE:0c70(j), CODE:0c73(j)  
       CODE:0c77 d2 48           SETB       29.0                                                       = ??
       CODE:0c79 22              RET
                             LAB_CODE_0c7a                                   XREF[1]:     CODE:0b75(j)  
       CODE:0c7a 74 01           MOV        A,#0x1
       CODE:0c7c 12 25 a1        LCALL      FUN_CODE_25a1                                              undefined FUN_CODE_25a1()
       CODE:0c7f 12 25 a6        LCALL      FUN_CODE_25a6                                              undefined FUN_CODE_25a6()
       CODE:0c82 fa              MOV        R2,A
       CODE:0c83 ea              MOV        A,R2
       CODE:0c84 a2 e0           MOV        CY,ACC.0                                                   = ??
       CODE:0c86 92 51           MOV        2a.1,CY                                                    = ??
       CODE:0c88 30 e1 05        JNB        ACC.1,LAB_CODE_0c90                                        = ??
       CODE:0c8b d2 50           SETB       2a.0                                                       = ??
       CODE:0c8d 75 4c fa        MOV        DAT_INTMEM_4c,#0xfa                                        = ??
                             LAB_CODE_0c90                                   XREF[1]:     CODE:0c88(j)  
       CODE:0c90 22              RET
                             LAB_CODE_0c91                                   XREF[1]:     CODE:0b7b(j)  
       CODE:0c91 74 01           MOV        A,#0x1
       CODE:0c93 12 25 a1        LCALL      FUN_CODE_25a1                                              undefined FUN_CODE_25a1()
       CODE:0c96 12 25 a6        LCALL      FUN_CODE_25a6                                              undefined FUN_CODE_25a6()
       CODE:0c99 f5 53           MOV        DAT_INTMEM_53,A                                            = ??
       CODE:0c9b 22              RET
                             LAB_CODE_0c9c                                   XREF[1]:     CODE:0b81(j)  
       CODE:0c9c 74 01           MOV        A,#0x1
       CODE:0c9e 12 25 a1        LCALL      FUN_CODE_25a1                                              undefined FUN_CODE_25a1()
       CODE:0ca1 12 25 a6        LCALL      FUN_CODE_25a6                                              undefined FUN_CODE_25a6()
       CODE:0ca4 fa              MOV        R2,A
       CODE:0ca5 e5 37           MOV        A,DAT_INTMEM_37                                            = ??
       CODE:0ca7 ba 60 0d        CJNE       R2,#0x60,LAB_CODE_0cb7
       CODE:0caa 75 62 00        MOV        DAT_INTMEM_62,#0x0                                         = ??
       CODE:0cad b4 60 03        CJNE       A,#0x60,LAB_CODE_0cb3
       CODE:0cb0 d2 41           SETB       28.1                                                       = ??
       CODE:0cb2 22              RET
                             LAB_CODE_0cb3                                   XREF[1]:     CODE:0cad(j)  
       CODE:0cb3 75 38 60        MOV        DAT_INTMEM_38,#0x60                                        = ??
       CODE:0cb6 22              RET
                             LAB_CODE_0cb7                                   XREF[1]:     CODE:0ca7(j)  
       CODE:0cb7 ba 62 0d        CJNE       R2,#0x62,LAB_CODE_0cc7
       CODE:0cba 75 62 00        MOV        DAT_INTMEM_62,#0x0                                         = ??
       CODE:0cbd b4 62 03        CJNE       A,#0x62,LAB_CODE_0cc3
       CODE:0cc0 d2 41           SETB       28.1                                                       = ??
       CODE:0cc2 22              RET
                             LAB_CODE_0cc3                                   XREF[1]:     CODE:0cbd(j)  
       CODE:0cc3 75 38 62        MOV        DAT_INTMEM_38,#0x62                                        = ??
       CODE:0cc6 22              RET
                             LAB_CODE_0cc7                                   XREF[1]:     CODE:0cb7(j)  
       CODE:0cc7 ba 66 02        CJNE       R2,#0x66,LAB_CODE_0ccc
       CODE:0cca d2 27           SETB       24.7                                                       = ??
                             LAB_CODE_0ccc                                   XREF[1]:     CODE:0cc7(j)  
       CODE:0ccc 22              RET
                             LAB_CODE_0ccd                                   XREF[1]:     CODE:0b87(j)  
       CODE:0ccd d2 2b           SETB       25.3                                                       = ??
       CODE:0ccf 22              RET
                             LAB_CODE_0cd0                                   XREF[1]:     CODE:0b8d(j)  
       CODE:0cd0 85 5c f0        MOV        B,DAT_INTMEM_5c                                            = ??
       CODE:0cd3 74 01           MOV        A,#0x1
       CODE:0cd5 12 25 a1        LCALL      FUN_CODE_25a1                                              undefined FUN_CODE_25a1()
       CODE:0cd8 12 25 a6        LCALL      FUN_CODE_25a6                                              undefined FUN_CODE_25a6()
       CODE:0cdb fa              MOV        R2,A
       CODE:0cdc 12 25 a6        LCALL      FUN_CODE_25a6                                              undefined FUN_CODE_25a6()
       CODE:0cdf fb              MOV        R3,A
       CODE:0ce0 ba 01 09        CJNE       R2,#0x1,LAB_CODE_0cec
       CODE:0ce3 c2 f2           CLR        B.2                                                        = ??
       CODE:0ce5 eb              MOV        A,R3
       CODE:0ce6 a2 e0           MOV        CY,ACC.0                                                   = ??
       CODE:0ce8 92 f0           MOV        B.0,CY                                                     = ??
       CODE:0cea 80 17           SJMP       LAB_CODE_0d03
                             LAB_CODE_0cec                                   XREF[1]:     CODE:0ce0(j)  
       CODE:0cec ea              MOV        A,R2
       CODE:0ced 14              DEC        A
       CODE:0cee 14              DEC        A
       CODE:0cef 24 f8           ADD        A,#0xf8
       CODE:0cf1 40 15           JC         LAB_CODE_0d08
       CODE:0cf3 d2 f2           SETB       B.2                                                        = ??
       CODE:0cf5 c2 f0           CLR        B.0                                                        = ??
       CODE:0cf7 ea              MOV        A,R2
       CODE:0cf8 14              DEC        A
       CODE:0cf9 14              DEC        A
       CODE:0cfa 90 0d 09        MOV        DPTR,#0xd09
       CODE:0cfd 93              MOVC       A,@A+DPTR=>DAT_CODE_0e08                                   = 0Eh
       CODE:0cfe 53 5d f0        ANL        DAT_INTMEM_5d,#0xf0                                        = ??
       CODE:0d01 42 5d           ORL        DAT_INTMEM_5d,A                                            = ??
                             LAB_CODE_0d03                                   XREF[1]:     CODE:0cea(j)  
       CODE:0d03 85 f0 5c        MOV        DAT_INTMEM_5c,B                                            = ??
       CODE:0d06 d2 4a           SETB       29.2                                                       = ??
                             LAB_CODE_0d08                                   XREF[1]:     CODE:0cf1(j)  
       CODE:0d08 22              RET
       CODE:0d09 04              ??         04h
       CODE:0d0a 08              ??         08h
       CODE:0d0b 0c              ??         0Ch
       CODE:0d0c 07              ??         07h
       CODE:0d0d 0b              ??         0Bh
       CODE:0d0e 0f              ??         0Fh
       CODE:0d0f 09              ??         09h
       CODE:0d10 0d              ??         0Dh
                             LAB_CODE_0d11                                   XREF[1]:     CODE:0b93(j)  
       CODE:0d11 85 5c f0        MOV        B,DAT_INTMEM_5c                                            = ??
       CODE:0d14 74 01           MOV        A,#0x1
       CODE:0d16 12 25 a1        LCALL      FUN_CODE_25a1                                              undefined FUN_CODE_25a1()
       CODE:0d19 12 25 a6        LCALL      FUN_CODE_25a6                                              undefined FUN_CODE_25a6()
       CODE:0d1c fa              MOV        R2,A
       CODE:0d1d 12 25 a6        LCALL      FUN_CODE_25a6                                              undefined FUN_CODE_25a6()
       CODE:0d20 fb              MOV        R3,A
       CODE:0d21 ea              MOV        A,R2
       CODE:0d22 a2 e0           MOV        CY,ACC.0                                                   = ??
       CODE:0d24 92 f3           MOV        B.3,CY                                                     = ??
       CODE:0d26 85 f0 5c        MOV        DAT_INTMEM_5c,B                                            = ??
       CODE:0d29 eb              MOV        A,R3
       CODE:0d2a 54 f0           ANL        A,#0xf0
       CODE:0d2c 53 5d 0f        ANL        DAT_INTMEM_5d,#0xf                                         = ??
       CODE:0d2f 42 5d           ORL        DAT_INTMEM_5d,A                                            = ??
       CODE:0d31 d2 4b           SETB       29.3                                                       = ??
       CODE:0d33 22              RET
                             LAB_CODE_0d34                                   XREF[1]:     CODE:0b99(j)  
       CODE:0d34 74 01           MOV        A,#0x1
       CODE:0d36 12 25 a1        LCALL      FUN_CODE_25a1                                              undefined FUN_CODE_25a1()
       CODE:0d39 12 25 a6        LCALL      FUN_CODE_25a6                                              undefined FUN_CODE_25a6()
       CODE:0d3c f5 f0           MOV        B,A
       CODE:0d3e 53 f0 0f        ANL        B,#0xf
       CODE:0d41 78 81           MOV        R0,#0x81
       CODE:0d43 a6 f0           MOV        @R0=>DAT_INTMEM_81,B                                       = ??
       CODE:0d45 d2 48           SETB       29.0                                                       = ??
       CODE:0d47 22              RET
                             LAB_CODE_0d48                                   XREF[1]:     CODE:0b9f(j)  
       CODE:0d48 20 4e 1b        JB         29.6,LAB_CODE_0d66                                         = ??
       CODE:0d4b 20 3d 18        JB         27.5,LAB_CODE_0d66                                         = ??
       CODE:0d4e 74 01           MOV        A,#0x1
       CODE:0d50 12 25 a1        LCALL      FUN_CODE_25a1                                              undefined FUN_CODE_25a1()
       CODE:0d53 12 25 a6        LCALL      FUN_CODE_25a6                                              undefined FUN_CODE_25a6()
       CODE:0d56 f5 f0           MOV        B,A
       CODE:0d58 12 25 a6        LCALL      FUN_CODE_25a6                                              undefined FUN_CODE_25a6()
       CODE:0d5b fb              MOV        R3,A
       CODE:0d5c 78 b0           MOV        R0,#0xb0
       CODE:0d5e a6 f0           MOV        @R0=>DAT_INTMEM_b0,B                                       = ??
       CODE:0d60 eb              MOV        A,R3
       CODE:0d61 78 b1           MOV        R0,#0xb1
       CODE:0d63 f6              MOV        @R0=>DAT_INTMEM_b1,A                                       = ??
       CODE:0d64 d2 4e           SETB       29.6                                                       = ??
                             LAB_CODE_0d66                                   XREF[2]:     CODE:0d48(j), CODE:0d4b(j)  
       CODE:0d66 22              RET
                             LAB_CODE_0d67                                   XREF[1]:     CODE:0ba5(j)  
       CODE:0d67 20 1e 51        JB         23.6,LAB_CODE_0dbb                                         = ??
       CODE:0d6a 20 1f 4e        JB         23.7,LAB_CODE_0dbb                                         = ??
       CODE:0d6d 74 01           MOV        A,#0x1
       CODE:0d6f 12 25 a1        LCALL      FUN_CODE_25a1                                              undefined FUN_CODE_25a1()
       CODE:0d72 12 25 a6        LCALL      FUN_CODE_25a6                                              undefined FUN_CODE_25a6()
       CODE:0d75 fa              MOV        R2,A
       CODE:0d76 12 25 a6        LCALL      FUN_CODE_25a6                                              undefined FUN_CODE_25a6()
       CODE:0d79 fb              MOV        R3,A
       CODE:0d7a 12 25 a6        LCALL      FUN_CODE_25a6                                              undefined FUN_CODE_25a6()
       CODE:0d7d fc              MOV        R4,A
       CODE:0d7e ea              MOV        A,R2
       CODE:0d7f 24 f0           ADD        A,#0xf0
       CODE:0d81 50 0e           JNC        LAB_CODE_0d91
       CODE:0d83 eb              MOV        A,R3
       CODE:0d84 60 11           JZ         LAB_CODE_0d97
       CODE:0d86 24 f0           ADD        A,#0xf0
       CODE:0d88 50 07           JNC        LAB_CODE_0d91
       CODE:0d8a eb              MOV        A,R3
       CODE:0d8b 24 c0           ADD        A,#0xc0
       CODE:0d8d 40 02           JC         LAB_CODE_0d91
       CODE:0d8f 80 06           SJMP       LAB_CODE_0d97
                             LAB_CODE_0d91                                   XREF[3]:     CODE:0d81(j), CODE:0d88(j), 
                                                                                          CODE:0d8d(j)  
       CODE:0d91 7a 1f           MOV        R2,#0x1f
       CODE:0d93 7b 1f           MOV        R3,#0x1f
       CODE:0d95 7c 00           MOV        R4,#0x0
                             LAB_CODE_0d97                                   XREF[2]:     CODE:0d84(j), CODE:0d8f(j)  
       CODE:0d97 8a 55           MOV        DAT_INTMEM_55,R2                                           = ??
       CODE:0d99 8b 56           MOV        DAT_INTMEM_56,R3                                           = ??
       CODE:0d9b d2 20           SETB       24.0                                                       = ??
       CODE:0d9d ec              MOV        A,R4
       CODE:0d9e 75 5e 07        MOV        DAT_INTMEM_5e,#0x7                                         = ??
       CODE:0da1 20 e0 09        JB         ACC.0,LAB_CODE_0dad                                        = ??
       CODE:0da4 75 5e 07        MOV        DAT_INTMEM_5e,#0x7                                         = ??
       CODE:0da7 20 e1 03        JB         ACC.1,LAB_CODE_0dad                                        = ??
       CODE:0daa 75 5e 07        MOV        DAT_INTMEM_5e,#0x7                                         = ??
                             LAB_CODE_0dad                                   XREF[2]:     CODE:0da1(j), CODE:0da7(j)  
       CODE:0dad 30 13 0b        JNB        22.3,LAB_CODE_0dbb                                         = ??
       CODE:0db0 d2 49           SETB       29.1                                                       = ??
       CODE:0db2 d2 35           SETB       26.5                                                       = ??
       CODE:0db4 43 5c 20        ORL        DAT_INTMEM_5c,#0x20                                        = ??
       CODE:0db7 d2 4b           SETB       29.3                                                       = ??
       CODE:0db9 d2 4a           SETB       29.2                                                       = ??
                             LAB_CODE_0dbb                                   XREF[3]:     CODE:0d67(j), CODE:0d6a(j), 
                                                                                          CODE:0dad(j)  
       CODE:0dbb 22              RET
                             LAB_CODE_0dbc                                   XREF[1]:     CODE:0bab(j)  
       CODE:0dbc 74 01           MOV        A,#0x1
       CODE:0dbe 12 25 a1        LCALL      FUN_CODE_25a1                                              undefined FUN_CODE_25a1()
       CODE:0dc1 12 25 a6        LCALL      FUN_CODE_25a6                                              undefined FUN_CODE_25a6()
       CODE:0dc4 fa              MOV        R2,A
       CODE:0dc5 12 25 a6        LCALL      FUN_CODE_25a6                                              undefined FUN_CODE_25a6()
       CODE:0dc8 fb              MOV        R3,A
       CODE:0dc9 8a 63           MOV        DAT_INTMEM_63,R2                                           = ??
       CODE:0dcb 8b 64           MOV        DAT_INTMEM_64,R3                                           = ??
       CODE:0dcd 22              RET
                             LAB_CODE_0dce                                   XREF[1]:     CODE:0bb1(j)  
       CODE:0dce 74 01           MOV        A,#0x1
       CODE:0dd0 12 25 a1        LCALL      FUN_CODE_25a1                                              undefined FUN_CODE_25a1()
       CODE:0dd3 78 84           MOV        R0,#0x84
       CODE:0dd5 7a 0c           MOV        R2,#0xc
       CODE:0dd7 12 25 a9        LCALL      FUN_CODE_25a9                                              undefined FUN_CODE_25a9()
       CODE:0dda 22              RET
                             LAB_CODE_0ddb                                   XREF[1]:     CODE:0bb7(j)  
       CODE:0ddb 74 01           MOV        A,#0x1
       CODE:0ddd 12 25 a1        LCALL      FUN_CODE_25a1                                              undefined FUN_CODE_25a1()
       CODE:0de0 78 90           MOV        R0,#0x90
       CODE:0de2 7a 0c           MOV        R2,#0xc
       CODE:0de4 12 25 a9        LCALL      FUN_CODE_25a9                                              undefined FUN_CODE_25a9()
       CODE:0de7 22              RET
                             **************************************************************
                             *                          FUNCTION                          *
                             **************************************************************
                             undefined FUN_CODE_0de8()
             undefined         ACC:1          <RETURN>
                             FUN_CODE_0de8                                   XREF[1]:     CODE:1eec(c)  
       CODE:0de8 c3              CLR        CY
       CODE:0de9 20 13 13        JB         22.3,LAB_CODE_0dff                                         = ??
       CODE:0dec c2 3c           CLR        27.4                                                       = ??
       CODE:0dee c2 40           CLR        28.0                                                       = ??
       CODE:0df0 c2 39           CLR        27.1                                                       = ??
       CODE:0df2 c2 3a           CLR        27.2                                                       = ??
       CODE:0df4 c2 3b           CLR        27.3                                                       = ??
       CODE:0df6 c2 3d           CLR        27.5                                                       = ??
       CODE:0df8 c2 3e           CLR        27.6                                                       = ??
       CODE:0dfa c2 3f           CLR        27.7                                                       = ??
       CODE:0dfc c2 41           CLR        28.1                                                       = ??
       CODE:0dfe 22              RET
                             LAB_CODE_0dff                                   XREF[1]:     CODE:0de9(j)  
       CODE:0dff 30 3c 02        JNB        27.4,LAB_CODE_0e04                                         = ??
       CODE:0e02 80 40           SJMP       LAB_CODE_0e44
                             LAB_CODE_0e04                                   XREF[1]:     CODE:0dff(j)  
       CODE:0e04 30 40 03        JNB        28.0,LAB_CODE_0e0a                                         = ??
       CODE:0e07 02              ??         02h
                             DAT_CODE_0e08                                   XREF[1]:     FUN_CODE_08d0:0cfd(R)  
       CODE:0e08 0e              undefined1 0Eh
       CODE:0e09 97              ??         97h
                             LAB_CODE_0e0a                                   XREF[1]:     CODE:0e04(j)  
       CODE:0e0a 30 39 03        JNB        27.1,LAB_CODE_0e10                                         = ??
       CODE:0e0d 02 0e a5        LJMP       LAB_CODE_0ea5
                             LAB_CODE_0e10                                   XREF[1]:     CODE:0e0a(j)  
       CODE:0e10 30 3a 03        JNB        27.2,LAB_CODE_0e16                                         = ??
       CODE:0e13 02 0e b9        LJMP       LAB_CODE_0eb9
                             LAB_CODE_0e16                                   XREF[1]:     CODE:0e10(j)  
       CODE:0e16 30 3b 03        JNB        27.3,LAB_CODE_0e1c                                         = ??
       CODE:0e19 02 0e c8        LJMP       LAB_CODE_0ec8
                             LAB_CODE_0e1c                                   XREF[1]:     CODE:0e16(j)  
       CODE:0e1c 30 3d 03        JNB        27.5,LAB_CODE_0e22                                         = ??
       CODE:0e1f 02 0e e3        LJMP       LAB_CODE_0ee3
                             LAB_CODE_0e22                                   XREF[1]:     CODE:0e1c(j)  
       CODE:0e22 30 3e 03        JNB        27.6,LAB_CODE_0e28                                         = ??
       CODE:0e25 02 0f 03        LJMP       LAB_CODE_0f03
                             LAB_CODE_0e28                                   XREF[1]:     CODE:0e22(j)  
       CODE:0e28 30 3f 03        JNB        27.7,LAB_CODE_0e2e                                         = ??
       CODE:0e2b 02 0f 42        LJMP       LAB_CODE_0f42
                             LAB_CODE_0e2e                                   XREF[1]:     CODE:0e28(j)  
       CODE:0e2e 30 41 03        JNB        28.1,LAB_CODE_0e34                                         = ??
       CODE:0e31 02 0f 51        LJMP       LAB_CODE_0f51
                             LAB_CODE_0e34                                   XREF[1]:     CODE:0e2e(j)  
       CODE:0e34 22              RET
                             LAB_CODE_0e35                                   XREF[11]:    CODE:0e62(j), CODE:0e73(j), 
                                                                                          CODE:0e84(j), CODE:0e95(j), 
                                                                                          CODE:0eb6(j), CODE:0ec5(j), 
                                                                                          CODE:0ee0(j), CODE:0f00(j), 
                                                                                          CODE:0f3f(j), CODE:0f4e(j), 
                                                                                          CODE:0f5d(j)  
       CODE:0e35 74 00           MOV        A,#0x0
       CODE:0e37 12 25 c3        LCALL      FUN_CODE_25c3                                              undefined FUN_CODE_25c3()
       CODE:0e3a 74 83           MOV        A,#0x83
       CODE:0e3c 12 25 c8        LCALL      FUN_CODE_25c8                                              undefined FUN_CODE_25c8()
       CODE:0e3f 12 25 d2        LCALL      FUN_CODE_25d2                                              undefined FUN_CODE_25d2()
       CODE:0e42 d3              SETB       CY
       CODE:0e43 22              RET
                             LAB_CODE_0e44                                   XREF[1]:     CODE:0e02(j)  
       CODE:0e44 c2 3c           CLR        27.4                                                       = ??
       CODE:0e46 20 14 0a        JB         22.4,LAB_CODE_0e53                                         = ??
       CODE:0e49 20 08 18        JB         21.0,LAB_CODE_0e64                                         = ??
       CODE:0e4c 20 22 26        JB         24.2,LAB_CODE_0e75                                         = ??
       CODE:0e4f 20 0b 34        JB         21.3,LAB_CODE_0e86                                         = ??
       CODE:0e52 22              RET
                             LAB_CODE_0e53                                   XREF[1]:     CODE:0e46(j)  
       CODE:0e53 74 01           MOV        A,#0x1
       CODE:0e55 12 25 c3        LCALL      FUN_CODE_25c3                                              undefined FUN_CODE_25c3()
       CODE:0e58 74 31           MOV        A,#0x31
       CODE:0e5a 12 25 c8        LCALL      FUN_CODE_25c8                                              undefined FUN_CODE_25c8()
       CODE:0e5d 74 04           MOV        A,#0x4
       CODE:0e5f 12 25 c8        LCALL      FUN_CODE_25c8                                              undefined FUN_CODE_25c8()
       CODE:0e62 80 d1           SJMP       LAB_CODE_0e35
                             LAB_CODE_0e64                                   XREF[1]:     CODE:0e49(j)  
       CODE:0e64 74 01           MOV        A,#0x1
       CODE:0e66 12 25 c3        LCALL      FUN_CODE_25c3                                              undefined FUN_CODE_25c3()
       CODE:0e69 74 11           MOV        A,#0x11
       CODE:0e6b 12 25 c8        LCALL      FUN_CODE_25c8                                              undefined FUN_CODE_25c8()
       CODE:0e6e 74 01           MOV        A,#0x1
       CODE:0e70 12 25 c8        LCALL      FUN_CODE_25c8                                              undefined FUN_CODE_25c8()
       CODE:0e73 80 c0           SJMP       LAB_CODE_0e35
                             LAB_CODE_0e75                                   XREF[1]:     CODE:0e4c(j)  
       CODE:0e75 74 01           MOV        A,#0x1
       CODE:0e77 12 25 c3        LCALL      FUN_CODE_25c3                                              undefined FUN_CODE_25c3()
       CODE:0e7a 74 20           MOV        A,#0x20
       CODE:0e7c 12 25 c8        LCALL      FUN_CODE_25c8                                              undefined FUN_CODE_25c8()
       CODE:0e7f 74 01           MOV        A,#0x1
       CODE:0e81 12 25 c8        LCALL      FUN_CODE_25c8                                              undefined FUN_CODE_25c8()
       CODE:0e84 80 af           SJMP       LAB_CODE_0e35
                             LAB_CODE_0e86                                   XREF[1]:     CODE:0e4f(j)  
       CODE:0e86 74 01           MOV        A,#0x1
       CODE:0e88 12 25 c3        LCALL      FUN_CODE_25c3                                              undefined FUN_CODE_25c3()
       CODE:0e8b 74 42           MOV        A,#0x42
       CODE:0e8d 12 25 c8        LCALL      FUN_CODE_25c8                                              undefined FUN_CODE_25c8()
       CODE:0e90 74 01           MOV        A,#0x1
       CODE:0e92 12 25 c8        LCALL      FUN_CODE_25c8                                              undefined FUN_CODE_25c8()
       CODE:0e95 80 9e           SJMP       LAB_CODE_0e35
       CODE:0e97 c2              ??         C2h
       CODE:0e98 40              ??         40h    @
       CODE:0e99 74              ??         74h    t
       CODE:0e9a 01              ??         01h
       CODE:0e9b 12              ??         12h
       CODE:0e9c 25              ??         25h    %
       CODE:0e9d c3              ??         C3h
       CODE:0e9e 74              ??         74h    t
       CODE:0e9f 61              ??         61h    a
       CODE:0ea0 12              ??         12h
       CODE:0ea1 25              ??         25h    %
       CODE:0ea2 c8              ??         C8h
       CODE:0ea3 80              ??         80h
       CODE:0ea4 90              ??         90h
                             LAB_CODE_0ea5                                   XREF[1]:     CODE:0e0d(j)  
       CODE:0ea5 c2 39           CLR        27.1                                                       = ??
       CODE:0ea7 74 01           MOV        A,#0x1
       CODE:0ea9 12 25 c3        LCALL      FUN_CODE_25c3                                              undefined FUN_CODE_25c3()
       CODE:0eac 74 40           MOV        A,#0x40
       CODE:0eae 12 25 c8        LCALL      FUN_CODE_25c8                                              undefined FUN_CODE_25c8()
       CODE:0eb1 e5 2e           MOV        A,DAT_INTMEM_2e                                            = ??
       CODE:0eb3 12 25 c8        LCALL      FUN_CODE_25c8                                              undefined FUN_CODE_25c8()
       CODE:0eb6 02 0e 35        LJMP       LAB_CODE_0e35
                             LAB_CODE_0eb9                                   XREF[1]:     CODE:0e13(j)  
       CODE:0eb9 c2 3a           CLR        27.2                                                       = ??
       CODE:0ebb 74 01           MOV        A,#0x1
       CODE:0ebd 12 25 c3        LCALL      FUN_CODE_25c3                                              undefined FUN_CODE_25c3()
       CODE:0ec0 74 13           MOV        A,#0x13
       CODE:0ec2 12 25 c8        LCALL      FUN_CODE_25c8                                              undefined FUN_CODE_25c8()
       CODE:0ec5 02 0e 35        LJMP       LAB_CODE_0e35
                             LAB_CODE_0ec8                                   XREF[1]:     CODE:0e19(j)  
       CODE:0ec8 c2 3b           CLR        27.3                                                       = ??
       CODE:0eca 75 f0 00        MOV        B,#0x0
       CODE:0ecd a2 05           MOV        CY,20.5                                                    = ??
       CODE:0ecf 92 f0           MOV        B.0,CY                                                     = ??
       CODE:0ed1 74 01           MOV        A,#0x1
       CODE:0ed3 12 25 c3        LCALL      FUN_CODE_25c3                                              undefined FUN_CODE_25c3()
       CODE:0ed6 74 14           MOV        A,#0x14
       CODE:0ed8 12 25 c8        LCALL      FUN_CODE_25c8                                              undefined FUN_CODE_25c8()
       CODE:0edb e5 f0           MOV        A,B
       CODE:0edd 12 25 c8        LCALL      FUN_CODE_25c8                                              undefined FUN_CODE_25c8()
       CODE:0ee0 02 0e 35        LJMP       LAB_CODE_0e35
                             LAB_CODE_0ee3                                   XREF[1]:     CODE:0e1f(j)  
       CODE:0ee3 c2 3d           CLR        27.5                                                       = ??
       CODE:0ee5 78 b0           MOV        R0,#0xb0
       CODE:0ee7 86 f0           MOV        B,@R0=>DAT_INTMEM_b0                                       = ??
       CODE:0ee9 78 b1           MOV        R0,#0xb1
       CODE:0eeb e6              MOV        A,@R0=>DAT_INTMEM_b1                                       = ??
       CODE:0eec fb              MOV        R3,A
       CODE:0eed 74 01           MOV        A,#0x1
       CODE:0eef 12 25 c3        LCALL      FUN_CODE_25c3                                              undefined FUN_CODE_25c3()
       CODE:0ef2 74 44           MOV        A,#0x44
       CODE:0ef4 12 25 c8        LCALL      FUN_CODE_25c8                                              undefined FUN_CODE_25c8()
       CODE:0ef7 e5 f0           MOV        A,B
       CODE:0ef9 12 25 c8        LCALL      FUN_CODE_25c8                                              undefined FUN_CODE_25c8()
       CODE:0efc eb              MOV        A,R3
       CODE:0efd 12 25 c8        LCALL      FUN_CODE_25c8                                              undefined FUN_CODE_25c8()
       CODE:0f00 02 0e 35        LJMP       LAB_CODE_0e35
                             LAB_CODE_0f03                                   XREF[1]:     CODE:0e25(j)  
       CODE:0f03 c2 3e           CLR        27.6                                                       = ??
       CODE:0f05 78 ac           MOV        R0,#0xac
       CODE:0f07 e6              MOV        A,@R0=>DAT_INTMEM_ac                                       = ??
       CODE:0f08 fb              MOV        R3,A
       CODE:0f09 54 1f           ANL        A,#0x1f
       CODE:0f0b ff              MOV        R7,A
       CODE:0f0c eb              MOV        A,R3
       CODE:0f0d a2 e6           MOV        CY,ACC.6                                                   = ??
       CODE:0f0f 54 80           ANL        A,#0x80
       CODE:0f11 b3              CPL        CY
       CODE:0f12 92 e0           MOV        ACC.0,CY                                                   = ??
       CODE:0f14 fb              MOV        R3,A
       CODE:0f15 78 ad           MOV        R0,#0xad
       CODE:0f17 e6              MOV        A,@R0=>DAT_INTMEM_ad                                       = ??
       CODE:0f18 fc              MOV        R4,A
       CODE:0f19 78 ae           MOV        R0,#0xae
       CODE:0f1b e6              MOV        A,@R0=>DAT_INTMEM_ae                                       = ??
       CODE:0f1c fd              MOV        R5,A
       CODE:0f1d 78 af           MOV        R0,#0xaf
       CODE:0f1f e6              MOV        A,@R0=>DAT_INTMEM_af                                       = ??
       CODE:0f20 fe              MOV        R6,A
       CODE:0f21 74 01           MOV        A,#0x1
       CODE:0f23 12 25 c3        LCALL      FUN_CODE_25c3                                              undefined FUN_CODE_25c3()
       CODE:0f26 74 23           MOV        A,#0x23
       CODE:0f28 12 25 c8        LCALL      FUN_CODE_25c8                                              undefined FUN_CODE_25c8()
       CODE:0f2b eb              MOV        A,R3
       CODE:0f2c 12 25 c8        LCALL      FUN_CODE_25c8                                              undefined FUN_CODE_25c8()
       CODE:0f2f ec              MOV        A,R4
       CODE:0f30 12 25 c8        LCALL      FUN_CODE_25c8                                              undefined FUN_CODE_25c8()
       CODE:0f33 ed              MOV        A,R5
       CODE:0f34 12 25 c8        LCALL      FUN_CODE_25c8                                              undefined FUN_CODE_25c8()
       CODE:0f37 ee              MOV        A,R6
       CODE:0f38 12 25 c8        LCALL      FUN_CODE_25c8                                              undefined FUN_CODE_25c8()
       CODE:0f3b ef              MOV        A,R7
       CODE:0f3c 12 25 c8        LCALL      FUN_CODE_25c8                                              undefined FUN_CODE_25c8()
       CODE:0f3f 02 0e 35        LJMP       LAB_CODE_0e35
                             LAB_CODE_0f42                                   XREF[1]:     CODE:0e2b(j)  
       CODE:0f42 c2 3f           CLR        27.7                                                       = ??
       CODE:0f44 74 01           MOV        A,#0x1
       CODE:0f46 12 25 c3        LCALL      FUN_CODE_25c3                                              undefined FUN_CODE_25c3()
       CODE:0f49 74 70           MOV        A,#0x70
       CODE:0f4b 12 25 c8        LCALL      FUN_CODE_25c8                                              undefined FUN_CODE_25c8()
       CODE:0f4e 02 0e 35        LJMP       LAB_CODE_0e35
                             LAB_CODE_0f51                                   XREF[1]:     CODE:0e31(j)  
       CODE:0f51 c2 41           CLR        28.1                                                       = ??
       CODE:0f53 74 01           MOV        A,#0x1
       CODE:0f55 12 25 c3        LCALL      FUN_CODE_25c3                                              undefined FUN_CODE_25c3()
       CODE:0f58 e5 37           MOV        A,DAT_INTMEM_37                                            = ??
       CODE:0f5a 12 25 c8        LCALL      FUN_CODE_25c8                                              undefined FUN_CODE_25c8()
       CODE:0f5d 02 0e 35        LJMP       LAB_CODE_0e35
                             **************************************************************
                             *                          FUNCTION                          *
                             **************************************************************
                             undefined FUN_CODE_0f60()
             undefined         ACC:1          <RETURN>
                             FUN_CODE_0f60                                   XREF[1]:     FUN_CODE_07e3:0869(c)  
       CODE:0f60 20 10 05        JB         22.0,LAB_CODE_0f68                                         = ??
       CODE:0f63 78 a0           MOV        R0,#0xa0
       CODE:0f65 76 00           MOV        @R0=>DAT_INTMEM_a0,#0x0                                    = ??
       CODE:0f67 22              RET
                             LAB_CODE_0f68                                   XREF[1]:     CODE:0f60(j)  
       CODE:0f68 78 a0           MOV        R0,#0xa0
       CODE:0f6a e6              MOV        A,@R0=>DAT_INTMEM_a0                                       = ??
       CODE:0f6b 26              ADD        A,@R0=>DAT_INTMEM_a0                                       = ??
       CODE:0f6c 26              ADD        A,@R0=>DAT_INTMEM_a0                                       = ??
       CODE:0f6d 90 0f 71        MOV        DPTR,#LAB_CODE_0f71
       CODE:0f70 73              JMP        @A+DPTR
                             LAB_CODE_0f71                                   XREF[1]:     FUN_CODE_0f60:0f6d(*)  
       CODE:0f71 02 0f 92        LJMP       LAB_CODE_0f92
       CODE:0f74 02 0f a8        LJMP       LAB_CODE_0fa8
       CODE:0f77 02 0f ad        LJMP       LAB_CODE_0fad
       CODE:0f7a 02 0f b4        LJMP       LAB_CODE_0fb4
       CODE:0f7d 02 0f f6        LJMP       LAB_CODE_0ff6
       CODE:0f80 02 0f fd        LJMP       LAB_CODE_0ffd
       CODE:0f83 02 10 0a        LJMP       LAB_CODE_100a
       CODE:0f86 02 10 30        LJMP       LAB_CODE_1030
       CODE:0f89 02 10 58        LJMP       LAB_CODE_1058
       CODE:0f8c 02 10 63        LJMP       LAB_CODE_1063
       CODE:0f8f 02 10 6b        LJMP       LAB_CODE_106b
                             LAB_CODE_0f92                                   XREF[1]:     CODE:0f71(j)  
       CODE:0f92 20 1e 0f        JB         23.6,LAB_CODE_0fa4                                         = ??
       CODE:0f95 20 1f 0c        JB         23.7,LAB_CODE_0fa4                                         = ??
       CODE:0f98 e5 37           MOV        A,DAT_INTMEM_37                                            = ??
       CODE:0f9a b4 63 02        CJNE       A,#0x63,LAB_CODE_0f9f
       CODE:0f9d 80 1f           SJMP       LAB_CODE_0fbe
                             LAB_CODE_0f9f                                   XREF[1]:     CODE:0f9a(j)  
       CODE:0f9f b4 64 02        CJNE       A,#0x64,LAB_CODE_0fa4
       CODE:0fa2 80 1a           SJMP       LAB_CODE_0fbe
                             LAB_CODE_0fa4                                   XREF[3]:     CODE:0f92(j), CODE:0f95(j), 
                                                                                          CODE:0f9f(j)  
       CODE:0fa4 c2 26           CLR        24.6                                                       = ??
       CODE:0fa6 80 1b           SJMP       LAB_CODE_0fc3
                             LAB_CODE_0fa8                                   XREF[1]:     CODE:0f74(j)  
       CODE:0fa8 12 00 c0        LCALL      FUN_CODE_00c0                                              undefined FUN_CODE_00c0()
       CODE:0fab 80 1b           SJMP       LAB_CODE_0fc8
                             LAB_CODE_0fad                                   XREF[1]:     CODE:0f77(j)  
       CODE:0fad c2 1b           CLR        23.3                                                       = ??
       CODE:0faf 12 00 3c        LCALL      FUN_CODE_003c                                              undefined FUN_CODE_003c()
       CODE:0fb2 80 19           SJMP       LAB_CODE_0fcd
                             LAB_CODE_0fb4                                   XREF[1]:     CODE:0f7a(j)  
       CODE:0fb4 12 25 35        LCALL      FUN_CODE_2535                                              undefined FUN_CODE_2535()
       CODE:0fb7 c2 19           CLR        23.1                                                       = ??
       CODE:0fb9 12 25 46        LCALL      FUN_CODE_2546                                              undefined FUN_CODE_2546()
       CODE:0fbc 80 14           SJMP       LAB_CODE_0fd2
                             LAB_CODE_0fbe                                   XREF[2]:     CODE:0f9d(j), CODE:0fa2(j)  
       CODE:0fbe 78 a0           MOV        R0,#0xa0
       CODE:0fc0 76 00           MOV        @R0=>DAT_INTMEM_a0,#0x0                                    = ??
       CODE:0fc2 22              RET
                             LAB_CODE_0fc3                                   XREF[1]:     CODE:0fa6(j)  
       CODE:0fc3 78 a0           MOV        R0,#0xa0
       CODE:0fc5 76 01           MOV        @R0=>DAT_INTMEM_a0,#0x1                                    = ??
       CODE:0fc7 22              RET
                             LAB_CODE_0fc8                                   XREF[1]:     CODE:0fab(j)  
       CODE:0fc8 78 a0           MOV        R0,#0xa0
       CODE:0fca 76 02           MOV        @R0=>DAT_INTMEM_a0,#0x2                                    = ??
       CODE:0fcc 22              RET
                             LAB_CODE_0fcd                                   XREF[1]:     CODE:0fb2(j)  
       CODE:0fcd 78 a0           MOV        R0,#0xa0
       CODE:0fcf 76 03           MOV        @R0=>DAT_INTMEM_a0,#0x3                                    = ??
       CODE:0fd1 22              RET
                             LAB_CODE_0fd2                                   XREF[1]:     CODE:0fbc(j)  
       CODE:0fd2 78 a0           MOV        R0,#0xa0
       CODE:0fd4 76 04           MOV        @R0=>DAT_INTMEM_a0,#0x4                                    = ??
       CODE:0fd6 22              RET
                             LAB_CODE_0fd7                                   XREF[1]:     CODE:0ffb(j)  
       CODE:0fd7 78 a0           MOV        R0,#0xa0
       CODE:0fd9 76 05           MOV        @R0=>DAT_INTMEM_a0,#0x5                                    = ??
       CODE:0fdb 22              RET
                             LAB_CODE_0fdc                                   XREF[1]:     CODE:1008(j)  
       CODE:0fdc 78 a0           MOV        R0,#0xa0
       CODE:0fde 76 06           MOV        @R0=>DAT_INTMEM_a0,#0x6                                    = ??
       CODE:0fe0 22              RET
                             LAB_CODE_0fe1                                   XREF[1]:     CODE:102e(j)  
       CODE:0fe1 78 a0           MOV        R0,#0xa0
       CODE:0fe3 76 07           MOV        @R0=>DAT_INTMEM_a0,#0x7                                    = ??
       CODE:0fe5 22              RET
                             LAB_CODE_0fe6                                   XREF[1]:     CODE:1056(j)  
       CODE:0fe6 78 a0           MOV        R0,#0xa0
       CODE:0fe8 76 08           MOV        @R0=>DAT_INTMEM_a0,#0x8                                    = ??
       CODE:0fea 22              RET
                             LAB_CODE_0feb                                   XREF[1]:     CODE:105f(j)  
       CODE:0feb 78 a0           MOV        R0,#0xa0
       CODE:0fed 76 09           MOV        @R0=>DAT_INTMEM_a0,#0x9                                    = ??
       CODE:0fef 22              RET
                             LAB_CODE_0ff0                                   XREF[1]:     CODE:1069(j)  
       CODE:0ff0 78 a0           MOV        R0,#0xa0
       CODE:0ff2 76 0a           MOV        @R0=>DAT_INTMEM_a0,#0xa                                    = ??
       CODE:0ff4 22              RET
                             LAB_CODE_0ff5                                   XREF[9]:     CODE:101e(j), CODE:1027(j), 
                                                                                          CODE:1041(j), CODE:1044(j), 
                                                                                          CODE:104c(j), CODE:1058(j), 
                                                                                          CODE:1063(j), CODE:106b(j), 
                                                                                          CODE:1070(j)  
       CODE:0ff5 22              RET
                             LAB_CODE_0ff6                                   XREF[1]:     CODE:0f7d(j)  
       CODE:0ff6 c2 18           CLR        23.0                                                       = ??
       CODE:0ff8 12 25 2f        LCALL      FUN_CODE_252f                                              undefined FUN_CODE_252f()
       CODE:0ffb 80 da           SJMP       LAB_CODE_0fd7
                             LAB_CODE_0ffd                                   XREF[1]:     CODE:0f80(j)  
       CODE:0ffd c2 1a           CLR        23.2                                                       = ??
       CODE:0fff 12 25 57        LCALL      FUN_CODE_2557                                              undefined FUN_CODE_2557()
       CODE:1002 75 3b fa        MOV        DAT_INTMEM_3b,#0xfa                                        = ??
       CODE:1005 75 62 18        MOV        DAT_INTMEM_62,#0x18                                        = ??
       CODE:1008 80 d2           SJMP       LAB_CODE_0fdc
                             LAB_CODE_100a                                   XREF[1]:     CODE:0f83(j)  
       CODE:100a c2 1c           CLR        23.4                                                       = ??
       CODE:100c 12 25 68        LCALL      FUN_CODE_2568                                              undefined FUN_CODE_2568()
       CODE:100f 20 1e 18        JB         23.6,LAB_CODE_102a                                         = ??
       CODE:1012 30 1f 15        JNB        23.7,LAB_CODE_102a                                         = ??
       CODE:1015 c2 08           CLR        21.0                                                       = ??
       CODE:1017 c2 22           CLR        24.2                                                       = ??
       CODE:1019 c2 0b           CLR        21.3                                                       = ??
       CODE:101b 30 52 0c        JNB        2a.2,LAB_CODE_102a                                         = ??
       CODE:101e d5 3b d4        DJNZ       DAT_INTMEM_3b,LAB_CODE_0ff5                                = ??
       CODE:1021 20 53 06        JB         2a.3,LAB_CODE_102a                                         = ??
       CODE:1024 75 3b fa        MOV        DAT_INTMEM_3b,#0xfa                                        = ??
       CODE:1027 d5 62 cb        DJNZ       DAT_INTMEM_62,LAB_CODE_0ff5                                = ??
                             LAB_CODE_102a                                   XREF[4]:     CODE:100f(j), CODE:1012(j), 
                                                                                          CODE:101b(j), CODE:1021(j)  
       CODE:102a c2 17           CLR        22.7                                                       = ??
       CODE:102c d2 31           SETB       26.1                                                       = ??
       CODE:102e 80 b1           SJMP       LAB_CODE_0fe1
                             LAB_CODE_1030                                   XREF[1]:     CODE:0f86(j)  
       CODE:1030 12 25 1e        LCALL      FUN_CODE_251e                                              undefined FUN_CODE_251e()
       CODE:1033 20 08 19        JB         21.0,LAB_CODE_104f                                         = ??
       CODE:1036 20 22 16        JB         24.2,LAB_CODE_104f                                         = ??
       CODE:1039 20 0b 13        JB         21.3,LAB_CODE_104f                                         = ??
       CODE:103c 30 1e 0a        JNB        23.6,LAB_CODE_1049                                         = ??
       CODE:103f e5 55           MOV        A,DAT_INTMEM_55                                            = ??
       CODE:1041 b4 01 b1        CJNE       A,#0x1,LAB_CODE_0ff5
       CODE:1044 20 5a ae        JB         2b.2,LAB_CODE_0ff5                                         = ??
       CODE:1047 80 06           SJMP       LAB_CODE_104f
                             LAB_CODE_1049                                   XREF[1]:     CODE:103c(j)  
       CODE:1049 30 1f 03        JNB        23.7,LAB_CODE_104f                                         = ??
       CODE:104c 20 5a a6        JB         2b.2,LAB_CODE_0ff5                                         = ??
                             LAB_CODE_104f                                   XREF[5]:     CODE:1033(j), CODE:1036(j), 
                                                                                          CODE:1039(j), CODE:1047(j), 
                                                                                          CODE:1049(j)  
       CODE:104f c2 2c           CLR        25.4                                                       = ??
       CODE:1051 c2 42           CLR        28.2                                                       = ??
       CODE:1053 75 3b 19        MOV        DAT_INTMEM_3b,#0x19                                        = ??
       CODE:1056 80 8e           SJMP       LAB_CODE_0fe6
                             LAB_CODE_1058                                   XREF[1]:     CODE:0f89(j)  
       CODE:1058 d5 3b 9a        DJNZ       DAT_INTMEM_3b,LAB_CODE_0ff5                                = ??
       CODE:105b e5 60           MOV        A,DAT_INTMEM_60                                            = ??
       CODE:105d f5 3b           MOV        DAT_INTMEM_3b,A                                            = ??
       CODE:105f 70 8a           JNZ        LAB_CODE_0feb
       CODE:1061 80 03           SJMP       LAB_CODE_1066
                             LAB_CODE_1063                                   XREF[1]:     CODE:0f8c(j)  
       CODE:1063 d5 3b 8f        DJNZ       DAT_INTMEM_3b,LAB_CODE_0ff5                                = ??
                             LAB_CODE_1066                                   XREF[1]:     CODE:1061(j)  
       CODE:1066 30 43 05        JNB        28.3,LAB_CODE_106e                                         = ??
       CODE:1069 80 85           SJMP       LAB_CODE_0ff0
                             LAB_CODE_106b                                   XREF[1]:     CODE:0f8f(j)  
       CODE:106b 20 43 87        JB         28.3,LAB_CODE_0ff5                                         = ??
                             LAB_CODE_106e                                   XREF[1]:     CODE:1066(j)  
       CODE:106e c2 10           CLR        22.0                                                       = ??
       CODE:1070 80 83           SJMP       LAB_CODE_0ff5
       CODE:1072 78              ??         78h    x
       CODE:1073 9d              ??         9Dh
       CODE:1074 76              ??         76h    v
       CODE:1075 00              ??         00h
       CODE:1076 22              ??         22h    "
                             LAB_CODE_1077                                   XREF[2]:     CODE:10ae(j), CODE:10b5(j)  
       CODE:1077 78 9d           MOV        R0,#0x9d
       CODE:1079 76 01           MOV        @R0=>DAT_INTMEM_9d,#0x1                                    = ??
       CODE:107b 22              RET
                             LAB_CODE_107c                                   XREF[1]:     CODE:10cc(j)  
       CODE:107c 78 9d           MOV        R0,#0x9d
       CODE:107e 76 02           MOV        @R0=>DAT_INTMEM_9d,#0x2                                    = ??
       CODE:1080 22              RET
                             LAB_CODE_1081                                   XREF[1]:     CODE:10ea(j)  
       CODE:1081 78 9d           MOV        R0,#0x9d
       CODE:1083 76 03           MOV        @R0=>DAT_INTMEM_9d,#0x3                                    = ??
       CODE:1085 22              RET
                             LAB_CODE_1086                                   XREF[1]:     CODE:1107(j)  
       CODE:1086 78 9d           MOV        R0,#0x9d
       CODE:1088 76 04           MOV        @R0=>DAT_INTMEM_9d,#0x4                                    = ??
       CODE:108a 22              RET
                             LAB_CODE_108b                                   XREF[1]:     CODE:1128(j)  
       CODE:108b 78 9d           MOV        R0,#0x9d
       CODE:108d 76 05           MOV        @R0=>DAT_INTMEM_9d,#0x5                                    = ??
       CODE:108f 22              RET
                             LAB_CODE_1090                                   XREF[1]:     CODE:1143(j)  
       CODE:1090 78 9d           MOV        R0,#0x9d
       CODE:1092 76 06           MOV        @R0=>DAT_INTMEM_9d,#0x6                                    = ??
       CODE:1094 22              RET
                             LAB_CODE_1095                                   XREF[1]:     CODE:114d(j)  
       CODE:1095 78 9d           MOV        R0,#0x9d
       CODE:1097 76 07           MOV        @R0=>DAT_INTMEM_9d,#0x7                                    = ??
       CODE:1099 22              RET
                             LAB_CODE_109a                                   XREF[1]:     CODE:1153(j)  
       CODE:109a 78 9d           MOV        R0,#0x9d
       CODE:109c 76 08           MOV        @R0=>DAT_INTMEM_9d,#0x8                                    = ??
       CODE:109e 22              RET
                             LAB_CODE_109f                                   XREF[1]:     CODE:1159(j)  
       CODE:109f 78 9d           MOV        R0,#0x9d
       CODE:10a1 76 09           MOV        @R0=>DAT_INTMEM_9d,#0x9                                    = ??
       CODE:10a3 22              RET
       CODE:10a4 22              ??         22h    "
                             LAB_CODE_10a5                                   XREF[1]:     CODE:1189(j)  
       CODE:10a5 12 25 1b        LCALL      FUN_CODE_251b                                              undefined FUN_CODE_251b()
       CODE:10a8 43 33 01        ORL        DAT_INTMEM_33,#0x1                                         = ??
       CODE:10ab 75 3b 0a        MOV        DAT_INTMEM_3b,#0xa                                         = ??
       CODE:10ae 80 c7           SJMP       LAB_CODE_1077
                             LAB_CODE_10b0                                   XREF[1]:     CODE:118c(j)  
       CODE:10b0 12 25 21        LCALL      FUN_CODE_2521                                              undefined FUN_CODE_2521()
       CODE:10b3 40 12           JC         LAB_CODE_10c7
       CODE:10b5 d5 3b bf        DJNZ       DAT_INTMEM_3b,LAB_CODE_1077                                = ??
       CODE:10b8 d2 1e           SETB       23.6                                                       = ??
       CODE:10ba 75 55 01        MOV        DAT_INTMEM_55,#0x1                                         = ??
       CODE:10bd 75 56 01        MOV        DAT_INTMEM_56,#0x1                                         = ??
       CODE:10c0 d2 49           SETB       29.1                                                       = ??
       CODE:10c2 d2 35           SETB       26.5                                                       = ??
       CODE:10c4 02 11 79        LJMP       LAB_CODE_1179
                             LAB_CODE_10c7                                   XREF[1]:     CODE:10b3(j)  
       CODE:10c7 d2 30           SETB       26.0                                                       = ??
       CODE:10c9 12 25 65        LCALL      FUN_CODE_2565                                              undefined FUN_CODE_2565()
       CODE:10cc 80 ae           SJMP       LAB_CODE_107c
                             LAB_CODE_10ce                                   XREF[1]:     CODE:118f(j)  
       CODE:10ce 12 25 21        LCALL      FUN_CODE_2521                                              undefined FUN_CODE_2521()
       CODE:10d1 d2 17           SETB       22.7                                                       = ??
       CODE:10d3 12 25 6b        LCALL      FUN_CODE_256b                                              undefined FUN_CODE_256b()
       CODE:10d6 40 0f           JC         LAB_CODE_10e7
       CODE:10d8 d2 1e           SETB       23.6                                                       = ??
       CODE:10da 75 55 0b        MOV        DAT_INTMEM_55,#0xb                                         = ??
       CODE:10dd 75 56 0b        MOV        DAT_INTMEM_56,#0xb                                         = ??
       CODE:10e0 d2 49           SETB       29.1                                                       = ??
       CODE:10e2 d2 35           SETB       26.5                                                       = ??
       CODE:10e4 02 11 79        LJMP       LAB_CODE_1179
                             LAB_CODE_10e7                                   XREF[1]:     CODE:10d6(j)  
       CODE:10e7 12 25 54        LCALL      FUN_CODE_2554                                              undefined FUN_CODE_2554()
       CODE:10ea 80 95           SJMP       LAB_CODE_1081
                             LAB_CODE_10ec                                   XREF[1]:     CODE:1192(j)  
       CODE:10ec 12 25 6b        LCALL      FUN_CODE_256b                                              undefined FUN_CODE_256b()
       CODE:10ef d2 1c           SETB       23.4                                                       = ??
       CODE:10f1 12 25 5a        LCALL      FUN_CODE_255a                                              undefined FUN_CODE_255a()
       CODE:10f4 40 0e           JC         LAB_CODE_1104
       CODE:10f6 d2 1e           SETB       23.6                                                       = ??
       CODE:10f8 75 55 0f        MOV        DAT_INTMEM_55,#0xf                                         = ??
       CODE:10fb 75 56 0f        MOV        DAT_INTMEM_56,#0xf                                         = ??
       CODE:10fe d2 49           SETB       29.1                                                       = ??
       CODE:1100 d2 35           SETB       26.5                                                       = ??
       CODE:1102 80 75           SJMP       LAB_CODE_1179
                             LAB_CODE_1104                                   XREF[1]:     CODE:10f4(j)  
       CODE:1104 12 25 2c        LCALL      FUN_CODE_252c                                              undefined FUN_CODE_252c()
       CODE:1107 02 10 86        LJMP       LAB_CODE_1086
                             LAB_CODE_110a                                   XREF[1]:     CODE:1195(j)  
       CODE:110a 12 25 5a        LCALL      FUN_CODE_255a                                              undefined FUN_CODE_255a()
       CODE:110d d2 1a           SETB       23.2                                                       = ??
       CODE:110f 12 25 38        LCALL      FUN_CODE_2538                                              undefined FUN_CODE_2538()
       CODE:1112 40 0e           JC         LAB_CODE_1122
       CODE:1114 d2 1e           SETB       23.6                                                       = ??
       CODE:1116 75 55 0d        MOV        DAT_INTMEM_55,#0xd                                         = ??
       CODE:1119 75 56 0d        MOV        DAT_INTMEM_56,#0xd                                         = ??
       CODE:111c d2 49           SETB       29.1                                                       = ??
       CODE:111e d2 35           SETB       26.5                                                       = ??
       CODE:1120 80 57           SJMP       LAB_CODE_1179
                             LAB_CODE_1122                                   XREF[1]:     CODE:1112(j)  
       CODE:1122 12 25 32        LCALL      FUN_CODE_2532                                              undefined FUN_CODE_2532()
       CODE:1125 12 25 43        LCALL      FUN_CODE_2543                                              undefined FUN_CODE_2543()
       CODE:1128 02 10 8b        LJMP       LAB_CODE_108b
                             LAB_CODE_112b                                   XREF[1]:     CODE:1198(j)  
       CODE:112b 12 25 38        LCALL      FUN_CODE_2538                                              undefined FUN_CODE_2538()
       CODE:112e d2 18           SETB       23.0                                                       = ??
       CODE:1130 12 25 49        LCALL      FUN_CODE_2549                                              undefined FUN_CODE_2549()
       CODE:1133 40 0e           JC         LAB_CODE_1143
       CODE:1135 d2 1e           SETB       23.6                                                       = ??
       CODE:1137 75 55 03        MOV        DAT_INTMEM_55,#0x3                                         = ??
       CODE:113a 75 56 03        MOV        DAT_INTMEM_56,#0x3                                         = ??
       CODE:113d d2 49           SETB       29.1                                                       = ??
       CODE:113f d2 35           SETB       26.5                                                       = ??
       CODE:1141 80 36           SJMP       LAB_CODE_1179
                             LAB_CODE_1143                                   XREF[1]:     CODE:1133(j)  
       CODE:1143 02 10 90        LJMP       LAB_CODE_1090
                             LAB_CODE_1146                                   XREF[1]:     CODE:119b(j)  
       CODE:1146 12 25 49        LCALL      FUN_CODE_2549                                              undefined FUN_CODE_2549()
       CODE:1149 d2 19           SETB       23.1                                                       = ??
       CODE:114b d2 26           SETB       24.6                                                       = ??
       CODE:114d 02 10 95        LJMP       LAB_CODE_1095
                             LAB_CODE_1150                                   XREF[1]:     CODE:119e(j)  
       CODE:1150 12 00 bd        LCALL      FUN_CODE_00bd                                              undefined FUN_CODE_00bd()
       CODE:1153 02 10 9a        LJMP       LAB_CODE_109a
                             LAB_CODE_1156                                   XREF[1]:     CODE:11a1(j)  
       CODE:1156 12 00 39        LCALL      FUN_CODE_0039                                              undefined FUN_CODE_0039()
       CODE:1159 02 10 9f        LJMP       LAB_CODE_109f
                             LAB_CODE_115c                                   XREF[1]:     CODE:11a4(j)  
       CODE:115c 12 00 3f        LCALL      FUN_CODE_003f                                              undefined FUN_CODE_003f()
       CODE:115f 40 0e           JC         LAB_CODE_116f
       CODE:1161 d2 1e           SETB       23.6                                                       = ??
       CODE:1163 75 55 02        MOV        DAT_INTMEM_55,#0x2                                         = ??
       CODE:1166 75 56 02        MOV        DAT_INTMEM_56,#0x2                                         = ??
       CODE:1169 d2 49           SETB       29.1                                                       = ??
       CODE:116b d2 35           SETB       26.5                                                       = ??
       CODE:116d 80 0a           SJMP       LAB_CODE_1179
                             LAB_CODE_116f                                   XREF[1]:     CODE:115f(j)  
       CODE:116f 12 00 3f        LCALL      FUN_CODE_003f                                              undefined FUN_CODE_003f()
       CODE:1172 d2 1b           SETB       23.3                                                       = ??
       CODE:1174 80 03           SJMP       LAB_CODE_1179
                             **************************************************************
                             *                          FUNCTION                          *
                             **************************************************************
                             undefined FUN_CODE_1176()
             undefined         ACC:1          <RETURN>
                             FUN_CODE_1176                                   XREF[1]:     FUN_CODE_07e3:0860(c)  
       CODE:1176 20 0d 07        JB         21.5,LAB_CODE_1180                                         = ??
                             LAB_CODE_1179                                   XREF[7]:     CODE:10c4(j), CODE:10e4(j), 
                                                                                          CODE:1102(j), CODE:1120(j), 
                                                                                          CODE:1141(j), CODE:116d(j), 
                                                                                          CODE:1174(j)  
       CODE:1179 c2 0d           CLR        21.5                                                       = ??
       CODE:117b 78 9d           MOV        R0,#0x9d
       CODE:117d 76 00           MOV        @R0=>DAT_INTMEM_9d,#0x0                                    = ??
       CODE:117f 22              RET
                             LAB_CODE_1180                                   XREF[1]:     CODE:1176(j)  
       CODE:1180 78 9d           MOV        R0,#0x9d
       CODE:1182 e6              MOV        A,@R0=>DAT_INTMEM_9d                                       = ??
       CODE:1183 26              ADD        A,@R0=>DAT_INTMEM_9d                                       = ??
       CODE:1184 26              ADD        A,@R0=>DAT_INTMEM_9d                                       = ??
       CODE:1185 90 11 89        MOV        DPTR,#LAB_CODE_1189
       CODE:1188 73              JMP        @A+DPTR
                             LAB_CODE_1189                                   XREF[1]:     FUN_CODE_1176:1185(*)  
       CODE:1189 02 10 a5        LJMP       LAB_CODE_10a5
       CODE:118c 02 10 b0        LJMP       LAB_CODE_10b0
       CODE:118f 02 10 ce        LJMP       LAB_CODE_10ce
       CODE:1192 02 10 ec        LJMP       LAB_CODE_10ec
       CODE:1195 02 11 0a        LJMP       LAB_CODE_110a
       CODE:1198 02 11 2b        LJMP       LAB_CODE_112b
       CODE:119b 02 11 46        LJMP       LAB_CODE_1146
       CODE:119e 02 11 50        LJMP       LAB_CODE_1150
       CODE:11a1 02 11 56        LJMP       LAB_CODE_1156
       CODE:11a4 02 11 5c        LJMP       LAB_CODE_115c
                             LAB_CODE_11a7                                   XREF[1]:     CODE:125f(j)  
       CODE:11a7 30 1f 06        JNB        23.7,LAB_CODE_11b0                                         = ??
       CODE:11aa 75 3b 32        MOV        DAT_INTMEM_3b,#0x32                                        = ??
       CODE:11ad 75 4e 0f        MOV        DAT_INTMEM_4e,#0xf                                         = ??
                             LAB_CODE_11b0                                   XREF[1]:     CODE:11a7(j)  
       CODE:11b0 80 00           SJMP       LAB_CODE_11b2
                             LAB_CODE_11b2                                   XREF[2]:     CODE:11b0(j), CODE:1262(j)  
       CODE:11b2 20 1e 15        JB         23.6,LAB_CODE_11ca                                         = ??
       CODE:11b5 30 1f 12        JNB        23.7,LAB_CODE_11ca                                         = ??
       CODE:11b8 c2 08           CLR        21.0                                                       = ??
       CODE:11ba c2 22           CLR        24.2                                                       = ??
       CODE:11bc c2 0b           CLR        21.3                                                       = ??
       CODE:11be 20 54 09        JB         2a.4,LAB_CODE_11ca                                         = ??
       CODE:11c1 d5 3b 21        DJNZ       DAT_INTMEM_3b,LAB_CODE_11e5                                = ??
       CODE:11c4 75 3b 32        MOV        DAT_INTMEM_3b,#0x32                                        = ??
       CODE:11c7 d5 4e 1b        DJNZ       DAT_INTMEM_4e,LAB_CODE_11e5                                = ??
                             LAB_CODE_11ca                                   XREF[3]:     CODE:11b2(j), CODE:11b5(j), 
                                                                                          CODE:11be(j)  
       CODE:11ca c2 13           CLR        22.3                                                       = ??
       CODE:11cc c2 2b           CLR        25.3                                                       = ??
       CODE:11ce 12 00 30        LCALL      FUN_CODE_0030                                              undefined FUN_CODE_0030()
       CODE:11d1 12 00 50        LCALL      FUN_CODE_0050                                              undefined FUN_CODE_0050()
       CODE:11d4 c2 12           CLR        22.2                                                       = ??
       CODE:11d6 12 00 80        LCALL      FUN_CODE_0080                                              undefined FUN_CODE_0080()
       CODE:11d9 12 00 aa        LCALL      FUN_CODE_00aa                                              undefined FUN_CODE_00aa()
       CODE:11dc c2 2c           CLR        25.4                                                       = ??
       CODE:11de 80 0a           SJMP       LAB_CODE_11ea
       CODE:11e0 78              ??         78h    x
       CODE:11e1 9f              ??         9Fh
       CODE:11e2 76              ??         76h    v
       CODE:11e3 00              ??         00h
       CODE:11e4 22              ??         22h    "
                             LAB_CODE_11e5                                   XREF[2]:     CODE:11c1(j), CODE:11c7(j)  
       CODE:11e5 78 9f           MOV        R0,#0x9f
       CODE:11e7 76 01           MOV        @R0=>DAT_INTMEM_9f,#0x1                                    = ??
       CODE:11e9 22              RET
                             LAB_CODE_11ea                                   XREF[1]:     CODE:11de(j)  
       CODE:11ea 78 9f           MOV        R0,#0x9f
       CODE:11ec 76 02           MOV        @R0=>DAT_INTMEM_9f,#0x2                                    = ??
       CODE:11ee 22              RET
                             LAB_CODE_11ef                                   XREF[1]:     CODE:123d(j)  
       CODE:11ef 78 9f           MOV        R0,#0x9f
       CODE:11f1 76 03           MOV        @R0=>DAT_INTMEM_9f,#0x3                                    = ??
       CODE:11f3 22              RET
                             LAB_CODE_11f4                                   XREF[2]:     CODE:123f(j), CODE:124c(j)  
       CODE:11f4 22              RET
                             LAB_CODE_11f5                                   XREF[1]:     CODE:1265(j)  
       CODE:11f5 12 00 b0        LCALL      FUN_CODE_00b0                                              undefined FUN_CODE_00b0()
       CODE:11f8 a4              MUL        AB
       CODE:11f9 a4              MUL        AB
       CODE:11fa a4              MUL        AB
       CODE:11fb a4              MUL        AB
       CODE:11fc a4              MUL        AB
       CODE:11fd a4              MUL        AB
       CODE:11fe a4              MUL        AB
       CODE:11ff a4              MUL        AB
       CODE:1200 a4              MUL        AB
       CODE:1201 a4              MUL        AB
       CODE:1202 a4              MUL        AB
       CODE:1203 a4              MUL        AB
       CODE:1204 a4              MUL        AB
       CODE:1205 a4              MUL        AB
       CODE:1206 a4              MUL        AB
       CODE:1207 a4              MUL        AB
       CODE:1208 a4              MUL        AB
       CODE:1209 a4              MUL        AB
       CODE:120a a4              MUL        AB
       CODE:120b a4              MUL        AB
       CODE:120c a4              MUL        AB
       CODE:120d a4              MUL        AB
       CODE:120e a4              MUL        AB
       CODE:120f a4              MUL        AB
       CODE:1210 a4              MUL        AB
       CODE:1211 a4              MUL        AB
       CODE:1212 a4              MUL        AB
       CODE:1213 a4              MUL        AB
       CODE:1214 a4              MUL        AB
       CODE:1215 a4              MUL        AB
       CODE:1216 a4              MUL        AB
       CODE:1217 a4              MUL        AB
       CODE:1218 a4              MUL        AB
       CODE:1219 a4              MUL        AB
       CODE:121a a4              MUL        AB
       CODE:121b a4              MUL        AB
       CODE:121c a4              MUL        AB
       CODE:121d a4              MUL        AB
       CODE:121e a4              MUL        AB
       CODE:121f a4              MUL        AB
       CODE:1220 a4              MUL        AB
       CODE:1221 a4              MUL        AB
       CODE:1222 a4              MUL        AB
       CODE:1223 a4              MUL        AB
       CODE:1224 a4              MUL        AB
       CODE:1225 a4              MUL        AB
       CODE:1226 a4              MUL        AB
       CODE:1227 a4              MUL        AB
       CODE:1228 a4              MUL        AB
       CODE:1229 a4              MUL        AB
       CODE:122a a4              MUL        AB
       CODE:122b a4              MUL        AB
       CODE:122c a4              MUL        AB
       CODE:122d a4              MUL        AB
       CODE:122e a4              MUL        AB
       CODE:122f a4              MUL        AB
       CODE:1230 a4              MUL        AB
       CODE:1231 a4              MUL        AB
       CODE:1232 a4              MUL        AB
       CODE:1233 a4              MUL        AB
       CODE:1234 12 00 83        LCALL      FUN_CODE_0083                                              undefined FUN_CODE_0083()
       CODE:1237 12 00 4d        LCALL      FUN_CODE_004d                                              undefined FUN_CODE_004d()
       CODE:123a 30 2d 05        JNB        25.5,LAB_CODE_1242                                         = ??
       CODE:123d 80 b0           SJMP       LAB_CODE_11ef
                             LAB_CODE_123f                                   XREF[1]:     CODE:1268(j)  
       CODE:123f 20 2d b2        JB         25.5,LAB_CODE_11f4                                         = ??
                             LAB_CODE_1242                                   XREF[1]:     CODE:123a(j)  
       CODE:1242 12 00 c3        LCALL      FUN_CODE_00c3                                              undefined FUN_CODE_00c3()
       CODE:1245 12 25 76        LCALL      FUN_CODE_2576                                              undefined FUN_CODE_2576()
       CODE:1248 d2 2c           SETB       25.4                                                       = ??
       CODE:124a c2 0f           CLR        21.7                                                       = ??
       CODE:124c 80 a6           SJMP       LAB_CODE_11f4
                             **************************************************************
                             *                          FUNCTION                          *
                             **************************************************************
                             undefined FUN_CODE_124e()
             undefined         ACC:1          <RETURN>
                             FUN_CODE_124e                                   XREF[1]:     FUN_CODE_07e3:0866(c)  
       CODE:124e 20 0f 05        JB         21.7,LAB_CODE_1256                                         = ??
       CODE:1251 78 9f           MOV        R0,#0x9f
       CODE:1253 76 00           MOV        @R0=>DAT_INTMEM_9f,#0x0                                    = ??
       CODE:1255 22              RET
                             LAB_CODE_1256                                   XREF[1]:     CODE:124e(j)  
       CODE:1256 78 9f           MOV        R0,#0x9f
       CODE:1258 e6              MOV        A,@R0=>DAT_INTMEM_9f                                       = ??
       CODE:1259 26              ADD        A,@R0=>DAT_INTMEM_9f                                       = ??
       CODE:125a 26              ADD        A,@R0=>DAT_INTMEM_9f                                       = ??
       CODE:125b 90 12 5f        MOV        DPTR,#LAB_CODE_125f
       CODE:125e 73              JMP        @A+DPTR
                             LAB_CODE_125f                                   XREF[1]:     FUN_CODE_124e:125b(*)  
       CODE:125f 02 11 a7        LJMP       LAB_CODE_11a7
       CODE:1262 02 11 b2        LJMP       LAB_CODE_11b2
       CODE:1265 02 11 f5        LJMP       LAB_CODE_11f5
       CODE:1268 02 12 3f        LJMP       LAB_CODE_123f
       CODE:126b 78              ??         78h    x
       CODE:126c 9c              ??         9Ch
       CODE:126d 76              ??         76h    v
       CODE:126e 00              ??         00h
       CODE:126f 22              ??         22h    "
                             LAB_CODE_1270                                   XREF[1]:     CODE:12a1(j)  
       CODE:1270 78 9c           MOV        R0,#0x9c
       CODE:1272 76 01           MOV        @R0=>DAT_INTMEM_9c,#0x1                                    = ??
       CODE:1274 22              RET
                             LAB_CODE_1275                                   XREF[1]:     CODE:12ba(j)  
       CODE:1275 78 9c           MOV        R0,#0x9c
       CODE:1277 76 02           MOV        @R0=>DAT_INTMEM_9c,#0x2                                    = ??
       CODE:1279 22              RET
                             LAB_CODE_127a                                   XREF[2]:     CODE:12c4(j), CODE:12c6(j)  
       CODE:127a 78 9c           MOV        R0,#0x9c
       CODE:127c 76 03           MOV        @R0=>DAT_INTMEM_9c,#0x3                                    = ??
       CODE:127e 22              RET
                             LAB_CODE_127f                                   XREF[2]:     CODE:12bc(j), CODE:12bf(j)  
       CODE:127f 22              RET
                             LAB_CODE_1280                                   XREF[1]:     CODE:12d9(j)  
       CODE:1280 12 25 0a        LCALL      FUN_CODE_250a                                              undefined FUN_CODE_250a()
       CODE:1283 12 24 0a        LCALL      FUN_CODE_240a                                              undefined FUN_CODE_240a()
       CODE:1286 12 24 8a        LCALL      FUN_CODE_248a                                              undefined FUN_CODE_248a()
       CODE:1289 12 24 92        LCALL      FUN_CODE_2492                                              undefined FUN_CODE_2492()
       CODE:128c 20 04 14        JB         20.4,LAB_CODE_12a3                                         = ??
       CODE:128f 12 24 cf        LCALL      FUN_CODE_24cf                                              undefined FUN_CODE_24cf()
       CODE:1292 12 00 83        LCALL      FUN_CODE_0083                                              undefined FUN_CODE_0083()
       CODE:1295 12 25 76        LCALL      FUN_CODE_2576                                              undefined FUN_CODE_2576()
       CODE:1298 12 24 5c        LCALL      FUN_CODE_245c                                              undefined FUN_CODE_245c()
       CODE:129b 12 25 0d        LCALL      FUN_CODE_250d                                              undefined FUN_CODE_250d()
       CODE:129e 12 25 db        LCALL      FUN_CODE_25db                                              undefined FUN_CODE_25db()
       CODE:12a1 80 cd           SJMP       LAB_CODE_1270
                             LAB_CODE_12a3                                   XREF[1]:     CODE:128c(j)  
       CODE:12a3 12 25 10        LCALL      FUN_CODE_2510                                              undefined FUN_CODE_2510()
                             LAB_CODE_12a6                                   XREF[1]:     CODE:12dc(j)  
       CODE:12a6 12 26 5d        LCALL      FUN_CODE_265d                                              undefined FUN_CODE_265d()
       CODE:12a9 85 4f 4e        MOV        DAT_INTMEM_4e,DAT_INTMEM_4f                                = ??
       CODE:12ac d2 2c           SETB       25.4                                                       = ??
       CODE:12ae d2 42           SETB       28.2                                                       = ??
       CODE:12b0 d2 2f           SETB       25.7                                                       = ??
       CODE:12b2 d2 46           SETB       28.6                                                       = ??
       CODE:12b4 d2 4d           SETB       29.5                                                       = ??
       CODE:12b6 d2 47           SETB       28.7                                                       = ??
       CODE:12b8 d2 4a           SETB       29.2                                                       = ??
       CODE:12ba 80 b9           SJMP       LAB_CODE_1275
                             LAB_CODE_12bc                                   XREF[1]:     CODE:12df(j)  
       CODE:12bc 20 2f c0        JB         25.7,LAB_CODE_127f                                         = ??
       CODE:12bf 20 47 bd        JB         28.7,LAB_CODE_127f                                         = ??
       CODE:12c2 c2 0c           CLR        21.4                                                       = ??
       CODE:12c4 80 b4           SJMP       LAB_CODE_127a
                             LAB_CODE_12c6                                   XREF[1]:     CODE:12e2(j)  
       CODE:12c6 80 b2           SJMP       LAB_CODE_127a
                             **************************************************************
                             *                          FUNCTION                          *
                             **************************************************************
                             undefined FUN_CODE_12c8()
             undefined         ACC:1          <RETURN>
                             FUN_CODE_12c8                                   XREF[1]:     FUN_CODE_07e3:085d(c)  
       CODE:12c8 20 0c 05        JB         21.4,LAB_CODE_12d0                                         = ??
       CODE:12cb 78 9c           MOV        R0,#0x9c
       CODE:12cd 76 00           MOV        @R0=>DAT_INTMEM_9c,#0x0                                    = ??
       CODE:12cf 22              RET
                             LAB_CODE_12d0                                   XREF[1]:     CODE:12c8(j)  
       CODE:12d0 78 9c           MOV        R0,#0x9c
       CODE:12d2 e6              MOV        A,@R0=>DAT_INTMEM_9c                                       = ??
       CODE:12d3 26              ADD        A,@R0=>DAT_INTMEM_9c                                       = ??
       CODE:12d4 26              ADD        A,@R0=>DAT_INTMEM_9c                                       = ??
       CODE:12d5 90 12 d9        MOV        DPTR,#LAB_CODE_12d9
       CODE:12d8 73              JMP        @A+DPTR
                             LAB_CODE_12d9                                   XREF[1]:     FUN_CODE_12c8:12d5(*)  
       CODE:12d9 02 12 80        LJMP       LAB_CODE_1280
       CODE:12dc 02 12 a6        LJMP       LAB_CODE_12a6
       CODE:12df 02 12 bc        LJMP       LAB_CODE_12bc
       CODE:12e2 02 12 c6        LJMP       LAB_CODE_12c6
                             LAB_CODE_12e5                                   XREF[1]:     CODE:13f2(j)  
       CODE:12e5 c2 20           CLR        24.0                                                       = ??
       CODE:12e7 20 14 0a        JB         22.4,LAB_CODE_12f4                                         = ??
       CODE:12ea c2 2b           CLR        25.3                                                       = ??
       CODE:12ec 12 25 db        LCALL      FUN_CODE_25db                                              undefined FUN_CODE_25db()
       CODE:12ef 12 00 4a        LCALL      FUN_CODE_004a                                              undefined FUN_CODE_004a()
       CODE:12f2 80 45           SJMP       LAB_CODE_1339
                             LAB_CODE_12f4                                   XREF[1]:     CODE:12e7(j)  
       CODE:12f4 c2 14           CLR        22.4                                                       = ??
       CODE:12f6 d2 0f           SETB       21.7                                                       = ??
       CODE:12f8 80 62           SJMP       LAB_CODE_135c
                             LAB_CODE_12fa                                   XREF[1]:     CODE:13f5(j)  
       CODE:12fa 12 26 5d        LCALL      FUN_CODE_265d                                              undefined FUN_CODE_265d()
       CODE:12fd 12 00 7d        LCALL      FUN_CODE_007d                                              undefined FUN_CODE_007d()
       CODE:1300 12 00 86        LCALL      FUN_CODE_0086                                              undefined FUN_CODE_0086()
       CODE:1303 80 39           SJMP       LAB_CODE_133e
                             LAB_CODE_1305                                   XREF[1]:     CODE:13f8(j)  
       CODE:1305 12 00 36        LCALL      FUN_CODE_0036                                              undefined FUN_CODE_0036()
       CODE:1308 50 09           JNC        LAB_CODE_1313
       CODE:130a 75 55 08        MOV        DAT_INTMEM_55,#0x8                                         = ??
       CODE:130d 75 56 08        MOV        DAT_INTMEM_56,#0x8                                         = ??
       CODE:1310 02 13 b3        LJMP       LAB_CODE_13b3
                             LAB_CODE_1313                                   XREF[1]:     CODE:1308(j)  
       CODE:1313 12 00 33        LCALL      FUN_CODE_0033                                              undefined FUN_CODE_0033()
       CODE:1316 75 3b 02        MOV        DAT_INTMEM_3b,#0x2                                         = ??
       CODE:1319 80 28           SJMP       LAB_CODE_1343
                             LAB_CODE_131b                                   XREF[1]:     CODE:13fb(j)  
       CODE:131b d5 3b 43        DJNZ       DAT_INTMEM_3b,LAB_CODE_1361                                = ??
       CODE:131e 12 00 36        LCALL      FUN_CODE_0036                                              undefined FUN_CODE_0036()
       CODE:1321 40 09           JC         LAB_CODE_132c
       CODE:1323 75 55 08        MOV        DAT_INTMEM_55,#0x8                                         = ??
       CODE:1326 75 56 08        MOV        DAT_INTMEM_56,#0x8                                         = ??
       CODE:1329 02 13 b3        LJMP       LAB_CODE_13b3
                             LAB_CODE_132c                                   XREF[1]:     CODE:1321(j)  
       CODE:132c 12 00 ad        LCALL      FUN_CODE_00ad                                              undefined FUN_CODE_00ad()
       CODE:132f 75 3b 05        MOV        DAT_INTMEM_3b,#0x5                                         = ??
       CODE:1332 80 14           SJMP       LAB_CODE_1348
                             LAB_CODE_1334                                   XREF[1]:     CODE:13b1(j)  
       CODE:1334 78 9e           MOV        R0,#0x9e
       CODE:1336 76 00           MOV        @R0=>DAT_INTMEM_9e,#0x0                                    = ??
       CODE:1338 22              RET
                             LAB_CODE_1339                                   XREF[1]:     CODE:12f2(j)  
       CODE:1339 78 9e           MOV        R0,#0x9e
       CODE:133b 76 01           MOV        @R0=>DAT_INTMEM_9e,#0x1                                    = ??
       CODE:133d 22              RET
                             LAB_CODE_133e                                   XREF[1]:     CODE:1303(j)  
       CODE:133e 78 9e           MOV        R0,#0x9e
       CODE:1340 76 02           MOV        @R0=>DAT_INTMEM_9e,#0x2                                    = ??
       CODE:1342 22              RET
                             LAB_CODE_1343                                   XREF[1]:     CODE:1319(j)  
       CODE:1343 78 9e           MOV        R0,#0x9e
       CODE:1345 76 03           MOV        @R0=>DAT_INTMEM_9e,#0x3                                    = ??
       CODE:1347 22              RET
                             LAB_CODE_1348                                   XREF[1]:     CODE:1332(j)  
       CODE:1348 78 9e           MOV        R0,#0x9e
       CODE:134a 76 04           MOV        @R0=>DAT_INTMEM_9e,#0x4                                    = ??
       CODE:134c 22              RET
                             LAB_CODE_134d                                   XREF[1]:     CODE:1377(j)  
       CODE:134d 78 9e           MOV        R0,#0x9e
       CODE:134f 76 05           MOV        @R0=>DAT_INTMEM_9e,#0x5                                    = ??
       CODE:1351 22              RET
                             LAB_CODE_1352                                   XREF[1]:     CODE:1381(j)  
       CODE:1352 78 9e           MOV        R0,#0x9e
       CODE:1354 76 06           MOV        @R0=>DAT_INTMEM_9e,#0x6                                    = ??
       CODE:1356 22              RET
                             LAB_CODE_1357                                   XREF[1]:     CODE:1397(j)  
       CODE:1357 78 9e           MOV        R0,#0x9e
       CODE:1359 76 07           MOV        @R0=>DAT_INTMEM_9e,#0x7                                    = ??
       CODE:135b 22              RET
                             LAB_CODE_135c                                   XREF[2]:     CODE:12f8(j), CODE:13de(j)  
       CODE:135c 78 9e           MOV        R0,#0x9e
       CODE:135e 76 08           MOV        @R0=>DAT_INTMEM_9e,#0x8                                    = ??
       CODE:1360 22              RET
                             LAB_CODE_1361                                   XREF[7]:     CODE:131b(j), CODE:1367(j), 
                                                                                          CODE:1391(j), CODE:139f(j), 
                                                                                          CODE:13ac(j), CODE:13ae(j), 
                                                                                          CODE:13d6(j)  
       CODE:1361 22              RET
                             LAB_CODE_1362                                   XREF[1]:     CODE:13fe(j)  
       CODE:1362 12 00 5f        LCALL      FUN_CODE_005f                                              undefined FUN_CODE_005f()
       CODE:1365 40 0b           JC         LAB_CODE_1372
       CODE:1367 d5 3b f7        DJNZ       DAT_INTMEM_3b,LAB_CODE_1361                                = ??
       CODE:136a 75 55 09        MOV        DAT_INTMEM_55,#0x9                                         = ??
       CODE:136d 75 56 09        MOV        DAT_INTMEM_56,#0x9                                         = ??
       CODE:1370 80 41           SJMP       LAB_CODE_13b3
                             LAB_CODE_1372                                   XREF[1]:     CODE:1365(j)  
       CODE:1372 d2 12           SETB       22.2                                                       = ??
       CODE:1374 12 00 53        LCALL      FUN_CODE_0053                                              undefined FUN_CODE_0053()
       CODE:1377 80 d4           SJMP       LAB_CODE_134d
                             LAB_CODE_1379                                   XREF[1]:     CODE:1401(j)  
       CODE:1379 12 00 6b        LCALL      FUN_CODE_006b                                              undefined FUN_CODE_006b()
       CODE:137c 50 05           JNC        LAB_CODE_1383
       CODE:137e 75 3b 82        MOV        DAT_INTMEM_3b,#0x82                                        = ??
       CODE:1381 80 cf           SJMP       LAB_CODE_1352
                             LAB_CODE_1383                                   XREF[1]:     CODE:137c(j)  
       CODE:1383 75 55 0e        MOV        DAT_INTMEM_55,#0xe                                         = ??
       CODE:1386 75 56 0e        MOV        DAT_INTMEM_56,#0xe                                         = ??
       CODE:1389 80 28           SJMP       LAB_CODE_13b3
                             LAB_CODE_138b                                   XREF[1]:     CODE:1404(j)  
       CODE:138b 20 13 1c        JB         22.3,LAB_CODE_13aa                                         = ??
       CODE:138e 20 20 22        JB         24.0,LAB_CODE_13b3                                         = ??
       CODE:1391 d5 3b cd        DJNZ       DAT_INTMEM_3b,LAB_CODE_1361                                = ??
       CODE:1394 75 3b 82        MOV        DAT_INTMEM_3b,#0x82                                        = ??
       CODE:1397 80 be           SJMP       LAB_CODE_1357
                             LAB_CODE_1399                                   XREF[1]:     CODE:1407(j)  
       CODE:1399 20 13 0e        JB         22.3,LAB_CODE_13aa                                         = ??
       CODE:139c 20 20 14        JB         24.0,LAB_CODE_13b3                                         = ??
       CODE:139f d5 3b bf        DJNZ       DAT_INTMEM_3b,LAB_CODE_1361                                = ??
       CODE:13a2 75 55 0a        MOV        DAT_INTMEM_55,#0xa                                         = ??
       CODE:13a5 75 56 0a        MOV        DAT_INTMEM_56,#0xa                                         = ??
       CODE:13a8 80 09           SJMP       LAB_CODE_13b3
                             LAB_CODE_13aa                                   XREF[2]:     CODE:138b(j), CODE:1399(j)  
       CODE:13aa c2 0e           CLR        21.6                                                       = ??
       CODE:13ac 80 b3           SJMP       LAB_CODE_1361
                             LAB_CODE_13ae                                   XREF[1]:     CODE:140a(j)  
       CODE:13ae 20 0f b0        JB         21.7,LAB_CODE_1361                                         = ??
       CODE:13b1 80 81           SJMP       LAB_CODE_1334
                             LAB_CODE_13b3                                   XREF[7]:     CODE:1310(j), CODE:1329(j), 
                                                                                          CODE:1370(j), CODE:1389(j), 
                                                                                          CODE:138e(j), CODE:139c(j), 
                                                                                          CODE:13a8(j)  
       CODE:13b3 05 3c           INC        DAT_INTMEM_3c                                              = ??
       CODE:13b5 e5 3c           MOV        A,DAT_INTMEM_3c                                            = ??
       CODE:13b7 b4 05 1e        CJNE       A,#0x5,LAB_CODE_13d8
       CODE:13ba e5 56           MOV        A,DAT_INTMEM_56                                            = ??
       CODE:13bc 24 e0           ADD        A,#0xe0
       CODE:13be 40 03           JC         LAB_CODE_13c3
       CODE:13c0 43 56 40        ORL        DAT_INTMEM_56,#0x40                                        = ??
                             LAB_CODE_13c3                                   XREF[1]:     CODE:13be(j)  
       CODE:13c3 20 20 03        JB         24.0,LAB_CODE_13c9                                         = ??
       CODE:13c6 75 5e 07        MOV        DAT_INTMEM_5e,#0x7                                         = ??
                             LAB_CODE_13c9                                   XREF[1]:     CODE:13c3(j)  
       CODE:13c9 d2 49           SETB       29.1                                                       = ??
       CODE:13cb d2 35           SETB       26.5                                                       = ??
       CODE:13cd 43 5c 20        ORL        DAT_INTMEM_5c,#0x20                                        = ??
       CODE:13d0 d2 4b           SETB       29.3                                                       = ??
       CODE:13d2 d2 4a           SETB       29.2                                                       = ??
       CODE:13d4 c2 0e           CLR        21.6                                                       = ??
       CODE:13d6 80 89           SJMP       LAB_CODE_1361
                             LAB_CODE_13d8                                   XREF[1]:     CODE:13b7(j)  
       CODE:13d8 d2 49           SETB       29.1                                                       = ??
       CODE:13da d2 35           SETB       26.5                                                       = ??
       CODE:13dc d2 0f           SETB       21.7                                                       = ??
       CODE:13de 02 13 5c        LJMP       LAB_CODE_135c
                             **************************************************************
                             *                          FUNCTION                          *
                             **************************************************************
                             undefined FUN_CODE_13e1()
             undefined         ACC:1          <RETURN>
                             FUN_CODE_13e1                                   XREF[1]:     FUN_CODE_07e3:0863(c)  
       CODE:13e1 20 0e 05        JB         21.6,LAB_CODE_13e9                                         = ??
       CODE:13e4 78 9e           MOV        R0,#0x9e
       CODE:13e6 76 00           MOV        @R0=>DAT_INTMEM_9e,#0x0                                    = ??
       CODE:13e8 22              RET
                             LAB_CODE_13e9                                   XREF[1]:     CODE:13e1(j)  
       CODE:13e9 78 9e           MOV        R0,#0x9e
       CODE:13eb e6              MOV        A,@R0=>DAT_INTMEM_9e                                       = ??
       CODE:13ec 26              ADD        A,@R0=>DAT_INTMEM_9e                                       = ??
       CODE:13ed 26              ADD        A,@R0=>DAT_INTMEM_9e                                       = ??
       CODE:13ee 90 13 f2        MOV        DPTR,#LAB_CODE_13f2
       CODE:13f1 73              JMP        @A+DPTR
                             LAB_CODE_13f2                                   XREF[1]:     FUN_CODE_13e1:13ee(*)  
       CODE:13f2 02 12 e5        LJMP       LAB_CODE_12e5
       CODE:13f5 02 12 fa        LJMP       LAB_CODE_12fa
       CODE:13f8 02 13 05        LJMP       LAB_CODE_1305
       CODE:13fb 02 13 1b        LJMP       LAB_CODE_131b
       CODE:13fe 02 13 62        LJMP       LAB_CODE_1362
       CODE:1401 02 13 79        LJMP       LAB_CODE_1379
       CODE:1404 02 13 8b        LJMP       LAB_CODE_138b
       CODE:1407 02 13 99        LJMP       LAB_CODE_1399
       CODE:140a 02 13 ae        LJMP       LAB_CODE_13ae
                             LAB_CODE_140d                                   XREF[3]:     CODE:142b(j), CODE:1448(j), 
                                                                                          CODE:1459(j)  
       CODE:140d 78 a1           MOV        R0,#0xa1
       CODE:140f 76 00           MOV        @R0=>DAT_INTMEM_a1,#0x0                                    = ??
       CODE:1411 22              RET
                             LAB_CODE_1412                                   XREF[1]:     CODE:1429(j)  
       CODE:1412 78 a1           MOV        R0,#0xa1
       CODE:1414 76 01           MOV        @R0=>DAT_INTMEM_a1,#0x1                                    = ??
       CODE:1416 22              RET
                             LAB_CODE_1417                                   XREF[1]:     CODE:1440(j)  
       CODE:1417 78 a1           MOV        R0,#0xa1
       CODE:1419 76 02           MOV        @R0=>DAT_INTMEM_a1,#0x2                                    = ??
       CODE:141b 22              RET
                             LAB_CODE_141c                                   XREF[3]:     CODE:143b(j), CODE:144d(j), 
                                                                                          CODE:144f(j)  
       CODE:141c 22              RET
                             LAB_CODE_141d                                   XREF[1]:     CODE:1464(j)  
       CODE:141d 75 58 04        MOV        DAT_INTMEM_58,#0x4                                         = ??
       CODE:1420 12 27 76        LCALL      FUN_CODE_2776                                              undefined FUN_CODE_2776()
       CODE:1423 f5 57           MOV        DAT_INTMEM_57,A                                            = ??
       CODE:1425 65 2e           XRL        A,DAT_INTMEM_2e                                            = ??
       CODE:1427 54 5c           ANL        A,#0x5c
       CODE:1429 70 e7           JNZ        LAB_CODE_1412
       CODE:142b 80 e0           SJMP       LAB_CODE_140d
                             LAB_CODE_142d                                   XREF[1]:     CODE:1467(j)  
       CODE:142d 85 57 f0        MOV        B,DAT_INTMEM_57                                            = ??
       CODE:1430 12 27 76        LCALL      FUN_CODE_2776                                              undefined FUN_CODE_2776()
       CODE:1433 f5 57           MOV        DAT_INTMEM_57,A                                            = ??
       CODE:1435 65 f0           XRL        A,B
       CODE:1437 54 5c           ANL        A,#0x5c
       CODE:1439 70 07           JNZ        LAB_CODE_1442
       CODE:143b d5 58 de        DJNZ       DAT_INTMEM_58,LAB_CODE_141c                                = ??
       CODE:143e d2 32           SETB       26.2                                                       = ??
       CODE:1440 80 d5           SJMP       LAB_CODE_1417
                             LAB_CODE_1442                                   XREF[1]:     CODE:1439(j)  
       CODE:1442 e5 57           MOV        A,DAT_INTMEM_57                                            = ??
       CODE:1444 65 2e           XRL        A,DAT_INTMEM_2e                                            = ??
       CODE:1446 54 5c           ANL        A,#0x5c
       CODE:1448 60 c3           JZ         LAB_CODE_140d
       CODE:144a 75 58 04        MOV        DAT_INTMEM_58,#0x4                                         = ??
       CODE:144d 80 cd           SJMP       LAB_CODE_141c
                             LAB_CODE_144f                                   XREF[1]:     CODE:146a(j)  
       CODE:144f 20 32 ca        JB         26.2,LAB_CODE_141c                                         = ??
       CODE:1452 85 57 2e        MOV        DAT_INTMEM_2e,DAT_INTMEM_57                                = ??
       CODE:1455 d2 39           SETB       27.1                                                       = ??
       CODE:1457 d2 46           SETB       28.6                                                       = ??
       CODE:1459 80 b2           SJMP       LAB_CODE_140d
                             **************************************************************
                             *                          FUNCTION                          *
                             **************************************************************
                             undefined FUN_CODE_145b()
             undefined         ACC:1          <RETURN>
                             FUN_CODE_145b                                   XREF[1]:     FUN_CODE_07e3:0848(c)  
       CODE:145b 78 a1           MOV        R0,#0xa1
       CODE:145d e6              MOV        A,@R0=>DAT_INTMEM_a1                                       = ??
       CODE:145e 26              ADD        A,@R0=>DAT_INTMEM_a1                                       = ??
       CODE:145f 26              ADD        A,@R0=>DAT_INTMEM_a1                                       = ??
       CODE:1460 90 14 64        MOV        DPTR,#LAB_CODE_1464
       CODE:1463 73              JMP        @A+DPTR
                             LAB_CODE_1464                                   XREF[1]:     FUN_CODE_145b:1460(*)  
       CODE:1464 02 14 1d        LJMP       LAB_CODE_141d
       CODE:1467 02 14 2d        LJMP       LAB_CODE_142d
       CODE:146a 02 14 4f        LJMP       LAB_CODE_144f
                             LAB_CODE_146d                                   XREF[2]:     CODE:14a1(j), CODE:14b3(j)  
       CODE:146d 78 a2           MOV        R0,#0xa2
       CODE:146f 76 00           MOV        @R0=>DAT_INTMEM_a2,#0x0                                    = ??
       CODE:1471 22              RET
                             LAB_CODE_1472                                   XREF[1]:     CODE:149c(j)  
       CODE:1472 78 a2           MOV        R0,#0xa2
       CODE:1474 76 01           MOV        @R0=>DAT_INTMEM_a2,#0x1                                    = ??
       CODE:1476 22              RET
                             LAB_CODE_1477                                   XREF[2]:     CODE:14a3(j), CODE:14af(j)  
       CODE:1477 78 a2           MOV        R0,#0xa2
       CODE:1479 76 02           MOV        @R0=>DAT_INTMEM_a2,#0x2                                    = ??
       CODE:147b 22              RET
                             LAB_CODE_147c                                   XREF[1]:     CODE:14a8(j)  
       CODE:147c 78 a2           MOV        R0,#0xa2
       CODE:147e 76 03           MOV        @R0=>DAT_INTMEM_a2,#0x3                                    = ??
       CODE:1480 22              RET
                             LAB_CODE_1481                                   XREF[2]:     CODE:149a(j), CODE:14aa(j)  
       CODE:1481 22              RET
                             **************************************************************
                             *                          FUNCTION                          *
                             **************************************************************
                             undefined FUN_CODE_1482()
             undefined         ACC:1          <RETURN>
                             FUN_CODE_1482                                   XREF[1]:     FUN_CODE_07e3:0842(c)  
       CODE:1482 78 a2           MOV        R0,#0xa2
       CODE:1484 e6              MOV        A,@R0=>DAT_INTMEM_a2                                       = ??
       CODE:1485 26              ADD        A,@R0=>DAT_INTMEM_a2                                       = ??
       CODE:1486 26              ADD        A,@R0=>DAT_INTMEM_a2                                       = ??
       CODE:1487 90 14 8b        MOV        DPTR,#LAB_CODE_148b
       CODE:148a 73              JMP        @A+DPTR
                             LAB_CODE_148b                                   XREF[1]:     FUN_CODE_1482:1487(*)  
       CODE:148b 02 14 97        LJMP       LAB_CODE_1497
       CODE:148e 02 14 9e        LJMP       LAB_CODE_149e
       CODE:1491 02 14 a5        LJMP       LAB_CODE_14a5
       CODE:1494 02 14 ac        LJMP       LAB_CODE_14ac
                             LAB_CODE_1497                                   XREF[1]:     CODE:148b(j)  
       CODE:1497 12 27 68        LCALL      FUN_CODE_2768                                              undefined FUN_CODE_2768()
       CODE:149a 40 e5           JC         LAB_CODE_1481
       CODE:149c 80 d4           SJMP       LAB_CODE_1472
                             LAB_CODE_149e                                   XREF[1]:     CODE:148e(j)  
       CODE:149e 12 27 68        LCALL      FUN_CODE_2768                                              undefined FUN_CODE_2768()
       CODE:14a1 40 ca           JC         LAB_CODE_146d
       CODE:14a3 80 d2           SJMP       LAB_CODE_1477
                             LAB_CODE_14a5                                   XREF[1]:     CODE:1491(j)  
       CODE:14a5 12 27 68        LCALL      FUN_CODE_2768                                              undefined FUN_CODE_2768()
       CODE:14a8 40 d2           JC         LAB_CODE_147c
       CODE:14aa 80 d5           SJMP       LAB_CODE_1481
                             LAB_CODE_14ac                                   XREF[1]:     CODE:1494(j)  
       CODE:14ac 12 27 68        LCALL      FUN_CODE_2768                                              undefined FUN_CODE_2768()
       CODE:14af 50 c6           JNC        LAB_CODE_1477
       CODE:14b1 d2 44           SETB       28.4                                                       = ??
       CODE:14b3 80 b8           SJMP       LAB_CODE_146d
                             LAB_CODE_14b5                                   XREF[1]:     CODE:14d8(j)  
       CODE:14b5 78 a3           MOV        R0,#0xa3
       CODE:14b7 76 00           MOV        @R0=>DAT_INTMEM_a3,#0x0                                    = ??
       CODE:14b9 22              RET
                             LAB_CODE_14ba                                   XREF[2]:     CODE:14d3(j), CODE:14d5(j)  
       CODE:14ba 78 a3           MOV        R0,#0xa3
       CODE:14bc 76 01           MOV        @R0=>DAT_INTMEM_a3,#0x1                                    = ??
       CODE:14be 22              RET
       CODE:14bf 22              ??         22h    "
                             LAB_CODE_14c0                                   XREF[1]:     CODE:14e3(j)  
       CODE:14c0 e5 3a           MOV        A,DAT_INTMEM_3a                                            = ??
       CODE:14c2 20 e0 05        JB         ACC.0,LAB_CODE_14ca                                        = ??
       CODE:14c5 12 25 8d        LCALL      FUN_CODE_258d                                              undefined FUN_CODE_258d()
       CODE:14c8 80 03           SJMP       LAB_CODE_14cd
                             LAB_CODE_14ca                                   XREF[1]:     CODE:14c2(j)  
       CODE:14ca 12 25 8a        LCALL      FUN_CODE_258a                                              undefined FUN_CODE_258a()
                             LAB_CODE_14cd                                   XREF[1]:     CODE:14c8(j)  
       CODE:14cd 03              RR         A
       CODE:14ce f5 3a           MOV        DAT_INTMEM_3a,A                                            = ??
       CODE:14d0 75 39 05        MOV        DAT_INTMEM_39,#0x5                                         = ??
       CODE:14d3 80 e5           SJMP       LAB_CODE_14ba
                             LAB_CODE_14d5                                   XREF[1]:     CODE:14e6(j)  
       CODE:14d5 d5 39 e2        DJNZ       DAT_INTMEM_39,LAB_CODE_14ba                                = ??
       CODE:14d8 80 db           SJMP       LAB_CODE_14b5
                             **************************************************************
                             *                          FUNCTION                          *
                             **************************************************************
                             undefined FUN_CODE_14da()
             undefined         ACC:1          <RETURN>
                             FUN_CODE_14da                                   XREF[1]:     FUN_CODE_07e3:0857(c)  
       CODE:14da 78 a3           MOV        R0,#0xa3
       CODE:14dc e6              MOV        A,@R0=>DAT_INTMEM_a3                                       = ??
       CODE:14dd 26              ADD        A,@R0=>DAT_INTMEM_a3                                       = ??
       CODE:14de 26              ADD        A,@R0=>DAT_INTMEM_a3                                       = ??
       CODE:14df 90 14 e3        MOV        DPTR,#LAB_CODE_14e3
       CODE:14e2 73              JMP        @A+DPTR
                             LAB_CODE_14e3                                   XREF[1]:     FUN_CODE_14da:14df(*)  
       CODE:14e3 02 14 c0        LJMP       LAB_CODE_14c0
       CODE:14e6 02 14 d5        LJMP       LAB_CODE_14d5
                             LAB_CODE_14e9                                   XREF[1]:     CODE:158c(j)  
       CODE:14e9 12 27 94        LCALL      FUN_CODE_2794                                              undefined FUN_CODE_2794()
       CODE:14ec 40 05           JC         LAB_CODE_14f3
       CODE:14ee 12 27 90        LCALL      FUN_CODE_2790                                              undefined FUN_CODE_2790()
       CODE:14f1 80 05           SJMP       LAB_CODE_14f8
                             LAB_CODE_14f3                                   XREF[3]:     CODE:14ec(j), CODE:151b(j), 
                                                                                          CODE:1580(j)  
       CODE:14f3 78 a4           MOV        R0,#0xa4
       CODE:14f5 76 00           MOV        @R0=>DAT_INTMEM_a4,#0x0                                    = ??
       CODE:14f7 22              RET
                             LAB_CODE_14f8                                   XREF[1]:     CODE:14f1(j)  
       CODE:14f8 78 a4           MOV        R0,#0xa4
       CODE:14fa 76 01           MOV        @R0=>DAT_INTMEM_a4,#0x1                                    = ??
       CODE:14fc 22              RET
                             LAB_CODE_14fd                                   XREF[1]:     CODE:1550(j)  
       CODE:14fd 78 a4           MOV        R0,#0xa4
       CODE:14ff 76 02           MOV        @R0=>DAT_INTMEM_a4,#0x2                                    = ??
       CODE:1501 22              RET
                             LAB_CODE_1502                                   XREF[6]:     CODE:150a(j), CODE:151d(j), 
                                                                                          CODE:154c(j), CODE:1577(j), 
                                                                                          CODE:1579(j), CODE:157e(j)  
       CODE:1502 22              RET
                             LAB_CODE_1503                                   XREF[1]:     CODE:158f(j)  
       CODE:1503 12 27 94        LCALL      FUN_CODE_2794                                              undefined FUN_CODE_2794()
       CODE:1506 40 04           JC         LAB_CODE_150c
       CODE:1508 70 15           JNZ        LAB_CODE_151f
       CODE:150a 80 f6           SJMP       LAB_CODE_1502
                             LAB_CODE_150c                                   XREF[1]:     CODE:1506(j)  
       CODE:150c d2 d5           SETB       F0                                                         = ??
       CODE:150e c2 d1           CLR        UD                                                         = ??
       CODE:1510 b4 df 02        CJNE       A,#0xdf,LAB_CODE_1515
       CODE:1513 80 06           SJMP       LAB_CODE_151b
                             LAB_CODE_1515                                   XREF[1]:     CODE:1510(j)  
       CODE:1515 c2 d5           CLR        F0                                                         = ??
       CODE:1517 92 d1           MOV        UD,CY                                                      = ??
       CODE:1519 b2 d1           CPL        UD                                                         = ??
                             LAB_CODE_151b                                   XREF[1]:     CODE:1513(j)  
       CODE:151b 50 d6           JNC        LAB_CODE_14f3
       CODE:151d 80 e3           SJMP       LAB_CODE_1502
                             LAB_CODE_151f                                   XREF[1]:     CODE:1508(j)  
       CODE:151f 12 27 90        LCALL      FUN_CODE_2790                                              undefined FUN_CODE_2790()
       CODE:1522 d2 d5           SETB       F0                                                         = ??
       CODE:1524 c2 d1           CLR        UD                                                         = ??
       CODE:1526 b4 48 02        CJNE       A,#0x48,LAB_CODE_152b
       CODE:1529 80 06           SJMP       LAB_CODE_1531
                             LAB_CODE_152b                                   XREF[1]:     CODE:1526(j)  
       CODE:152b c2 d5           CLR        F0                                                         = ??
       CODE:152d 92 d1           MOV        UD,CY                                                      = ??
       CODE:152f b2 d1           CPL        UD                                                         = ??
                             LAB_CODE_1531                                   XREF[1]:     CODE:1529(j)  
       CODE:1531 20 d1 1e        JB         UD,LAB_CODE_1552                                           = ??
       CODE:1534 d2 d5           SETB       F0                                                         = ??
       CODE:1536 c2 d1           CLR        UD                                                         = ??
       CODE:1538 b4 08 02        CJNE       A,#0x8,LAB_CODE_153d
       CODE:153b 80 06           SJMP       LAB_CODE_1543
                             LAB_CODE_153d                                   XREF[1]:     CODE:1538(j)  
       CODE:153d c2 d5           CLR        F0                                                         = ??
       CODE:153f 92 d1           MOV        UD,CY                                                      = ??
       CODE:1541 b2 d1           CPL        UD                                                         = ??
                             LAB_CODE_1543                                   XREF[1]:     CODE:153b(j)  
       CODE:1543 40 0d           JC         LAB_CODE_1552
       CODE:1545 e5 2e           MOV        A,DAT_INTMEM_2e                                            = ??
       CODE:1547 20 e5 04        JB         ACC.5,LAB_CODE_154e                                        = ??
       CODE:154a d2 0a           SETB       21.2                                                       = ??
       CODE:154c 80 b4           SJMP       LAB_CODE_1502
                             LAB_CODE_154e                                   XREF[1]:     CODE:1547(j)  
       CODE:154e d2 33           SETB       26.3                                                       = ??
       CODE:1550 80 ab           SJMP       LAB_CODE_14fd
                             LAB_CODE_1552                                   XREF[2]:     CODE:1531(j), CODE:1543(j)  
       CODE:1552 d2 d5           SETB       F0                                                         = ??
       CODE:1554 c2 d1           CLR        UD                                                         = ??
       CODE:1556 b4 de 02        CJNE       A,#0xde,LAB_CODE_155b
       CODE:1559 80 06           SJMP       LAB_CODE_1561
                             LAB_CODE_155b                                   XREF[1]:     CODE:1556(j)  
       CODE:155b c2 d5           CLR        F0                                                         = ??
       CODE:155d 92 d1           MOV        UD,CY                                                      = ??
       CODE:155f b2 d1           CPL        UD                                                         = ??
                             LAB_CODE_1561                                   XREF[1]:     CODE:1559(j)  
       CODE:1561 20 d1 15        JB         UD,LAB_CODE_1579                                           = ??
       CODE:1564 d2 d5           SETB       F0                                                         = ??
       CODE:1566 c2 d1           CLR        UD                                                         = ??
       CODE:1568 b4 58 02        CJNE       A,#0x58,LAB_CODE_156d
       CODE:156b 80 06           SJMP       LAB_CODE_1573
                             LAB_CODE_156d                                   XREF[1]:     CODE:1568(j)  
       CODE:156d c2 d5           CLR        F0                                                         = ??
       CODE:156f 92 d1           MOV        UD,CY                                                      = ??
       CODE:1571 b2 d1           CPL        UD                                                         = ??
                             LAB_CODE_1573                                   XREF[1]:     CODE:156b(j)  
       CODE:1573 40 04           JC         LAB_CODE_1579
       CODE:1575 d2 0b           SETB       21.3                                                       = ??
       CODE:1577 80 89           SJMP       LAB_CODE_1502
                             LAB_CODE_1579                                   XREF[2]:     CODE:1561(j), CODE:1573(j)  
       CODE:1579 80 87           SJMP       LAB_CODE_1502
                             LAB_CODE_157b                                   XREF[1]:     CODE:1592(j)  
       CODE:157b 30 33 02        JNB        26.3,LAB_CODE_1580                                         = ??
       CODE:157e 80 82           SJMP       LAB_CODE_1502
                             LAB_CODE_1580                                   XREF[1]:     CODE:157b(j)  
       CODE:1580 02 14 f3        LJMP       LAB_CODE_14f3
                             **************************************************************
                             *                          FUNCTION                          *
                             **************************************************************
                             undefined FUN_CODE_1583()
             undefined         ACC:1          <RETURN>
                             FUN_CODE_1583                                   XREF[1]:     FUN_CODE_07e3:083c(c)  
       CODE:1583 78 a4           MOV        R0,#0xa4
       CODE:1585 e6              MOV        A,@R0=>DAT_INTMEM_a4                                       = ??
       CODE:1586 26              ADD        A,@R0=>DAT_INTMEM_a4                                       = ??
       CODE:1587 26              ADD        A,@R0=>DAT_INTMEM_a4                                       = ??
       CODE:1588 90 15 8c        MOV        DPTR,#LAB_CODE_158c
       CODE:158b 73              JMP        @A+DPTR
                             LAB_CODE_158c                                   XREF[1]:     FUN_CODE_1583:1588(*)  
       CODE:158c 02 14 e9        LJMP       LAB_CODE_14e9
       CODE:158f 02 15 03        LJMP       LAB_CODE_1503
       CODE:1592 02 15 7b        LJMP       LAB_CODE_157b
                             LAB_CODE_1595                                   XREF[1]:     CODE:15a6(j)  
       CODE:1595 02 16 bb        LJMP       LAB_CODE_16bb
                             **************************************************************
                             *                          FUNCTION                          *
                             **************************************************************
                             undefined FUN_CODE_1598()
             undefined         ACC:1          <RETURN>
                             FUN_CODE_1598                                   XREF[1]:     FUN_CODE_07e3:0854(c)  
       CODE:1598 20 17 0b        JB         22.7,LAB_CODE_15a6                                         = ??
       CODE:159b 75 52 23        MOV        DAT_INTMEM_52,#0x23                                        = ??
       CODE:159e 75 4d 19        MOV        DAT_INTMEM_4d,#0x19                                        = ??
       CODE:15a1 7a 00           MOV        R2,#0x0
       CODE:15a3 02 16 d7        LJMP       LAB_CODE_16d7
                             LAB_CODE_15a6                                   XREF[1]:     CODE:1598(j)  
       CODE:15a6 d5 4d ec        DJNZ       DAT_INTMEM_4d,LAB_CODE_1595                                = ??
       CODE:15a9 75 4d 32        MOV        DAT_INTMEM_4d,#0x32                                        = ??
       CODE:15ac d2 52           SETB       2a.2                                                       = ??
       CODE:15ae e5 3e           MOV        A,DAT_INTMEM_3e                                            = ??
       CODE:15b0 24 c3           ADD        A,#0xc3
       CODE:15b2 40 0e           JC         LAB_CODE_15c2
       CODE:15b4 e5 40           MOV        A,DAT_INTMEM_40                                            = ??
       CODE:15b6 24 c3           ADD        A,#0xc3
       CODE:15b8 40 08           JC         LAB_CODE_15c2
       CODE:15ba e5 42           MOV        A,DAT_INTMEM_42                                            = ??
       CODE:15bc 24 c3           ADD        A,#0xc3
       CODE:15be 40 02           JC         LAB_CODE_15c2
       CODE:15c0 c2 52           CLR        2a.2                                                       = ??
                             LAB_CODE_15c2                                   XREF[3]:     CODE:15b2(j), CODE:15b8(j), 
                                                                                          CODE:15be(j)  
       CODE:15c2 c2 53           CLR        2a.3                                                       = ??
       CODE:15c4 c2 54           CLR        2a.4                                                       = ??
       CODE:15c6 7c 00           MOV        R4,#0x0
       CODE:15c8 c3              CLR        CY
       CODE:15c9 e5 3e           MOV        A,DAT_INTMEM_3e                                            = ??
       CODE:15cb 95 48           SUBB       A,DAT_INTMEM_48                                            = ??
       CODE:15cd 40 14           JC         LAB_CODE_15e3
       CODE:15cf 7a 05           MOV        R2,#0x5
       CODE:15d1 7b 05           MOV        R3,#0x5
       CODE:15d3 d2 53           SETB       2a.3                                                       = ??
       CODE:15d5 95 50           SUBB       A,DAT_INTMEM_50                                            = ??
       CODE:15d7 40 0a           JC         LAB_CODE_15e3
       CODE:15d9 7c 05           MOV        R4,#0x5
       CODE:15db 7d 05           MOV        R5,#0x5
       CODE:15dd 95 51           SUBB       A,DAT_INTMEM_51                                            = ??
       CODE:15df 40 02           JC         LAB_CODE_15e3
       CODE:15e1 d2 54           SETB       2a.4                                                       = ??
                             LAB_CODE_15e3                                   XREF[3]:     CODE:15cd(j), CODE:15d7(j), 
                                                                                          CODE:15df(j)  
       CODE:15e3 c3              CLR        CY
       CODE:15e4 e5 40           MOV        A,DAT_INTMEM_40                                            = ??
       CODE:15e6 95 49           SUBB       A,DAT_INTMEM_49                                            = ??
       CODE:15e8 40 14           JC         LAB_CODE_15fe
       CODE:15ea 7a 06           MOV        R2,#0x6
       CODE:15ec 7b 06           MOV        R3,#0x6
       CODE:15ee d2 53           SETB       2a.3                                                       = ??
       CODE:15f0 95 50           SUBB       A,DAT_INTMEM_50                                            = ??
       CODE:15f2 40 0a           JC         LAB_CODE_15fe
       CODE:15f4 7c 06           MOV        R4,#0x6
       CODE:15f6 7d 06           MOV        R5,#0x6
       CODE:15f8 95 51           SUBB       A,DAT_INTMEM_51                                            = ??
       CODE:15fa 40 02           JC         LAB_CODE_15fe
       CODE:15fc d2 54           SETB       2a.4                                                       = ??
                             LAB_CODE_15fe                                   XREF[3]:     CODE:15e8(j), CODE:15f2(j), 
                                                                                          CODE:15fa(j)  
       CODE:15fe c3              CLR        CY
       CODE:15ff e5 42           MOV        A,DAT_INTMEM_42                                            = ??
       CODE:1601 95 4a           SUBB       A,DAT_INTMEM_4a                                            = ??
       CODE:1603 40 14           JC         LAB_CODE_1619
       CODE:1605 7a 07           MOV        R2,#0x7
       CODE:1607 7b 07           MOV        R3,#0x7
       CODE:1609 d2 53           SETB       2a.3                                                       = ??
       CODE:160b 95 50           SUBB       A,DAT_INTMEM_50                                            = ??
       CODE:160d 40 0a           JC         LAB_CODE_1619
       CODE:160f 7c 07           MOV        R4,#0x7
       CODE:1611 7d 07           MOV        R5,#0x7
       CODE:1613 95 51           SUBB       A,DAT_INTMEM_51                                            = ??
       CODE:1615 40 02           JC         LAB_CODE_1619
       CODE:1617 d2 54           SETB       2a.4                                                       = ??
                             LAB_CODE_1619                                   XREF[3]:     CODE:1603(j), CODE:160d(j), 
                                                                                          CODE:1615(j)  
       CODE:1619 30 1f 03        JNB        23.7,LAB_CODE_161f                                         = ??
       CODE:161c 02 16 bb        LJMP       LAB_CODE_16bb
                             LAB_CODE_161f                                   XREF[1]:     CODE:1619(j)  
       CODE:161f ec              MOV        A,R4
       CODE:1620 60 07           JZ         LAB_CODE_1629
       CODE:1622 ec              MOV        A,R4
       CODE:1623 fa              MOV        R2,A
       CODE:1624 ed              MOV        A,R5
       CODE:1625 fb              MOV        R3,A
       CODE:1626 75 4e 01        MOV        DAT_INTMEM_4e,#0x1                                         = ??
                             LAB_CODE_1629                                   XREF[1]:     CODE:1620(j)  
       CODE:1629 30 53 11        JNB        2a.3,LAB_CODE_163d                                         = ??
       CODE:162c d5 4e 11        DJNZ       DAT_INTMEM_4e,LAB_CODE_1640                                = ??
       CODE:162f d2 1f           SETB       23.7                                                       = ??
       CODE:1631 d2 3f           SETB       27.7                                                       = ??
       CODE:1633 8a 55           MOV        DAT_INTMEM_55,R2                                           = ??
       CODE:1635 8b 56           MOV        DAT_INTMEM_56,R3                                           = ??
       CODE:1637 d2 49           SETB       29.1                                                       = ??
       CODE:1639 d2 35           SETB       26.5                                                       = ??
       CODE:163b 80 7e           SJMP       LAB_CODE_16bb
                             LAB_CODE_163d                                   XREF[1]:     CODE:1629(j)  
       CODE:163d 85 4f 4e        MOV        DAT_INTMEM_4e,DAT_INTMEM_4f                                = ??
                             LAB_CODE_1640                                   XREF[1]:     CODE:162c(j)  
       CODE:1640 12 16 dc        LCALL      FUN_CODE_16dc                                              undefined FUN_CODE_16dc()
       CODE:1643 78 b9           MOV        R0,#0xb9
       CODE:1645 e6              MOV        A,@R0=>DAT_INTMEM_b9                                       = ??
       CODE:1646 60 73           JZ         LAB_CODE_16bb
       CODE:1648 78 bb           MOV        R0,#0xbb
       CODE:164a e6              MOV        A,@R0=>DAT_INTMEM_bb                                       = ??
       CODE:164b 60 6e           JZ         LAB_CODE_16bb
       CODE:164d 78 bd           MOV        R0,#0xbd
       CODE:164f e6              MOV        A,@R0=>DAT_INTMEM_bd                                       = ??
       CODE:1650 60 69           JZ         LAB_CODE_16bb
       CODE:1652 78 3d           MOV        R0,#0x3d
       CODE:1654 79 b8           MOV        R1,#0xb8
       CODE:1656 e5 45           MOV        A,DAT_INTMEM_45                                            = ??
       CODE:1658 30 51 06        JNB        2a.1,LAB_CODE_1661                                         = ??
       CODE:165b 24 fd           ADD        A,#0xfd
       CODE:165d 40 02           JC         LAB_CODE_1661
       CODE:165f 74 00           MOV        A,#0x0
                             LAB_CODE_1661                                   XREF[2]:     CODE:1658(j), CODE:165d(j)  
       CODE:1661 fa              MOV        R2,A
       CODE:1662 12 17 46        LCALL      FUN_CODE_1746                                              undefined FUN_CODE_1746()
       CODE:1665 79 b2           MOV        R1,#0xb2
       CODE:1667 12 17 7e        LCALL      FUN_CODE_177e                                              undefined FUN_CODE_177e()
       CODE:166a 78 3f           MOV        R0,#0x3f
       CODE:166c 79 ba           MOV        R1,#0xba
       CODE:166e e5 46           MOV        A,DAT_INTMEM_46                                            = ??
       CODE:1670 30 51 06        JNB        2a.1,LAB_CODE_1679                                         = ??
       CODE:1673 24 fd           ADD        A,#0xfd
       CODE:1675 40 02           JC         LAB_CODE_1679
       CODE:1677 74 00           MOV        A,#0x0
                             LAB_CODE_1679                                   XREF[2]:     CODE:1670(j), CODE:1675(j)  
       CODE:1679 fa              MOV        R2,A
       CODE:167a 12 17 46        LCALL      FUN_CODE_1746                                              undefined FUN_CODE_1746()
       CODE:167d 79 b4           MOV        R1,#0xb4
       CODE:167f 12 17 7e        LCALL      FUN_CODE_177e                                              undefined FUN_CODE_177e()
       CODE:1682 78 41           MOV        R0,#0x41
       CODE:1684 79 bc           MOV        R1,#0xbc
       CODE:1686 e5 47           MOV        A,DAT_INTMEM_47                                            = ??
       CODE:1688 30 51 06        JNB        2a.1,LAB_CODE_1691                                         = ??
       CODE:168b 24 fd           ADD        A,#0xfd
       CODE:168d 40 02           JC         LAB_CODE_1691
       CODE:168f 74 00           MOV        A,#0x0
                             LAB_CODE_1691                                   XREF[2]:     CODE:1688(j), CODE:168d(j)  
       CODE:1691 fa              MOV        R2,A
       CODE:1692 12 17 46        LCALL      FUN_CODE_1746                                              undefined FUN_CODE_1746()
       CODE:1695 79 b6           MOV        R1,#0xb6
       CODE:1697 12 17 7e        LCALL      FUN_CODE_177e                                              undefined FUN_CODE_177e()
       CODE:169a 78 b2           MOV        R0,#0xb2
       CODE:169c 79 b4           MOV        R1,#0xb4
       CODE:169e 12 18 47        LCALL      FUN_CODE_1847                                              undefined FUN_CODE_1847()
       CODE:16a1 79 b6           MOV        R1,#0xb6
       CODE:16a3 12 18 47        LCALL      FUN_CODE_1847                                              undefined FUN_CODE_1847()
       CODE:16a6 79 b2           MOV        R1,#0xb2
       CODE:16a8 12 18 5e        LCALL      FUN_CODE_185e                                              undefined FUN_CODE_185e()
       CODE:16ab 79 b4           MOV        R1,#0xb4
       CODE:16ad 12 18 5e        LCALL      FUN_CODE_185e                                              undefined FUN_CODE_185e()
       CODE:16b0 79 b6           MOV        R1,#0xb6
       CODE:16b2 12 18 5e        LCALL      FUN_CODE_185e                                              undefined FUN_CODE_185e()
       CODE:16b5 08              INC        R0
       CODE:16b6 e5 52           MOV        A,DAT_INTMEM_52                                            = ??
       CODE:16b8 26              ADD        A,@R0=>DAT_INTMEM_b3                                       = ??
       CODE:16b9 f5 52           MOV        DAT_INTMEM_52,A                                            = ??
                             LAB_CODE_16bb                                   XREF[6]:     CODE:1595(j), CODE:161c(j), 
                                                                                          CODE:163b(j), CODE:1646(j), 
                                                                                          CODE:164b(j), CODE:1650(j)  
       CODE:16bb 7a 64           MOV        R2,#0x64
       CODE:16bd 20 50 17        JB         2a.0,LAB_CODE_16d7                                         = ??
       CODE:16c0 20 1f 14        JB         23.7,LAB_CODE_16d7                                         = ??
       CODE:16c3 aa 52           MOV        R2,DAT_INTMEM_52                                           = ??
       CODE:16c5 85 53 f0        MOV        B,DAT_INTMEM_53                                            = ??
       CODE:16c8 30 f7 0c        JNB        B.7,LAB_CODE_16d7                                          = ??
       CODE:16cb c2 f7           CLR        B.7                                                        = ??
       CODE:16cd aa f0           MOV        R2,B
       CODE:16cf 74 9b           MOV        A,#0x9b
       CODE:16d1 25 f0           ADD        A,B
       CODE:16d3 50 02           JNC        LAB_CODE_16d7
       CODE:16d5 7a 64           MOV        R2,#0x64
                             LAB_CODE_16d7                                   XREF[5]:     CODE:15a3(j), CODE:16bd(j), 
                                                                                          CODE:16c0(j), CODE:16c8(j), 
                                                                                          CODE:16d3(j)  
       CODE:16d7 ea              MOV        A,R2
       CODE:16d8 12 27 5d        LCALL      FUN_CODE_275d                                              undefined FUN_CODE_275d()
       CODE:16db 22              RET
                             **************************************************************
                             *                          FUNCTION                          *
                             **************************************************************
                             undefined FUN_CODE_16dc()
             undefined         ACC:1          <RETURN>
                             FUN_CODE_16dc                                   XREF[1]:     FUN_CODE_1598:1640(c)  
       CODE:16dc e5 44           MOV        A,DAT_INTMEM_44                                            = ??
       CODE:16de 30 51 04        JNB        2a.1,LAB_CODE_16e5                                         = ??
       CODE:16e1 24 ea           ADD        A,#0xea
       CODE:16e3 50 06           JNC        LAB_CODE_16eb
                             LAB_CODE_16e5                                   XREF[1]:     CODE:16de(j)  
       CODE:16e5 fa              MOV        R2,A
       CODE:16e6 24 dd           ADD        A,#0xdd
       CODE:16e8 fb              MOV        R3,A
       CODE:16e9 40 04           JC         LAB_CODE_16ef
                             LAB_CODE_16eb                                   XREF[1]:     CODE:16e3(j)  
       CODE:16eb e5 54           MOV        A,DAT_INTMEM_54                                            = ??
       CODE:16ed 80 25           SJMP       LAB_CODE_1714
                             LAB_CODE_16ef                                   XREF[1]:     CODE:16e9(j)  
       CODE:16ef ea              MOV        A,R2
       CODE:16f0 24 c6           ADD        A,#0xc6
       CODE:16f2 50 04           JNC        LAB_CODE_16f8
       CODE:16f4 74 64           MOV        A,#0x64
       CODE:16f6 80 1c           SJMP       LAB_CODE_1714
                             LAB_CODE_16f8                                   XREF[1]:     CODE:16f2(j)  
       CODE:16f8 90 17 17        MOV        DPTR,#DAT_CODE_1717                                        = 1Bh
       CODE:16fb ea              MOV        A,R2
       CODE:16fc 24 ce           ADD        A,#0xce
       CODE:16fe 92 d5           MOV        F0,CY                                                      = ??
       CODE:1700 50 04           JNC        LAB_CODE_1706
       CODE:1702 fb              MOV        R3,A
       CODE:1703 90 17 26        MOV        DPTR,#DAT_CODE_1726                                        = 2Dh    -
                             LAB_CODE_1706                                   XREF[1]:     CODE:1700(j)  
       CODE:1706 eb              MOV        A,R3
       CODE:1707 30 d5 09        JNB        F0,LAB_CODE_1713                                           = ??
       CODE:170a 85 43 f0        MOV        B,DAT_INTMEM_43                                            = ??
       CODE:170d a2 f7           MOV        CY,B.7                                                     = ??
       CODE:170f 33              RLC        A
       CODE:1710 a2 f6           MOV        CY,B.6                                                     = ??
       CODE:1712 33              RLC        A
                             LAB_CODE_1713                                   XREF[1]:     CODE:1707(j)  
       CODE:1713 93              MOVC       A,@A+DPTR=>DAT_CODE_1726                                   = 2Dh    -
                             LAB_CODE_1714                                   XREF[2]:     CODE:16ed(j), CODE:16f6(j)  
       CODE:1714 f5 52           MOV        DAT_INTMEM_52,A                                            = ??
       CODE:1716 22              RET
                             DAT_CODE_1717                                   XREF[1]:     FUN_CODE_16dc:16f8(*)  
       CODE:1717 1b              ??         1Bh
       CODE:1718 1c              ??         1Ch
       CODE:1719 1d              ??         1Dh
       CODE:171a 1e              ??         1Eh
       CODE:171b 1f              ??         1Fh
       CODE:171c 20              ??         20h     
       CODE:171d 21              ??         21h    !
       CODE:171e 22              ??         22h    "
       CODE:171f 23              ??         23h    #
       CODE:1720 25              ??         25h    %
       CODE:1721 26              ??         26h    &
       CODE:1722 27              ??         27h    '
       CODE:1723 28              ??         28h    (
       CODE:1724 2a              ??         2Ah    *
       CODE:1725 2b              ??         2Bh    +
                             DAT_CODE_1726                                   XREF[2]:     FUN_CODE_16dc:1703(*), 
                                                                                          FUN_CODE_16dc:1713(*)  
       CODE:1726 2d              ??         2Dh    -
       CODE:1727 2e              ??         2Eh    .
       CODE:1728 2e              ??         2Eh    .
       CODE:1729 2f              ??         2Fh    /
       CODE:172a 30              ??         30h    0
       CODE:172b 30              ??         30h    0
       CODE:172c 31              ??         31h    1
       CODE:172d 32              ??         32h    2
       CODE:172e 33              ??         33h    3
       CODE:172f 34              ??         34h    4
       CODE:1730 35              ??         35h    5
       CODE:1731 36              ??         36h    6
       CODE:1732 37              ??         37h    7
       CODE:1733 38              ??         38h    8
       CODE:1734 3a              ??         3Ah    :
       CODE:1735 3b              ??         3Bh    ;
       CODE:1736 3d              ??         3Dh    =
       CODE:1737 3e              ??         3Eh    >
       CODE:1738 40              ??         40h    @
       CODE:1739 42              ??         42h    B
       CODE:173a 44              ??         44h    D
       CODE:173b 46              ??         46h    F
       CODE:173c 48              ??         48h    H
       CODE:173d 4b              ??         4Bh    K
       CODE:173e 4d              ??         4Dh    M
       CODE:173f 50              ??         50h    P
       CODE:1740 53              ??         53h    S
       CODE:1741 56              ??         56h    V
       CODE:1742 59              ??         59h    Y
       CODE:1743 5d              ??         5Dh    ]
       CODE:1744 60              ??         60h    `
       CODE:1745 64              ??         64h    d
                             **************************************************************
                             *                          FUNCTION                          *
                             **************************************************************
                             undefined FUN_CODE_1746()
             undefined         ACC:1          <RETURN>
                             FUN_CODE_1746                                   XREF[3]:     FUN_CODE_1598:1662(c), 
                                                                                          FUN_CODE_1598:167a(c), 
                                                                                          FUN_CODE_1598:1692(c)  
       CODE:1746 c3              CLR        CY
       CODE:1747 e6              MOV        A,@R0
       CODE:1748 87 f0           MOV        B,@R1
       CODE:174a 95 f0           SUBB       A,B
       CODE:174c fc              MOV        R4,A
       CODE:174d 08              INC        R0
       CODE:174e 09              INC        R1
       CODE:174f e6              MOV        A,@R0
       CODE:1750 87 f0           MOV        B,@R1
       CODE:1752 95 f0           SUBB       A,B
       CODE:1754 fd              MOV        R5,A
       CODE:1755 18              DEC        R0
       CODE:1756 a2 e7           MOV        CY,ACC.7                                                   = ??
       CODE:1758 92 d5           MOV        F0,CY                                                      = ??
       CODE:175a 50 0a           JNC        LAB_CODE_1766
       CODE:175c ec              MOV        A,R4
       CODE:175d f4              CPL        A
       CODE:175e 24 01           ADD        A,#0x1
       CODE:1760 fc              MOV        R4,A
       CODE:1761 ed              MOV        A,R5
       CODE:1762 f4              CPL        A
       CODE:1763 34 00           ADDC       A,#0x0
       CODE:1765 fd              MOV        R5,A
                             LAB_CODE_1766                                   XREF[1]:     CODE:175a(j)  
       CODE:1766 e6              MOV        A,@R0
       CODE:1767 fe              MOV        R6,A
       CODE:1768 c3              CLR        CY
       CODE:1769 08              INC        R0
       CODE:176a e6              MOV        A,@R0
       CODE:176b 9a              SUBB       A,R2
       CODE:176c ff              MOV        R7,A
       CODE:176d a2 e7           MOV        CY,ACC.7                                                   = ??
       CODE:176f 92 d1           MOV        UD,CY                                                      = ??
       CODE:1771 50 0a           JNC        LAB_CODE_177d
       CODE:1773 ee              MOV        A,R6
       CODE:1774 f4              CPL        A
       CODE:1775 24 01           ADD        A,#0x1
       CODE:1777 fe              MOV        R6,A
       CODE:1778 ef              MOV        A,R7
       CODE:1779 f4              CPL        A
       CODE:177a 34 00           ADDC       A,#0x0
       CODE:177c ff              MOV        R7,A
                             LAB_CODE_177d                                   XREF[1]:     CODE:1771(j)  
       CODE:177d 22              RET
                             **************************************************************
                             *                          FUNCTION                          *
                             **************************************************************
                             undefined FUN_CODE_177e()
             undefined         ACC:1          <RETURN>
                             FUN_CODE_177e                                   XREF[3]:     FUN_CODE_1598:1667(c), 
                                                                                          FUN_CODE_1598:167f(c), 
                                                                                          FUN_CODE_1598:1697(c)  
       CODE:177e ef              MOV        A,R7
       CODE:177f 24 fc           ADD        A,#0xfc
       CODE:1781 20 d1 21        JB         UD,LAB_CODE_17a5                                           = ??
       CODE:1784 7a 16           MOV        R2,#0x16
       CODE:1786 50 02           JNC        LAB_CODE_178a
       CODE:1788 7a 4b           MOV        R2,#0x4b
                             LAB_CODE_178a                                   XREF[1]:     CODE:1786(j)  
       CODE:178a ee              MOV        A,R6
       CODE:178b 8a f0           MOV        B,R2
       CODE:178d a4              MUL        AB
       CODE:178e e5 f0           MOV        A,B
       CODE:1790 27              ADD        A,@R1
       CODE:1791 f7              MOV        @R1,A
       CODE:1792 50 03           JNC        LAB_CODE_1797
       CODE:1794 09              INC        R1
       CODE:1795 07              INC        @R1
       CODE:1796 19              DEC        R1
                             LAB_CODE_1797                                   XREF[1]:     CODE:1792(j)  
       CODE:1797 ef              MOV        A,R7
       CODE:1798 8a f0           MOV        B,R2
       CODE:179a a4              MUL        AB
       CODE:179b 27              ADD        A,@R1
       CODE:179c f7              MOV        @R1,A
       CODE:179d 09              INC        R1
       CODE:179e e5 f0           MOV        A,B
       CODE:17a0 37              ADDC       A,@R1
       CODE:17a1 f7              MOV        @R1,A
       CODE:17a2 19              DEC        R1
       CODE:17a3 80 23           SJMP       LAB_CODE_17c8
                             LAB_CODE_17a5                                   XREF[1]:     CODE:1781(j)  
       CODE:17a5 7a 07           MOV        R2,#0x7
       CODE:17a7 50 02           JNC        LAB_CODE_17ab
       CODE:17a9 7a 07           MOV        R2,#0x7
                             LAB_CODE_17ab                                   XREF[1]:     CODE:17a7(j)  
       CODE:17ab ee              MOV        A,R6
       CODE:17ac 8a f0           MOV        B,R2
       CODE:17ae a4              MUL        AB
       CODE:17af c3              CLR        CY
       CODE:17b0 e7              MOV        A,@R1
       CODE:17b1 95 f0           SUBB       A,B
       CODE:17b3 f7              MOV        @R1,A
       CODE:17b4 50 03           JNC        LAB_CODE_17b9
       CODE:17b6 09              INC        R1
       CODE:17b7 17              DEC        @R1
       CODE:17b8 19              DEC        R1
                             LAB_CODE_17b9                                   XREF[1]:     CODE:17b4(j)  
       CODE:17b9 ef              MOV        A,R7
       CODE:17ba 8a f0           MOV        B,R2
       CODE:17bc a4              MUL        AB
       CODE:17bd c3              CLR        CY
       CODE:17be fe              MOV        R6,A
       CODE:17bf e7              MOV        A,@R1
       CODE:17c0 9e              SUBB       A,R6
       CODE:17c1 f7              MOV        @R1,A
       CODE:17c2 09              INC        R1
       CODE:17c3 e7              MOV        A,@R1
       CODE:17c4 95 f0           SUBB       A,B
       CODE:17c6 f7              MOV        @R1,A
       CODE:17c7 19              DEC        R1
                             LAB_CODE_17c8                                   XREF[1]:     CODE:17a3(j)  
       CODE:17c8 30 d1 07        JNB        UD,LAB_CODE_17d2                                           = ??
       CODE:17cb ef              MOV        A,R7
       CODE:17cc 24 eb           ADD        A,#0xeb
       CODE:17ce 50 02           JNC        LAB_CODE_17d2
       CODE:17d0 80 4d           SJMP       LAB_CODE_181f
                             LAB_CODE_17d2                                   XREF[2]:     CODE:17c8(j), CODE:17ce(j)  
       CODE:17d2 ed              MOV        A,R5
       CODE:17d3 24 fe           ADD        A,#0xfe
       CODE:17d5 50 04           JNC        LAB_CODE_17db
       CODE:17d7 7d 02           MOV        R5,#0x2
       CODE:17d9 7c 00           MOV        R4,#0x0
                             LAB_CODE_17db                                   XREF[1]:     CODE:17d5(j)  
       CODE:17db c3              CLR        CY
       CODE:17dc ec              MOV        A,R4
       CODE:17dd 33              RLC        A
       CODE:17de fc              MOV        R4,A
       CODE:17df ed              MOV        A,R5
       CODE:17e0 33              RLC        A
       CODE:17e1 fd              MOV        R5,A
       CODE:17e2 7a c8           MOV        R2,#0xc8
       CODE:17e4 20 d5 1b        JB         F0,LAB_CODE_1802                                           = ??
       CODE:17e7 ec              MOV        A,R4
       CODE:17e8 8a f0           MOV        B,R2
       CODE:17ea a4              MUL        AB
       CODE:17eb e5 f0           MOV        A,B
       CODE:17ed 27              ADD        A,@R1
       CODE:17ee f7              MOV        @R1,A
       CODE:17ef 50 03           JNC        LAB_CODE_17f4
       CODE:17f1 09              INC        R1
       CODE:17f2 07              INC        @R1
       CODE:17f3 19              DEC        R1
                             LAB_CODE_17f4                                   XREF[1]:     CODE:17ef(j)  
       CODE:17f4 ed              MOV        A,R5
       CODE:17f5 8a f0           MOV        B,R2
       CODE:17f7 a4              MUL        AB
       CODE:17f8 27              ADD        A,@R1
       CODE:17f9 f7              MOV        @R1,A
       CODE:17fa 09              INC        R1
       CODE:17fb e5 f0           MOV        A,B
       CODE:17fd 37              ADDC       A,@R1
       CODE:17fe f7              MOV        @R1,A
       CODE:17ff 19              DEC        R1
       CODE:1800 80 1d           SJMP       LAB_CODE_181f
                             LAB_CODE_1802                                   XREF[1]:     CODE:17e4(j)  
       CODE:1802 ec              MOV        A,R4
       CODE:1803 8a f0           MOV        B,R2
       CODE:1805 a4              MUL        AB
       CODE:1806 c3              CLR        CY
       CODE:1807 e7              MOV        A,@R1
       CODE:1808 95 f0           SUBB       A,B
       CODE:180a f7              MOV        @R1,A
       CODE:180b 50 03           JNC        LAB_CODE_1810
       CODE:180d 09              INC        R1
       CODE:180e 17              DEC        @R1
       CODE:180f 19              DEC        R1
                             LAB_CODE_1810                                   XREF[1]:     CODE:180b(j)  
       CODE:1810 ed              MOV        A,R5
       CODE:1811 8a f0           MOV        B,R2
       CODE:1813 a4              MUL        AB
       CODE:1814 c3              CLR        CY
       CODE:1815 fe              MOV        R6,A
       CODE:1816 e7              MOV        A,@R1
       CODE:1817 9e              SUBB       A,R6
       CODE:1818 f7              MOV        @R1,A
       CODE:1819 09              INC        R1
       CODE:181a e7              MOV        A,@R1
       CODE:181b 95 f0           SUBB       A,B
       CODE:181d f7              MOV        @R1,A
       CODE:181e 19              DEC        R1
                             LAB_CODE_181f                                   XREF[2]:     CODE:17d0(j), CODE:1800(j)  
       CODE:181f 09              INC        R1
       CODE:1820 e7              MOV        A,@R1
       CODE:1821 25 52           ADD        A,DAT_INTMEM_52                                            = ??
       CODE:1823 fc              MOV        R4,A
       CODE:1824 20 d2 16        JB         OV,LAB_CODE_183d                                           = ??
       CODE:1827 20 e7 0c        JB         ACC.7,LAB_CODE_1836                                        = ??
       CODE:182a ec              MOV        A,R4
       CODE:182b 24 9c           ADD        A,#0x9c
       CODE:182d 40 0e           JC         LAB_CODE_183d
       CODE:182f c3              CLR        CY
       CODE:1830 ec              MOV        A,R4
       CODE:1831 95 54           SUBB       A,DAT_INTMEM_54                                            = ??
       CODE:1833 40 01           JC         LAB_CODE_1836
       CODE:1835 22              RET
                             LAB_CODE_1836                                   XREF[2]:     CODE:1827(j), CODE:1833(j)  
       CODE:1836 c3              CLR        CY
       CODE:1837 e5 54           MOV        A,DAT_INTMEM_54                                            = ??
       CODE:1839 95 52           SUBB       A,DAT_INTMEM_52                                            = ??
       CODE:183b 80 05           SJMP       LAB_CODE_1842
                             LAB_CODE_183d                                   XREF[2]:     CODE:1824(j), CODE:182d(j)  
       CODE:183d c3              CLR        CY
       CODE:183e 74 64           MOV        A,#0x64
       CODE:1840 95 52           SUBB       A,DAT_INTMEM_52                                            = ??
                             LAB_CODE_1842                                   XREF[1]:     CODE:183b(j)  
       CODE:1842 f7              MOV        @R1,A
       CODE:1843 19              DEC        R1
       CODE:1844 77 00           MOV        @R1,#0x0
       CODE:1846 22              RET
                             **************************************************************
                             *                          FUNCTION                          *
                             **************************************************************
                             undefined FUN_CODE_1847()
             undefined         ACC:1          <RETURN>
                             FUN_CODE_1847                                   XREF[2]:     FUN_CODE_1598:169e(c), 
                                                                                          FUN_CODE_1598:16a3(c)  
       CODE:1847 c3              CLR        CY
       CODE:1848 e6              MOV        A,@R0
       CODE:1849 97              SUBB       A,@R1
       CODE:184a 08              INC        R0
       CODE:184b 09              INC        R1
       CODE:184c e6              MOV        A,@R0
       CODE:184d 97              SUBB       A,@R1
       CODE:184e 20 d2 05        JB         OV,LAB_CODE_1856                                           = ??
       CODE:1851 30 e7 08        JNB        ACC.7,LAB_CODE_185c                                        = ??
       CODE:1854 80 04           SJMP       LAB_CODE_185a
                             LAB_CODE_1856                                   XREF[1]:     CODE:184e(j)  
       CODE:1856 e7              MOV        A,@R1
       CODE:1857 20 e7 02        JB         ACC.7,LAB_CODE_185c                                        = ??
                             LAB_CODE_185a                                   XREF[1]:     CODE:1854(j)  
       CODE:185a e9              MOV        A,R1
       CODE:185b f8              MOV        R0,A
                             LAB_CODE_185c                                   XREF[2]:     CODE:1851(j), CODE:1857(j)  
       CODE:185c 18              DEC        R0
       CODE:185d 22              RET
                             **************************************************************
                             *                          FUNCTION                          *
                             **************************************************************
                             undefined FUN_CODE_185e()
             undefined         ACC:1          <RETURN>
                             FUN_CODE_185e                                   XREF[3]:     FUN_CODE_1598:16a8(c), 
                                                                                          FUN_CODE_1598:16ad(c), 
                                                                                          FUN_CODE_1598:16b2(c)  
       CODE:185e c3              CLR        CY
       CODE:185f e6              MOV        A,@R0
       CODE:1860 97              SUBB       A,@R1
       CODE:1861 08              INC        R0
       CODE:1862 09              INC        R1
       CODE:1863 e6              MOV        A,@R0
       CODE:1864 97              SUBB       A,@R1
       CODE:1865 24 ff           ADD        A,#0xff
       CODE:1867 40 02           JC         LAB_CODE_186b
       CODE:1869 18              DEC        R0
       CODE:186a 22              RET
                             LAB_CODE_186b                                   XREF[1]:     CODE:1867(j)  
       CODE:186b e6              MOV        A,@R0
       CODE:186c 24 ff           ADD        A,#0xff
       CODE:186e f7              MOV        @R1,A
       CODE:186f 18              DEC        R0
       CODE:1870 19              DEC        R1
       CODE:1871 e6              MOV        A,@R0
       CODE:1872 f7              MOV        @R1,A
       CODE:1873 22              RET
                             LAB_CODE_1874                                   XREF[1]:     CODE:191f(j)  
       CODE:1874 74 00           MOV        A,#0x0
       CODE:1876 12 2b fb        LCALL      FUN_CODE_2bfb                                              undefined FUN_CODE_2bfb()
       CODE:1879 c2 45           CLR        28.5                                                       = ??
       CODE:187b 02 1a 5a        LJMP       LAB_CODE_1a5a
                             LAB_CODE_187e                                   XREF[1]:     CODE:192a(j)  
       CODE:187e 74 10           MOV        A,#0x10
       CODE:1880 a2 05           MOV        CY,20.5                                                    = ??
       CODE:1882 92 e0           MOV        ACC.0,CY                                                   = ??
       CODE:1884 d2 e1           SETB       ACC.1                                                      = ??
       CODE:1886 12 2b fb        LCALL      FUN_CODE_2bfb                                              undefined FUN_CODE_2bfb()
       CODE:1889 c2 46           CLR        28.6                                                       = ??
       CODE:188b 02 1a 5a        LJMP       LAB_CODE_1a5a
                             LAB_CODE_188e                                   XREF[1]:     CODE:1935(j)  
       CODE:188e 85 5c f0        MOV        B,DAT_INTMEM_5c                                            = ??
       CODE:1891 74 80           MOV        A,#0x80
       CODE:1893 a2 f0           MOV        CY,B.0                                                     = ??
       CODE:1895 b0 f3           ANL        CY,/B.3                                                    = ??
       CODE:1897 53 5c fe        ANL        DAT_INTMEM_5c,#0xfe                                        = ??
       CODE:189a 30 f7 24        JNB        B.7,LAB_CODE_18c1                                          = ??
       CODE:189d 20 f5 12        JB         B.5,LAB_CODE_18b2                                          = ??
       CODE:18a0 20 f2 0a        JB         B.2,LAB_CODE_18ad                                          = ??
       CODE:18a3 92 e0           MOV        ACC.0,CY                                                   = ??
       CODE:18a5 d2 e2           SETB       ACC.2                                                      = ??
       CODE:18a7 a2 f1           MOV        CY,B.1                                                     = ??
       CODE:18a9 92 e3           MOV        ACC.3,CY                                                   = ??
       CODE:18ab 80 14           SJMP       LAB_CODE_18c1
                             LAB_CODE_18ad                                   XREF[1]:     CODE:18a0(j)  
       CODE:18ad 85 5d f0        MOV        B,DAT_INTMEM_5d                                            = ??
       CODE:18b0 80 03           SJMP       LAB_CODE_18b5
                             LAB_CODE_18b2                                   XREF[1]:     CODE:189d(j)  
       CODE:18b2 85 5e f0        MOV        B,DAT_INTMEM_5e                                            = ??
                             LAB_CODE_18b5                                   XREF[1]:     CODE:18b0(j)  
       CODE:18b5 30 f0 02        JNB        B.0,LAB_CODE_18ba                                          = ??
       CODE:18b8 74 b0           MOV        A,#0xb0
                             LAB_CODE_18ba                                   XREF[1]:     CODE:18b5(j)  
       CODE:18ba 53 f0 0f        ANL        B,#0xf
       CODE:18bd c2 f0           CLR        B.0                                                        = ??
       CODE:18bf 45 f0           ORL        A,B
                             LAB_CODE_18c1                                   XREF[2]:     CODE:189a(j), CODE:18ab(j)  
       CODE:18c1 12 2b fb        LCALL      FUN_CODE_2bfb                                              undefined FUN_CODE_2bfb()
       CODE:18c4 c2 4a           CLR        29.2                                                       = ??
       CODE:18c6 02 1a 5a        LJMP       LAB_CODE_1a5a
                             LAB_CODE_18c9                                   XREF[1]:     CODE:1930(j)  
       CODE:18c9 74 08           MOV        A,#0x8
       CODE:18cb a2 03           MOV        CY,20.3                                                    = ??
       CODE:18cd b3              CPL        CY
       CODE:18ce 72 15           ORL        CY,22.5                                                    = ??
       CODE:18d0 92 e0           MOV        ACC.0,CY                                                   = ??
       CODE:18d2 12 2b fb        LCALL      FUN_CODE_2bfb                                              undefined FUN_CODE_2bfb()
       CODE:18d5 c2 4d           CLR        29.5                                                       = ??
       CODE:18d7 c2 15           CLR        22.5                                                       = ??
       CODE:18d9 02 1a 5a        LJMP       LAB_CODE_1a5a
                             LAB_CODE_18dc                                   XREF[1]:     CODE:1925(j)  
       CODE:18dc 74 40           MOV        A,#0x40
       CODE:18de 12 2b fb        LCALL      FUN_CODE_2bfb                                              undefined FUN_CODE_2bfb()
       CODE:18e1 02 1a 6e        LJMP       LAB_CODE_1a6e
                             LAB_CODE_18e4                                   XREF[1]:     CODE:194f(j)  
       CODE:18e4 74 20           MOV        A,#0x20
       CODE:18e6 78 81           MOV        R0,#0x81
       CODE:18e8 86 f0           MOV        B,@R0=>DAT_INTMEM_81                                       = ??
       CODE:18ea c3              CLR        CY
       CODE:18eb 30 5b 03        JNB        2b.3,LAB_CODE_18f1                                         = ??
       CODE:18ee a2 5c           MOV        CY,2b.4                                                    = ??
       CODE:18f0 b3              CPL        CY
                             LAB_CODE_18f1                                   XREF[1]:     CODE:18eb(j)  
       CODE:18f1 92 f7           MOV        B.7,CY                                                     = ??
       CODE:18f3 12 2b fb        LCALL      FUN_CODE_2bfb                                              undefined FUN_CODE_2bfb()
       CODE:18f6 c2 48           CLR        29.0                                                       = ??
       CODE:18f8 02 1a 5a        LJMP       LAB_CODE_1a5a
                             LAB_CODE_18fb                                   XREF[1]:     CODE:1953(j)  
       CODE:18fb 7a 20           MOV        R2,#0x20
       CODE:18fd 74 01           MOV        A,#0x1
                             LAB_CODE_18ff                                   XREF[1]:     CODE:1906(j)  
       CODE:18ff 1a              DEC        R2
       CODE:1900 03              RR         A
       CODE:1901 85 33 f0        MOV        B,DAT_INTMEM_33                                            = ??
       CODE:1904 52 f0           ANL        B,A
       CODE:1906 b5 f0 f6        CJNE       A,B,LAB_CODE_18ff
       CODE:1909 f5 5a           MOV        DAT_INTMEM_5a,A                                            = ??
       CODE:190b f4              CPL        A
       CODE:190c 52 33           ANL        DAT_INTMEM_33,A                                            = ??
       CODE:190e 74 40           MOV        A,#0x40
       CODE:1910 2a              ADD        A,R2
       CODE:1911 12 2b fb        LCALL      FUN_CODE_2bfb                                              undefined FUN_CODE_2bfb()
       CODE:1914 02 1a 73        LJMP       LAB_CODE_1a73
                             LAB_CODE_1917                                   XREF[1]:     CODE:1b17(j)  
       CODE:1917 d2 43           SETB       28.3                                                       = ??
       CODE:1919 30 42 3e        JNB        28.2,LAB_CODE_195a                                         = ??
       CODE:191c 30 45 03        JNB        28.5,LAB_CODE_1922                                         = ??
       CODE:191f 02 18 74        LJMP       LAB_CODE_1874
                             LAB_CODE_1922                                   XREF[1]:     CODE:191c(j)  
       CODE:1922 30 47 02        JNB        28.7,LAB_CODE_1927                                         = ??
       CODE:1925 80 b5           SJMP       LAB_CODE_18dc
                             LAB_CODE_1927                                   XREF[1]:     CODE:1922(j)  
       CODE:1927 30 46 03        JNB        28.6,LAB_CODE_192d                                         = ??
       CODE:192a 02 18 7e        LJMP       LAB_CODE_187e
                             LAB_CODE_192d                                   XREF[1]:     CODE:1927(j)  
       CODE:192d 30 4d 02        JNB        29.5,LAB_CODE_1932                                         = ??
       CODE:1930 80 97           SJMP       LAB_CODE_18c9
                             LAB_CODE_1932                                   XREF[1]:     CODE:192d(j)  
       CODE:1932 30 4a 03        JNB        29.2,LAB_CODE_1938                                         = ??
       CODE:1935 02 18 8e        LJMP       LAB_CODE_188e
                             LAB_CODE_1938                                   XREF[1]:     CODE:1932(j)  
       CODE:1938 30 49 02        JNB        29.1,LAB_CODE_193d                                         = ??
       CODE:193b 80 22           SJMP       LAB_CODE_195f
                             LAB_CODE_193d                                   XREF[1]:     CODE:1938(j)  
       CODE:193d 30 4c 02        JNB        29.4,LAB_CODE_1942                                         = ??
       CODE:1940 80 35           SJMP       LAB_CODE_1977
                             LAB_CODE_1942                                   XREF[1]:     CODE:193d(j)  
       CODE:1942 30 4b 02        JNB        29.3,LAB_CODE_1947                                         = ??
       CODE:1945 80 75           SJMP       LAB_CODE_19bc
                             LAB_CODE_1947                                   XREF[1]:     CODE:1942(j)  
       CODE:1947 30 44 02        JNB        28.4,LAB_CODE_194c                                         = ??
       CODE:194a 80 38           SJMP       LAB_CODE_1984
                             LAB_CODE_194c                                   XREF[1]:     CODE:1947(j)  
       CODE:194c 30 48 02        JNB        29.0,LAB_CODE_1951                                         = ??
       CODE:194f 80 93           SJMP       LAB_CODE_18e4
                             LAB_CODE_1951                                   XREF[1]:     CODE:194c(j)  
       CODE:1951 e5 33           MOV        A,DAT_INTMEM_33                                            = ??
       CODE:1953 70 a6           JNZ        LAB_CODE_18fb
       CODE:1955 30 4e 02        JNB        29.6,LAB_CODE_195a                                         = ??
       CODE:1958 80 41           SJMP       LAB_CODE_199b
                             LAB_CODE_195a                                   XREF[2]:     CODE:1919(j), CODE:1955(j)  
       CODE:195a c2 43           CLR        28.3                                                       = ??
       CODE:195c 02 1a 78        LJMP       LAB_CODE_1a78
                             LAB_CODE_195f                                   XREF[1]:     CODE:193b(j)  
       CODE:195f c2 49           CLR        29.1                                                       = ??
       CODE:1961 e5 56           MOV        A,DAT_INTMEM_56                                            = ??
       CODE:1963 f5 5a           MOV        DAT_INTMEM_5a,A                                            = ??
       CODE:1965 24 a0           ADD        A,#0xa0
       CODE:1967 40 18           JC         LAB_CODE_1981
       CODE:1969 e5 5a           MOV        A,DAT_INTMEM_5a                                            = ??
       CODE:196b 75 f0 08        MOV        B,#0x8
       CODE:196e 84              DIV        AB
       CODE:196f 24 41           ADD        A,#0x41
       CODE:1971 12 2b fb        LCALL      FUN_CODE_2bfb                                              undefined FUN_CODE_2bfb()
       CODE:1974 02 1a 5f        LJMP       LAB_CODE_1a5f
                             LAB_CODE_1977                                   XREF[1]:     CODE:1940(j)  
       CODE:1977 c2 4c           CLR        29.4                                                       = ??
       CODE:1979 74 49           MOV        A,#0x49
       CODE:197b 12 2b fb        LCALL      FUN_CODE_2bfb                                              undefined FUN_CODE_2bfb()
       CODE:197e 02 1a 64        LJMP       LAB_CODE_1a64
                             LAB_CODE_1981                                   XREF[4]:     CODE:1967(j), CODE:1988(j), 
                                                                                          CODE:198b(j), CODE:198e(j)  
       CODE:1981 02 1a 78        LJMP       LAB_CODE_1a78
                             LAB_CODE_1984                                   XREF[1]:     CODE:194a(j)  
       CODE:1984 c2 44           CLR        28.4                                                       = ??
       CODE:1986 e5 5c           MOV        A,DAT_INTMEM_5c                                            = ??
       CODE:1988 30 e7 f6        JNB        ACC.7,LAB_CODE_1981                                        = ??
       CODE:198b 20 e3 f3        JB         ACC.3,LAB_CODE_1981                                        = ??
       CODE:198e 20 e5 f0        JB         ACC.5,LAB_CODE_1981                                        = ??
       CODE:1991 d2 3a           SETB       27.2                                                       = ??
       CODE:1993 74 04           MOV        A,#0x4
       CODE:1995 12 2b fb        LCALL      FUN_CODE_2bfb                                              undefined FUN_CODE_2bfb()
       CODE:1998 02 1a 5a        LJMP       LAB_CODE_1a5a
                             LAB_CODE_199b                                   XREF[1]:     CODE:1958(j)  
       CODE:199b 78 b1           MOV        R0,#0xb1
       CODE:199d 86 f0           MOV        B,@R0=>DAT_INTMEM_b1                                       = ??
       CODE:199f 78 b0           MOV        R0,#0xb0
       CODE:19a1 e6              MOV        A,@R0=>DAT_INTMEM_b0                                       = ??
       CODE:19a2 20 e7 08        JB         ACC.7,LAB_CODE_19ad                                        = ??
       CODE:19a5 54 1f           ANL        A,#0x1f
       CODE:19a7 60 0e           JZ         LAB_CODE_19b7
       CODE:19a9 24 20           ADD        A,#0x20
       CODE:19ab 80 04           SJMP       LAB_CODE_19b1
                             LAB_CODE_19ad                                   XREF[1]:     CODE:19a2(j)  
       CODE:19ad 54 1f           ANL        A,#0x1f
       CODE:19af 24 40           ADD        A,#0x40
                             LAB_CODE_19b1                                   XREF[1]:     CODE:19ab(j)  
       CODE:19b1 12 2b fb        LCALL      FUN_CODE_2bfb                                              undefined FUN_CODE_2bfb()
       CODE:19b4 02 1a 69        LJMP       LAB_CODE_1a69
                             LAB_CODE_19b7                                   XREF[1]:     CODE:19a7(j)  
       CODE:19b7 d2 d5           SETB       F0                                                         = ??
       CODE:19b9 02 1a 90        LJMP       LAB_CODE_1a90
                             LAB_CODE_19bc                                   XREF[1]:     CODE:1945(j)  
       CODE:19bc 85 5c f0        MOV        B,DAT_INTMEM_5c                                            = ??
       CODE:19bf 74 80           MOV        A,#0x80
       CODE:19c1 30 f7 3b        JNB        B.7,LAB_CODE_19ff                                          = ??
       CODE:19c4 20 f5 07        JB         B.5,LAB_CODE_19ce                                          = ??
       CODE:19c7 20 f3 3c        JB         B.3,LAB_CODE_1a06                                          = ??
       CODE:19ca 74 90           MOV        A,#0x90
       CODE:19cc 80 31           SJMP       LAB_CODE_19ff
                             LAB_CODE_19ce                                   XREF[1]:     CODE:19c4(j)  
       CODE:19ce e5 5e           MOV        A,DAT_INTMEM_5e                                            = ??
       CODE:19d0 54 f0           ANL        A,#0xf0
       CODE:19d2 70 04           JNZ        LAB_CODE_19d8
       CODE:19d4 74 a0           MOV        A,#0xa0
       CODE:19d6 80 27           SJMP       LAB_CODE_19ff
                             LAB_CODE_19d8                                   XREF[1]:     CODE:19d2(j)  
       CODE:19d8 90 1a 0f        MOV        DPTR,#0x1a0f
       CODE:19db c4              SWAP       A
       CODE:19dc 93              MOVC       A,@A+DPTR=>DAT_CODE_1a0f
       CODE:19dd fa              MOV        R2,A
       CODE:19de e5 55           MOV        A,DAT_INTMEM_55                                            = ??
       CODE:19e0 5a              ANL        A,R2
       CODE:19e1 70 0e           JNZ        LAB_CODE_19f1
       CODE:19e3 ea              MOV        A,R2
       CODE:19e4 23              RL         A
       CODE:19e5 55 55           ANL        A,DAT_INTMEM_55                                            = ??
       CODE:19e7 70 04           JNZ        LAB_CODE_19ed
       CODE:19e9 74 11           MOV        A,#0x11
       CODE:19eb 80 10           SJMP       LAB_CODE_19fd
                             LAB_CODE_19ed                                   XREF[1]:     CODE:19e7(j)  
       CODE:19ed 74 18           MOV        A,#0x18
       CODE:19ef 80 0c           SJMP       LAB_CODE_19fd
                             LAB_CODE_19f1                                   XREF[1]:     CODE:19e1(j)  
       CODE:19f1 ea              MOV        A,R2
       CODE:19f2 23              RL         A
       CODE:19f3 55 55           ANL        A,DAT_INTMEM_55                                            = ??
       CODE:19f5 70 04           JNZ        LAB_CODE_19fb
       CODE:19f7 74 12           MOV        A,#0x12
       CODE:19f9 80 02           SJMP       LAB_CODE_19fd
                             LAB_CODE_19fb                                   XREF[1]:     CODE:19f5(j)  
       CODE:19fb 74 1f           MOV        A,#0x1f
                             LAB_CODE_19fd                                   XREF[3]:     CODE:19eb(j), CODE:19ef(j), 
                                                                                          CODE:19f9(j)  
       CODE:19fd 44 c0           ORL        A,#0xc0
                             LAB_CODE_19ff                                   XREF[4]:     CODE:19c1(j), CODE:19cc(j), 
                                                                                          CODE:19d6(j), CODE:1a0d(j)  
       CODE:19ff 12 2b fb        LCALL      FUN_CODE_2bfb                                              undefined FUN_CODE_2bfb()
       CODE:1a02 c2 4b           CLR        29.3                                                       = ??
       CODE:1a04 80 54           SJMP       LAB_CODE_1a5a
                             LAB_CODE_1a06                                   XREF[1]:     CODE:19c7(j)  
       CODE:1a06 e5 5d           MOV        A,DAT_INTMEM_5d                                            = ??
       CODE:1a08 54 f0           ANL        A,#0xf0
       CODE:1a0a c4              SWAP       A
       CODE:1a0b 44 a0           ORL        A,#0xa0
       CODE:1a0d 80 f0           SJMP       LAB_CODE_19ff
                             DAT_CODE_1a0f                                   XREF[1]:     CODE:19dc(*)  
       CODE:1a0f 00              ??         00h
       CODE:1a10 40              ??         40h    @
       CODE:1a11 10              ??         10h
       CODE:1a12 04              ??         04h
       CODE:1a13 01              ??         01h
                             LAB_CODE_1a14                                   XREF[1]:     CODE:1b1a(j)  
       CODE:1a14 12 2c 24        LCALL      FUN_CODE_2c24                                              undefined FUN_CODE_2c24()
       CODE:1a17 50 5f           JNC        LAB_CODE_1a78
       CODE:1a19 80 3a           SJMP       LAB_CODE_1a55
                             LAB_CODE_1a1b                                   XREF[1]:     CODE:1b1d(j)  
       CODE:1a1b 12 2c 24        LCALL      FUN_CODE_2c24                                              undefined FUN_CODE_2c24()
       CODE:1a1e 50 58           JNC        LAB_CODE_1a78
       CODE:1a20 20 d5 32        JB         F0,LAB_CODE_1a55                                           = ??
       CODE:1a23 fa              MOV        R2,A
       CODE:1a24 e5 5a           MOV        A,DAT_INTMEM_5a                                            = ??
       CODE:1a26 75 f0 08        MOV        B,#0x8
       CODE:1a29 84              DIV        AB
       CODE:1a2a 24 21           ADD        A,#0x21
       CODE:1a2c fb              MOV        R3,A
       CODE:1a2d 74 01           MOV        A,#0x1
       CODE:1a2f 05 f0           INC        B
                             LAB_CODE_1a31                                   XREF[1]:     CODE:1a37(j)  
       CODE:1a31 d5 f0 02        DJNZ       B,LAB_CODE_1a36
       CODE:1a34 80 03           SJMP       LAB_CODE_1a39
                             LAB_CODE_1a36                                   XREF[1]:     CODE:1a31(j)  
       CODE:1a36 23              RL         A
       CODE:1a37 80 f8           SJMP       LAB_CODE_1a31
                             LAB_CODE_1a39                                   XREF[1]:     CODE:1a34(j)  
       CODE:1a39 4a              ORL        A,R2
       CODE:1a3a f5 f0           MOV        B,A
       CODE:1a3c eb              MOV        A,R3
       CODE:1a3d 12 2b fb        LCALL      FUN_CODE_2bfb                                              undefined FUN_CODE_2bfb()
       CODE:1a40 80 18           SJMP       LAB_CODE_1a5a
                             LAB_CODE_1a42                                   XREF[1]:     CODE:1b20(j)  
       CODE:1a42 12 2c 24        LCALL      FUN_CODE_2c24                                              undefined FUN_CODE_2c24()
       CODE:1a45 50 31           JNC        LAB_CODE_1a78
       CODE:1a47 20 d5 0b        JB         F0,LAB_CODE_1a55                                           = ??
       CODE:1a4a 44 01           ORL        A,#0x1
       CODE:1a4c f5 f0           MOV        B,A
       CODE:1a4e 74 29           MOV        A,#0x29
       CODE:1a50 12 2b fb        LCALL      FUN_CODE_2bfb                                              undefined FUN_CODE_2bfb()
       CODE:1a53 80 05           SJMP       LAB_CODE_1a5a
                             LAB_CODE_1a55                                   XREF[8]:     CODE:1a19(j), CODE:1a20(j), 
                                                                                          CODE:1a47(j), CODE:1a9e(j), 
                                                                                          CODE:1aa7(j), CODE:1ab3(j), 
                                                                                          CODE:1aba(j), CODE:1ac5(j)  
       CODE:1a55 78 a6           MOV        R0,#0xa6
       CODE:1a57 76 00           MOV        @R0=>DAT_INTMEM_a6,#0x0                                    = ??
       CODE:1a59 22              RET
                             LAB_CODE_1a5a                                   XREF[10]:    CODE:187b(j), CODE:188b(j), 
                                                                                          CODE:18c6(j), CODE:18d9(j), 
                                                                                          CODE:18f8(j), CODE:1998(j), 
                                                                                          CODE:1a04(j), CODE:1a40(j), 
                                                                                          CODE:1a53(j), CODE:1ae6(j)  
       CODE:1a5a 78 a6           MOV        R0,#0xa6
       CODE:1a5c 76 01           MOV        @R0=>DAT_INTMEM_a6,#0x1                                    = ??
       CODE:1a5e 22              RET
                             LAB_CODE_1a5f                                   XREF[1]:     CODE:1974(j)  
       CODE:1a5f 78 a6           MOV        R0,#0xa6
       CODE:1a61 76 02           MOV        @R0=>DAT_INTMEM_a6,#0x2                                    = ??
       CODE:1a63 22              RET
                             LAB_CODE_1a64                                   XREF[1]:     CODE:197e(j)  
       CODE:1a64 78 a6           MOV        R0,#0xa6
       CODE:1a66 76 03           MOV        @R0=>DAT_INTMEM_a6,#0x3                                    = ??
       CODE:1a68 22              RET
                             LAB_CODE_1a69                                   XREF[1]:     CODE:19b4(j)  
       CODE:1a69 78 a6           MOV        R0,#0xa6
       CODE:1a6b 76 04           MOV        @R0=>DAT_INTMEM_a6,#0x4                                    = ??
       CODE:1a6d 22              RET
                             LAB_CODE_1a6e                                   XREF[1]:     CODE:18e1(j)  
       CODE:1a6e 78 a6           MOV        R0,#0xa6
       CODE:1a70 76 05           MOV        @R0=>DAT_INTMEM_a6,#0x5                                    = ??
       CODE:1a72 22              RET
                             LAB_CODE_1a73                                   XREF[1]:     CODE:1914(j)  
       CODE:1a73 78 a6           MOV        R0,#0xa6
       CODE:1a75 76 06           MOV        @R0=>DAT_INTMEM_a6,#0x6                                    = ??
       CODE:1a77 22              RET
                             LAB_CODE_1a78                                   XREF[8]:     CODE:195c(j), CODE:1981(j), 
                                                                                          CODE:1a17(j), CODE:1a1e(j), 
                                                                                          CODE:1a45(j), CODE:1a7c(j), 
                                                                                          CODE:1aa3(j), CODE:1ab8(j)  
       CODE:1a78 22              RET
                             LAB_CODE_1a79                                   XREF[1]:     CODE:1b23(j)  
       CODE:1a79 12 2c 24        LCALL      FUN_CODE_2c24                                              undefined FUN_CODE_2c24()
       CODE:1a7c 50 fa           JNC        LAB_CODE_1a78
       CODE:1a7e 78 b1           MOV        R0,#0xb1
       CODE:1a80 f6              MOV        @R0=>DAT_INTMEM_b1,A                                       = ??
       CODE:1a81 85 2e f0        MOV        B,DAT_INTMEM_2e                                            = ??
       CODE:1a84 30 f5 09        JNB        B.5,LAB_CODE_1a90                                          = ??
       CODE:1a87 20 13 06        JB         22.3,LAB_CODE_1a90                                         = ??
       CODE:1a8a f5 55           MOV        DAT_INTMEM_55,A                                            = ??
       CODE:1a8c d2 35           SETB       26.5                                                       = ??
       CODE:1a8e 80 0c           SJMP       LAB_CODE_1a9c
                             LAB_CODE_1a90                                   XREF[3]:     CODE:19b9(j), CODE:1a84(j), 
                                                                                          CODE:1a87(j)  
       CODE:1a90 78 b0           MOV        R0,#0xb0
       CODE:1a92 e6              MOV        A,@R0=>DAT_INTMEM_b0                                       = ??
       CODE:1a93 a2 d5           MOV        CY,F0                                                      = ??
       CODE:1a95 92 e6           MOV        ACC.6,CY                                                   = ??
       CODE:1a97 78 b0           MOV        R0,#0xb0
       CODE:1a99 f6              MOV        @R0=>DAT_INTMEM_b0,A                                       = ??
       CODE:1a9a d2 3d           SETB       27.5                                                       = ??
                             LAB_CODE_1a9c                                   XREF[1]:     CODE:1a8e(j)  
       CODE:1a9c c2 4e           CLR        29.6                                                       = ??
       CODE:1a9e 80 b5           SJMP       LAB_CODE_1a55
                             LAB_CODE_1aa0                                   XREF[1]:     CODE:1b26(j)  
       CODE:1aa0 12 2c 24        LCALL      FUN_CODE_2c24                                              undefined FUN_CODE_2c24()
       CODE:1aa3 50 d3           JNC        LAB_CODE_1a78
       CODE:1aa5 c2 47           CLR        28.7                                                       = ??
       CODE:1aa7 20 d5 ab        JB         F0,LAB_CODE_1a55                                           = ??
       CODE:1aaa a2 e7           MOV        CY,ACC.7                                                   = ??
       CODE:1aac 92 5b           MOV        2b.3,CY                                                    = ??
       CODE:1aae 54 0f           ANL        A,#0xf
       CODE:1ab0 78 81           MOV        R0,#0x81
       CODE:1ab2 f6              MOV        @R0=>DAT_INTMEM_81,A                                       = ??
       CODE:1ab3 80 a0           SJMP       LAB_CODE_1a55
                             LAB_CODE_1ab5                                   XREF[1]:     CODE:1b29(j)  
       CODE:1ab5 12 2c 24        LCALL      FUN_CODE_2c24                                              undefined FUN_CODE_2c24()
       CODE:1ab8 50 be           JNC        LAB_CODE_1a78
       CODE:1aba 20 d5 98        JB         F0,LAB_CODE_1a55                                           = ??
       CODE:1abd aa 5a           MOV        R2,DAT_INTMEM_5a                                           = ??
       CODE:1abf ba 02 05        CJNE       R2,#0x2,LAB_CODE_1ac7
       CODE:1ac2 b4 ff 02        CJNE       A,#0xff,LAB_CODE_1ac7
       CODE:1ac5 80 8e           SJMP       LAB_CODE_1a55
                             LAB_CODE_1ac7                                   XREF[2]:     CODE:1abf(j), CODE:1ac2(j)  
       CODE:1ac7 24 01           ADD        A,#0x1
       CODE:1ac9 f5 f0           MOV        B,A
       CODE:1acb 50 0b           JNC        LAB_CODE_1ad8
       CODE:1acd 74 6d           MOV        A,#0x6d
       CODE:1acf 55 5a           ANL        A,DAT_INTMEM_5a                                            = ??
       CODE:1ad1 60 05           JZ         LAB_CODE_1ad8
       CODE:1ad3 e5 5a           MOV        A,DAT_INTMEM_5a                                            = ??
       CODE:1ad5 23              RL         A
       CODE:1ad6 42 33           ORL        DAT_INTMEM_33,A                                            = ??
                             LAB_CODE_1ad8                                   XREF[2]:     CODE:1acb(j), CODE:1ad1(j)  
       CODE:1ad8 7a 20           MOV        R2,#0x20
       CODE:1ada e5 5a           MOV        A,DAT_INTMEM_5a                                            = ??
                             LAB_CODE_1adc                                   XREF[1]:     CODE:1ade(j)  
       CODE:1adc 1a              DEC        R2
       CODE:1add 33              RLC        A
       CODE:1ade 50 fc           JNC        LAB_CODE_1adc
       CODE:1ae0 74 20           MOV        A,#0x20
       CODE:1ae2 2a              ADD        A,R2
       CODE:1ae3 12 2b fb        LCALL      FUN_CODE_2bfb                                              undefined FUN_CODE_2bfb()
       CODE:1ae6 02 1a 5a        LJMP       LAB_CODE_1a5a
                             **************************************************************
                             *                          FUNCTION                          *
                             **************************************************************
                             undefined FUN_CODE_1ae9()
             undefined         ACC:1          <RETURN>
                             FUN_CODE_1ae9                                   XREF[1]:     FUN_CODE_07e3:0875(c)  
       CODE:1ae9 12 2b f1        LCALL      FUN_CODE_2bf1                                              undefined FUN_CODE_2bf1()
       CODE:1aec 40 20           JC         LAB_CODE_1b0e
       CODE:1aee 60 1e           JZ         LAB_CODE_1b0e
       CODE:1af0 20 e7 09        JB         ACC.7,LAB_CODE_1afc                                        = ??
       CODE:1af3 20 e6 06        JB         ACC.6,LAB_CODE_1afc                                        = ??
       CODE:1af6 20 e5 07        JB         ACC.5,LAB_CODE_1b00                                        = ??
       CODE:1af9 20 e4 08        JB         ACC.4,LAB_CODE_1b04                                        = ??
                             LAB_CODE_1afc                                   XREF[2]:     CODE:1af0(j), CODE:1af3(j)  
       CODE:1afc d2 45           SETB       28.5                                                       = ??
       CODE:1afe 80 0e           SJMP       LAB_CODE_1b0e
                             LAB_CODE_1b00                                   XREF[1]:     CODE:1af6(j)  
       CODE:1b00 d2 4f           SETB       29.7                                                       = ??
       CODE:1b02 80 0a           SJMP       LAB_CODE_1b0e
                             LAB_CODE_1b04                                   XREF[1]:     CODE:1af9(j)  
       CODE:1b04 a2 e0           MOV        CY,ACC.0                                                   = ??
       CODE:1b06 92 4a           MOV        29.2,CY                                                    = ??
       CODE:1b08 92 4b           MOV        29.3,CY                                                    = ??
       CODE:1b0a a2 e1           MOV        CY,ACC.1                                                   = ??
       CODE:1b0c 92 46           MOV        28.6,CY                                                    = ??
                             LAB_CODE_1b0e                                   XREF[4]:     CODE:1aec(j), CODE:1aee(j), 
                                                                                          CODE:1afe(j), CODE:1b02(j)  
       CODE:1b0e 78 a6           MOV        R0,#0xa6
       CODE:1b10 e6              MOV        A,@R0=>DAT_INTMEM_a6                                       = ??
       CODE:1b11 26              ADD        A,@R0=>DAT_INTMEM_a6                                       = ??
       CODE:1b12 26              ADD        A,@R0=>DAT_INTMEM_a6                                       = ??
       CODE:1b13 90 1b 17        MOV        DPTR,#LAB_CODE_1b17
       CODE:1b16 73              JMP        @A+DPTR
                             LAB_CODE_1b17                                   XREF[1]:     FUN_CODE_1ae9:1b13(*)  
       CODE:1b17 02 19 17        LJMP       LAB_CODE_1917
       CODE:1b1a 02 1a 14        LJMP       LAB_CODE_1a14
       CODE:1b1d 02 1a 1b        LJMP       LAB_CODE_1a1b
       CODE:1b20 02 1a 42        LJMP       LAB_CODE_1a42
       CODE:1b23 02 1a 79        LJMP       LAB_CODE_1a79
       CODE:1b26 02 1a a0        LJMP       LAB_CODE_1aa0
       CODE:1b29 02 1a b5        LJMP       LAB_CODE_1ab5
                             **************************************************************
                             *                          FUNCTION                          *
                             **************************************************************
                             undefined FUN_CODE_1b2c()
             undefined         ACC:1          <RETURN>
                             FUN_CODE_1b2c                                   XREF[1]:     FUN_CODE_07e3:086c(c)  
       CODE:1b2c 78 a7           MOV        R0,#0xa7
       CODE:1b2e e6              MOV        A,@R0=>DAT_INTMEM_a7                                       = ??
       CODE:1b2f 26              ADD        A,@R0=>DAT_INTMEM_a7                                       = ??
       CODE:1b30 26              ADD        A,@R0=>DAT_INTMEM_a7                                       = ??
       CODE:1b31 90 1b 35        MOV        DPTR,#LAB_CODE_1b35
       CODE:1b34 73              JMP        @A+DPTR
                             LAB_CODE_1b35                                   XREF[1]:     FUN_CODE_1b2c:1b31(*)  
       CODE:1b35 02 1b 50        LJMP       LAB_CODE_1b50
       CODE:1b38 02 1b d7        LJMP       LAB_CODE_1bd7
       CODE:1b3b 02 1c 09        LJMP       LAB_CODE_1c09
       CODE:1b3e 02 1c 4f        LJMP       LAB_CODE_1c4f
       CODE:1b41 02 1c 5b        LJMP       LAB_CODE_1c5b
       CODE:1b44 02 1c 79        LJMP       LAB_CODE_1c79
       CODE:1b47 02 1c 93        LJMP       LAB_CODE_1c93
       CODE:1b4a 02 1c 64        LJMP       LAB_CODE_1c64
       CODE:1b4d 02 1c 70        LJMP       LAB_CODE_1c70
                             LAB_CODE_1b50                                   XREF[1]:     CODE:1b35(j)  
       CODE:1b50 d2 2d           SETB       25.5                                                       = ??
       CODE:1b52 20 2c 02        JB         25.4,LAB_CODE_1b57                                         = ??
       CODE:1b55 80 7c           SJMP       LAB_CODE_1bd3
                             LAB_CODE_1b57                                   XREF[1]:     CODE:1b52(j)  
       CODE:1b57 30 2e 0b        JNB        25.6,LAB_CODE_1b65                                         = ??
       CODE:1b5a 12 27 b6        LCALL      FUN_CODE_27b6                                              undefined FUN_CODE_27b6()
       CODE:1b5d 20 d5 03        JB         F0,LAB_CODE_1b63                                           = ??
       CODE:1b60 02 1c 26        LJMP       LAB_CODE_1c26
                             LAB_CODE_1b63                                   XREF[1]:     CODE:1b5d(j)  
       CODE:1b63 80 77           SJMP       LAB_CODE_1bdc
                             LAB_CODE_1b65                                   XREF[1]:     CODE:1b57(j)  
       CODE:1b65 30 2f 0c        JNB        25.7,LAB_CODE_1b74                                         = ??
       CODE:1b68 12 27 be        LCALL      FUN_CODE_27be                                              undefined FUN_CODE_27be()
       CODE:1b6b 20 d5 03        JB         F0,LAB_CODE_1b71                                           = ??
       CODE:1b6e 02 1c 2b        LJMP       LAB_CODE_1c2b
                             LAB_CODE_1b71                                   XREF[1]:     CODE:1b6b(j)  
       CODE:1b71 02 1c 0e        LJMP       LAB_CODE_1c0e
                             LAB_CODE_1b74                                   XREF[1]:     CODE:1b65(j)  
       CODE:1b74 30 30 0c        JNB        26.0,LAB_CODE_1b83                                         = ??
       CODE:1b77 12 27 c3        LCALL      FUN_CODE_27c3                                              undefined FUN_CODE_27c3()
       CODE:1b7a 20 d5 03        JB         F0,LAB_CODE_1b80                                           = ??
       CODE:1b7d 02 1c 30        LJMP       LAB_CODE_1c30
                             LAB_CODE_1b80                                   XREF[1]:     CODE:1b7a(j)  
       CODE:1b80 02 1c 54        LJMP       LAB_CODE_1c54
                             LAB_CODE_1b83                                   XREF[1]:     CODE:1b74(j)  
       CODE:1b83 30 31 0c        JNB        26.1,LAB_CODE_1b92                                         = ??
       CODE:1b86 12 27 c8        LCALL      FUN_CODE_27c8                                              undefined FUN_CODE_27c8()
       CODE:1b89 20 d5 03        JB         F0,LAB_CODE_1b8f                                           = ??
       CODE:1b8c 02 1c 35        LJMP       LAB_CODE_1c35
                             LAB_CODE_1b8f                                   XREF[1]:     CODE:1b89(j)  
       CODE:1b8f 02 1c 60        LJMP       LAB_CODE_1c60
                             LAB_CODE_1b92                                   XREF[1]:     CODE:1b83(j)  
       CODE:1b92 20 36 1e        JB         26.6,LAB_CODE_1bb3                                         = ??
       CODE:1b95 30 32 0c        JNB        26.2,LAB_CODE_1ba4                                         = ??
       CODE:1b98 12 27 cd        LCALL      FUN_CODE_27cd                                              undefined FUN_CODE_27cd()
       CODE:1b9b 20 d5 03        JB         F0,LAB_CODE_1ba1                                           = ??
       CODE:1b9e 02 1c 3a        LJMP       LAB_CODE_1c3a
                             LAB_CODE_1ba1                                   XREF[1]:     CODE:1b9b(j)  
       CODE:1ba1 02 1c 7e        LJMP       LAB_CODE_1c7e
                             LAB_CODE_1ba4                                   XREF[1]:     CODE:1b95(j)  
       CODE:1ba4 30 33 0c        JNB        26.3,LAB_CODE_1bb3                                         = ??
       CODE:1ba7 12 27 d2        LCALL      FUN_CODE_27d2                                              undefined FUN_CODE_27d2()
       CODE:1baa 20 d5 03        JB         F0,LAB_CODE_1bb0                                           = ??
       CODE:1bad 02 1c 3f        LJMP       LAB_CODE_1c3f
                             LAB_CODE_1bb0                                   XREF[1]:     CODE:1baa(j)  
       CODE:1bb0 02 1c 98        LJMP       LAB_CODE_1c98
                             LAB_CODE_1bb3                                   XREF[2]:     CODE:1b92(j), CODE:1ba4(j)  
       CODE:1bb3 30 34 0c        JNB        26.4,LAB_CODE_1bc2                                         = ??
       CODE:1bb6 12 27 d7        LCALL      FUN_CODE_27d7                                              undefined FUN_CODE_27d7()
       CODE:1bb9 20 d5 03        JB         F0,LAB_CODE_1bbf                                           = ??
       CODE:1bbc 02 1c 44        LJMP       LAB_CODE_1c44
                             LAB_CODE_1bbf                                   XREF[1]:     CODE:1bb9(j)  
       CODE:1bbf 02 1c 69        LJMP       LAB_CODE_1c69
                             LAB_CODE_1bc2                                   XREF[1]:     CODE:1bb3(j)  
       CODE:1bc2 20 36 0e        JB         26.6,LAB_CODE_1bd3                                         = ??
       CODE:1bc5 30 35 0b        JNB        26.5,LAB_CODE_1bd3                                         = ??
       CODE:1bc8 12 27 dc        LCALL      FUN_CODE_27dc                                              undefined FUN_CODE_27dc()
       CODE:1bcb 20 d5 02        JB         F0,LAB_CODE_1bd0                                           = ??
       CODE:1bce 80 79           SJMP       LAB_CODE_1c49
                             LAB_CODE_1bd0                                   XREF[1]:     CODE:1bcb(j)  
       CODE:1bd0 02 1c 75        LJMP       LAB_CODE_1c75
                             LAB_CODE_1bd3                                   XREF[3]:     CODE:1b55(j), CODE:1bc2(j), 
                                                                                          CODE:1bc5(j)  
       CODE:1bd3 c2 2d           CLR        25.5                                                       = ??
       CODE:1bd5 80 77           SJMP       LAB_CODE_1c4e
                             LAB_CODE_1bd7                                   XREF[1]:     CODE:1b38(j)  
       CODE:1bd7 12 27 e9        LCALL      FUN_CODE_27e9                                              undefined FUN_CODE_27e9()
       CODE:1bda 50 72           JNC        LAB_CODE_1c4e
                             LAB_CODE_1bdc                                   XREF[1]:     CODE:1b63(j)  
       CODE:1bdc 74 01           MOV        A,#0x1
       CODE:1bde 12 25 a1        LCALL      FUN_CODE_25a1                                              undefined FUN_CODE_25a1()
       CODE:1be1 12 25 a6        LCALL      FUN_CODE_25a6                                              undefined FUN_CODE_25a6()
       CODE:1be4 fa              MOV        R2,A
       CODE:1be5 ea              MOV        A,R2
       CODE:1be6 30 e0 03        JNB        ACC.0,LAB_CODE_1bec                                        = ??
       CODE:1be9 75 5b 02        MOV        DAT_INTMEM_5b,#0x2                                         = ??
                             LAB_CODE_1bec                                   XREF[1]:     CODE:1be6(j)  
       CODE:1bec c2 2e           CLR        25.6                                                       = ??
       CODE:1bee c2 38           CLR        27.0                                                       = ??
       CODE:1bf0 74 01           MOV        A,#0x1
       CODE:1bf2 12 25 c3        LCALL      FUN_CODE_25c3                                              undefined FUN_CODE_25c3()
       CODE:1bf5 74 03           MOV        A,#0x3
       CODE:1bf7 12 25 c8        LCALL      FUN_CODE_25c8                                              undefined FUN_CODE_25c8()
       CODE:1bfa 20 d5 24        JB         F0,LAB_CODE_1c21                                           = ??
       CODE:1bfd 74 01           MOV        A,#0x1
       CODE:1bff 12 25 c3        LCALL      FUN_CODE_25c3                                              undefined FUN_CODE_25c3()
       CODE:1c02 74 00           MOV        A,#0x0
       CODE:1c04 12 25 c8        LCALL      FUN_CODE_25c8                                              undefined FUN_CODE_25c8()
       CODE:1c07 80 18           SJMP       LAB_CODE_1c21
                             LAB_CODE_1c09                                   XREF[1]:     CODE:1b3b(j)  
       CODE:1c09 12 27 e9        LCALL      FUN_CODE_27e9                                              undefined FUN_CODE_27e9()
       CODE:1c0c 50 40           JNC        LAB_CODE_1c4e
                             LAB_CODE_1c0e                                   XREF[1]:     CODE:1b71(j)  
       CODE:1c0e c2 2f           CLR        25.7                                                       = ??
       CODE:1c10 30 d5 0e        JNB        F0,LAB_CODE_1c21                                           = ??
                             LAB_CODE_1c13                                   XREF[2]:     CODE:1c59(j), CODE:1c6e(j)  
       CODE:1c13 d2 1e           SETB       23.6                                                       = ??
       CODE:1c15 75 55 04        MOV        DAT_INTMEM_55,#0x4                                         = ??
       CODE:1c18 75 56 04        MOV        DAT_INTMEM_56,#0x4                                         = ??
       CODE:1c1b d2 49           SETB       29.1                                                       = ??
       CODE:1c1d d2 35           SETB       26.5                                                       = ??
       CODE:1c1f 80 00           SJMP       LAB_CODE_1c21
                             LAB_CODE_1c21                                   XREF[13]:    CODE:1bfa(j), CODE:1c07(j), 
                                                                                          CODE:1c10(j), CODE:1c1f(j), 
                                                                                          CODE:1c56(j), CODE:1c62(j), 
                                                                                          CODE:1c6b(j), CODE:1c77(j), 
                                                                                          CODE:1c80(j), CODE:1c91(j), 
                                                                                          CODE:1c9f(j), CODE:1cb0(j), 
                                                                                          CODE:1cdc(j)  
       CODE:1c21 78 a7           MOV        R0,#0xa7
       CODE:1c23 76 00           MOV        @R0=>DAT_INTMEM_a7,#0x0                                    = ??
       CODE:1c25 22              RET
                             LAB_CODE_1c26                                   XREF[1]:     CODE:1b60(j)  
       CODE:1c26 78 a7           MOV        R0,#0xa7
       CODE:1c28 76 01           MOV        @R0=>DAT_INTMEM_a7,#0x1                                    = ??
       CODE:1c2a 22              RET
                             LAB_CODE_1c2b                                   XREF[1]:     CODE:1b6e(j)  
       CODE:1c2b 78 a7           MOV        R0,#0xa7
       CODE:1c2d 76 02           MOV        @R0=>DAT_INTMEM_a7,#0x2                                    = ??
       CODE:1c2f 22              RET
                             LAB_CODE_1c30                                   XREF[1]:     CODE:1b7d(j)  
       CODE:1c30 78 a7           MOV        R0,#0xa7
       CODE:1c32 76 03           MOV        @R0=>DAT_INTMEM_a7,#0x3                                    = ??
       CODE:1c34 22              RET
                             LAB_CODE_1c35                                   XREF[1]:     CODE:1b8c(j)  
       CODE:1c35 78 a7           MOV        R0,#0xa7
       CODE:1c37 76 04           MOV        @R0=>DAT_INTMEM_a7,#0x4                                    = ??
       CODE:1c39 22              RET
                             LAB_CODE_1c3a                                   XREF[1]:     CODE:1b9e(j)  
       CODE:1c3a 78 a7           MOV        R0,#0xa7
       CODE:1c3c 76 05           MOV        @R0=>DAT_INTMEM_a7,#0x5                                    = ??
       CODE:1c3e 22              RET
                             LAB_CODE_1c3f                                   XREF[1]:     CODE:1bad(j)  
       CODE:1c3f 78 a7           MOV        R0,#0xa7
       CODE:1c41 76 06           MOV        @R0=>DAT_INTMEM_a7,#0x6                                    = ??
       CODE:1c43 22              RET
                             LAB_CODE_1c44                                   XREF[1]:     CODE:1bbc(j)  
       CODE:1c44 78 a7           MOV        R0,#0xa7
       CODE:1c46 76 07           MOV        @R0=>DAT_INTMEM_a7,#0x7                                    = ??
       CODE:1c48 22              RET
                             LAB_CODE_1c49                                   XREF[1]:     CODE:1bce(j)  
       CODE:1c49 78 a7           MOV        R0,#0xa7
       CODE:1c4b 76 08           MOV        @R0=>DAT_INTMEM_a7,#0x8                                    = ??
       CODE:1c4d 22              RET
                             LAB_CODE_1c4e                                   XREF[9]:     CODE:1bd5(j), CODE:1bda(j), 
                                                                                          CODE:1c0c(j), CODE:1c52(j), 
                                                                                          CODE:1c5e(j), CODE:1c67(j), 
                                                                                          CODE:1c73(j), CODE:1c7c(j), 
                                                                                          CODE:1c96(j)  
       CODE:1c4e 22              RET
                             LAB_CODE_1c4f                                   XREF[1]:     CODE:1b3e(j)  
       CODE:1c4f 12 27 e9        LCALL      FUN_CODE_27e9                                              undefined FUN_CODE_27e9()
       CODE:1c52 50 fa           JNC        LAB_CODE_1c4e
                             LAB_CODE_1c54                                   XREF[1]:     CODE:1b80(j)  
       CODE:1c54 c2 30           CLR        26.0                                                       = ??
       CODE:1c56 30 d5 c8        JNB        F0,LAB_CODE_1c21                                           = ??
       CODE:1c59 80 b8           SJMP       LAB_CODE_1c13
                             LAB_CODE_1c5b                                   XREF[1]:     CODE:1b41(j)  
       CODE:1c5b 12 27 e9        LCALL      FUN_CODE_27e9                                              undefined FUN_CODE_27e9()
       CODE:1c5e 50 ee           JNC        LAB_CODE_1c4e
                             LAB_CODE_1c60                                   XREF[1]:     CODE:1b8f(j)  
       CODE:1c60 c2 31           CLR        26.1                                                       = ??
       CODE:1c62 80 bd           SJMP       LAB_CODE_1c21
                             LAB_CODE_1c64                                   XREF[1]:     CODE:1b4a(j)  
       CODE:1c64 12 27 e9        LCALL      FUN_CODE_27e9                                              undefined FUN_CODE_27e9()
       CODE:1c67 50 e5           JNC        LAB_CODE_1c4e
                             LAB_CODE_1c69                                   XREF[1]:     CODE:1bbf(j)  
       CODE:1c69 c2 34           CLR        26.4                                                       = ??
       CODE:1c6b 30 d5 b3        JNB        F0,LAB_CODE_1c21                                           = ??
       CODE:1c6e 80 a3           SJMP       LAB_CODE_1c13
                             LAB_CODE_1c70                                   XREF[1]:     CODE:1b4d(j)  
       CODE:1c70 12 27 e9        LCALL      FUN_CODE_27e9                                              undefined FUN_CODE_27e9()
       CODE:1c73 50 d9           JNC        LAB_CODE_1c4e
                             LAB_CODE_1c75                                   XREF[1]:     CODE:1bd0(j)  
       CODE:1c75 c2 35           CLR        26.5                                                       = ??
       CODE:1c77 80 a8           SJMP       LAB_CODE_1c21
                             LAB_CODE_1c79                                   XREF[1]:     CODE:1b44(j)  
       CODE:1c79 12 27 e9        LCALL      FUN_CODE_27e9                                              undefined FUN_CODE_27e9()
       CODE:1c7c 50 d0           JNC        LAB_CODE_1c4e
                             LAB_CODE_1c7e                                   XREF[1]:     CODE:1ba1(j)  
       CODE:1c7e c2 32           CLR        26.2                                                       = ??
       CODE:1c80 20 d5 9e        JB         F0,LAB_CODE_1c21                                           = ??
       CODE:1c83 53 57 5c        ANL        DAT_INTMEM_57,#0x5c                                        = ??
       CODE:1c86 78 bf           MOV        R0,#0xbf
       CODE:1c88 e6              MOV        A,@R0=>DAT_INTMEM_bf                                       = ??
       CODE:1c89 54 03           ANL        A,#0x3
       CODE:1c8b 45 57           ORL        A,DAT_INTMEM_57                                            = ??
       CODE:1c8d d2 e5           SETB       ACC.5                                                      = ??
       CODE:1c8f f5 57           MOV        DAT_INTMEM_57,A                                            = ??
       CODE:1c91 80 8e           SJMP       LAB_CODE_1c21
                             LAB_CODE_1c93                                   XREF[1]:     CODE:1b47(j)  
       CODE:1c93 12 27 e9        LCALL      FUN_CODE_27e9                                              undefined FUN_CODE_27e9()
       CODE:1c96 50 b6           JNC        LAB_CODE_1c4e
                             LAB_CODE_1c98                                   XREF[1]:     CODE:1bb0(j)  
       CODE:1c98 c2 33           CLR        26.3                                                       = ??
       CODE:1c9a 30 d5 04        JNB        F0,LAB_CODE_1ca1                                           = ??
       CODE:1c9d d2 0a           SETB       21.2                                                       = ??
       CODE:1c9f 80 80           SJMP       LAB_CODE_1c21
                             LAB_CODE_1ca1                                   XREF[1]:     CODE:1c9a(j)  
       CODE:1ca1 78 bf           MOV        R0,#0xbf
       CODE:1ca3 e6              MOV        A,@R0=>DAT_INTMEM_bf                                       = ??
       CODE:1ca4 30 59 0c        JNB        2b.1,LAB_CODE_1cb3                                         = ??
       CODE:1ca7 78 ad           MOV        R0,#0xad
       CODE:1ca9 f6              MOV        @R0=>DAT_INTMEM_ad,A                                       = ??
       CODE:1caa 78 ac           MOV        R0,#0xac
       CODE:1cac 76 07           MOV        @R0=>DAT_INTMEM_ac,#0x7                                    = ??
       CODE:1cae d2 3e           SETB       27.6                                                       = ??
       CODE:1cb0 02 1c 21        LJMP       LAB_CODE_1c21
                             LAB_CODE_1cb3                                   XREF[1]:     CODE:1ca4(j)  
       CODE:1cb3 85 2e f0        MOV        B,DAT_INTMEM_2e                                            = ??
       CODE:1cb6 30 f5 11        JNB        B.5,LAB_CODE_1cca                                          = ??
       CODE:1cb9 20 13 0e        JB         22.3,LAB_CODE_1cca                                         = ??
       CODE:1cbc 30 e6 0b        JNB        ACC.6,LAB_CODE_1cca                                        = ??
       CODE:1cbf 54 1f           ANL        A,#0x1f
       CODE:1cc1 d2 e7           SETB       ACC.7                                                      = ??
       CODE:1cc3 78 b0           MOV        R0,#0xb0
       CODE:1cc5 f6              MOV        @R0=>DAT_INTMEM_b0,A                                       = ??
       CODE:1cc6 d2 4e           SETB       29.6                                                       = ??
       CODE:1cc8 80 12           SJMP       LAB_CODE_1cdc
                             LAB_CODE_1cca                                   XREF[3]:     CODE:1cb6(j), CODE:1cb9(j), 
                                                                                          CODE:1cbc(j)  
       CODE:1cca a2 0b           MOV        CY,21.3                                                    = ??
       CODE:1ccc 72 e3           ORL        CY,ACC.3                                                   = ??
       CODE:1cce 92 0b           MOV        21.3,CY                                                    = ??
       CODE:1cd0 a2 0a           MOV        CY,21.2                                                    = ??
       CODE:1cd2 72 e2           ORL        CY,ACC.2                                                   = ??
       CODE:1cd4 92 0a           MOV        21.2,CY                                                    = ??
       CODE:1cd6 a2 14           MOV        CY,22.4                                                    = ??
       CODE:1cd8 72 e0           ORL        CY,ACC.0                                                   = ??
       CODE:1cda 92 14           MOV        22.4,CY                                                    = ??
                             LAB_CODE_1cdc                                   XREF[1]:     CODE:1cc8(j)  
       CODE:1cdc 02 1c 21        LJMP       LAB_CODE_1c21
                             **************************************************************
                             *                          FUNCTION                          *
                             **************************************************************
                             undefined FUN_CODE_1cdf()
             undefined         ACC:1          <RETURN>
                             FUN_CODE_1cdf                                   XREF[1]:     FUN_CODE_07e3:084b(c)  
       CODE:1cdf 78 83           MOV        R0,#0x83
       CODE:1ce1 e6              MOV        A,@R0=>DAT_INTMEM_83                                       = ??
       CODE:1ce2 60 03           JZ         LAB_CODE_1ce7
       CODE:1ce4 78 83           MOV        R0,#0x83
       CODE:1ce6 16              DEC        @R0=>DAT_INTMEM_83                                         = ??
                             LAB_CODE_1ce7                                   XREF[1]:     CODE:1ce2(j)  
       CODE:1ce7 12 2c aa        LCALL      FUN_CODE_2caa                                              undefined FUN_CODE_2caa()
       CODE:1cea 70 01           JNZ        LAB_CODE_1ced
       CODE:1cec 22              RET
                             LAB_CODE_1ced                                   XREF[1]:     CODE:1cea(j)  
       CODE:1ced 85 2e f0        MOV        B,DAT_INTMEM_2e                                            = ??
       CODE:1cf0 30 f5 01        JNB        B.5,LAB_CODE_1cf4                                          = ??
       CODE:1cf3 22              RET
                             LAB_CODE_1cf4                                   XREF[1]:     CODE:1cf0(j)  
       CODE:1cf4 20 e6 24        JB         ACC.6,LAB_CODE_1d1b                                        = ??
       CODE:1cf7 b4 07 1b        CJNE       A,#0x7,LAB_CODE_1d15
       CODE:1cfa c2 d5           CLR        F0                                                         = ??
       CODE:1cfc 78 82           MOV        R0,#0x82
       CODE:1cfe e6              MOV        A,@R0=>DAT_INTMEM_82                                       = ??
       CODE:1cff 78 82           MOV        R0,#0x82
       CODE:1d01 a6 f0           MOV        @R0=>DAT_INTMEM_82,B                                       = ??
       CODE:1d03 b5 f0 07        CJNE       A,B,LAB_CODE_1d0d
       CODE:1d06 78 83           MOV        R0,#0x83
       CODE:1d08 e6              MOV        A,@R0=>DAT_INTMEM_83                                       = ??
       CODE:1d09 60 02           JZ         LAB_CODE_1d0d
       CODE:1d0b d2 d5           SETB       F0                                                         = ??
                             LAB_CODE_1d0d                                   XREF[2]:     CODE:1d03(j), CODE:1d09(j)  
       CODE:1d0d 74 07           MOV        A,#0x7
       CODE:1d0f 78 83           MOV        R0,#0x83
       CODE:1d11 76 0d           MOV        @R0=>DAT_INTMEM_83,#0xd                                    = ??
       CODE:1d13 80 1e           SJMP       LAB_CODE_1d33
                             LAB_CODE_1d15                                   XREF[1]:     CODE:1cf7(j)  
       CODE:1d15 78 82           MOV        R0,#0x82
       CODE:1d17 76 00           MOV        @R0=>DAT_INTMEM_82,#0x0                                    = ??
       CODE:1d19 80 5b           SJMP       LAB_CODE_1d76
                             LAB_CODE_1d1b                                   XREF[1]:     CODE:1cf4(j)  
       CODE:1d1b 30 00 07        JNB        20.0,LAB_CODE_1d25
       CODE:1d1e c2 00           CLR        20.0
       CODE:1d20 a2 e7           MOV        CY,ACC.7                                                   = ??
       CODE:1d22 b3              CPL        CY
       CODE:1d23 92 01           MOV        20.1,CY                                                    = ??
                             LAB_CODE_1d25                                   XREF[1]:     CODE:1d1b(j)  
       CODE:1d25 a2 01           MOV        CY,20.1                                                    = ??
       CODE:1d27 92 d5           MOV        F0,CY                                                      = ??
       CODE:1d29 20 e7 02        JB         ACC.7,LAB_CODE_1d2e                                        = ??
       CODE:1d2c b2 d5           CPL        F0                                                         = ??
                             LAB_CODE_1d2e                                   XREF[1]:     CODE:1d29(j)  
       CODE:1d2e 20 d5 02        JB         F0,LAB_CODE_1d33                                           = ??
       CODE:1d31 b2 01           CPL        20.1                                                       = ??
                             LAB_CODE_1d33                                   XREF[2]:     CODE:1d13(j), CODE:1d2e(j)  
       CODE:1d33 30 02 03        JNB        20.2,LAB_CODE_1d39                                         = ??
       CODE:1d36 20 d5 54        JB         F0,LAB_CODE_1d8d                                           = ??
                             LAB_CODE_1d39                                   XREF[1]:     CODE:1d33(j)  
       CODE:1d39 c2 02           CLR        20.2                                                       = ??
       CODE:1d3b ba 0c 06        CJNE       R2,#0xc,LAB_CODE_1d44
       CODE:1d3e 20 d5 4c        JB         F0,LAB_CODE_1d8d                                           = ??
       CODE:1d41 d2 22           SETB       24.2                                                       = ??
       CODE:1d43 22              RET
                             LAB_CODE_1d44                                   XREF[1]:     CODE:1d3b(j)  
       CODE:1d44 ba 28 06        CJNE       R2,#0x28,LAB_CODE_1d4d
       CODE:1d47 20 d5 43        JB         F0,LAB_CODE_1d8d                                           = ??
       CODE:1d4a d2 25           SETB       24.5                                                       = ??
       CODE:1d4c 22              RET
                             LAB_CODE_1d4d                                   XREF[1]:     CODE:1d44(j)  
       CODE:1d4d 20 21 0b        JB         24.1,LAB_CODE_1d5b                                         = ??
       CODE:1d50 ba 29 06        CJNE       R2,#0x29,LAB_CODE_1d59
       CODE:1d53 20 d5 37        JB         F0,LAB_CODE_1d8d                                           = ??
       CODE:1d56 d2 22           SETB       24.2                                                       = ??
       CODE:1d58 22              RET
                             LAB_CODE_1d59                                   XREF[1]:     CODE:1d50(j)  
       CODE:1d59 80 1b           SJMP       LAB_CODE_1d76
                             LAB_CODE_1d5b                                   XREF[1]:     CODE:1d4d(j)  
       CODE:1d5b ba 0d 06        CJNE       R2,#0xd,LAB_CODE_1d64
       CODE:1d5e 20 d5 2c        JB         F0,LAB_CODE_1d8d                                           = ??
       CODE:1d61 d2 24           SETB       24.4                                                       = ??
       CODE:1d63 22              RET
                             LAB_CODE_1d64                                   XREF[1]:     CODE:1d5b(j)  
       CODE:1d64 ba 64 06        CJNE       R2,#0x64,LAB_CODE_1d6d
       CODE:1d67 20 d5 23        JB         F0,LAB_CODE_1d8d                                           = ??
       CODE:1d6a d2 23           SETB       24.3                                                       = ??
       CODE:1d6c 22              RET
                             LAB_CODE_1d6d                                   XREF[1]:     CODE:1d64(j)  
       CODE:1d6d ba 2a 06        CJNE       R2,#0x2a,LAB_CODE_1d76
       CODE:1d70 20 d5 1a        JB         F0,LAB_CODE_1d8d                                           = ??
       CODE:1d73 d2 22           SETB       24.2                                                       = ??
       CODE:1d75 22              RET
                             LAB_CODE_1d76                                   XREF[3]:     CODE:1d19(j), CODE:1d59(j), 
                                                                                          CODE:1d6d(j)  
       CODE:1d76 8a f0           MOV        B,R2
       CODE:1d78 78 ad           MOV        R0,#0xad
       CODE:1d7a a6 f0           MOV        @R0=>DAT_INTMEM_ad,B                                       = ??
       CODE:1d7c 8b f0           MOV        B,R3
       CODE:1d7e 78 ae           MOV        R0,#0xae
       CODE:1d80 a6 f0           MOV        @R0=>DAT_INTMEM_ae,B                                       = ??
       CODE:1d82 8c f0           MOV        B,R4
       CODE:1d84 78 af           MOV        R0,#0xaf
       CODE:1d86 a6 f0           MOV        @R0=>DAT_INTMEM_af,B                                       = ??
       CODE:1d88 78 ac           MOV        R0,#0xac
       CODE:1d8a f6              MOV        @R0=>DAT_INTMEM_ac,A                                       = ??
       CODE:1d8b d2 3e           SETB       27.6                                                       = ??
                             LAB_CODE_1d8d                                   XREF[7]:     CODE:1d36(j), CODE:1d3e(j), 
                                                                                          CODE:1d47(j), CODE:1d53(j), 
                                                                                          CODE:1d5e(j), CODE:1d67(j), 
                                                                                          CODE:1d70(j)  
       CODE:1d8d 22              RET
                             **************************************************************
                             *                          FUNCTION                          *
                             **************************************************************
                             undefined FUN_CODE_1d8e()
             undefined         ACC:1          <RETURN>
                             FUN_CODE_1d8e                                   XREF[1]:     FUN_CODE_07e3:083f(c)  
       CODE:1d8e e5 34           MOV        A,DAT_INTMEM_34                                            = ??
       CODE:1d90 60 02           JZ         LAB_CODE_1d94
       CODE:1d92 15 34           DEC        DAT_INTMEM_34                                              = ??
                             LAB_CODE_1d94                                   XREF[1]:     CODE:1d90(j)  
       CODE:1d94 78 a8           MOV        R0,#0xa8
       CODE:1d96 e6              MOV        A,@R0=>DAT_INTMEM_a8                                       = ??
       CODE:1d97 26              ADD        A,@R0=>DAT_INTMEM_a8                                       = ??
       CODE:1d98 26              ADD        A,@R0=>DAT_INTMEM_a8                                       = ??
       CODE:1d99 90 1d 9d        MOV        DPTR,#LAB_CODE_1d9d
       CODE:1d9c 73              JMP        @A+DPTR
                             LAB_CODE_1d9d                                   XREF[1]:     FUN_CODE_1d8e:1d99(*)  
       CODE:1d9d 02 1d ac        LJMP       LAB_CODE_1dac
       CODE:1da0 02 1d b8        LJMP       LAB_CODE_1db8
       CODE:1da3 02 1d ea        LJMP       LAB_CODE_1dea
       CODE:1da6 02 1d fd        LJMP       LAB_CODE_1dfd
       CODE:1da9 02 1e 10        LJMP       LAB_CODE_1e10
                             LAB_CODE_1dac                                   XREF[1]:     CODE:1d9d(j)  
       CODE:1dac 12 27 60        LCALL      FUN_CODE_2760                                              undefined FUN_CODE_2760()
       CODE:1daf 40 38           JC         LAB_CODE_1de9
       CODE:1db1 12 27 64        LCALL      FUN_CODE_2764                                              undefined FUN_CODE_2764()
       CODE:1db4 40 33           JC         LAB_CODE_1de9
       CODE:1db6 80 1d           SJMP       LAB_CODE_1dd5
                             LAB_CODE_1db8                                   XREF[1]:     CODE:1da0(j)  
       CODE:1db8 12 27 60        LCALL      FUN_CODE_2760                                              undefined FUN_CODE_2760()
       CODE:1dbb 40 13           JC         LAB_CODE_1dd0
       CODE:1dbd 12 27 64        LCALL      FUN_CODE_2764                                              undefined FUN_CODE_2764()
       CODE:1dc0 40 0e           JC         LAB_CODE_1dd0
       CODE:1dc2 e5 34           MOV        A,DAT_INTMEM_34                                            = ??
       CODE:1dc4 60 02           JZ         LAB_CODE_1dc8
       CODE:1dc6 d2 09           SETB       21.1                                                       = ??
                             LAB_CODE_1dc8                                   XREF[1]:     CODE:1dc4(j)  
       CODE:1dc8 53 35 7f        ANL        DAT_INTMEM_35,#0x7f                                        = ??
       CODE:1dcb 75 34 00        MOV        DAT_INTMEM_34,#0x0                                         = ??
       CODE:1dce 80 0a           SJMP       LAB_CODE_1dda
                             LAB_CODE_1dd0                                   XREF[7]:     CODE:1dbb(j), CODE:1dc0(j), 
                                                                                          CODE:1e0e(j), CODE:1e30(j), 
                                                                                          CODE:1e3b(j), CODE:1e40(j), 
                                                                                          CODE:1e45(j)  
       CODE:1dd0 78 a8           MOV        R0,#0xa8
       CODE:1dd2 76 00           MOV        @R0=>DAT_INTMEM_a8,#0x0                                    = ??
       CODE:1dd4 22              RET
                             LAB_CODE_1dd5                                   XREF[1]:     CODE:1db6(j)  
       CODE:1dd5 78 a8           MOV        R0,#0xa8
       CODE:1dd7 76 01           MOV        @R0=>DAT_INTMEM_a8,#0x1                                    = ??
       CODE:1dd9 22              RET
                             LAB_CODE_1dda                                   XREF[5]:     CODE:1dce(j), CODE:1e00(j), 
                                                                                          CODE:1e05(j), CODE:1e13(j), 
                                                                                          CODE:1e18(j)  
       CODE:1dda 78 a8           MOV        R0,#0xa8
       CODE:1ddc 76 02           MOV        @R0=>DAT_INTMEM_a8,#0x2                                    = ??
       CODE:1dde 22              RET
                             LAB_CODE_1ddf                                   XREF[1]:     CODE:1df8(j)  
       CODE:1ddf 78 a8           MOV        R0,#0xa8
       CODE:1de1 76 03           MOV        @R0=>DAT_INTMEM_a8,#0x3                                    = ??
       CODE:1de3 22              RET
                             LAB_CODE_1de4                                   XREF[1]:     CODE:1dfb(j)  
       CODE:1de4 78 a8           MOV        R0,#0xa8
       CODE:1de6 76 04           MOV        @R0=>DAT_INTMEM_a8,#0x4                                    = ??
       CODE:1de8 22              RET
                             LAB_CODE_1de9                                   XREF[3]:     CODE:1daf(j), CODE:1db4(j), 
                                                                                          CODE:1df5(j)  
       CODE:1de9 22              RET
                             LAB_CODE_1dea                                   XREF[1]:     CODE:1da3(j)  
       CODE:1dea e4              CLR        A
       CODE:1deb 12 27 60        LCALL      FUN_CODE_2760                                              undefined FUN_CODE_2760()
       CODE:1dee 92 e0           MOV        ACC.0,CY                                                   = ??
       CODE:1df0 12 27 64        LCALL      FUN_CODE_2764                                              undefined FUN_CODE_2764()
       CODE:1df3 92 e1           MOV        ACC.1,CY                                                   = ??
       CODE:1df5 30 d0 f1        JNB        P,LAB_CODE_1de9                                            = ??
       CODE:1df8 20 e0 e4        JB         ACC.0,LAB_CODE_1ddf                                        = ??
       CODE:1dfb 80 e7           SJMP       LAB_CODE_1de4
                             LAB_CODE_1dfd                                   XREF[1]:     CODE:1da6(j)  
       CODE:1dfd 12 27 64        LCALL      FUN_CODE_2764                                              undefined FUN_CODE_2764()
       CODE:1e00 40 d8           JC         LAB_CODE_1dda
       CODE:1e02 12 27 60        LCALL      FUN_CODE_2760                                              undefined FUN_CODE_2760()
       CODE:1e05 50 d3           JNC        LAB_CODE_1dda
       CODE:1e07 d2 08           SETB       21.0                                                       = ??
       CODE:1e09 05 35           INC        DAT_INTMEM_35                                              = ??
       CODE:1e0b 43 35 80        ORL        DAT_INTMEM_35,#0x80                                        = ??
       CODE:1e0e 80 c0           SJMP       LAB_CODE_1dd0
                             LAB_CODE_1e10                                   XREF[1]:     CODE:1da9(j)  
       CODE:1e10 12 27 60        LCALL      FUN_CODE_2760                                              undefined FUN_CODE_2760()
       CODE:1e13 40 c5           JC         LAB_CODE_1dda
       CODE:1e15 12 27 64        LCALL      FUN_CODE_2764                                              undefined FUN_CODE_2764()
       CODE:1e18 50 c0           JNC        LAB_CODE_1dda
       CODE:1e1a 85 5c f0        MOV        B,DAT_INTMEM_5c                                            = ??
       CODE:1e1d 30 f5 22        JNB        B.5,LAB_CODE_1e42                                          = ??
       CODE:1e20 12 27 68        LCALL      FUN_CODE_2768                                              undefined FUN_CODE_2768()
       CODE:1e23 50 1d           JNC        LAB_CODE_1e42
       CODE:1e25 d2 4b           SETB       29.3                                                       = ??
       CODE:1e27 e5 5e           MOV        A,DAT_INTMEM_5e                                            = ??
       CODE:1e29 54 f0           ANL        A,#0xf0
       CODE:1e2b 70 05           JNZ        LAB_CODE_1e32
       CODE:1e2d 43 5e 10        ORL        DAT_INTMEM_5e,#0x10                                        = ??
       CODE:1e30 80 9e           SJMP       LAB_CODE_1dd0
                             LAB_CODE_1e32                                   XREF[1]:     CODE:1e2b(j)  
       CODE:1e32 20 e6 08        JB         ACC.6,LAB_CODE_1e3d                                        = ??
       CODE:1e35 e5 5e           MOV        A,DAT_INTMEM_5e                                            = ??
       CODE:1e37 24 10           ADD        A,#0x10
       CODE:1e39 f5 5e           MOV        DAT_INTMEM_5e,A                                            = ??
       CODE:1e3b 80 93           SJMP       LAB_CODE_1dd0
                             LAB_CODE_1e3d                                   XREF[1]:     CODE:1e32(j)  
       CODE:1e3d 53 5e 0f        ANL        DAT_INTMEM_5e,#0xf                                         = ??
       CODE:1e40 80 8e           SJMP       LAB_CODE_1dd0
                             LAB_CODE_1e42                                   XREF[2]:     CODE:1e1d(j), CODE:1e23(j)  
       CODE:1e42 85 59 34        MOV        DAT_INTMEM_34,DAT_INTMEM_59                                = ??
       CODE:1e45 80 89           SJMP       LAB_CODE_1dd0
                             **************************************************************
                             *                          FUNCTION                          *
                             **************************************************************
                             undefined FUN_CODE_1e47()
             undefined         ACC:1          <RETURN>
                             FUN_CODE_1e47                                   XREF[1]:     FUN_CODE_07e3:0839(c)  
       CODE:1e47 30 17 05        JNB        22.7,LAB_CODE_1e4f                                         = ??
       CODE:1e4a 12 25 21        LCALL      FUN_CODE_2521                                              undefined FUN_CODE_2521()
       CODE:1e4d 50 3c           JNC        LAB_CODE_1e8b
                             LAB_CODE_1e4f                                   XREF[1]:     CODE:1e47(j)  
       CODE:1e4f 30 18 05        JNB        23.0,LAB_CODE_1e57                                         = ??
       CODE:1e52 12 25 38        LCALL      FUN_CODE_2538                                              undefined FUN_CODE_2538()
       CODE:1e55 50 41           JNC        LAB_CODE_1e98
                             LAB_CODE_1e57                                   XREF[1]:     CODE:1e4f(j)  
       CODE:1e57 30 19 05        JNB        23.1,LAB_CODE_1e5f                                         = ??
       CODE:1e5a 12 25 49        LCALL      FUN_CODE_2549                                              undefined FUN_CODE_2549()
       CODE:1e5d 50 46           JNC        LAB_CODE_1ea5
                             LAB_CODE_1e5f                                   XREF[1]:     CODE:1e57(j)  
       CODE:1e5f 30 1a 05        JNB        23.2,LAB_CODE_1e67                                         = ??
       CODE:1e62 12 25 5a        LCALL      FUN_CODE_255a                                              undefined FUN_CODE_255a()
       CODE:1e65 50 4b           JNC        LAB_CODE_1eb2
                             LAB_CODE_1e67                                   XREF[1]:     CODE:1e5f(j)  
       CODE:1e67 30 1b 05        JNB        23.3,LAB_CODE_1e6f                                         = ??
       CODE:1e6a 12 00 3f        LCALL      FUN_CODE_003f                                              undefined FUN_CODE_003f()
       CODE:1e6d 50 50           JNC        LAB_CODE_1ebf
                             LAB_CODE_1e6f                                   XREF[1]:     CODE:1e67(j)  
       CODE:1e6f 30 1c 05        JNB        23.4,LAB_CODE_1e77                                         = ??
       CODE:1e72 12 25 6b        LCALL      FUN_CODE_256b                                              undefined FUN_CODE_256b()
       CODE:1e75 50 55           JNC        LAB_CODE_1ecc
                             LAB_CODE_1e77                                   XREF[1]:     CODE:1e6f(j)  
       CODE:1e77 20 12 04        JB         22.2,LAB_CODE_1e7e                                         = ??
       CODE:1e7a c2 1d           CLR        23.5                                                       = ??
       CODE:1e7c 80 0c           SJMP       LAB_CODE_1e8a
                             LAB_CODE_1e7e                                   XREF[1]:     CODE:1e77(j)  
       CODE:1e7e 20 1d 09        JB         23.5,LAB_CODE_1e8a                                         = ??
       CODE:1e81 12 00 7a        LCALL      FUN_CODE_007a                                              undefined FUN_CODE_007a()
       CODE:1e84 50 04           JNC        LAB_CODE_1e8a
       CODE:1e86 d2 1d           SETB       23.5                                                       = ??
       CODE:1e88 d2 4c           SETB       29.4                                                       = ??
                             LAB_CODE_1e8a                                   XREF[3]:     CODE:1e7c(j), CODE:1e7e(j), 
                                                                                          CODE:1e84(j)  
       CODE:1e8a 22              RET
                             LAB_CODE_1e8b                                   XREF[1]:     CODE:1e4d(j)  
       CODE:1e8b d2 1e           SETB       23.6                                                       = ??
       CODE:1e8d 75 55 01        MOV        DAT_INTMEM_55,#0x1                                         = ??
       CODE:1e90 75 56 01        MOV        DAT_INTMEM_56,#0x1                                         = ??
       CODE:1e93 d2 49           SETB       29.1                                                       = ??
       CODE:1e95 d2 35           SETB       26.5                                                       = ??
       CODE:1e97 22              RET
                             LAB_CODE_1e98                                   XREF[1]:     CODE:1e55(j)  
       CODE:1e98 d2 1e           SETB       23.6                                                       = ??
       CODE:1e9a 75 55 0d        MOV        DAT_INTMEM_55,#0xd                                         = ??
       CODE:1e9d 75 56 0d        MOV        DAT_INTMEM_56,#0xd                                         = ??
       CODE:1ea0 d2 49           SETB       29.1                                                       = ??
       CODE:1ea2 d2 35           SETB       26.5                                                       = ??
       CODE:1ea4 22              RET
                             LAB_CODE_1ea5                                   XREF[1]:     CODE:1e5d(j)  
       CODE:1ea5 d2 1e           SETB       23.6                                                       = ??
       CODE:1ea7 75 55 03        MOV        DAT_INTMEM_55,#0x3                                         = ??
       CODE:1eaa 75 56 03        MOV        DAT_INTMEM_56,#0x3                                         = ??
       CODE:1ead d2 49           SETB       29.1                                                       = ??
       CODE:1eaf d2 35           SETB       26.5                                                       = ??
       CODE:1eb1 22              RET
                             LAB_CODE_1eb2                                   XREF[1]:     CODE:1e65(j)  
       CODE:1eb2 d2 1e           SETB       23.6                                                       = ??
       CODE:1eb4 75 55 0f        MOV        DAT_INTMEM_55,#0xf                                         = ??
       CODE:1eb7 75 56 0f        MOV        DAT_INTMEM_56,#0xf                                         = ??
       CODE:1eba d2 49           SETB       29.1                                                       = ??
       CODE:1ebc d2 35           SETB       26.5                                                       = ??
       CODE:1ebe 22              RET
                             LAB_CODE_1ebf                                   XREF[1]:     CODE:1e6d(j)  
       CODE:1ebf d2 1e           SETB       23.6                                                       = ??
       CODE:1ec1 75 55 02        MOV        DAT_INTMEM_55,#0x2                                         = ??
       CODE:1ec4 75 56 02        MOV        DAT_INTMEM_56,#0x2                                         = ??
       CODE:1ec7 d2 49           SETB       29.1                                                       = ??
       CODE:1ec9 d2 35           SETB       26.5                                                       = ??
       CODE:1ecb 22              RET
                             LAB_CODE_1ecc                                   XREF[1]:     CODE:1e75(j)  
       CODE:1ecc d2 1e           SETB       23.6                                                       = ??
       CODE:1ece 75 55 0b        MOV        DAT_INTMEM_55,#0xb                                         = ??
       CODE:1ed1 75 56 0b        MOV        DAT_INTMEM_56,#0xb                                         = ??
       CODE:1ed4 d2 49           SETB       29.1                                                       = ??
       CODE:1ed6 d2 35           SETB       26.5                                                       = ??
       CODE:1ed8 22              RET
                             LAB_CODE_1ed9                                   XREF[3]:     CODE:1ef1(j), CODE:1ef9(j), 
                                                                                          CODE:1f10(j)  
       CODE:1ed9 78 a9           MOV        R0,#0xa9
       CODE:1edb 76 00           MOV        @R0=>DAT_INTMEM_a9,#0x0                                    = ??
       CODE:1edd 22              RET
                             LAB_CODE_1ede                                   XREF[2]:     CODE:1efc(j), CODE:1f01(j)  
       CODE:1ede 78 a9           MOV        R0,#0xa9
       CODE:1ee0 76 01           MOV        @R0=>DAT_INTMEM_a9,#0x1                                    = ??
       CODE:1ee2 22              RET
                             LAB_CODE_1ee3                                   XREF[3]:     CODE:1eef(j), CODE:1f09(j), 
                                                                                          CODE:1f0e(j)  
       CODE:1ee3 78 a9           MOV        R0,#0xa9
       CODE:1ee5 76 02           MOV        @R0=>DAT_INTMEM_a9,#0x2                                    = ??
       CODE:1ee7 22              RET
       CODE:1ee8 22              ??         22h    "
                             LAB_CODE_1ee9                                   XREF[1]:     CODE:1f1b(j)  
       CODE:1ee9 12 25 b4        LCALL      FUN_CODE_25b4                                              undefined FUN_CODE_25b4()
       CODE:1eec 12 0d e8        LCALL      FUN_CODE_0de8                                              undefined FUN_CODE_0de8()
       CODE:1eef 40 f2           JC         LAB_CODE_1ee3
       CODE:1ef1 30 37 e5        JNB        26.7,LAB_CODE_1ed9                                         = ??
       CODE:1ef4 c2 38           CLR        27.0                                                       = ??
       CODE:1ef6 12 08 d0        LCALL      FUN_CODE_08d0                                              undefined FUN_CODE_08d0()
       CODE:1ef9 30 37 dd        JNB        26.7,LAB_CODE_1ed9                                         = ??
       CODE:1efc 20 38 df        JB         27.0,LAB_CODE_1ede                                         = ??
       CODE:1eff 80 03           SJMP       LAB_CODE_1f04
                             LAB_CODE_1f01                                   XREF[1]:     CODE:1f1e(j)  
       CODE:1f01 20 38 da        JB         27.0,LAB_CODE_1ede                                         = ??
                             LAB_CODE_1f04                                   XREF[1]:     CODE:1eff(j)  
       CODE:1f04 12 25 d2        LCALL      FUN_CODE_25d2                                              undefined FUN_CODE_25d2()
       CODE:1f07 c2 37           CLR        26.7                                                       = ??
       CODE:1f09 80 d8           SJMP       LAB_CODE_1ee3
                             LAB_CODE_1f0b                                   XREF[1]:     CODE:1f21(j)  
       CODE:1f0b 12 25 d6        LCALL      FUN_CODE_25d6                                              undefined FUN_CODE_25d6()
       CODE:1f0e 50 d3           JNC        LAB_CODE_1ee3
       CODE:1f10 80 c7           SJMP       LAB_CODE_1ed9
                             **************************************************************
                             *                          FUNCTION                          *
                             **************************************************************
                             undefined FUN_CODE_1f12()
             undefined         ACC:1          <RETURN>
                             FUN_CODE_1f12                                   XREF[1]:     FUN_CODE_07e3:0872(c)  
       CODE:1f12 78 a9           MOV        R0,#0xa9
       CODE:1f14 e6              MOV        A,@R0=>DAT_INTMEM_a9                                       = ??
       CODE:1f15 26              ADD        A,@R0=>DAT_INTMEM_a9                                       = ??
       CODE:1f16 26              ADD        A,@R0=>DAT_INTMEM_a9                                       = ??
       CODE:1f17 90 1f 1b        MOV        DPTR,#LAB_CODE_1f1b
       CODE:1f1a 73              JMP        @A+DPTR
                             LAB_CODE_1f1b                                   XREF[1]:     FUN_CODE_1f12:1f17(*)  
       CODE:1f1b 02 1e e9        LJMP       LAB_CODE_1ee9
       CODE:1f1e 02 1f 01        LJMP       LAB_CODE_1f01
       CODE:1f21 02 1f 0b        LJMP       LAB_CODE_1f0b
                             **************************************************************
                             *                          FUNCTION                          *
                             **************************************************************
                             undefined FUN_CODE_1f24()
             undefined         ACC:1          <RETURN>
                             FUN_CODE_1f24                                   XREF[1]:     FUN_CODE_07e3:085a(c)  
       CODE:1f24 12 24 80        LCALL      FUN_CODE_2480                                              undefined FUN_CODE_2480()
       CODE:1f27 78 7f           MOV        R0,#0x7f
       CODE:1f29 e6              MOV        A,@R0=>DAT_INTMEM_7f                                       = ??
       CODE:1f2a 26              ADD        A,@R0=>DAT_INTMEM_7f                                       = ??
       CODE:1f2b 26              ADD        A,@R0=>DAT_INTMEM_7f                                       = ??
       CODE:1f2c 90 1f 30        MOV        DPTR,#LAB_CODE_1f30
       CODE:1f2f 73              JMP        @A+DPTR
                             LAB_CODE_1f30                                   XREF[1]:     FUN_CODE_1f24:1f2c(*)  
       CODE:1f30 02 1f ed        LJMP       LAB_CODE_1fed
       CODE:1f33 02 1f 45        LJMP       LAB_CODE_1f45
       CODE:1f36 02 20 81        LJMP       LAB_CODE_2081
       CODE:1f39 02 1f f5        LJMP       LAB_CODE_1ff5
       CODE:1f3c 02 20 91        LJMP       LAB_CODE_2091
       CODE:1f3f 02 21 4d        LJMP       LAB_CODE_214d
       CODE:1f42 02 1f e0        LJMP       LAB_CODE_1fe0
                             LAB_CODE_1f45                                   XREF[1]:     CODE:1f33(j)  
       CODE:1f45 d2 21           SETB       24.1                                                       = ??
       CODE:1f47 75 38 62        MOV        DAT_INTMEM_38,#0x62                                        = ??
       CODE:1f4a 20 03 28        JB         20.3,LAB_CODE_1f75                                         = ??
       CODE:1f4d 20 09 2a        JB         21.1,LAB_CODE_1f7a                                         = ??
       CODE:1f50 20 25 2f        JB         24.5,LAB_CODE_1f82                                         = ??
       CODE:1f53 20 08 34        JB         21.0,LAB_CODE_1f8a                                         = ??
       CODE:1f56 20 22 36        JB         24.2,LAB_CODE_1f8f                                         = ??
       CODE:1f59 20 23 38        JB         24.3,LAB_CODE_1f94                                         = ??
       CODE:1f5c 20 24 3a        JB         24.4,LAB_CODE_1f99                                         = ??
       CODE:1f5f 20 0a 3c        JB         21.2,LAB_CODE_1f9e                                         = ??
       CODE:1f62 20 4f 3e        JB         29.7,LAB_CODE_1fa3                                         = ??
       CODE:1f65 12 2e 9a        LCALL      FUN_CODE_2e9a                                              undefined FUN_CODE_2e9a()
       CODE:1f68 70 3e           JNZ        LAB_CODE_1fa8
       CODE:1f6a 20 5c 05        JB         2b.4,LAB_CODE_1f72                                         = ??
       CODE:1f6d 12 2e 9d        LCALL      FUN_CODE_2e9d                                              undefined FUN_CODE_2e9d()
       CODE:1f70 40 3a           JC         LAB_CODE_1fac
                             LAB_CODE_1f72                                   XREF[1]:     CODE:1f6a(j)  
       CODE:1f72 02 20 80        LJMP       LAB_CODE_2080
                             LAB_CODE_1f75                                   XREF[1]:     CODE:1f4a(j)  
       CODE:1f75 75 5f 30        MOV        DAT_INTMEM_5f,#0x30                                        = ??
       CODE:1f78 80 3b           SJMP       LAB_CODE_1fb5
                             LAB_CODE_1f7a                                   XREF[1]:     CODE:1f4d(j)  
       CODE:1f7a 75 38 60        MOV        DAT_INTMEM_38,#0x60                                        = ??
       CODE:1f7d 75 5f 12        MOV        DAT_INTMEM_5f,#0x12                                        = ??
       CODE:1f80 80 33           SJMP       LAB_CODE_1fb5
                             LAB_CODE_1f82                                   XREF[1]:     CODE:1f50(j)  
       CODE:1f82 75 38 60        MOV        DAT_INTMEM_38,#0x60                                        = ??
       CODE:1f85 75 5f 21        MOV        DAT_INTMEM_5f,#0x21                                        = ??
       CODE:1f88 80 2b           SJMP       LAB_CODE_1fb5
                             LAB_CODE_1f8a                                   XREF[1]:     CODE:1f53(j)  
       CODE:1f8a 75 5f 11        MOV        DAT_INTMEM_5f,#0x11                                        = ??
       CODE:1f8d 80 26           SJMP       LAB_CODE_1fb5
                             LAB_CODE_1f8f                                   XREF[1]:     CODE:1f56(j)  
       CODE:1f8f 75 5f 20        MOV        DAT_INTMEM_5f,#0x20                                        = ??
       CODE:1f92 80 21           SJMP       LAB_CODE_1fb5
                             LAB_CODE_1f94                                   XREF[1]:     CODE:1f59(j)  
       CODE:1f94 75 5f 22        MOV        DAT_INTMEM_5f,#0x22                                        = ??
       CODE:1f97 80 1c           SJMP       LAB_CODE_1fb5
                             LAB_CODE_1f99                                   XREF[1]:     CODE:1f5c(j)  
       CODE:1f99 75 5f 24        MOV        DAT_INTMEM_5f,#0x24                                        = ??
       CODE:1f9c 80 17           SJMP       LAB_CODE_1fb5
                             LAB_CODE_1f9e                                   XREF[1]:     CODE:1f5f(j)  
       CODE:1f9e 75 5f 41        MOV        DAT_INTMEM_5f,#0x41                                        = ??
       CODE:1fa1 80 12           SJMP       LAB_CODE_1fb5
                             LAB_CODE_1fa3                                   XREF[1]:     CODE:1f62(j)  
       CODE:1fa3 75 5f 55        MOV        DAT_INTMEM_5f,#0x55                                        = ??
       CODE:1fa6 80 0d           SJMP       LAB_CODE_1fb5
                             LAB_CODE_1fa8                                   XREF[1]:     CODE:1f68(j)  
       CODE:1fa8 f5 5f           MOV        DAT_INTMEM_5f,A                                            = ??
       CODE:1faa 80 09           SJMP       LAB_CODE_1fb5
                             LAB_CODE_1fac                                   XREF[1]:     CODE:1f70(j)  
       CODE:1fac c2 5b           CLR        2b.3                                                       = ??
       CODE:1fae d2 48           SETB       29.0                                                       = ??
       CODE:1fb0 75 5f 15        MOV        DAT_INTMEM_5f,#0x15                                        = ??
       CODE:1fb3 c2 27           CLR        24.7                                                       = ??
                             LAB_CODE_1fb5                                   XREF[10]:    CODE:1f78(j), CODE:1f80(j), 
                                                                                          CODE:1f88(j), CODE:1f8d(j), 
                                                                                          CODE:1f92(j), CODE:1f97(j), 
                                                                                          CODE:1f9c(j), CODE:1fa1(j), 
                                                                                          CODE:1fa6(j), CODE:1faa(j)  
       CODE:1fb5 c2 03           CLR        20.3                                                       = ??
       CODE:1fb7 c2 09           CLR        21.1                                                       = ??
       CODE:1fb9 c2 25           CLR        24.5                                                       = ??
       CODE:1fbb c2 08           CLR        21.0                                                       = ??
       CODE:1fbd c2 22           CLR        24.2                                                       = ??
       CODE:1fbf c2 23           CLR        24.3                                                       = ??
       CODE:1fc1 c2 0a           CLR        21.2                                                       = ??
       CODE:1fc3 c2 0b           CLR        21.3                                                       = ??
       CODE:1fc5 c2 4f           CLR        29.7                                                       = ??
       CODE:1fc7 c2 21           CLR        24.1                                                       = ??
       CODE:1fc9 d2 02           SETB       20.2                                                       = ??
       CODE:1fcb 75 5c 80        MOV        DAT_INTMEM_5c,#0x80                                        = ??
       CODE:1fce d2 4a           SETB       29.2                                                       = ??
       CODE:1fd0 d2 4b           SETB       29.3                                                       = ??
       CODE:1fd2 20 1e 08        JB         23.6,LAB_CODE_1fdd                                         = ??
       CODE:1fd5 d2 0d           SETB       21.5                                                       = ??
       CODE:1fd7 75 3a aa        MOV        DAT_INTMEM_3a,#0xaa                                        = ??
       CODE:1fda 02 20 67        LJMP       LAB_CODE_2067
                             LAB_CODE_1fdd                                   XREF[1]:     CODE:1fd2(j)  
       CODE:1fdd 02 21 58        LJMP       LAB_CODE_2158
                             LAB_CODE_1fe0                                   XREF[1]:     CODE:1f42(j)  
       CODE:1fe0 20 10 2a        JB         22.0,LAB_CODE_200d                                         = ??
       CODE:1fe3 12 08 a2        LCALL      FUN_CODE_08a2                                              undefined FUN_CODE_08a2()
       CODE:1fe6 d2 0c           SETB       21.4                                                       = ??
       CODE:1fe8 75 3a 80        MOV        DAT_INTMEM_3a,#0x80                                        = ??
       CODE:1feb 80 70           SJMP       LAB_CODE_205d
                             LAB_CODE_1fed                                   XREF[1]:     CODE:1f30(j)  
       CODE:1fed 20 0c 1d        JB         21.4,LAB_CODE_200d                                         = ??
       CODE:1ff0 75 3a 80        MOV        DAT_INTMEM_3a,#0x80                                        = ??
       CODE:1ff3 80 6d           SJMP       LAB_CODE_2062
                             LAB_CODE_1ff5                                   XREF[1]:     CODE:1f39(j)  
       CODE:1ff5 20 1e 62        JB         23.6,LAB_CODE_205a                                         = ??
       CODE:1ff8 20 1f 5f        JB         23.7,LAB_CODE_205a                                         = ??
       CODE:1ffb 30 0e 50        JNB        21.6,LAB_CODE_204e                                         = ??
       CODE:1ffe 20 09 0e        JB         21.1,LAB_CODE_200f                                         = ??
       CODE:2001 20 25 25        JB         24.5,LAB_CODE_2029                                         = ??
       CODE:2004 20 12 06        JB         22.2,LAB_CODE_200d                                         = ??
       CODE:2007 20 08 39        JB         21.0,LAB_CODE_2043                                         = ??
       CODE:200a 20 22 36        JB         24.2,LAB_CODE_2043                                         = ??
                             LAB_CODE_200d                                   XREF[3]:     CODE:1fe0(j), CODE:1fed(j), 
                                                                                          CODE:2004(j)  
       CODE:200d 80 71           SJMP       LAB_CODE_2080
                             LAB_CODE_200f                                   XREF[1]:     CODE:1ffe(j)  
       CODE:200f c2 09           CLR        21.1                                                       = ??
       CODE:2011 e5 38           MOV        A,DAT_INTMEM_38                                            = ??
       CODE:2013 75 38 60        MOV        DAT_INTMEM_38,#0x60                                        = ??
       CODE:2016 b4 60 05        CJNE       A,#0x60,LAB_CODE_201e
       CODE:2019 75 38 62        MOV        DAT_INTMEM_38,#0x62                                        = ??
       CODE:201c 80 09           SJMP       LAB_CODE_2027
                             LAB_CODE_201e                                   XREF[1]:     CODE:2016(j)  
       CODE:201e b4 65 06        CJNE       A,#0x65,LAB_CODE_2027
       CODE:2021 20 2a 03        JB         25.2,LAB_CODE_2027                                         = ??
       CODE:2024 75 38 62        MOV        DAT_INTMEM_38,#0x62                                        = ??
                             LAB_CODE_2027                                   XREF[3]:     CODE:201c(j), CODE:201e(j), 
                                                                                          CODE:2021(j)  
       CODE:2027 80 57           SJMP       LAB_CODE_2080
                             LAB_CODE_2029                                   XREF[1]:     CODE:2001(j)  
       CODE:2029 c2 25           CLR        24.5                                                       = ??
       CODE:202b e5 38           MOV        A,DAT_INTMEM_38                                            = ??
       CODE:202d 75 38 60        MOV        DAT_INTMEM_38,#0x60                                        = ??
       CODE:2030 b4 60 05        CJNE       A,#0x60,LAB_CODE_2038
       CODE:2033 75 38 62        MOV        DAT_INTMEM_38,#0x62                                        = ??
       CODE:2036 80 09           SJMP       LAB_CODE_2041
                             LAB_CODE_2038                                   XREF[1]:     CODE:2030(j)  
       CODE:2038 b4 65 06        CJNE       A,#0x65,LAB_CODE_2041
       CODE:203b 20 2a 03        JB         25.2,LAB_CODE_2041                                         = ??
       CODE:203e 75 38 62        MOV        DAT_INTMEM_38,#0x62                                        = ??
                             LAB_CODE_2041                                   XREF[3]:     CODE:2036(j), CODE:2038(j), 
                                                                                          CODE:203b(j)  
       CODE:2041 80 3d           SJMP       LAB_CODE_2080
                             LAB_CODE_2043                                   XREF[2]:     CODE:2007(j), CODE:200a(j)  
       CODE:2043 c2 0d           CLR        21.5                                                       = ??
       CODE:2045 c2 10           CLR        22.0                                                       = ??
       CODE:2047 c2 0e           CLR        21.6                                                       = ??
       CODE:2049 c2 0f           CLR        21.7                                                       = ??
       CODE:204b 02 21 08        LJMP       LAB_CODE_2108
                             LAB_CODE_204e                                   XREF[1]:     CODE:1ffb(j)  
       CODE:204e d2 39           SETB       27.1                                                       = ??
       CODE:2050 d2 41           SETB       28.1                                                       = ??
       CODE:2052 75 3b 00        MOV        DAT_INTMEM_3b,#0x0                                         = ??
       CODE:2055 75 3a fe        MOV        DAT_INTMEM_3a,#0xfe                                        = ??
       CODE:2058 80 17           SJMP       LAB_CODE_2071
                             LAB_CODE_205a                                   XREF[6]:     CODE:1ff5(j), CODE:1ff8(j), 
                                                                                          CODE:2081(j), CODE:2084(j), 
                                                                                          CODE:2091(j), CODE:2094(j)  
       CODE:205a 02 21 58        LJMP       LAB_CODE_2158
                             LAB_CODE_205d                                   XREF[1]:     CODE:1feb(j)  
       CODE:205d 78 7f           MOV        R0,#0x7f
       CODE:205f 76 00           MOV        @R0=>DAT_INTMEM_7f,#0x0                                    = ??
       CODE:2061 22              RET
                             LAB_CODE_2062                                   XREF[1]:     CODE:1ff3(j)  
       CODE:2062 78 7f           MOV        R0,#0x7f
       CODE:2064 76 01           MOV        @R0=>DAT_INTMEM_7f,#0x1                                    = ??
       CODE:2066 22              RET
                             LAB_CODE_2067                                   XREF[1]:     CODE:1fda(j)  
       CODE:2067 78 7f           MOV        R0,#0x7f
       CODE:2069 76 02           MOV        @R0=>DAT_INTMEM_7f,#0x2                                    = ??
       CODE:206b 22              RET
                             LAB_CODE_206c                                   XREF[2]:     CODE:208f(j), CODE:214a(j)  
       CODE:206c 78 7f           MOV        R0,#0x7f
       CODE:206e 76 03           MOV        @R0=>DAT_INTMEM_7f,#0x3                                    = ??
       CODE:2070 22              RET
                             LAB_CODE_2071                                   XREF[1]:     CODE:2058(j)  
       CODE:2071 78 7f           MOV        R0,#0x7f
       CODE:2073 76 04           MOV        @R0=>DAT_INTMEM_7f,#0x4                                    = ??
       CODE:2075 22              RET
                             LAB_CODE_2076                                   XREF[1]:     CODE:2117(j)  
       CODE:2076 78 7f           MOV        R0,#0x7f
       CODE:2078 76 05           MOV        @R0=>DAT_INTMEM_7f,#0x5                                    = ??
       CODE:207a 22              RET
                             LAB_CODE_207b                                   XREF[1]:     CODE:2152(j)  
       CODE:207b 78 7f           MOV        R0,#0x7f
       CODE:207d 76 06           MOV        @R0=>DAT_INTMEM_7f,#0x6                                    = ??
       CODE:207f 22              RET
                             LAB_CODE_2080                                   XREF[12]:    CODE:1f72(j), CODE:200d(j), 
                                                                                          CODE:2027(j), CODE:2041(j), 
                                                                                          CODE:2087(j), CODE:20bf(j), 
                                                                                          CODE:20c1(j), CODE:20ce(j), 
                                                                                          CODE:20d0(j), CODE:20e8(j), 
                                                                                          CODE:2100(j), CODE:2155(j)  
       CODE:2080 22              RET
                             LAB_CODE_2081                                   XREF[1]:     CODE:1f36(j)  
       CODE:2081 20 1e d6        JB         23.6,LAB_CODE_205a                                         = ??
       CODE:2084 20 1f d3        JB         23.7,LAB_CODE_205a                                         = ??
       CODE:2087 20 0d f6        JB         21.5,LAB_CODE_2080                                         = ??
       CODE:208a d2 0e           SETB       21.6                                                       = ??
       CODE:208c 75 3c 00        MOV        DAT_INTMEM_3c,#0x0                                         = ??
       CODE:208f 80 db           SJMP       LAB_CODE_206c
                             LAB_CODE_2091                                   XREF[1]:     CODE:1f3c(j)  
       CODE:2091 20 1e c6        JB         23.6,LAB_CODE_205a                                         = ??
       CODE:2094 20 1f c3        JB         23.7,LAB_CODE_205a                                         = ??
       CODE:2097 e5 3b           MOV        A,DAT_INTMEM_3b                                            = ??
       CODE:2099 70 26           JNZ        LAB_CODE_20c1
       CODE:209b 20 04 6a        JB         20.4,LAB_CODE_2108                                         = ??
       CODE:209e 20 03 67        JB         20.3,LAB_CODE_2108                                         = ??
       CODE:20a1 20 14 22        JB         22.4,LAB_CODE_20c6                                         = ??
       CODE:20a4 20 08 1f        JB         21.0,LAB_CODE_20c6                                         = ??
       CODE:20a7 20 22 1c        JB         24.2,LAB_CODE_20c6                                         = ??
       CODE:20aa 20 0b 19        JB         21.3,LAB_CODE_20c6                                         = ??
       CODE:20ad 30 5c 05        JNB        2b.4,LAB_CODE_20b5                                         = ??
       CODE:20b0 12 2e 9d        LCALL      FUN_CODE_2e9d                                              undefined FUN_CODE_2e9d()
       CODE:20b3 40 65           JC         LAB_CODE_211a
                             LAB_CODE_20b5                                   XREF[1]:     CODE:20ad(j)  
       CODE:20b5 e5 62           MOV        A,DAT_INTMEM_62                                            = ??
       CODE:20b7 70 17           JNZ        LAB_CODE_20d0
       CODE:20b9 20 09 19        JB         21.1,LAB_CODE_20d5                                         = ??
       CODE:20bc 20 25 1a        JB         24.5,LAB_CODE_20d9                                         = ??
       CODE:20bf 80 bf           SJMP       LAB_CODE_2080
                             LAB_CODE_20c1                                   XREF[1]:     CODE:2099(j)  
       CODE:20c1 d5 3b bc        DJNZ       DAT_INTMEM_3b,LAB_CODE_2080                                = ??
       CODE:20c4 80 3d           SJMP       LAB_CODE_2103
                             LAB_CODE_20c6                                   XREF[4]:     CODE:20a1(j), CODE:20a4(j), 
                                                                                          CODE:20a7(j), CODE:20aa(j)  
       CODE:20c6 30 13 3a        JNB        22.3,LAB_CODE_2103                                         = ??
       CODE:20c9 d2 3c           SETB       27.4                                                       = ??
       CODE:20cb 75 3b 0d        MOV        DAT_INTMEM_3b,#0xd                                         = ??
       CODE:20ce 80 b0           SJMP       LAB_CODE_2080
                             LAB_CODE_20d0                                   XREF[1]:     CODE:20b7(j)  
       CODE:20d0 d5 62 ad        DJNZ       DAT_INTMEM_62,LAB_CODE_2080                                = ??
       CODE:20d3 80 15           SJMP       LAB_CODE_20ea
                             LAB_CODE_20d5                                   XREF[1]:     CODE:20b9(j)  
       CODE:20d5 c2 09           CLR        21.1                                                       = ??
       CODE:20d7 80 02           SJMP       LAB_CODE_20db
                             LAB_CODE_20d9                                   XREF[1]:     CODE:20bc(j)  
       CODE:20d9 c2 25           CLR        24.5                                                       = ??
                             LAB_CODE_20db                                   XREF[1]:     CODE:20d7(j)  
       CODE:20db 30 13 0c        JNB        22.3,LAB_CODE_20ea                                         = ??
       CODE:20de e5 37           MOV        A,DAT_INTMEM_37                                            = ??
       CODE:20e0 b4 62 07        CJNE       A,#0x62,LAB_CODE_20ea
       CODE:20e3 d2 40           SETB       28.0                                                       = ??
       CODE:20e5 75 62 02        MOV        DAT_INTMEM_62,#0x2                                         = ??
       CODE:20e8 80 96           SJMP       LAB_CODE_2080
                             LAB_CODE_20ea                                   XREF[3]:     CODE:20d3(j), CODE:20db(j), 
                                                                                          CODE:20e0(j)  
       CODE:20ea e5 38           MOV        A,DAT_INTMEM_38                                            = ??
       CODE:20ec 75 38 60        MOV        DAT_INTMEM_38,#0x60                                        = ??
       CODE:20ef b4 60 05        CJNE       A,#0x60,LAB_CODE_20f7
       CODE:20f2 75 38 62        MOV        DAT_INTMEM_38,#0x62                                        = ??
       CODE:20f5 80 09           SJMP       LAB_CODE_2100
                             LAB_CODE_20f7                                   XREF[1]:     CODE:20ef(j)  
       CODE:20f7 b4 65 06        CJNE       A,#0x65,LAB_CODE_2100
       CODE:20fa 20 2a 03        JB         25.2,LAB_CODE_2100                                         = ??
       CODE:20fd 75 38 62        MOV        DAT_INTMEM_38,#0x62                                        = ??
                             LAB_CODE_2100                                   XREF[3]:     CODE:20f5(j), CODE:20f7(j), 
                                                                                          CODE:20fa(j)  
       CODE:2100 02 20 80        LJMP       LAB_CODE_2080
                             LAB_CODE_2103                                   XREF[2]:     CODE:20c4(j), CODE:20c6(j)  
       CODE:2103 20 14 23        JB         22.4,LAB_CODE_2129                                         = ??
       CODE:2106 80 00           SJMP       LAB_CODE_2108
                             LAB_CODE_2108                                   XREF[4]:     CODE:204b(j), CODE:209b(j), 
                                                                                          CODE:209e(j), CODE:2106(j)  
       CODE:2108 75 5c 00        MOV        DAT_INTMEM_5c,#0x0                                         = ??
       CODE:210b d2 4a           SETB       29.2                                                       = ??
       CODE:210d 75 38 62        MOV        DAT_INTMEM_38,#0x62                                        = ??
                             LAB_CODE_2110                                   XREF[1]:     CODE:217a(j)  
       CODE:2110 d2 02           SETB       20.2                                                       = ??
       CODE:2112 d2 0f           SETB       21.7                                                       = ??
       CODE:2114 75 3a aa        MOV        DAT_INTMEM_3a,#0xaa                                        = ??
       CODE:2117 02 20 76        LJMP       LAB_CODE_2076
                             LAB_CODE_211a                                   XREF[1]:     CODE:20b3(j)  
       CODE:211a c2 5b           CLR        2b.3                                                       = ??
       CODE:211c 75 63 00        MOV        DAT_INTMEM_63,#0x0                                         = ??
       CODE:211f 75 64 00        MOV        DAT_INTMEM_64,#0x0                                         = ??
       CODE:2122 75 5f 16        MOV        DAT_INTMEM_5f,#0x16                                        = ??
       CODE:2125 d2 14           SETB       22.4                                                       = ??
       CODE:2127 80 03           SJMP       LAB_CODE_212c
                             LAB_CODE_2129                                   XREF[1]:     CODE:2103(j)  
       CODE:2129 75 5f 31        MOV        DAT_INTMEM_5f,#0x31                                        = ??
                             LAB_CODE_212c                                   XREF[1]:     CODE:2127(j)  
       CODE:212c c2 51           CLR        2a.1                                                       = ??
       CODE:212e 20 16 03        JB         22.6,LAB_CODE_2134                                         = ??
       CODE:2131 53 5c f2        ANL        DAT_INTMEM_5c,#0xf2                                        = ??
                             LAB_CODE_2134                                   XREF[1]:     CODE:212e(j)  
       CODE:2134 c2 16           CLR        22.6                                                       = ??
       CODE:2136 53 5c df        ANL        DAT_INTMEM_5c,#0xdf                                        = ??
       CODE:2139 d2 4a           SETB       29.2                                                       = ??
       CODE:213b d2 4b           SETB       29.3                                                       = ??
       CODE:213d 30 15 02        JNB        22.5,LAB_CODE_2142                                         = ??
       CODE:2140 d2 4d           SETB       29.5                                                       = ??
                             LAB_CODE_2142                                   XREF[1]:     CODE:213d(j)  
       CODE:2142 d2 0e           SETB       21.6                                                       = ??
       CODE:2144 75 3c 00        MOV        DAT_INTMEM_3c,#0x0                                         = ??
       CODE:2147 75 3a aa        MOV        DAT_INTMEM_3a,#0xaa                                        = ??
       CODE:214a 02 20 6c        LJMP       LAB_CODE_206c
                             LAB_CODE_214d                                   XREF[1]:     CODE:1f3f(j)  
       CODE:214d 20 0f 05        JB         21.7,LAB_CODE_2155                                         = ??
       CODE:2150 d2 10           SETB       22.0                                                       = ??
       CODE:2152 02 20 7b        LJMP       LAB_CODE_207b
                             LAB_CODE_2155                                   XREF[1]:     CODE:214d(j)  
       CODE:2155 02 20 80        LJMP       LAB_CODE_2080
                             LAB_CODE_2158                                   XREF[2]:     CODE:1fdd(j), CODE:205a(j)  
       CODE:2158 c2 0d           CLR        21.5                                                       = ??
       CODE:215a c2 10           CLR        22.0                                                       = ??
       CODE:215c c2 0e           CLR        21.6                                                       = ??
       CODE:215e c2 0f           CLR        21.7                                                       = ??
       CODE:2160 30 1e 0d        JNB        23.6,LAB_CODE_2170                                         = ??
       CODE:2163 75 5e 07        MOV        DAT_INTMEM_5e,#0x7                                         = ??
       CODE:2166 e5 55           MOV        A,DAT_INTMEM_55                                            = ??
       CODE:2168 b4 01 08        CJNE       A,#0x1,LAB_CODE_2173
       CODE:216b 20 5a 05        JB         2b.2,LAB_CODE_2173                                         = ??
       CODE:216e 80 0a           SJMP       LAB_CODE_217a
                             LAB_CODE_2170                                   XREF[1]:     CODE:2160(j)  
       CODE:2170 75 5e 0b        MOV        DAT_INTMEM_5e,#0xb                                         = ??
                             LAB_CODE_2173                                   XREF[2]:     CODE:2168(j), CODE:216b(j)  
       CODE:2173 43 5c 20        ORL        DAT_INTMEM_5c,#0x20                                        = ??
       CODE:2176 d2 4b           SETB       29.3                                                       = ??
       CODE:2178 d2 4a           SETB       29.2                                                       = ??
                             LAB_CODE_217a                                   XREF[1]:     CODE:216e(j)  
       CODE:217a 80 94           SJMP       LAB_CODE_2110
                             **************************************************************
                             *                          FUNCTION                          *
                             **************************************************************
                             undefined FUN_CODE_217c()
             undefined         ACC:1          <RETURN>
                             FUN_CODE_217c                                   XREF[1]:     FUN_CODE_07e3:0851(c)  
       CODE:217c 30 17 17        JNB        22.7,LAB_CODE_2196                                         = ??
       CODE:217f 20 50 08        JB         2a.0,LAB_CODE_218a                                         = ??
       CODE:2182 d5 4b 05        DJNZ       DAT_INTMEM_4b,LAB_CODE_218a                                = ??
       CODE:2185 75 4b 10        MOV        DAT_INTMEM_4b,#0x10                                        = ??
       CODE:2188 d2 34           SETB       26.4                                                       = ??
                             LAB_CODE_218a                                   XREF[2]:     CODE:217f(j), CODE:2182(j)  
       CODE:218a 30 55 15        JNB        2a.5,LAB_CODE_21a2                                         = ??
       CODE:218d 30 56 12        JNB        2a.6,LAB_CODE_21a2                                         = ??
       CODE:2190 30 57 0f        JNB        2a.7,LAB_CODE_21a2                                         = ??
       CODE:2193 30 58 0c        JNB        2b.0,LAB_CODE_21a2                                         = ??
                             LAB_CODE_2196                                   XREF[1]:     CODE:217c(j)  
       CODE:2196 c2 55           CLR        2a.5                                                       = ??
       CODE:2198 c2 56           CLR        2a.6                                                       = ??
       CODE:219a c2 57           CLR        2a.7                                                       = ??
       CODE:219c c2 58           CLR        2b.0                                                       = ??
       CODE:219e 75 4c fa        MOV        DAT_INTMEM_4c,#0xfa                                        = ??
                             LAB_CODE_21a1                                   XREF[1]:     CODE:21a2(j)  
       CODE:21a1 22              RET
                             LAB_CODE_21a2                                   XREF[4]:     CODE:218a(j), CODE:218d(j), 
                                                                                          CODE:2190(j), CODE:2193(j)  
       CODE:21a2 d5 4c fc        DJNZ       DAT_INTMEM_4c,LAB_CODE_21a1                                = ??
       CODE:21a5 d2 1e           SETB       23.6                                                       = ??
       CODE:21a7 75 55 0c        MOV        DAT_INTMEM_55,#0xc                                         = ??
       CODE:21aa 75 56 0c        MOV        DAT_INTMEM_56,#0xc                                         = ??
       CODE:21ad d2 49           SETB       29.1                                                       = ??
       CODE:21af d2 35           SETB       26.5                                                       = ??
       CODE:21b1 22              RET
                             LAB_CODE_21b2                                   XREF[3]:     CODE:21cd(j), CODE:21d4(j), 
                                                                                          CODE:21ff(j)  
       CODE:21b2 78 80           MOV        R0,#0x80
       CODE:21b4 76 00           MOV        @R0=>DAT_INTMEM_80,#0x0                                    = ??
       CODE:21b6 22              RET
                             LAB_CODE_21b7                                   XREF[2]:     CODE:21cf(j), CODE:21d6(j)  
       CODE:21b7 78 80           MOV        R0,#0x80
       CODE:21b9 76 01           MOV        @R0=>DAT_INTMEM_80,#0x1                                    = ??
       CODE:21bb 22              RET
                             LAB_CODE_21bc                                   XREF[3]:     CODE:21e2(j), CODE:21ea(j), 
                                                                                          CODE:21f1(j)  
       CODE:21bc 78 80           MOV        R0,#0x80
       CODE:21be 76 02           MOV        @R0=>DAT_INTMEM_80,#0x2                                    = ??
       CODE:21c0 22              RET
                             LAB_CODE_21c1                                   XREF[2]:     CODE:21ec(j), CODE:21f3(j)  
       CODE:21c1 78 80           MOV        R0,#0x80
       CODE:21c3 76 03           MOV        @R0=>DAT_INTMEM_80,#0x3                                    = ??
       CODE:21c5 22              RET
       CODE:21c6 22              ??         22h    "
                             LAB_CODE_21c7                                   XREF[1]:     CODE:220a(j)  
       CODE:21c7 75 61 04        MOV        DAT_INTMEM_61,#0x4                                         = ??
       CODE:21ca 12 27 6c        LCALL      FUN_CODE_276c                                              undefined FUN_CODE_276c()
       CODE:21cd 50 e3           JNC        LAB_CODE_21b2
       CODE:21cf 80 e6           SJMP       LAB_CODE_21b7
                             LAB_CODE_21d1                                   XREF[1]:     CODE:220d(j)  
       CODE:21d1 12 27 6c        LCALL      FUN_CODE_276c                                              undefined FUN_CODE_276c()
       CODE:21d4 50 dc           JNC        LAB_CODE_21b2
       CODE:21d6 d5 61 de        DJNZ       DAT_INTMEM_61,LAB_CODE_21b7                                = ??
       CODE:21d9 75 34 00        MOV        DAT_INTMEM_34,#0x0                                         = ??
       CODE:21dc d2 05           SETB       20.5                                                       = ??
       CODE:21de d2 3b           SETB       27.3                                                       = ??
       CODE:21e0 d2 46           SETB       28.6                                                       = ??
       CODE:21e2 80 d8           SJMP       LAB_CODE_21bc
                             LAB_CODE_21e4                                   XREF[1]:     CODE:2210(j)  
       CODE:21e4 75 61 19        MOV        DAT_INTMEM_61,#0x19                                        = ??
       CODE:21e7 12 27 6c        LCALL      FUN_CODE_276c                                              undefined FUN_CODE_276c()
       CODE:21ea 40 d0           JC         LAB_CODE_21bc
       CODE:21ec 80 d3           SJMP       LAB_CODE_21c1
                             LAB_CODE_21ee                                   XREF[1]:     CODE:2213(j)  
       CODE:21ee 12 27 6c        LCALL      FUN_CODE_276c                                              undefined FUN_CODE_276c()
       CODE:21f1 40 c9           JC         LAB_CODE_21bc
       CODE:21f3 d5 61 cb        DJNZ       DAT_INTMEM_61,LAB_CODE_21c1                                = ??
       CODE:21f6 75 34 00        MOV        DAT_INTMEM_34,#0x0                                         = ??
       CODE:21f9 c2 05           CLR        20.5                                                       = ??
       CODE:21fb d2 3b           SETB       27.3                                                       = ??
       CODE:21fd d2 46           SETB       28.6                                                       = ??
       CODE:21ff 80 b1           SJMP       LAB_CODE_21b2
                             **************************************************************
                             *                          FUNCTION                          *
                             **************************************************************
                             undefined FUN_CODE_2201()
             undefined         ACC:1          <RETURN>
                             FUN_CODE_2201                                   XREF[1]:     FUN_CODE_07e3:0845(c)  
       CODE:2201 78 80           MOV        R0,#0x80
       CODE:2203 e6              MOV        A,@R0=>DAT_INTMEM_80                                       = ??
       CODE:2204 26              ADD        A,@R0=>DAT_INTMEM_80                                       = ??
       CODE:2205 26              ADD        A,@R0=>DAT_INTMEM_80                                       = ??
       CODE:2206 90 22 0a        MOV        DPTR,#LAB_CODE_220a
       CODE:2209 73              JMP        @A+DPTR
                             LAB_CODE_220a                                   XREF[1]:     FUN_CODE_2201:2206(*)  
       CODE:220a 02 21 c7        LJMP       LAB_CODE_21c7
       CODE:220d 02 21 d1        LJMP       LAB_CODE_21d1
       CODE:2210 02 21 e4        LJMP       LAB_CODE_21e4
       CODE:2213 02 21 ee        LJMP       LAB_CODE_21ee
                             LAB_CODE_2216                                   XREF[1]:     CODE:239d(j)  
       CODE:2216 30 27 10        JNB        24.7,LAB_CODE_2229                                         = ??
       CODE:2219 c2 27           CLR        24.7                                                       = ??
       CODE:221b e5 37           MOV        A,DAT_INTMEM_37                                            = ??
       CODE:221d b4 62 09        CJNE       A,#0x62,LAB_CODE_2229
       CODE:2220 75 36 04        MOV        DAT_INTMEM_36,#0x4                                         = ??
       CODE:2223 12 25 87        LCALL      FUN_CODE_2587                                              undefined FUN_CODE_2587()
       CODE:2226 02 22 b6        LJMP       LAB_CODE_22b6
                             LAB_CODE_2229                                   XREF[2]:     CODE:2216(j), CODE:221d(j)  
       CODE:2229 e5 38           MOV        A,DAT_INTMEM_38                                            = ??
       CODE:222b b4 65 03        CJNE       A,#0x65,LAB_CODE_2231
       CODE:222e 02 22 b1        LJMP       LAB_CODE_22b1
                             LAB_CODE_2231                                   XREF[1]:     CODE:222b(j)  
       CODE:2231 b5 37 1a        CJNE       A,DAT_INTMEM_37,LAB_CODE_224e                              = ??
       CODE:2234 12 25 79        LCALL      FUN_CODE_2579                                              undefined FUN_CODE_2579()
       CODE:2237 40 78           JC         LAB_CODE_22b1
       CODE:2239 e5 37           MOV        A,DAT_INTMEM_37                                            = ??
       CODE:223b b4 62 0d        CJNE       A,#0x62,LAB_CODE_224b
       CODE:223e 75 37 65        MOV        DAT_INTMEM_37,#0x65                                        = ??
       CODE:2241 12 23 b2        LCALL      FUN_CODE_23b2                                              undefined FUN_CODE_23b2()
       CODE:2244 75 38 65        MOV        DAT_INTMEM_38,#0x65                                        = ??
       CODE:2247 d2 2a           SETB       25.2                                                       = ??
       CODE:2249 80 66           SJMP       LAB_CODE_22b1
                             LAB_CODE_224b                                   XREF[1]:     CODE:223b(j)  
       CODE:224b 75 38 62        MOV        DAT_INTMEM_38,#0x62                                        = ??
                             LAB_CODE_224e                                   XREF[1]:     CODE:2231(j)  
       CODE:224e c2 28           CLR        25.0                                                       = ??
       CODE:2250 e5 37           MOV        A,DAT_INTMEM_37                                            = ??
       CODE:2252 b4 62 02        CJNE       A,#0x62,LAB_CODE_2257
       CODE:2255 d2 28           SETB       25.0                                                       = ??
                             LAB_CODE_2257                                   XREF[1]:     CODE:2252(j)  
       CODE:2257 75 36 04        MOV        DAT_INTMEM_36,#0x4                                         = ??
       CODE:225a 12 25 87        LCALL      FUN_CODE_2587                                              undefined FUN_CODE_2587()
       CODE:225d e5 38           MOV        A,DAT_INTMEM_38                                            = ??
       CODE:225f b4 62 08        CJNE       A,#0x62,LAB_CODE_226a
       CODE:2262 75 37 64        MOV        DAT_INTMEM_37,#0x64                                        = ??
       CODE:2265 12 23 b2        LCALL      FUN_CODE_23b2                                              undefined FUN_CODE_23b2()
       CODE:2268 80 51           SJMP       LAB_CODE_22bb
                             LAB_CODE_226a                                   XREF[1]:     CODE:225f(j)  
       CODE:226a 75 37 63        MOV        DAT_INTMEM_37,#0x63                                        = ??
       CODE:226d 12 23 b2        LCALL      FUN_CODE_23b2                                              undefined FUN_CODE_23b2()
       CODE:2270 80 49           SJMP       LAB_CODE_22bb
                             LAB_CODE_2272                                   XREF[1]:     CODE:2394(j)  
       CODE:2272 d5 36 2d        DJNZ       DAT_INTMEM_36,LAB_CODE_22a2                                = ??
       CODE:2275 12 25 79        LCALL      FUN_CODE_2579                                              undefined FUN_CODE_2579()
       CODE:2278 50 05           JNC        LAB_CODE_227f
       CODE:227a 75 37 62        MOV        DAT_INTMEM_37,#0x62                                        = ??
       CODE:227d 80 32           SJMP       LAB_CODE_22b1
                             LAB_CODE_227f                                   XREF[1]:     CODE:2278(j)  
       CODE:227f 75 36 02        MOV        DAT_INTMEM_36,#0x2                                         = ??
       CODE:2282 12 25 87        LCALL      FUN_CODE_2587                                              undefined FUN_CODE_2587()
       CODE:2285 80 20           SJMP       LAB_CODE_22a7
                             LAB_CODE_2287                                   XREF[1]:     CODE:2397(j)  
       CODE:2287 d5 36 45        DJNZ       DAT_INTMEM_36,LAB_CODE_22cf                                = ??
       CODE:228a 12 25 79        LCALL      FUN_CODE_2579                                              undefined FUN_CODE_2579()
       CODE:228d 40 0b           JC         LAB_CODE_229a
       CODE:228f 12 25 87        LCALL      FUN_CODE_2587                                              undefined FUN_CODE_2587()
       CODE:2292 75 37 65        MOV        DAT_INTMEM_37,#0x65                                        = ??
       CODE:2295 75 36 05        MOV        DAT_INTMEM_36,#0x5                                         = ??
       CODE:2298 80 12           SJMP       LAB_CODE_22ac
                             LAB_CODE_229a                                   XREF[1]:     CODE:228d(j)  
       CODE:229a 75 37 60        MOV        DAT_INTMEM_37,#0x60                                        = ??
       CODE:229d 75 36 03        MOV        DAT_INTMEM_36,#0x3                                         = ??
       CODE:22a0 80 0a           SJMP       LAB_CODE_22ac
                             LAB_CODE_22a2                                   XREF[1]:     CODE:2272(j)  
       CODE:22a2 78 aa           MOV        R0,#0xaa
       CODE:22a4 76 00           MOV        @R0=>DAT_INTMEM_aa,#0x0                                    = ??
       CODE:22a6 22              RET
                             LAB_CODE_22a7                                   XREF[1]:     CODE:2285(j)  
       CODE:22a7 78 aa           MOV        R0,#0xaa
       CODE:22a9 76 01           MOV        @R0=>DAT_INTMEM_aa,#0x1                                    = ??
       CODE:22ab 22              RET
                             LAB_CODE_22ac                                   XREF[3]:     CODE:2298(j), CODE:22a0(j), 
                                                                                          CODE:22de(j)  
       CODE:22ac 78 aa           MOV        R0,#0xaa
       CODE:22ae 76 02           MOV        @R0=>DAT_INTMEM_aa,#0x2                                    = ??
       CODE:22b0 22              RET
                             LAB_CODE_22b1                                   XREF[9]:     CODE:222e(j), CODE:2237(j), 
                                                                                          CODE:2249(j), CODE:227d(j), 
                                                                                          CODE:22d3(j), CODE:231a(j), 
                                                                                          CODE:2333(j), CODE:2353(j), 
                                                                                          CODE:2363(j)  
       CODE:22b1 78 aa           MOV        R0,#0xaa
       CODE:22b3 76 03           MOV        @R0=>DAT_INTMEM_aa,#0x3                                    = ??
       CODE:22b5 22              RET
                             LAB_CODE_22b6                                   XREF[1]:     CODE:2226(j)  
       CODE:22b6 78 aa           MOV        R0,#0xaa
       CODE:22b8 76 04           MOV        @R0=>DAT_INTMEM_aa,#0x4                                    = ??
       CODE:22ba 22              RET
                             LAB_CODE_22bb                                   XREF[2]:     CODE:2268(j), CODE:2270(j)  
       CODE:22bb 78 aa           MOV        R0,#0xaa
       CODE:22bd 76 05           MOV        @R0=>DAT_INTMEM_aa,#0x5                                    = ??
       CODE:22bf 22              RET
                             LAB_CODE_22c0                                   XREF[2]:     CODE:22ee(j), CODE:22f3(j)  
       CODE:22c0 78 aa           MOV        R0,#0xaa
       CODE:22c2 76 06           MOV        @R0=>DAT_INTMEM_aa,#0x6                                    = ??
       CODE:22c4 22              RET
                             LAB_CODE_22c5                                   XREF[1]:     CODE:2303(j)  
       CODE:22c5 78 aa           MOV        R0,#0xaa
       CODE:22c7 76 07           MOV        @R0=>DAT_INTMEM_aa,#0x7                                    = ??
       CODE:22c9 22              RET
                             LAB_CODE_22ca                                   XREF[1]:     CODE:2306(j)  
       CODE:22ca 78 aa           MOV        R0,#0xaa
       CODE:22cc 76 08           MOV        @R0=>DAT_INTMEM_aa,#0x8                                    = ??
       CODE:22ce 22              RET
                             LAB_CODE_22cf                                   XREF[8]:     CODE:2287(j), CODE:22d0(j), 
                                                                                          CODE:22d5(j), CODE:22e0(j), 
                                                                                          CODE:22f5(j), CODE:231c(j), 
                                                                                          CODE:2327(j), CODE:23af(j)  
       CODE:22cf 22              RET
                             LAB_CODE_22d0                                   XREF[1]:     CODE:239a(j)  
       CODE:22d0 d5 36 fc        DJNZ       DAT_INTMEM_36,LAB_CODE_22cf                                = ??
       CODE:22d3 80 dc           SJMP       LAB_CODE_22b1
                             LAB_CODE_22d5                                   XREF[1]:     CODE:23a0(j)  
       CODE:22d5 d5 36 f7        DJNZ       DAT_INTMEM_36,LAB_CODE_22cf                                = ??
       CODE:22d8 12 25 84        LCALL      FUN_CODE_2584                                              undefined FUN_CODE_2584()
       CODE:22db 75 36 03        MOV        DAT_INTMEM_36,#0x3                                         = ??
       CODE:22de 80 cc           SJMP       LAB_CODE_22ac
                             LAB_CODE_22e0                                   XREF[1]:     CODE:23a3(j)  
       CODE:22e0 d5 36 ec        DJNZ       DAT_INTMEM_36,LAB_CODE_22cf                                = ??
       CODE:22e3 75 36 03        MOV        DAT_INTMEM_36,#0x3                                         = ??
       CODE:22e6 e5 37           MOV        A,DAT_INTMEM_37                                            = ??
       CODE:22e8 b4 64 05        CJNE       A,#0x64,LAB_CODE_22f0
       CODE:22eb 12 25 84        LCALL      FUN_CODE_2584                                              undefined FUN_CODE_2584()
       CODE:22ee 80 d0           SJMP       LAB_CODE_22c0
                             LAB_CODE_22f0                                   XREF[1]:     CODE:22e8(j)  
       CODE:22f0 12 25 81        LCALL      FUN_CODE_2581                                              undefined FUN_CODE_2581()
       CODE:22f3 80 cb           SJMP       LAB_CODE_22c0
                             LAB_CODE_22f5                                   XREF[1]:     CODE:23a6(j)  
       CODE:22f5 d5 36 d7        DJNZ       DAT_INTMEM_36,LAB_CODE_22cf                                = ??
       CODE:22f8 75 36 fa        MOV        DAT_INTMEM_36,#0xfa                                        = ??
       CODE:22fb 20 28 03        JB         25.0,LAB_CODE_2301                                         = ??
       CODE:22fe 75 36 7d        MOV        DAT_INTMEM_36,#0x7d                                        = ??
                             LAB_CODE_2301                                   XREF[1]:     CODE:22fb(j)  
       CODE:2301 e5 37           MOV        A,DAT_INTMEM_37                                            = ??
       CODE:2303 b4 64 bf        CJNE       A,#0x64,LAB_CODE_22c5
       CODE:2306 80 c2           SJMP       LAB_CODE_22ca
                             LAB_CODE_2308                                   XREF[1]:     CODE:23a9(j)  
       CODE:2308 e5 38           MOV        A,DAT_INTMEM_38                                            = ??
       CODE:230a b4 60 0b        CJNE       A,#0x60,LAB_CODE_2318
       CODE:230d 12 25 79        LCALL      FUN_CODE_2579                                              undefined FUN_CODE_2579()
       CODE:2310 50 0a           JNC        LAB_CODE_231c
       CODE:2312 75 37 60        MOV        DAT_INTMEM_37,#0x60                                        = ??
       CODE:2315 12 23 b2        LCALL      FUN_CODE_23b2                                              undefined FUN_CODE_23b2()
                             LAB_CODE_2318                                   XREF[2]:     CODE:230a(j), CODE:233f(j)  
       CODE:2318 c2 29           CLR        25.1                                                       = ??
       CODE:231a 80 95           SJMP       LAB_CODE_22b1
                             LAB_CODE_231c                                   XREF[1]:     CODE:2310(j)  
       CODE:231c d5 36 b0        DJNZ       DAT_INTMEM_36,LAB_CODE_22cf                                = ??
       CODE:231f 30 28 07        JNB        25.0,LAB_CODE_2329                                         = ??
       CODE:2322 c2 28           CLR        25.0                                                       = ??
       CODE:2324 75 36 7d        MOV        DAT_INTMEM_36,#0x7d                                        = ??
       CODE:2327 80 a6           SJMP       LAB_CODE_22cf
                             LAB_CODE_2329                                   XREF[1]:     CODE:231f(j)  
       CODE:2329 20 29 0a        JB         25.1,LAB_CODE_2336                                         = ??
       CODE:232c 75 38 62        MOV        DAT_INTMEM_38,#0x62                                        = ??
       CODE:232f d2 2a           SETB       25.2                                                       = ??
       CODE:2331 d2 29           SETB       25.1                                                       = ??
       CODE:2333 02 22 b1        LJMP       LAB_CODE_22b1
                             LAB_CODE_2336                                   XREF[1]:     CODE:2329(j)  
       CODE:2336 75 37 65        MOV        DAT_INTMEM_37,#0x65                                        = ??
       CODE:2339 12 23 b2        LCALL      FUN_CODE_23b2                                              undefined FUN_CODE_23b2()
       CODE:233c 75 38 65        MOV        DAT_INTMEM_38,#0x65                                        = ??
       CODE:233f 80 d7           SJMP       LAB_CODE_2318
                             LAB_CODE_2341                                   XREF[1]:     CODE:23ac(j)  
       CODE:2341 e5 38           MOV        A,DAT_INTMEM_38                                            = ??
       CODE:2343 b4 62 0b        CJNE       A,#0x62,LAB_CODE_2351
       CODE:2346 12 25 79        LCALL      FUN_CODE_2579                                              undefined FUN_CODE_2579()
       CODE:2349 50 0b           JNC        LAB_CODE_2356
       CODE:234b 75 37 62        MOV        DAT_INTMEM_37,#0x62                                        = ??
       CODE:234e 12 23 b2        LCALL      FUN_CODE_23b2                                              undefined FUN_CODE_23b2()
                             LAB_CODE_2351                                   XREF[2]:     CODE:2343(j), CODE:236f(j)  
       CODE:2351 c2 29           CLR        25.1                                                       = ??
       CODE:2353 02 22 b1        LJMP       LAB_CODE_22b1
                             LAB_CODE_2356                                   XREF[1]:     CODE:2349(j)  
       CODE:2356 d5 36 56        DJNZ       DAT_INTMEM_36,LAB_CODE_23af                                = ??
       CODE:2359 20 29 0a        JB         25.1,LAB_CODE_2366                                         = ??
       CODE:235c 75 38 60        MOV        DAT_INTMEM_38,#0x60                                        = ??
       CODE:235f c2 2a           CLR        25.2                                                       = ??
       CODE:2361 d2 29           SETB       25.1                                                       = ??
       CODE:2363 02 22 b1        LJMP       LAB_CODE_22b1
                             LAB_CODE_2366                                   XREF[1]:     CODE:2359(j)  
       CODE:2366 75 37 65        MOV        DAT_INTMEM_37,#0x65                                        = ??
       CODE:2369 12 23 b2        LCALL      FUN_CODE_23b2                                              undefined FUN_CODE_23b2()
       CODE:236c 75 38 65        MOV        DAT_INTMEM_38,#0x65                                        = ??
       CODE:236f 80 e0           SJMP       LAB_CODE_2351
                             **************************************************************
                             *                          FUNCTION                          *
                             **************************************************************
                             undefined FUN_CODE_2371()
             undefined         ACC:1          <RETURN>
                             FUN_CODE_2371                                   XREF[1]:     FUN_CODE_07e3:084e(c)  
       CODE:2371 20 26 08        JB         24.6,LAB_CODE_237c                                         = ??
       CODE:2374 75 36 12        MOV        DAT_INTMEM_36,#0x12                                        = ??
       CODE:2377 78 aa           MOV        R0,#0xaa
       CODE:2379 76 00           MOV        @R0=>DAT_INTMEM_aa,#0x0                                    = ??
       CODE:237b 22              RET
                             LAB_CODE_237c                                   XREF[1]:     CODE:2371(j)  
       CODE:237c e5 37           MOV        A,DAT_INTMEM_37                                            = ??
       CODE:237e 64 62           XRL        A,#0x62
       CODE:2380 60 09           JZ         LAB_CODE_238b
       CODE:2382 75 62 00        MOV        DAT_INTMEM_62,#0x0                                         = ??
       CODE:2385 a2 14           MOV        CY,22.4                                                    = ??
       CODE:2387 72 2b           ORL        CY,25.3                                                    = ??
       CODE:2389 92 14           MOV        22.4,CY                                                    = ??
                             LAB_CODE_238b                                   XREF[1]:     CODE:2380(j)  
       CODE:238b 78 aa           MOV        R0,#0xaa
       CODE:238d e6              MOV        A,@R0=>DAT_INTMEM_aa                                       = ??
       CODE:238e 26              ADD        A,@R0=>DAT_INTMEM_aa                                       = ??
       CODE:238f 26              ADD        A,@R0=>DAT_INTMEM_aa                                       = ??
       CODE:2390 90 23 94        MOV        DPTR,#LAB_CODE_2394
       CODE:2393 73              JMP        @A+DPTR
                             LAB_CODE_2394                                   XREF[1]:     FUN_CODE_2371:2390(*)  
       CODE:2394 02 22 72        LJMP       LAB_CODE_2272
       CODE:2397 02 22 87        LJMP       LAB_CODE_2287
       CODE:239a 02 22 d0        LJMP       LAB_CODE_22d0
       CODE:239d 02 22 16        LJMP       LAB_CODE_2216
       CODE:23a0 02 22 d5        LJMP       LAB_CODE_22d5
       CODE:23a3 02 22 e0        LJMP       LAB_CODE_22e0
       CODE:23a6 02 22 f5        LJMP       LAB_CODE_22f5
       CODE:23a9 02 23 08        LJMP       LAB_CODE_2308
       CODE:23ac 02 23 41        LJMP       LAB_CODE_2341
                             LAB_CODE_23af                                   XREF[1]:     CODE:2356(j)  
       CODE:23af 02 22 cf        LJMP       LAB_CODE_22cf
                             **************************************************************
                             *                          FUNCTION                          *
                             **************************************************************
                             undefined FUN_CODE_23b2()
             undefined         ACC:1          <RETURN>
                             FUN_CODE_23b2                                   XREF[7]:     CODE:2241(c), CODE:2265(c), 
                                                                                          CODE:226d(c), CODE:2315(c), 
                                                                                          CODE:2339(c), CODE:234e(c), 
                                                                                          CODE:2369(c)  
       CODE:23b2 d2 41           SETB       28.1                                                       = ??
       CODE:23b4 e5 37           MOV        A,DAT_INTMEM_37                                            = ??
       CODE:23b6 b4 60 02        CJNE       A,#0x60,LAB_CODE_23bb
       CODE:23b9 80 03           SJMP       LAB_CODE_23be
                             LAB_CODE_23bb                                   XREF[1]:     CODE:23b6(j)  
       CODE:23bb b4 62 06        CJNE       A,#0x62,LAB_CODE_23c4
                             LAB_CODE_23be                                   XREF[1]:     CODE:23b9(j)  
       CODE:23be 53 5c fd        ANL        DAT_INTMEM_5c,#0xfd                                        = ??
       CODE:23c1 d2 4a           SETB       29.2                                                       = ??
       CODE:23c3 22              RET
                             LAB_CODE_23c4                                   XREF[1]:     CODE:23bb(j)  
       CODE:23c4 43 5c 02        ORL        DAT_INTMEM_5c,#0x2                                         = ??
       CODE:23c7 d2 4a           SETB       29.2                                                       = ??
       CODE:23c9 22              RET
                             LAB_CODE_23ca                                   XREF[3]:     CODE:23d8(j), CODE:23e5(j), 
                                                                                          CODE:23f1(j)  
       CODE:23ca 78 ab           MOV        R0,#0xab
       CODE:23cc 76 00           MOV        @R0=>DAT_INTMEM_ab,#0x0                                    = ??
       CODE:23ce 22              RET
                             LAB_CODE_23cf                                   XREF[2]:     CODE:23e9(j), CODE:23eb(j)  
       CODE:23cf 78 ab           MOV        R0,#0xab
       CODE:23d1 76 01           MOV        @R0=>DAT_INTMEM_ab,#0x1                                    = ??
       CODE:23d3 22              RET
       CODE:23d4 22              ??         22h    "
                             LAB_CODE_23d5                                   XREF[1]:     CODE:23fc(j)  
       CODE:23d5 12 25 90        LCALL      FUN_CODE_2590                                              undefined FUN_CODE_2590()
       CODE:23d8 50 f0           JNC        LAB_CODE_23ca
       CODE:23da 12 25 95        LCALL      FUN_CODE_2595                                              undefined FUN_CODE_2595()
       CODE:23dd 50 08           JNC        LAB_CODE_23e7
       CODE:23df 12 08 d0        LCALL      FUN_CODE_08d0                                              undefined FUN_CODE_08d0()
       CODE:23e2 12 25 b0        LCALL      FUN_CODE_25b0                                              undefined FUN_CODE_25b0()
       CODE:23e5 80 e3           SJMP       LAB_CODE_23ca
                             LAB_CODE_23e7                                   XREF[1]:     CODE:23dd(j)  
       CODE:23e7 d2 37           SETB       26.7                                                       = ??
       CODE:23e9 80 e4           SJMP       LAB_CODE_23cf
                             LAB_CODE_23eb                                   XREF[1]:     CODE:23ff(j)  
       CODE:23eb 20 37 e1        JB         26.7,LAB_CODE_23cf                                         = ??
       CODE:23ee 12 25 b0        LCALL      FUN_CODE_25b0                                              undefined FUN_CODE_25b0()
       CODE:23f1 80 d7           SJMP       LAB_CODE_23ca
                             **************************************************************
                             *                          FUNCTION                          *
                             **************************************************************
                             undefined FUN_CODE_23f3()
             undefined         ACC:1          <RETURN>
                             FUN_CODE_23f3                                   XREF[1]:     FUN_CODE_07e3:086f(c)  
       CODE:23f3 78 ab           MOV        R0,#0xab
       CODE:23f5 e6              MOV        A,@R0=>DAT_INTMEM_ab                                       = ??
       CODE:23f6 26              ADD        A,@R0=>DAT_INTMEM_ab                                       = ??
       CODE:23f7 26              ADD        A,@R0=>DAT_INTMEM_ab                                       = ??
       CODE:23f8 90 23 fc        MOV        DPTR,#LAB_CODE_23fc
       CODE:23fb 73              JMP        @A+DPTR
                             LAB_CODE_23fc                                   XREF[1]:     FUN_CODE_23f3:23f8(*)  
       CODE:23fc 02 23 d5        LJMP       LAB_CODE_23d5
       CODE:23ff 02 23 eb        LJMP       LAB_CODE_23eb
                             **************************************************************
                             *                          FUNCTION                          *
                             **************************************************************
                             undefined FUN_CODE_2402()
             undefined         ACC:1          <RETURN>
                             FUN_CODE_2402                                   XREF[2]:     FUN_CODE_07e3:07e6(c), 
                                                                                          FUN_CODE_07e3:0805(c)  
       CODE:2402 c2 d3           CLR        RS0                                                        = ??
       CODE:2404 c2 d4           CLR        RS1                                                        = ??
       CODE:2406 53 8f f9        ANL        FADDR,#0xf9                                                = ??
       CODE:2409 22              RET
                             **************************************************************
                             *                          FUNCTION                          *
                             **************************************************************
                             undefined FUN_CODE_240a()
             undefined         ACC:1          <RETURN>
                             FUN_CODE_240a                                   XREF[2]:     FUN_CODE_07e3:07ec(c), 
                                                                                          CODE:1283(c)  
       CODE:240a 75 bf 01        MOV        DAT_SFR_bf,#0x1                                            = ??
       CODE:240d 75 bc ff        MOV        DAT_SFR_bc,#0xff                                           = ??
       CODE:2410 75 bd ff        MOV        DAT_SFR_bd,#0xff                                           = ??
       CODE:2413 75 be ff        MOV        SPH,#0xff                                                  = ??
       CODE:2416 75 b9 00        MOV        SADEN,#0x0                                                 = ??
       CODE:2419 75 ba 00        MOV        DAT_SFR_ba,#0x0                                            = ??
       CODE:241c 75 bb 00        MOV        DAT_SFR_bb,#0x0                                            = ??
       CODE:241f 75 a8 00        MOV        IE,#0x0                                                    = ??
       CODE:2422 75 b8 00        MOV        IP,#0x0                                                    = ??
       CODE:2425 75 c1 00        MOV        FIFLG1,#0x0                                                = ??
       CODE:2428 75 c2 00        MOV        DAT_SFR_c2,#0x0                                            = ??
       CODE:242b 75 c3 7f        MOV        DAT_SFR_c3,#0x7f                                           = ??
       CODE:242e 75 c4 00        MOV        DAT_SFR_c4,#0x0                                            = ??
       CODE:2431 75 c5 c9        MOV        DAT_SFR_c5,#0xc9                                           = ??
       CODE:2434 75 c6 d5        MOV        DAT_SFR_c6,#0xd5                                           = ??
       CODE:2437 75 c7 db        MOV        EPCONFIG,#0xdb                                             = ??
       CODE:243a 75 c9 d9        MOV        T2MOD,#0xd9                                                = ??
       CODE:243d 75 ca e4        MOV        RCAP2L,#0xe4                                               = ??
       CODE:2440 75 cb ce        MOV        RCAP2H,#0xce                                               = ??
       CODE:2443 75 cc d4        MOV        TL2,#0xd4                                                  = ??
       CODE:2446 75 cd ff        MOV        TH2,#0xff                                                  = ??
       CODE:2449 75 ce ff        MOV        DAT_SFR_ce,#0xff                                           = ??
       CODE:244c 75 cf ff        MOV        HPCON,#0xff                                                = ??
       CODE:244f 75 d1 ff        MOV        PSW1,#0xff                                                 = ??
       CODE:2452 75 d2 ff        MOV        SOFL,#0xff                                                 = ??
       CODE:2455 75 d3 ff        MOV        DAT_SFR_d3,#0xff                                           = ??
       CODE:2458 75 d4 ff        MOV        HPINDEX,#0xff                                              = ??
       CODE:245b 22              RET
                             **************************************************************
                             *                          FUNCTION                          *
                             **************************************************************
                             undefined FUN_CODE_245c()
             undefined         ACC:1          <RETURN>
                             FUN_CODE_245c                                   XREF[2]:     FUN_CODE_07e3:07ef(c), 
                                                                                          CODE:1298(c)  
       CODE:245c 75 78 00        MOV        DAT_INTMEM_78,#0x0                                         = ??
       CODE:245f 53 bc 7f        ANL        DAT_SFR_bc,#0x7f                                           = ??
       CODE:2462 53 bf fe        ANL        DAT_SFR_bf,#0xfe                                           = ??
       CODE:2465 22              RET
       CODE:2466 e5              ??         E5h
       CODE:2467 78              ??         78h    x
       CODE:2468 22              ??         22h    "
                             **************************************************************
                             *                          FUNCTION                          *
                             **************************************************************
                             undefined FUN_CODE_2469()
             undefined         ACC:1          <RETURN>
                             FUN_CODE_2469                                   XREF[1]:     FUN_CODE_07e3:0878(c)  
       CODE:2469 e5 78           MOV        A,DAT_INTMEM_78                                            = ??
       CODE:246b 24 eb           ADD        A,#0xeb
       CODE:246d 40 02           JC         LAB_CODE_2471
       CODE:246f c3              CLR        CY
       CODE:2470 22              RET
                             LAB_CODE_2471                                   XREF[1]:     CODE:246d(j)  
       CODE:2471 43 bf 01        ORL        DAT_SFR_bf,#0x1                                            = ??
       CODE:2474 e5 78           MOV        A,DAT_INTMEM_78                                            = ??
       CODE:2476 c3              CLR        CY
       CODE:2477 94 14           SUBB       A,#0x14
       CODE:2479 f5 78           MOV        DAT_INTMEM_78,A                                            = ??
       CODE:247b d3              SETB       CY
       CODE:247c 53 bf fe        ANL        DAT_SFR_bf,#0xfe                                           = ??
       CODE:247f 22              RET
                             **************************************************************
                             *                          FUNCTION                          *
                             **************************************************************
                             undefined FUN_CODE_2480()
             undefined         ACC:1          <RETURN>
                             FUN_CODE_2480                                   XREF[2]:     FUN_CODE_07e3:07f2(c), 
                                                                                          FUN_CODE_1f24:1f24(c)  
       CODE:2480 75 fe 00        MOV        CCAP4H,#0x0                                                = ??
       CODE:2483 75 ff 00        MOV        DAT_SFR_ff,#0x0
       CODE:2486 75 fe 00        MOV        CCAP4H,#0x0                                                = ??
       CODE:2489 22              RET
                             **************************************************************
                             *                          FUNCTION                          *
                             **************************************************************
                             undefined FUN_CODE_248a()
             undefined         ACC:1          <RETURN>
                             FUN_CODE_248a                                   XREF[1]:     CODE:1286(c)  
       CODE:248a 43 a5 01        ORL        DAT_SFR_a5,#0x1                                            = ??
       CODE:248d a2 c0           MOV        CY,FIFLG.0                                                 = ??
       CODE:248f 92 11           MOV        22.1,CY                                                    = ??
       CODE:2491 22              RET
                             **************************************************************
                             *                          FUNCTION                          *
                             **************************************************************
                             undefined FUN_CODE_2492()
             undefined         ACC:1          <RETURN>
                             FUN_CODE_2492                                   XREF[1]:     CODE:1289(c)  
       CODE:2492 43 a2 80        ORL        FIE,#0x80                                                  = ??
       CODE:2495 43 a3 47        ORL        FIE1,#0x47                                                 = ??
       CODE:2498 43 a4 b0        ORL        DAT_SFR_a4,#0xb0                                           = ??
       CODE:249b 43 a5 fe        ORL        DAT_SFR_a5,#0xfe                                           = ??
       CODE:249e 43 a6 7f        ORL        WDTRST,#0x7f                                               = ??
       CODE:24a1 75 9d 0c        MOV        DAT_SFR_9d,#0xc                                            = ??
       CODE:24a4 75 9e 00        MOV        DAT_SFR_9e,#0x0                                            = ??
       CODE:24a7 75 9f 00        MOV        DAT_SFR_9f,#0x0                                            = ??
       CODE:24aa 75 a1 00        MOV        HIE,#0x0                                                   = ??
       CODE:24ad 75 a7 00        MOV        WCON,#0x0                                                  = ??
       CODE:24b0 75 80 00        MOV        P0,#0x0                                                    = ??
       CODE:24b3 75 90 10        MOV        P1,#0x10                                                   = ??
       CODE:24b6 75 a0 00        MOV        P2,#0x0                                                    = ??
       CODE:24b9 75 c0 00        MOV        FIFLG,#0x0                                                 = ??
       CODE:24bc 75 c8 00        MOV        T2CON,#0x0                                                 = ??
       CODE:24bf 75 a2 80        MOV        FIE,#0x80                                                  = ??
       CODE:24c2 75 a3 47        MOV        FIE1,#0x47                                                 = ??
       CODE:24c5 75 a4 b0        MOV        DAT_SFR_a4,#0xb0                                           = ??
       CODE:24c8 75 a5 fe        MOV        DAT_SFR_a5,#0xfe                                           = ??
       CODE:24cb 75 a6 7f        MOV        WDTRST,#0x7f                                               = ??
       CODE:24ce 22              RET
                             **************************************************************
                             *                          FUNCTION                          *
                             **************************************************************
                             undefined FUN_CODE_24cf()
             undefined         ACC:1          <RETURN>
                             FUN_CODE_24cf                                   XREF[1]:     CODE:128f(c)  
       CODE:24cf c2 66           CLR        2c.6                                                       = ??
       CODE:24d1 12 04 55        LCALL      FUN_CODE_0455                                              undefined FUN_CODE_0455()
       CODE:24d4 12 02 7b        LCALL      FUN_CODE_027b                                              undefined FUN_CODE_027b()
       CODE:24d7 c2 68           CLR        2d.0                                                       = ??
       CODE:24d9 c2 67           CLR        2c.7                                                       = ??
       CODE:24db 75 10 00        MOV        BANK2_R0,#0x0                                              = ??
       CODE:24de 75 96 0f        MOV        DAT_SFR_96,#0xf                                            = ??
       CODE:24e1 75 92 64        MOV        DAT_SFR_92,#0x64                                           = ??
       CODE:24e4 75 94 64        MOV        DAT_SFR_94,#0x64                                           = ??
       CODE:24e7 75 91 00        MOV        DAT_SFR_91,#0x0                                            = ??
       CODE:24ea 75 93 00        MOV        DPX,#0x0                                                   = ??
       CODE:24ed 75 88 00        MOV        TCON,#0x0                                                  = ??
       CODE:24f0 75 98 00        MOV        SCON,#0x0                                                  = ??
       CODE:24f3 75 95 88        MOV        DAT_SFR_95,#0x88                                           = ??
       CODE:24f6 78 17           MOV        R0,#0x17
       CODE:24f8 7a 03           MOV        R2,#0x3
       CODE:24fa 12 2e c2        LCALL      FUN_CODE_2ec2                                              undefined FUN_CODE_2ec2()
       CODE:24fd 75 1f 00        MOV        BANK3_R7,#0x0                                              = ??
       CODE:2500 75 e8 00        MOV        HIFLG,#0x0                                                 = ??
       CODE:2503 43 c2 40        ORL        DAT_SFR_c2,#0x40                                           = ??
       CODE:2506 43 87 80        ORL        PCON,#0x80                                                 = ??
       CODE:2509 22              RET
                             **************************************************************
                             *                          FUNCTION                          *
                             **************************************************************
                             undefined FUN_CODE_250a()
             undefined         ACC:1          <RETURN>
                             FUN_CODE_250a                                   XREF[2]:     FUN_CODE_07e3:07e9(c), 
                                                                                          CODE:1280(c)  
       CODE:250a c2 5f           CLR        2b.7                                                       = ??
       CODE:250c 22              RET
                             **************************************************************
                             *                          FUNCTION                          *
                             **************************************************************
                             undefined FUN_CODE_250d()
             undefined         ACC:1          <RETURN>
                             FUN_CODE_250d                                   XREF[1]:     CODE:129b(c)  
       CODE:250d d2 5f           SETB       2b.7                                                       = ??
       CODE:250f 22              RET
                             **************************************************************
                             *                          FUNCTION                          *
                             **************************************************************
                             undefined FUN_CODE_2510()
             undefined         ACC:1          <RETURN>
                             FUN_CODE_2510                                   XREF[2]:     thunk_FUN_CODE_2510:00d0(T), 
                                                                                          thunk_FUN_CODE_2510:00d0(c), 
                                                                                          CODE:12a3(c)  
       CODE:2510 43 bf 01        ORL        DAT_SFR_bf,#0x1                                            = ??
       CODE:2513 75 ff 00        MOV        DAT_SFR_ff,#0x0
       CODE:2516 75 fe ff        MOV        CCAP4H,#0xff                                               = ??
                             LAB_CODE_2519                                   XREF[1]:     CODE:2519(j)  
       CODE:2519 80 fe           SJMP       LAB_CODE_2519
                             **************************************************************
                             *                          FUNCTION                          *
                             **************************************************************
                             undefined FUN_CODE_251b()
             undefined         ACC:1          <RETURN>
                             FUN_CODE_251b                                   XREF[1]:     CODE:10a5(c)  
       CODE:251b d2 a1           SETB       P2.1                                                       = ??
       CODE:251d 22              RET
                             **************************************************************
                             *                          FUNCTION                          *
                             **************************************************************
                             undefined FUN_CODE_251e()
             undefined         ACC:1          <RETURN>
                             FUN_CODE_251e                                   XREF[1]:     CODE:1030(c)  
       CODE:251e c2 a1           CLR        P2.1                                                       = ??
       CODE:2520 22              RET
                             **************************************************************
                             *                          FUNCTION                          *
                             **************************************************************
                             undefined FUN_CODE_2521()
             undefined         ACC:1          <RETURN>
                             FUN_CODE_2521                                   XREF[3]:     CODE:10b0(c), CODE:10ce(c), 
                                                                                          FUN_CODE_1e47:1e4a(c)  
       CODE:2521 a2 a5           MOV        CY,P2.5                                                    = ??
       CODE:2523 20 17 03        JB         22.7,LAB_CODE_2529                                         = ??
       CODE:2526 c2 a9           CLR        ET0                                                        = ??
       CODE:2528 22              RET
                             LAB_CODE_2529                                   XREF[1]:     CODE:2523(j)  
       CODE:2529 b0 a9           ANL        CY,/ET0                                                    = ??
       CODE:252b 22              RET
                             **************************************************************
                             *                          FUNCTION                          *
                             **************************************************************
                             undefined FUN_CODE_252c()
             undefined         ACC:1          <RETURN>
                             FUN_CODE_252c                                   XREF[1]:     CODE:1104(c)  
       CODE:252c d2 95           SETB       P1.5                                                       = ??
       CODE:252e 22              RET
                             **************************************************************
                             *                          FUNCTION                          *
                             **************************************************************
                             undefined FUN_CODE_252f()
             undefined         ACC:1          <RETURN>
                             FUN_CODE_252f                                   XREF[1]:     CODE:0ff8(c)  
       CODE:252f c2 95           CLR        P1.5                                                       = ??
       CODE:2531 22              RET
                             **************************************************************
                             *                          FUNCTION                          *
                             **************************************************************
                             undefined FUN_CODE_2532()
             undefined         ACC:1          <RETURN>
                             FUN_CODE_2532                                   XREF[1]:     CODE:1122(c)  
       CODE:2532 c2 94           CLR        P1.4                                                       = ??
       CODE:2534 22              RET
                             **************************************************************
                             *                          FUNCTION                          *
                             **************************************************************
                             undefined FUN_CODE_2535()
             undefined         ACC:1          <RETURN>
                             FUN_CODE_2535                                   XREF[1]:     CODE:0fb4(c)  
       CODE:2535 d2 94           SETB       P1.4                                                       = ??
       CODE:2537 22              RET
                             **************************************************************
                             *                          FUNCTION                          *
                             **************************************************************
                             undefined FUN_CODE_2538()
             undefined         ACC:1          <RETURN>
                             FUN_CODE_2538                                   XREF[3]:     CODE:110f(c), CODE:112b(c), 
                                                                                          FUN_CODE_1e47:1e52(c)  
       CODE:2538 a2 c3           MOV        CY,FIFLG.3                                                 = ??
       CODE:253a 20 18 03        JB         23.0,LAB_CODE_2540                                         = ??
       CODE:253d c2 aa           CLR        EX1                                                        = ??
       CODE:253f 22              RET
                             LAB_CODE_2540                                   XREF[1]:     CODE:253a(j)  
       CODE:2540 b0 aa           ANL        CY,/EX1                                                    = ??
       CODE:2542 22              RET
                             **************************************************************
                             *                          FUNCTION                          *
                             **************************************************************
                             undefined FUN_CODE_2543()
             undefined         ACC:1          <RETURN>
                             FUN_CODE_2543                                   XREF[1]:     CODE:1125(c)  
       CODE:2543 d2 a6           SETB       P2.6                                                       = ??
       CODE:2545 22              RET
                             **************************************************************
                             *                          FUNCTION                          *
                             **************************************************************
                             undefined FUN_CODE_2546()
             undefined         ACC:1          <RETURN>
                             FUN_CODE_2546                                   XREF[1]:     CODE:0fb9(c)  
       CODE:2546 c2 a6           CLR        P2.6                                                       = ??
       CODE:2548 22              RET
                             **************************************************************
                             *                          FUNCTION                          *
                             **************************************************************
                             undefined FUN_CODE_2549()
             undefined         ACC:1          <RETURN>
                             FUN_CODE_2549                                   XREF[3]:     CODE:1130(c), CODE:1146(c), 
                                                                                          FUN_CODE_1e47:1e5a(c)  
       CODE:2549 a2 c1           MOV        CY,FIFLG.1                                                 = ??
       CODE:254b 20 19 03        JB         23.1,LAB_CODE_2551                                         = ??
       CODE:254e c2 ab           CLR        ET1                                                        = ??
       CODE:2550 22              RET
                             LAB_CODE_2551                                   XREF[1]:     CODE:254b(j)  
       CODE:2551 b0 ab           ANL        CY,/ET1                                                    = ??
       CODE:2553 22              RET
                             **************************************************************
                             *                          FUNCTION                          *
                             **************************************************************
                             undefined FUN_CODE_2554()
             undefined         ACC:1          <RETURN>
                             FUN_CODE_2554                                   XREF[1]:     CODE:10e7(c)  
       CODE:2554 d2 93           SETB       P1.3                                                       = ??
       CODE:2556 22              RET
                             **************************************************************
                             *                          FUNCTION                          *
                             **************************************************************
                             undefined FUN_CODE_2557()
             undefined         ACC:1          <RETURN>
                             FUN_CODE_2557                                   XREF[1]:     CODE:0fff(c)  
       CODE:2557 c2 93           CLR        P1.3                                                       = ??
       CODE:2559 22              RET
                             **************************************************************
                             *                          FUNCTION                          *
                             **************************************************************
                             undefined FUN_CODE_255a()
             undefined         ACC:1          <RETURN>
                             FUN_CODE_255a                                   XREF[3]:     CODE:10f1(c), CODE:110a(c), 
                                                                                          FUN_CODE_1e47:1e62(c)  
       CODE:255a a2 cc           MOV        CY,TCLK                                                    = ??
       CODE:255c 20 1a 03        JB         23.2,LAB_CODE_2562                                         = ??
       CODE:255f c2 ac           CLR        ES                                                         = ??
       CODE:2561 22              RET
                             LAB_CODE_2562                                   XREF[1]:     CODE:255c(j)  
       CODE:2562 b0 ac           ANL        CY,/ES                                                     = ??
       CODE:2564 22              RET
                             **************************************************************
                             *                          FUNCTION                          *
                             **************************************************************
                             undefined FUN_CODE_2565()
             undefined         ACC:1          <RETURN>
                             FUN_CODE_2565                                   XREF[1]:     CODE:10c9(c)  
       CODE:2565 d2 a2           SETB       P2.2                                                       = ??
       CODE:2567 22              RET
                             **************************************************************
                             *                          FUNCTION                          *
                             **************************************************************
                             undefined FUN_CODE_2568()
             undefined         ACC:1          <RETURN>
                             FUN_CODE_2568                                   XREF[1]:     CODE:100c(c)  
       CODE:2568 c2 a2           CLR        P2.2                                                       = ??
       CODE:256a 22              RET
                             **************************************************************
                             *                          FUNCTION                          *
                             **************************************************************
                             undefined FUN_CODE_256b()
             undefined         ACC:1          <RETURN>
                             FUN_CODE_256b                                   XREF[3]:     CODE:10d3(c), CODE:10ec(c), 
                                                                                          FUN_CODE_1e47:1e72(c)  
       CODE:256b a2 a4           MOV        CY,P2.4                                                    = ??
       CODE:256d 20 1c 03        JB         23.4,LAB_CODE_2573                                         = ??
       CODE:2570 c2 ae           CLR        EC                                                         = ??
       CODE:2572 22              RET
                             LAB_CODE_2573                                   XREF[1]:     CODE:256d(j)  
       CODE:2573 b0 ae           ANL        CY,/EC                                                     = ??
       CODE:2575 22              RET
                             **************************************************************
                             *                          FUNCTION                          *
                             **************************************************************
                             undefined FUN_CODE_2576()
             undefined         ACC:1          <RETURN>
                             FUN_CODE_2576                                   XREF[2]:     CODE:1245(c), CODE:1295(c)  
       CODE:2576 d2 a3           SETB       P2.3                                                       = ??
       CODE:2578 22              RET
                             **************************************************************
                             *                          FUNCTION                          *
                             **************************************************************
                             undefined FUN_CODE_2579()
             undefined         ACC:1          <RETURN>
                             FUN_CODE_2579                                   XREF[5]:     CODE:2234(c), CODE:2275(c), 
                                                                                          CODE:228a(c), CODE:230d(c), 
                                                                                          CODE:2346(c)  
       CODE:2579 e4              CLR        A
       CODE:257a a2 cf           MOV        CY,TF2                                                     = ??
       CODE:257c 92 e0           MOV        ACC.0,CY                                                   = ??
       CODE:257e a2 ce           MOV        CY,EXF2                                                    = ??
       CODE:2580 22              RET
                             **************************************************************
                             *                          FUNCTION                          *
                             **************************************************************
                             undefined FUN_CODE_2581()
             undefined         ACC:1          <RETURN>
                             FUN_CODE_2581                                   XREF[1]:     CODE:22f0(c)  
       CODE:2581 d2 cf           SETB       TF2                                                        = ??
       CODE:2583 22              RET
                             **************************************************************
                             *                          FUNCTION                          *
                             **************************************************************
                             undefined FUN_CODE_2584()
             undefined         ACC:1          <RETURN>
                             FUN_CODE_2584                                   XREF[2]:     CODE:22d8(c), CODE:22eb(c)  
       CODE:2584 c2 cf           CLR        TF2                                                        = ??
       CODE:2586 22              RET
                             **************************************************************
                             *                          FUNCTION                          *
                             **************************************************************
                             undefined FUN_CODE_2587()
             undefined         ACC:1          <RETURN>
                             FUN_CODE_2587                                   XREF[4]:     CODE:2223(c), CODE:225a(c), 
                                                                                          CODE:2282(c), CODE:228f(c)  
       CODE:2587 b2 cf           CPL        TF2                                                        = ??
       CODE:2589 22              RET
                             **************************************************************
                             *                          FUNCTION                          *
                             **************************************************************
                             undefined FUN_CODE_258a()
             undefined         ACC:1          <RETURN>
                             FUN_CODE_258a                                   XREF[1]:     CODE:14ca(c)  
       CODE:258a d2 c0           SETB       FIFLG.0                                                    = ??
       CODE:258c 22              RET
                             **************************************************************
                             *                          FUNCTION                          *
                             **************************************************************
                             undefined FUN_CODE_258d()
             undefined         ACC:1          <RETURN>
                             FUN_CODE_258d                                   XREF[1]:     CODE:14c5(c)  
       CODE:258d c2 c0           CLR        FIFLG.0                                                    = ??
       CODE:258f 22              RET
                             **************************************************************
                             *                          FUNCTION                          *
                             **************************************************************
                             undefined FUN_CODE_2590()
             undefined         ACC:1          <RETURN>
                             FUN_CODE_2590                                   XREF[1]:     CODE:23d5(c)  
       CODE:2590 e5 e2           MOV        A,RXSTAT                                                   = ??
       CODE:2592 a2 e4           MOV        CY,ACC.4                                                   = ??
       CODE:2594 22              RET
                             **************************************************************
                             *                          FUNCTION                          *
                             **************************************************************
                             undefined FUN_CODE_2595()
             undefined         ACC:1          <RETURN>
                             FUN_CODE_2595                                   XREF[2]:     FUN_CODE_08d0:08d0(c), 
                                                                                          CODE:23da(c)  
       CODE:2595 75 e0 00        MOV        A,#0x0
       CODE:2598 d2 e4           SETB       ACC.4                                                      = ??
       CODE:259a f5 e2           MOV        RXSTAT,A                                                   = ??
       CODE:259c e5 e1           MOV        A,EPCON                                                    = ??
       CODE:259e a2 e7           MOV        CY,ACC.7                                                   = ??
       CODE:25a0 22              RET
                             **************************************************************
                             *                          FUNCTION                          *
                             **************************************************************
                             undefined FUN_CODE_25a1()
             undefined         ACC:1          <RETURN>
                             FUN_CODE_25a1                                   XREF[20]:    FUN_CODE_08d0:0a11(c), 
                                                                                          FUN_CODE_08d0:0ab5(c), 
                                                                                          FUN_CODE_08d0:0ae2(c), 
                                                                                          FUN_CODE_08d0:0b34(c), 
                                                                                          FUN_CODE_08d0:0bbd(c), 
                                                                                          FUN_CODE_08d0:0c20(c), 
                                                                                          FUN_CODE_08d0:0c43(c), 
                                                                                          FUN_CODE_08d0:0c7c(c), 
                                                                                          FUN_CODE_08d0:0c93(c), 
                                                                                          FUN_CODE_08d0:0c9e(c), 
                                                                                          FUN_CODE_08d0:0cd5(c), 
                                                                                          FUN_CODE_08d0:0d16(c), 
                                                                                          FUN_CODE_08d0:0d36(c), 
                                                                                          FUN_CODE_08d0:0d50(c), 
                                                                                          FUN_CODE_08d0:0d6f(c), 
                                                                                          FUN_CODE_08d0:0dbe(c), 
                                                                                          FUN_CODE_08d0:0dd0(c), 
                                                                                          FUN_CODE_08d0:0ddd(c), 
                                                                                          CODE:1bde(c), CODE:2a5b(c)  
       CODE:25a1 d2 e4           SETB       ACC.4                                                      = ??
       CODE:25a3 f5 e2           MOV        RXSTAT,A                                                   = ??
       CODE:25a5 22              RET
                             **************************************************************
                             *                          FUNCTION                          *
                             **************************************************************
                             undefined FUN_CODE_25a6()
             undefined         ACC:1          <RETURN>
                             FUN_CODE_25a6                                   XREF[43]:    FUN_CODE_08d0:0a14(c), 
                                                                                          FUN_CODE_08d0:0a18(c), 
                                                                                          FUN_CODE_08d0:0a1c(c), 
                                                                                          FUN_CODE_08d0:0a20(c), 
                                                                                          FUN_CODE_08d0:0a24(c), 
                                                                                          FUN_CODE_08d0:0ab8(c), 
                                                                                          FUN_CODE_08d0:0ae5(c), 
                                                                                          FUN_CODE_08d0:0b3e(c), 
                                                                                          FUN_CODE_08d0:0bc0(c), 
                                                                                          FUN_CODE_08d0:0bc4(c), 
                                                                                          FUN_CODE_08d0:0bc8(c), 
                                                                                          FUN_CODE_08d0:0bcc(c), 
                                                                                          FUN_CODE_08d0:0c23(c), 
                                                                                          FUN_CODE_08d0:0c27(c), 
                                                                                          FUN_CODE_08d0:0c2b(c), 
                                                                                          FUN_CODE_08d0:0c2f(c), 
                                                                                          FUN_CODE_08d0:0c33(c), 
                                                                                          FUN_CODE_08d0:0c46(c), 
                                                                                          FUN_CODE_08d0:0c4a(c), 
                                                                                          FUN_CODE_08d0:0c4e(c), [more]
       CODE:25a6 e5 e1           MOV        A,EPCON                                                    = ??
       CODE:25a8 22              RET
                             **************************************************************
                             *                          FUNCTION                          *
                             **************************************************************
                             undefined FUN_CODE_25a9()
             undefined         ACC:1          <RETURN>
                             FUN_CODE_25a9                                   XREF[3]:     FUN_CODE_08d0:0dd7(c), 
                                                                                          FUN_CODE_08d0:0de4(c), 
                                                                                          CODE:25ad(j)  
       CODE:25a9 e5 e1           MOV        A,EPCON                                                    = ??
       CODE:25ab f6              MOV        @R0,A
       CODE:25ac 08              INC        R0
       CODE:25ad da fa           DJNZ       R2,FUN_CODE_25a9
       CODE:25af 22              RET
                             **************************************************************
                             *                          FUNCTION                          *
                             **************************************************************
                             undefined FUN_CODE_25b0()
             undefined         ACC:1          <RETURN>
                             FUN_CODE_25b0                                   XREF[2]:     CODE:23e2(c), CODE:23ee(c)  
       CODE:25b0 75 e2 00        MOV        RXSTAT,#0x0                                                = ??
       CODE:25b3 22              RET
                             **************************************************************
                             *                          FUNCTION                          *
                             **************************************************************
                             undefined FUN_CODE_25b4()
             undefined         ACC:1          <RETURN>
                             FUN_CODE_25b4                                   XREF[1]:     CODE:1ee9(c)  
       CODE:25b4 e4              CLR        A
       CODE:25b5 d2 e4           SETB       ACC.4                                                      = ??
       CODE:25b7 f5 d6           MOV        DAT_SFR_d6,A                                               = ??
       CODE:25b9 7a 10           MOV        R2,#0x10
                             LAB_CODE_25bb                                   XREF[1]:     CODE:25c0(j)  
       CODE:25bb 75 d5 00        MOV        HPSC,#0x0                                                  = ??
       CODE:25be e5 d6           MOV        A,DAT_SFR_d6                                               = ??
       CODE:25c0 da f9           DJNZ       R2,LAB_CODE_25bb
       CODE:25c2 22              RET
                             **************************************************************
                             *                          FUNCTION                          *
                             **************************************************************
                             undefined FUN_CODE_25c3()
             undefined         ACC:1          <RETURN>
                             FUN_CODE_25c3                                   XREF[32]:    FUN_CODE_08d0:08dc(c), 
                                                                                          FUN_CODE_08d0:0938(c), 
                                                                                          FUN_CODE_08d0:0962(c), 
                                                                                          FUN_CODE_08d0:0995(c), 
                                                                                          FUN_CODE_08d0:09c8(c), 
                                                                                          FUN_CODE_08d0:09d3(c), 
                                                                                          FUN_CODE_08d0:09e2(c), 
                                                                                          FUN_CODE_08d0:09f4(c), 
                                                                                          FUN_CODE_08d0:0a3c(c), 
                                                                                          FUN_CODE_08d0:0a4c(c), 
                                                                                          FUN_CODE_08d0:0a5a(c), 
                                                                                          FUN_CODE_08d0:0a8b(c), 
                                                                                          FUN_CODE_08d0:0a96(c), 
                                                                                          FUN_CODE_08d0:0b10(c), 
                                                                                          FUN_CODE_08d0:0b39(c), 
                                                                                          FUN_CODE_08d0:0b49(c), 
                                                                                          FUN_CODE_08d0:0b56(c), 
                                                                                          FUN_CODE_0de8:0e55(c), 
                                                                                          CODE:1bf2(c), CODE:1bff(c), [more]
       CODE:25c3 d2 e4           SETB       ACC.4                                                      = ??
       CODE:25c5 f5 d6           MOV        DAT_SFR_d6,A                                               = ??
       CODE:25c7 22              RET
                             **************************************************************
                             *                          FUNCTION                          *
                             **************************************************************
                             undefined FUN_CODE_25c8()
             undefined         ACC:1          <RETURN>
                             FUN_CODE_25c8                                   XREF[67]:    FUN_CODE_08d0:08e1(c), 
                                                                                          FUN_CODE_08d0:093d(c), 
                                                                                          FUN_CODE_08d0:0942(c), 
                                                                                          FUN_CODE_08d0:0947(c), 
                                                                                          FUN_CODE_08d0:094c(c), 
                                                                                          FUN_CODE_08d0:0966(c), 
                                                                                          FUN_CODE_08d0:096a(c), 
                                                                                          FUN_CODE_08d0:096e(c), 
                                                                                          FUN_CODE_08d0:0972(c), 
                                                                                          FUN_CODE_08d0:0976(c), 
                                                                                          FUN_CODE_08d0:097b(c), 
                                                                                          FUN_CODE_08d0:0980(c), 
                                                                                          FUN_CODE_08d0:0985(c), 
                                                                                          FUN_CODE_08d0:098a(c), 
                                                                                          FUN_CODE_08d0:098f(c), 
                                                                                          FUN_CODE_08d0:099a(c), 
                                                                                          FUN_CODE_08d0:099f(c), 
                                                                                          FUN_CODE_08d0:09a4(c), 
                                                                                          FUN_CODE_08d0:09a9(c), 
                                                                                          CODE:1bf7(c), [more]
       CODE:25c8 f5 d5           MOV        HPSC,A                                                     = ??
       CODE:25ca 22              RET
                             **************************************************************
                             *                          FUNCTION                          *
                             **************************************************************
                             undefined FUN_CODE_25cb()
             undefined         ACC:1          <RETURN>
                             FUN_CODE_25cb                                   XREF[3]:     FUN_CODE_08d0:0b50(c), 
                                                                                          FUN_CODE_08d0:0b5d(c), 
                                                                                          CODE:25cf(j)  
       CODE:25cb e6              MOV        A,@R0
       CODE:25cc f5 d5           MOV        HPSC,A                                                     = ??
       CODE:25ce 08              INC        R0
       CODE:25cf da fa           DJNZ       R2,FUN_CODE_25cb
       CODE:25d1 22              RET
                             **************************************************************
                             *                          FUNCTION                          *
                             **************************************************************
                             undefined FUN_CODE_25d2()
             undefined         ACC:1          <RETURN>
                             FUN_CODE_25d2                                   XREF[2]:     FUN_CODE_0de8:0e3f(c), 
                                                                                          CODE:1f04(c)  
       CODE:25d2 75 d6 00        MOV        DAT_SFR_d6,#0x0                                            = ??
       CODE:25d5 22              RET
                             **************************************************************
                             *                          FUNCTION                          *
                             **************************************************************
                             undefined FUN_CODE_25d6()
             undefined         ACC:1          <RETURN>
                             FUN_CODE_25d6                                   XREF[1]:     CODE:1f0b(c)  
       CODE:25d6 e5 d6           MOV        A,DAT_SFR_d6                                               = ??
       CODE:25d8 a2 e4           MOV        CY,ACC.4                                                   = ??
       CODE:25da 22              RET
                             **************************************************************
                             *                          FUNCTION                          *
                             **************************************************************
                             undefined FUN_CODE_25db()
             undefined         ACC:1          <RETURN>
                             FUN_CODE_25db                                   XREF[2]:     CODE:129e(c), CODE:12ec(c)  
       CODE:25db c2 5a           CLR        2b.2                                                       = ??
       CODE:25dd 90 26 0a        MOV        DPTR,#DAT_CODE_260a                                        = 53h    S
       CODE:25e0 12 2e ce        LCALL      FUN_CODE_2ece                                              undefined FUN_CODE_2ece()
       CODE:25e3 e5 e3           MOV        A,RXDAT                                                    = ??
       CODE:25e5 c4              SWAP       A
       CODE:25e6 54 03           ANL        A,#0x3
       CODE:25e8 75 f0 03        MOV        B,#0x3
       CODE:25eb a4              MUL        AB
       CODE:25ec fa              MOV        R2,A
       CODE:25ed 90 26 45        MOV        DPTR,#DAT_CODE_2645
       CODE:25f0 85 e5 f0        MOV        B,RXFLG                                                    = ??
       CODE:25f3 30 f1 03        JNB        B.1,LAB_CODE_25f9                                          = ??
       CODE:25f6 90 26 51        MOV        DPTR,#DAT_CODE_2651
                             LAB_CODE_25f9                                   XREF[1]:     CODE:25f3(j)  
       CODE:25f9 93              MOVC       A,@A+DPTR=>DAT_CODE_2651
       CODE:25fa f5 ed           MOV        CCAP3L,A                                                   = ??
       CODE:25fc 0a              INC        R2
       CODE:25fd ea              MOV        A,R2
       CODE:25fe 93              MOVC       A,@A+DPTR=>DAT_CODE_2651
       CODE:25ff f5 ec           MOV        CCAP2L,A                                                   = ??
       CODE:2601 0a              INC        R2
       CODE:2602 ea              MOV        A,R2
       CODE:2603 93              MOVC       A,@A+DPTR=>DAT_CODE_2651
       CODE:2604 f5 eb           MOV        CCAP1L,A                                                   = ??
       CODE:2606 75 f5 02        MOV        TXFLG,#0x2                                                 = ??
       CODE:2609 22              RET
                             DAT_CODE_260a                                   XREF[1]:     FUN_CODE_25db:25dd(*)  
       CODE:260a 53              ??         DAT_INTMEM_53                                              = ??
       CODE:260b e4              ??         E4h
       CODE:260c 59              ??         DAT_INTMEM_59                                              = ??
       CODE:260d 64              ??         64h    d
       CODE:260e 4f              ??         DAT_INTMEM_4f                                              = ??
       CODE:260f 3c              ??         3Ch    <
       CODE:2610 50              ??         DAT_INTMEM_50                                              = ??
       CODE:2611 03              ??         03h
       CODE:2612 51              ??         DAT_INTMEM_51                                              = ??
       CODE:2613 0a              ??         0Ah
       CODE:2614 ea              ??         DAT_INTMEM_ea                                              = ??
       CODE:2615 4d              ??         4Dh    M
       CODE:2616 eb              ??         DAT_INTMEM_eb                                              = ??
       CODE:2617 00              ??         00h
       CODE:2618 ec              ??         DAT_INTMEM_ec                                              = ??
       CODE:2619 74              ??         74h    t
       CODE:261a ed              ??         DAT_INTMEM_ed                                              = ??
       CODE:261b 00              ??         00h
       CODE:261c ee              ??         DAT_INTMEM_ee                                              = ??
       CODE:261d 4d              ??         4Dh    M
       CODE:261e ef              ??         DAT_INTMEM_ef                                              = ??
       CODE:261f 00              ??         00h
       CODE:2620 f0              ??         DAT_INTMEM_f0                                              = ??
       CODE:2621 74              ??         74h    t
       CODE:2622 f1              ??         DAT_INTMEM_f1                                              = ??
       CODE:2623 00              ??         00h
       CODE:2624 f2              ??         DAT_INTMEM_f2                                              = ??
       CODE:2625 4e              ??         4Eh    N
       CODE:2626 f3              ??         DAT_INTMEM_f3                                              = ??
       CODE:2627 0a              ??         0Ah
       CODE:2628 f4              ??         DAT_INTMEM_f4                                              = ??
       CODE:2629 74              ??         74h    t
       CODE:262a f5              ??         DAT_INTMEM_f5                                              = ??
       CODE:262b 00              ??         00h
       CODE:262c f6              ??         DAT_INTMEM_f6                                              = ??
       CODE:262d 4b              ??         4Bh    K
       CODE:262e f7              ??         DAT_INTMEM_f7                                              = ??
       CODE:262f 07              ??         07h
       CODE:2630 f8              ??         DAT_INTMEM_f8                                              = ??
       CODE:2631 74              ??         74h    t
       CODE:2632 f9              ??         DAT_INTMEM_f9                                              = ??
       CODE:2633 70              ??         70h    p
       CODE:2634 e9              ??         DAT_INTMEM_e9                                              = ??
       CODE:2635 03              ??         03h
       CODE:2636 45              ??         DAT_INTMEM_45                                              = ??
       CODE:2637 52              ??         52h    R
       CODE:2638 46              ??         DAT_INTMEM_46                                              = ??
       CODE:2639 4c              ??         4Ch    L
       CODE:263a 47              ??         DAT_INTMEM_47                                              = ??
       CODE:263b 4c              ??         4Ch    L
       CODE:263c 48              ??         DAT_INTMEM_48                                              = ??
       CODE:263d 59              ??         59h    Y
       CODE:263e 49              ??         DAT_INTMEM_49                                              = ??
       CODE:263f 52              ??         52h    R
       CODE:2640 4a              ??         DAT_INTMEM_4a                                              = ??
       CODE:2641 52              ??         52h    R
       CODE:2642 54              ??         DAT_INTMEM_54                                              = ??
       CODE:2643 1b              ??         1Bh
       CODE:2644 00              ??         00h
                             DAT_CODE_2645                                   XREF[4]:     FUN_CODE_25db:25ed(*), 
                                                                                          FUN_CODE_25db:25f9(*), 
                                                                                          FUN_CODE_25db:25fe(*), 
                                                                                          FUN_CODE_25db:2603(*)  
       CODE:2645 00              ??         00h
       CODE:2646 7b              ??         7Bh    {
       CODE:2647 e0              ??         E0h
       CODE:2648 00              ??         00h
       CODE:2649 f7              ??         F7h
       CODE:264a c0              ??         C0h
       CODE:264b 01              ??         01h
       CODE:264c ef              ??         EFh
       CODE:264d c0              ??         C0h
       CODE:264e 03              ??         03h
       CODE:264f df              ??         DFh
       CODE:2650 c0              ??         C0h
                             DAT_CODE_2651                                   XREF[4]:     FUN_CODE_25db:25f6(*), 
                                                                                          FUN_CODE_25db:25f9(*), 
                                                                                          FUN_CODE_25db:25fe(*), 
                                                                                          FUN_CODE_25db:2603(*)  
       CODE:2651 00              ??         00h
       CODE:2652 f7              ??         F7h
       CODE:2653 c0              ??         C0h
       CODE:2654 00              ??         00h
       CODE:2655 f7              ??         F7h
       CODE:2656 c0              ??         C0h
       CODE:2657 03              ??         03h
       CODE:2658 be              ??         BEh
       CODE:2659 00              ??         00h
       CODE:265a 03              ??         03h
       CODE:265b bc              ??         BCh
       CODE:265c 00              ??         00h
                             **************************************************************
                             *                          FUNCTION                          *
                             **************************************************************
                             undefined FUN_CODE_265d()
             undefined         ACC:1          <RETURN>
                             FUN_CODE_265d                                   XREF[2]:     CODE:12a6(c), CODE:12fa(c)  
       CODE:265d c2 5d           CLR        2b.5                                                       = ??
       CODE:265f e5 ee           MOV        A,CCAP4L                                                   = ??
       CODE:2661 20 e0 04        JB         ACC.0,LAB_CODE_2668                                        = ??
       CODE:2664 54 b0           ANL        A,#0xb0
       CODE:2666 60 06           JZ         LAB_CODE_266e
                             LAB_CODE_2668                                   XREF[3]:     CODE:2661(j), CODE:2679(j), 
                                                                                          CODE:26bf(j)  
       CODE:2668 20 11 02        JB         22.1,LAB_CODE_266d                                         = ??
       CODE:266b d2 5d           SETB       2b.5                                                       = ??
                             LAB_CODE_266d                                   XREF[1]:     CODE:2668(j)  
       CODE:266d 22              RET
                             LAB_CODE_266e                                   XREF[1]:     CODE:2666(j)  
       CODE:266e 75 eb 00        MOV        CCAP1L,#0x0                                                = ??
       CODE:2671 75 ea 0c        MOV        CCAP0L,#0xc                                                = ??
       CODE:2674 75 f5 00        MOV        TXFLG,#0x0                                                 = ??
       CODE:2677 e5 f3           MOV        A,TXDAT                                                    = ??
       CODE:2679 b4 05 ec        CJNE       A,#0x5,LAB_CODE_2668
       CODE:267c 75 ea 00        MOV        CCAP0L,#0x0                                                = ??
       CODE:267f 75 f5 00        MOV        TXFLG,#0x0                                                 = ??
       CODE:2682 aa f1           MOV        R2,EPINDEX                                                 = ??
       CODE:2684 ab f2           MOV        R3,TXSTAT                                                  = ??
       CODE:2686 7c 3f           MOV        R4,#0x3f
       CODE:2688 75 ea 10        MOV        CCAP0L,#0x10                                               = ??
                             LAB_CODE_268b                                   XREF[1]:     CODE:26b5(j)  
       CODE:268b 75 f5 00        MOV        TXFLG,#0x0                                                 = ??
       CODE:268e 75 f0 00        MOV        B,#0x0
       CODE:2691 ea              MOV        A,R2
       CODE:2692 25 f1           ADD        A,EPINDEX                                                  = ??
       CODE:2694 92 f0           MOV        B.0,CY                                                     = ??
       CODE:2696 25 f2           ADD        A,TXSTAT                                                   = ??
       CODE:2698 92 f1           MOV        B.1,CY                                                     = ??
       CODE:269a 25 f3           ADD        A,TXDAT                                                    = ??
       CODE:269c 92 f2           MOV        B.2,CY                                                     = ??
       CODE:269e 25 f4           ADD        A,TXCON                                                    = ??
       CODE:26a0 92 f3           MOV        B.3,CY                                                     = ??
       CODE:26a2 fa              MOV        R2,A
       CODE:26a3 eb              MOV        A,R3
       CODE:26a4 a2 f0           MOV        CY,B.0                                                     = ??
       CODE:26a6 34 00           ADDC       A,#0x0
       CODE:26a8 a2 f1           MOV        CY,B.1                                                     = ??
       CODE:26aa 34 00           ADDC       A,#0x0
       CODE:26ac a2 f2           MOV        CY,B.2                                                     = ??
       CODE:26ae 34 00           ADDC       A,#0x0
       CODE:26b0 a2 f3           MOV        CY,B.3                                                     = ??
       CODE:26b2 34 00           ADDC       A,#0x0
       CODE:26b4 fb              MOV        R3,A
       CODE:26b5 dc d4           DJNZ       R4,LAB_CODE_268b
       CODE:26b7 ea              MOV        A,R2
       CODE:26b8 24 01           ADD        A,#0x1
       CODE:26ba fa              MOV        R2,A
       CODE:26bb eb              MOV        A,R3
       CODE:26bc 34 00           ADDC       A,#0x0
       CODE:26be 4a              ORL        A,R2
       CODE:26bf 70 a7           JNZ        LAB_CODE_2668
       CODE:26c1 75 eb 00        MOV        CCAP1L,#0x0                                                = ??
       CODE:26c4 75 ea 10        MOV        CCAP0L,#0x10                                               = ??
       CODE:26c7 75 f5 00        MOV        TXFLG,#0x0                                                 = ??
       CODE:26ca 85 f4 59        MOV        DAT_INTMEM_59,TXCON                                        = ??
       CODE:26cd aa f2           MOV        R2,TXSTAT                                                  = ??
       CODE:26cf 75 ea 14        MOV        CCAP0L,#0x14                                               = ??
       CODE:26d2 75 f5 00        MOV        TXFLG,#0x0                                                 = ??
       CODE:26d5 e5 f1           MOV        A,EPINDEX                                                  = ??
       CODE:26d7 a2 e6           MOV        CY,ACC.6                                                   = ??
       CODE:26d9 92 5a           MOV        2b.2,CY                                                    = ??
       CODE:26db 30 e1 02        JNB        ACC.1,LAB_CODE_26e0                                        = ??
       CODE:26de 80 7c           SJMP       LAB_CODE_275c
                             LAB_CODE_26e0                                   XREF[1]:     CODE:26db(j)  
       CODE:26e0 85 f2 4f        MOV        DAT_INTMEM_4f,TXSTAT                                       = ??
       CODE:26e3 85 f3 50        MOV        DAT_INTMEM_50,TXDAT                                        = ??
       CODE:26e6 85 f4 51        MOV        DAT_INTMEM_51,TXCON                                        = ??
       CODE:26e9 8a 53           MOV        DAT_INTMEM_53,R2                                           = ??
       CODE:26eb 75 ea 18        MOV        CCAP0L,#0x18                                               = ??
       CODE:26ee 75 f5 00        MOV        TXFLG,#0x0                                                 = ??
       CODE:26f1 78 ea           MOV        R0,#0xea
       CODE:26f3 a6 f2           MOV        @R0=>DAT_INTMEM_ea,TXSTAT                                  = ??
       CODE:26f5 08              INC        R0
       CODE:26f6 a6 f1           MOV        @R0=>DAT_INTMEM_eb,EPINDEX                                 = ??
       CODE:26f8 08              INC        R0
       CODE:26f9 a6 f4           MOV        @R0=>DAT_INTMEM_ec,TXCON                                   = ??
       CODE:26fb 08              INC        R0
       CODE:26fc a6 f3           MOV        @R0=>DAT_INTMEM_ed,TXDAT                                   = ??
       CODE:26fe 75 ea 1c        MOV        CCAP0L,#0x1c                                               = ??
       CODE:2701 75 f5 00        MOV        TXFLG,#0x0                                                 = ??
       CODE:2704 78 ee           MOV        R0,#0xee
       CODE:2706 a6 f2           MOV        @R0=>DAT_INTMEM_ee,TXSTAT                                  = ??
       CODE:2708 08              INC        R0
       CODE:2709 a6 f1           MOV        @R0=>DAT_INTMEM_ef,EPINDEX                                 = ??
       CODE:270b 08              INC        R0
       CODE:270c a6 f4           MOV        @R0=>DAT_INTMEM_f0,TXCON                                   = ??
       CODE:270e 08              INC        R0
       CODE:270f a6 f3           MOV        @R0=>DAT_INTMEM_f1,TXDAT                                   = ??
       CODE:2711 75 ea 20        MOV        CCAP0L,#0x20                                               = ??
       CODE:2714 75 f5 00        MOV        TXFLG,#0x0                                                 = ??
       CODE:2717 78 f2           MOV        R0,#0xf2
       CODE:2719 a6 f2           MOV        @R0=>TXSTAT,TXSTAT                                         = ??
       CODE:271b 08              INC        R0
       CODE:271c a6 f1           MOV        @R0=>DAT_INTMEM_f3,EPINDEX                                 = ??
       CODE:271e 08              INC        R0
       CODE:271f a6 f4           MOV        @R0=>TXCON,TXCON                                           = ??
       CODE:2721 08              INC        R0
       CODE:2722 a6 f3           MOV        @R0=>DAT_INTMEM_f5,TXDAT                                   = ??
       CODE:2724 75 ea 24        MOV        CCAP0L,#0x24                                               = ??
       CODE:2727 75 f5 00        MOV        TXFLG,#0x0                                                 = ??
       CODE:272a 78 f6           MOV        R0,#0xf6
       CODE:272c a6 f2           MOV        @R0=>DAT_INTMEM_f6,TXSTAT                                  = ??
       CODE:272e 08              INC        R0
       CODE:272f a6 f1           MOV        @R0=>DAT_INTMEM_f7,EPINDEX                                 = ??
       CODE:2731 08              INC        R0
       CODE:2732 a6 f4           MOV        @R0=>DAT_INTMEM_f8,TXCON                                   = ??
       CODE:2734 08              INC        R0
       CODE:2735 a6 f3           MOV        @R0=>DAT_INTMEM_f9,TXDAT                                   = ??
       CODE:2737 75 ea 28        MOV        CCAP0L,#0x28                                               = ??
       CODE:273a 75 f5 00        MOV        TXFLG,#0x0                                                 = ??
       CODE:273d 78 e9           MOV        R0,#0xe9
       CODE:273f a6 f1           MOV        @R0=>DAT_INTMEM_e9,EPINDEX                                 = ??
       CODE:2741 85 f2 45        MOV        DAT_INTMEM_45,TXSTAT                                       = ??
       CODE:2744 85 f3 46        MOV        DAT_INTMEM_46,TXDAT                                        = ??
       CODE:2747 85 f4 47        MOV        DAT_INTMEM_47,TXCON                                        = ??
       CODE:274a 75 ea 2c        MOV        CCAP0L,#0x2c                                               = ??
       CODE:274d 75 f5 00        MOV        TXFLG,#0x0                                                 = ??
       CODE:2750 85 f1 48        MOV        DAT_INTMEM_48,EPINDEX                                      = ??
       CODE:2753 85 f2 49        MOV        DAT_INTMEM_49,TXSTAT                                       = ??
       CODE:2756 85 f3 4a        MOV        DAT_INTMEM_4a,TXDAT                                        = ??
       CODE:2759 85 f4 54        MOV        DAT_INTMEM_54,TXCON                                        = ??
                             LAB_CODE_275c                                   XREF[1]:     CODE:26de(j)  
       CODE:275c 22              RET
                             **************************************************************
                             *                          FUNCTION                          *
                             **************************************************************
                             undefined FUN_CODE_275d()
             undefined         ACC:1          <RETURN>
                             FUN_CODE_275d                                   XREF[1]:     FUN_CODE_1598:16d8(c)  
       CODE:275d f5 93           MOV        DPX,A                                                      = ??
       CODE:275f 22              RET
                             **************************************************************
                             *                          FUNCTION                          *
                             **************************************************************
                             undefined FUN_CODE_2760()
             undefined         ACC:1          <RETURN>
                             FUN_CODE_2760                                   XREF[5]:     CODE:1dac(c), CODE:1db8(c), 
                                                                                          CODE:1deb(c), CODE:1e02(c), 
                                                                                          CODE:1e10(c)  
       CODE:2760 a2 a7           MOV        CY,P2.7                                                    = ??
       CODE:2762 b3              CPL        CY
       CODE:2763 22              RET
                             **************************************************************
                             *                          FUNCTION                          *
                             **************************************************************
                             undefined FUN_CODE_2764()
             undefined         ACC:1          <RETURN>
                             FUN_CODE_2764                                   XREF[5]:     CODE:1db1(c), CODE:1dbd(c), 
                                                                                          CODE:1df0(c), CODE:1dfd(c), 
                                                                                          CODE:1e15(c)  
       CODE:2764 a2 90           MOV        CY,P1.0                                                    = ??
       CODE:2766 b3              CPL        CY
       CODE:2767 22              RET
                             **************************************************************
                             *                          FUNCTION                          *
                             **************************************************************
                             undefined FUN_CODE_2768()
             undefined         ACC:1          <RETURN>
                             FUN_CODE_2768                                   XREF[5]:     CODE:1497(c), CODE:149e(c), 
                                                                                          CODE:14a5(c), CODE:14ac(c), 
                                                                                          CODE:1e20(c)  
       CODE:2768 a2 92           MOV        CY,P1.2                                                    = ??
       CODE:276a b3              CPL        CY
       CODE:276b 22              RET
                             **************************************************************
                             *                          FUNCTION                          *
                             **************************************************************
                             undefined FUN_CODE_276c()
             undefined         ACC:1          <RETURN>
                             FUN_CODE_276c                                   XREF[4]:     CODE:21ca(c), CODE:21d1(c), 
                                                                                          CODE:21e7(c), CODE:21ee(c)  
       CODE:276c a2 a8           MOV        CY,EX0                                                     = ??
       CODE:276e c2 a8           CLR        EX0                                                        = ??
       CODE:2770 40 03           JC         LAB_CODE_2775
       CODE:2772 a2 91           MOV        CY,P1.1                                                    = ??
       CODE:2774 b3              CPL        CY
                             LAB_CODE_2775                                   XREF[1]:     CODE:2770(j)  
       CODE:2775 22              RET
                             **************************************************************
                             *                          FUNCTION                          *
                             **************************************************************
                             undefined FUN_CODE_2776()
             undefined         ACC:1          <RETURN>
                             FUN_CODE_2776                                   XREF[2]:     CODE:1420(c), CODE:1430(c)  
       CODE:2776 e4              CLR        A
       CODE:2777 a2 c2           MOV        CY,FIFLG.2                                                 = ??
       CODE:2779 92 e6           MOV        ACC.6,CY                                                   = ??
       CODE:277b a2 c7           MOV        CY,FIFLG.7                                                 = ??
       CODE:277d 92 e4           MOV        ACC.4,CY                                                   = ??
       CODE:277f a2 c6           MOV        CY,FIFLG.6                                                 = ??
       CODE:2781 92 e3           MOV        ACC.3,CY                                                   = ??
       CODE:2783 a2 c5           MOV        CY,FIFLG.5                                                 = ??
       CODE:2785 92 e2           MOV        ACC.2,CY                                                   = ??
       CODE:2787 a2 c4           MOV        CY,FIFLG.4                                                 = ??
       CODE:2789 92 e1           MOV        ACC.1,CY                                                   = ??
       CODE:278b a2 cb           MOV        CY,EXEN2                                                   = ??
       CODE:278d 92 e0           MOV        ACC.0,CY                                                   = ??
       CODE:278f 22              RET
                             **************************************************************
                             *                          FUNCTION                          *
                             **************************************************************
                             undefined FUN_CODE_2790()
             undefined         ACC:1          <RETURN>
                             FUN_CODE_2790                                   XREF[2]:     CODE:14ee(c), CODE:151f(c)  
       CODE:2790 75 79 00        MOV        DAT_INTMEM_79,#0x0                                         = ??
       CODE:2793 22              RET
                             **************************************************************
                             *                          FUNCTION                          *
                             **************************************************************
                             undefined FUN_CODE_2794()
             undefined         ACC:1          <RETURN>
                             FUN_CODE_2794                                   XREF[3]:     FUN_CODE_07e3:07fd(c), 
                                                                                          CODE:14e9(c), CODE:1503(c)  
       CODE:2794 e5 79           MOV        A,DAT_INTMEM_79                                            = ??
       CODE:2796 a2 cd           MOV        CY,RCLK                                                    = ??
       CODE:2798 b3              CPL        CY
       CODE:2799 22              RET
                             **************************************************************
                             *                          FUNCTION                          *
                             **************************************************************
                             undefined FUN_CODE_279a()
             undefined         ACC:1          <RETURN>
                             FUN_CODE_279a                                   XREF[3]:     FUN_CODE_07e3:0808(c), 
                                                                                          FUN_CODE_08d0:0952(c), 
                                                                                          FUN_CODE_2e9d:2e9d(c)  
       CODE:279a 43 af 01        ORL        DAT_SFR_af,#0x1                                            = ??
       CODE:279d ae ae           MOV        R6,HSTAT                                                   = ??
       CODE:279f ad ad           MOV        R5,DAT_SFR_ad                                              = ??
       CODE:27a1 ac ac           MOV        R4,DAT_SFR_ac                                              = ??
       CODE:27a3 ab ab           MOV        R3,DAT_SFR_ab                                              = ??
       CODE:27a5 aa aa           MOV        R2,DAT_SFR_aa                                              = ??
       CODE:27a7 22              RET
                             **************************************************************
                             *                          FUNCTION                          *
                             **************************************************************
                             undefined FUN_CODE_27a8()
             undefined         ACC:1          <RETURN>
                             FUN_CODE_27a8                                   XREF[1]:     FUN_CODE_08d0:0c37(c)  
       CODE:27a8 8e ae           MOV        HSTAT,R6                                                   = ??
       CODE:27aa 8d ad           MOV        DAT_SFR_ad,R5                                              = ??
       CODE:27ac 8c ac           MOV        DAT_SFR_ac,R4                                              = ??
       CODE:27ae 8b ab           MOV        DAT_SFR_ab,R3                                              = ??
       CODE:27b0 8a aa           MOV        DAT_SFR_aa,R2                                              = ??
       CODE:27b2 43 af 02        ORL        DAT_SFR_af,#0x2                                            = ??
       CODE:27b5 22              RET
                             **************************************************************
                             *                          FUNCTION                          *
                             **************************************************************
                             undefined FUN_CODE_27b6()
             undefined         ACC:1          <RETURN>
                             FUN_CODE_27b6                                   XREF[1]:     CODE:1b5a(c)  
       CODE:27b6 75 7a 00        MOV        DAT_INTMEM_7a,#0x0                                         = ??
       CODE:27b9 75 7c 01        MOV        DAT_INTMEM_7c,#0x1                                         = ??
       CODE:27bc 80 26           SJMP       LAB_CODE_27e4
                             **************************************************************
                             *                          FUNCTION                          *
                             **************************************************************
                             undefined FUN_CODE_27be()
             undefined         ACC:1          <RETURN>
                             FUN_CODE_27be                                   XREF[1]:     CODE:1b68(c)  
       CODE:27be 75 7a 03        MOV        DAT_INTMEM_7a,#0x3                                         = ??
       CODE:27c1 80 1e           SJMP       FUN_CODE_27e1                                              undefined FUN_CODE_27e1()
                             -- Flow Override: CALL_RETURN (CALL_TERMINATOR)
                             **************************************************************
                             *                          FUNCTION                          *
                             **************************************************************
                             undefined FUN_CODE_27c3()
             undefined         ACC:1          <RETURN>
                             FUN_CODE_27c3                                   XREF[1]:     CODE:1b77(c)  
       CODE:27c3 75 7a 34        MOV        DAT_INTMEM_7a,#0x34                                        = ??
       CODE:27c6 80 19           SJMP       FUN_CODE_27e1                                              undefined FUN_CODE_27e1()
                             -- Flow Override: CALL_RETURN (CALL_TERMINATOR)
                             **************************************************************
                             *                          FUNCTION                          *
                             **************************************************************
                             undefined FUN_CODE_27c8()
             undefined         ACC:1          <RETURN>
                             FUN_CODE_27c8                                   XREF[1]:     CODE:1b86(c)  
       CODE:27c8 75 7a 60        MOV        DAT_INTMEM_7a,#0x60                                        = ??
       CODE:27cb 80 14           SJMP       FUN_CODE_27e1                                              undefined FUN_CODE_27e1()
                             -- Flow Override: CALL_RETURN (CALL_TERMINATOR)
                             **************************************************************
                             *                          FUNCTION                          *
                             **************************************************************
                             undefined FUN_CODE_27cd()
             undefined         ACC:1          <RETURN>
                             FUN_CODE_27cd                                   XREF[1]:     CODE:1b98(c)  
       CODE:27cd 75 7a 7a        MOV        DAT_INTMEM_7a,#0x7a                                        = ??
       CODE:27d0 80 0f           SJMP       FUN_CODE_27e1                                              undefined FUN_CODE_27e1()
                             -- Flow Override: CALL_RETURN (CALL_TERMINATOR)
                             **************************************************************
                             *                          FUNCTION                          *
                             **************************************************************
                             undefined FUN_CODE_27d2()
             undefined         ACC:1          <RETURN>
                             FUN_CODE_27d2                                   XREF[1]:     CODE:1ba7(c)  
       CODE:27d2 75 7a 7c        MOV        DAT_INTMEM_7a,#0x7c                                        = ??
       CODE:27d5 80 0a           SJMP       FUN_CODE_27e1                                              undefined FUN_CODE_27e1()
                             -- Flow Override: CALL_RETURN (CALL_TERMINATOR)
                             **************************************************************
                             *                          FUNCTION                          *
                             **************************************************************
                             undefined FUN_CODE_27d7()
             undefined         ACC:1          <RETURN>
                             FUN_CODE_27d7                                   XREF[1]:     CODE:1bb6(c)  
       CODE:27d7 75 7a ac        MOV        DAT_INTMEM_7a,#0xac                                        = ??
       CODE:27da 80 05           SJMP       FUN_CODE_27e1                                              undefined FUN_CODE_27e1()
                             -- Flow Override: CALL_RETURN (CALL_TERMINATOR)
                             **************************************************************
                             *                          FUNCTION                          *
                             **************************************************************
                             undefined FUN_CODE_27dc()
             undefined         ACC:1          <RETURN>
                             FUN_CODE_27dc                                   XREF[1]:     CODE:1bc8(c)  
       CODE:27dc 75 7a b7        MOV        DAT_INTMEM_7a,#0xb7                                        = ??
       CODE:27df 80 00           SJMP       FUN_CODE_27e1                                              undefined FUN_CODE_27e1()
                             -- Flow Override: CALL_RETURN (CALL_TERMINATOR)
                             **************************************************************
                             *                          FUNCTION                          *
                             **************************************************************
                             undefined FUN_CODE_27e1()
             undefined         ACC:1          <RETURN>
                             FUN_CODE_27e1                                   XREF[7]:     FUN_CODE_27be:27c1(c), 
                                                                                          FUN_CODE_27c3:27c6(c), 
                                                                                          FUN_CODE_27c8:27cb(c), 
                                                                                          FUN_CODE_27cd:27d0(c), 
                                                                                          FUN_CODE_27d2:27d5(c), 
                                                                                          FUN_CODE_27d7:27da(c), 
                                                                                          FUN_CODE_27dc:27df(c)  
       CODE:27e1 75 7c 03        MOV        DAT_INTMEM_7c,#0x3                                         = ??
                             LAB_CODE_27e4                                   XREF[1]:     FUN_CODE_27b6:27bc(j)  
       CODE:27e4 85 7a 7b        MOV        DAT_INTMEM_7b,DAT_INTMEM_7a                                = ??
       CODE:27e7 80 35           SJMP       FUN_CODE_281e                                              undefined FUN_CODE_281e()
                             -- Flow Override: CALL_RETURN (CALL_TERMINATOR)
                             **************************************************************
                             *                          FUNCTION                          *
                             **************************************************************
                             undefined FUN_CODE_27e9()
             undefined         ACC:1          <RETURN>
                             FUN_CODE_27e9                                   XREF[8]:     CODE:1bd7(c), CODE:1c09(c), 
                                                                                          CODE:1c4f(c), CODE:1c5b(c), 
                                                                                          CODE:1c64(c), CODE:1c70(c), 
                                                                                          CODE:1c79(c), CODE:1c93(c)  
       CODE:27e9 30 64 02        JNB        2c.4,LAB_CODE_27ee                                         = ??
       CODE:27ec 80 2c           SJMP       LAB_CODE_281a
                             LAB_CODE_27ee                                   XREF[1]:     CODE:27e9(j)  
       CODE:27ee 30 da 09        JNB        CCF.2,LAB_CODE_27fa                                        = ??
       CODE:27f1 12 2b ae        LCALL      FUN_CODE_2bae                                              undefined FUN_CODE_2bae()
       CODE:27f4 30 da 03        JNB        CCF.2,LAB_CODE_27fa                                        = ??
       CODE:27f7 12 2b ae        LCALL      FUN_CODE_2bae                                              undefined FUN_CODE_2bae()
                             LAB_CODE_27fa                                   XREF[2]:     CODE:27ee(j), CODE:27f4(j)  
       CODE:27fa 30 65 21        JNB        2c.5,FUN_CODE_281e                                         = ??
                             LAB_CODE_27fd                                   XREF[4]:     CODE:2835(j), CODE:2932(j), 
                                                                                          CODE:2a22(j), CODE:2a3d(j)  
       CODE:27fd d5 7c 07        DJNZ       DAT_INTMEM_7c,LAB_CODE_2807                                = ??
       CODE:2800 d2 d5           SETB       F0                                                         = ??
                             LAB_CODE_2802                                   XREF[1]:     CODE:284a(j)  
       CODE:2802 12 02 7b        LCALL      FUN_CODE_027b                                              undefined FUN_CODE_027b()
       CODE:2805 d3              SETB       CY
       CODE:2806 22              RET
                             LAB_CODE_2807                                   XREF[1]:     CODE:27fd(j)  
       CODE:2807 85 7a 7b        MOV        DAT_INTMEM_7b,DAT_INTMEM_7a                                = ??
       CODE:280a c2 65           CLR        2c.5                                                       = ??
       CODE:280c 80 0c           SJMP       LAB_CODE_281a
                             **************************************************************
                             *                          FUNCTION                          *
                             **************************************************************
                             undefined FUN_CODE_280e()
             undefined         ACC:1          <RETURN>
                             FUN_CODE_280e                                   XREF[8]:     CODE:2895(c), CODE:28b8(c), 
                                                                                          CODE:28eb(c), CODE:2914(c), 
                                                                                          CODE:295c(c), CODE:2a15(c), 
                                                                                          CODE:2a56(c), CODE:2a9e(c)  
       CODE:280e d2 65           SETB       2c.5                                                       = ??
       CODE:2810 d2 64           SETB       2c.4                                                       = ??
       CODE:2812 75 65 00        MOV        DAT_INTMEM_65,#0x0                                         = ??
       CODE:2815 d2 d9           SETB       CCF.1                                                      = ??
       CODE:2817 53 bc f7        ANL        DAT_SFR_bc,#0xf7                                           = ??
                             LAB_CODE_281a                                   XREF[2]:     FUN_CODE_27e9:27ec(j), 
                                                                                          FUN_CODE_27e9:280c(j)  
       CODE:281a c2 d5           CLR        F0                                                         = ??
       CODE:281c c3              CLR        CY
       CODE:281d 22              RET
                             **************************************************************
                             *                          FUNCTION                          *
                             **************************************************************
                             undefined FUN_CODE_281e()
             undefined         ACC:1          <RETURN>
                             FUN_CODE_281e                                   XREF[12]:    FUN_CODE_27e1:27e7(c), 
                                                                                          FUN_CODE_27e9:27fa(j), 
                                                                                          CODE:2846(c), CODE:284e(c), 
                                                                                          CODE:28e8(c), CODE:292c(c), 
                                                                                          CODE:29ad(c), CODE:29d8(c), 
                                                                                          CODE:29fb(c), CODE:2a1f(c), 
                                                                                          CODE:2a3a(c), CODE:2a4d(c)  
       CODE:281e 90 2a cf        MOV        DPTR,#DAT_CODE_2acf
       CODE:2821 e5 7b           MOV        A,DAT_INTMEM_7b                                            = ??
       CODE:2823 93              MOVC       A,@A+DPTR=>DAT_CODE_2acf
       CODE:2824 90 2a a1        MOV        DPTR,#LAB_CODE_2aa1
       CODE:2827 73              JMP        @A+DPTR
                             LAB_CODE_2828                                   XREF[1]:     CODE:2aa1(j)  
       CODE:2828 12 02 7b        LCALL      FUN_CODE_027b                                              undefined FUN_CODE_027b()
       CODE:282b 12 2b be        LCALL      FUN_CODE_2bbe                                              undefined FUN_CODE_2bbe()
       CODE:282e 50 07           JNC        LAB_CODE_2837
       CODE:2830 12 2b d8        LCALL      FUN_CODE_2bd8                                              undefined FUN_CODE_2bd8()
       CODE:2833 50 02           JNC        LAB_CODE_2837
       CODE:2835 80 c6           SJMP       LAB_CODE_27fd
                             LAB_CODE_2837                                   XREF[2]:     CODE:282e(j), CODE:2833(j)  
       CODE:2837 c2 c9           CLR        CT2                                                        = ??
       CODE:2839 12 2b ae        LCALL      FUN_CODE_2bae                                              undefined FUN_CODE_2bae()
       CODE:283c d2 c9           SETB       CT2                                                        = ??
       CODE:283e 12 2b ae        LCALL      FUN_CODE_2bae                                              undefined FUN_CODE_2bae()
       CODE:2841 12 2b c2        LCALL      FUN_CODE_2bc2                                              undefined FUN_CODE_2bc2()
       CODE:2844 05 7b           INC        DAT_INTMEM_7b                                              = ??
       CODE:2846 80 d6           SJMP       FUN_CODE_281e                                              undefined FUN_CODE_281e()
                             -- Flow Override: CALL_RETURN (CALL_TERMINATOR)
                             LAB_CODE_2848                                   XREF[1]:     CODE:2aa4(j)  
       CODE:2848 c2 d5           CLR        F0                                                         = ??
       CODE:284a 80 b6           SJMP       LAB_CODE_2802
                             LAB_CODE_284c                                   XREF[1]:     CODE:2aa7(j)  
       CODE:284c 05 7b           INC        DAT_INTMEM_7b                                              = ??
       CODE:284e 80 ce           SJMP       FUN_CODE_281e                                              undefined FUN_CODE_281e()
                             -- Flow Override: CALL_RETURN (CALL_TERMINATOR)
                             LAB_CODE_2850                                   XREF[1]:     CODE:2aac(j)  
       CODE:2850 d2 61           SETB       2c.1                                                       = ??
       CODE:2852 75 66 e0        MOV        DAT_INTMEM_66,#0xe0                                        = ??
       CODE:2855 75 67 06        MOV        DAT_INTMEM_67,#0x6                                         = ??
       CODE:2858 c2 62           CLR        2c.2                                                       = ??
       CODE:285a c2 63           CLR        2c.3                                                       = ??
       CODE:285c 90 2a cf        MOV        DPTR,#0x2acf
       CODE:285f 05 7b           INC        DAT_INTMEM_7b                                              = ??
       CODE:2861 e5 7b           MOV        A,DAT_INTMEM_7b                                            = ??
       CODE:2863 93              MOVC       A,@A+DPTR=>DAT_CODE_2acf
       CODE:2864 f5 6f           MOV        DAT_INTMEM_6f,A                                            = ??
       CODE:2866 75 6e 04        MOV        DAT_INTMEM_6e,#0x4                                         = ??
       CODE:2869 05 7b           INC        DAT_INTMEM_7b                                              = ??
       CODE:286b e5 7b           MOV        A,DAT_INTMEM_7b                                            = ??
       CODE:286d 93              MOVC       A,@A+DPTR=>DAT_CODE_2acf
       CODE:286e f5 6a           MOV        DAT_INTMEM_6a,A                                            = ??
       CODE:2870 05 7b           INC        DAT_INTMEM_7b                                              = ??
       CODE:2872 e5 7b           MOV        A,DAT_INTMEM_7b                                            = ??
       CODE:2874 93              MOVC       A,@A+DPTR=>DAT_CODE_2acf
       CODE:2875 f5 6b           MOV        DAT_INTMEM_6b,A                                            = ??
       CODE:2877 05 7b           INC        DAT_INTMEM_7b                                              = ??
       CODE:2879 e5 7b           MOV        A,DAT_INTMEM_7b                                            = ??
       CODE:287b 93              MOVC       A,@A+DPTR=>DAT_CODE_2acf
       CODE:287c f5 6c           MOV        DAT_INTMEM_6c,A                                            = ??
       CODE:287e e5 6f           MOV        A,DAT_INTMEM_6f                                            = ??
       CODE:2880 b4 db 07        CJNE       A,#0xdb,LAB_CODE_288a
       CODE:2883 78 e9           MOV        R0,#0xe9
       CODE:2885 e6              MOV        A,@R0=>DAT_INTMEM_e9                                       = ??
       CODE:2886 f5 6d           MOV        DAT_INTMEM_6d,A                                            = ??
       CODE:2888 80 07           SJMP       LAB_CODE_2891
                             LAB_CODE_288a                                   XREF[1]:     CODE:2880(j)  
       CODE:288a 05 7b           INC        DAT_INTMEM_7b                                              = ??
       CODE:288c e5 7b           MOV        A,DAT_INTMEM_7b                                            = ??
       CODE:288e 93              MOVC       A,@A+DPTR=>DAT_CODE_2acf
       CODE:288f f5 6d           MOV        DAT_INTMEM_6d,A                                            = ??
                             LAB_CODE_2891                                   XREF[1]:     CODE:2888(j)  
       CODE:2891 c2 60           CLR        2c.0                                                       = ??
       CODE:2893 05 7b           INC        DAT_INTMEM_7b                                              = ??
       CODE:2895 02 28 0e        LJMP       FUN_CODE_280e                                              undefined FUN_CODE_280e()
                             -- Flow Override: CALL_RETURN (CALL_TERMINATOR)
                             LAB_CODE_2898                                   XREF[1]:     CODE:2aaf(j)  
       CODE:2898 d2 61           SETB       2c.1                                                       = ??
       CODE:289a 75 66 e0        MOV        DAT_INTMEM_66,#0xe0                                        = ??
       CODE:289d 75 67 01        MOV        DAT_INTMEM_67,#0x1                                         = ??
       CODE:28a0 c2 62           CLR        2c.2                                                       = ??
       CODE:28a2 d2 63           SETB       2c.3                                                       = ??
       CODE:28a4 75 68 e1        MOV        DAT_INTMEM_68,#0xe1                                        = ??
       CODE:28a7 75 69 05        MOV        DAT_INTMEM_69,#0x5                                         = ??
       CODE:28aa 90 2a cf        MOV        DPTR,#0x2acf
       CODE:28ad 05 7b           INC        DAT_INTMEM_7b                                              = ??
       CODE:28af e5 7b           MOV        A,DAT_INTMEM_7b                                            = ??
       CODE:28b1 93              MOVC       A,@A+DPTR=>DAT_CODE_2acf
       CODE:28b2 f5 6a           MOV        DAT_INTMEM_6a,A                                            = ??
       CODE:28b4 c2 60           CLR        2c.0                                                       = ??
       CODE:28b6 05 7b           INC        DAT_INTMEM_7b                                              = ??
       CODE:28b8 02 28 0e        LJMP       FUN_CODE_280e                                              undefined FUN_CODE_280e()
                             -- Flow Override: CALL_RETURN (CALL_TERMINATOR)
                             LAB_CODE_28bb                                   XREF[1]:     CODE:2ab2(j)  
       CODE:28bb d2 61           SETB       2c.1                                                       = ??
       CODE:28bd 75 66 72        MOV        DAT_INTMEM_66,#0x72                                        = ??
       CODE:28c0 c2 62           CLR        2c.2                                                       = ??
       CODE:28c2 c2 63           CLR        2c.3                                                       = ??
       CODE:28c4 90 2a cf        MOV        DPTR,#0x2acf
       CODE:28c7 05 7b           INC        DAT_INTMEM_7b                                              = ??
       CODE:28c9 e5 7b           MOV        A,DAT_INTMEM_7b                                            = ??
       CODE:28cb 93              MOVC       A,@A+DPTR=>DAT_CODE_2acf
       CODE:28cc f5 67           MOV        DAT_INTMEM_67,A                                            = ??
       CODE:28ce 24 6a           ADD        A,#0x6a
       CODE:28d0 f8              MOV        R0,A
                             LAB_CODE_28d1                                   XREF[1]:     CODE:28d8(j)  
       CODE:28d1 18              DEC        R0
       CODE:28d2 05 7b           INC        DAT_INTMEM_7b                                              = ??
       CODE:28d4 e5 7b           MOV        A,DAT_INTMEM_7b                                            = ??
       CODE:28d6 93              MOVC       A,@A+DPTR=>DAT_CODE_2acf
       CODE:28d7 f6              MOV        @R0,A
       CODE:28d8 b8 6a f6        CJNE       R0,#0x6a,LAB_CODE_28d1
       CODE:28db 05 7b           INC        DAT_INTMEM_7b                                              = ??
       CODE:28dd e5 7b           MOV        A,DAT_INTMEM_7b                                            = ??
       CODE:28df 93              MOVC       A,@A+DPTR=>DAT_CODE_2acf
       CODE:28e0 d2 6f           SETB       2d.7                                                       = ??
       CODE:28e2 c2 60           CLR        2c.0                                                       = ??
       CODE:28e4 05 7b           INC        DAT_INTMEM_7b                                              = ??
       CODE:28e6 70 03           JNZ        LAB_CODE_28eb
       CODE:28e8 02 28 1e        LJMP       FUN_CODE_281e                                              undefined FUN_CODE_281e()
                             -- Flow Override: CALL_RETURN (CALL_TERMINATOR)
                             LAB_CODE_28eb                                   XREF[1]:     CODE:28e6(j)  
       CODE:28eb 02 28 0e        LJMP       FUN_CODE_280e                                              undefined FUN_CODE_280e()
                             -- Flow Override: CALL_RETURN (CALL_TERMINATOR)
                             LAB_CODE_28ee                                   XREF[1]:     CODE:2ab5(j)  
       CODE:28ee d2 61           SETB       2c.1                                                       = ??
       CODE:28f0 75 66 72        MOV        DAT_INTMEM_66,#0x72                                        = ??
       CODE:28f3 75 67 01        MOV        DAT_INTMEM_67,#0x1                                         = ??
       CODE:28f6 c2 62           CLR        2c.2                                                       = ??
       CODE:28f8 d2 63           SETB       2c.3                                                       = ??
       CODE:28fa 75 68 73        MOV        DAT_INTMEM_68,#0x73                                        = ??
       CODE:28fd 90 2a cf        MOV        DPTR,#0x2acf
       CODE:2900 05 7b           INC        DAT_INTMEM_7b                                              = ??
       CODE:2902 e5 7b           MOV        A,DAT_INTMEM_7b                                            = ??
       CODE:2904 93              MOVC       A,@A+DPTR=>DAT_CODE_2acf
       CODE:2905 f5 69           MOV        DAT_INTMEM_69,A                                            = ??
       CODE:2907 05 7b           INC        DAT_INTMEM_7b                                              = ??
       CODE:2909 e5 7b           MOV        A,DAT_INTMEM_7b                                            = ??
       CODE:290b 93              MOVC       A,@A+DPTR=>DAT_CODE_2acf
       CODE:290c f5 6a           MOV        DAT_INTMEM_6a,A                                            = ??
       CODE:290e d2 6f           SETB       2d.7                                                       = ??
       CODE:2910 c2 60           CLR        2c.0                                                       = ??
       CODE:2912 05 7b           INC        DAT_INTMEM_7b                                              = ??
       CODE:2914 02 28 0e        LJMP       FUN_CODE_280e                                              undefined FUN_CODE_280e()
                             -- Flow Override: CALL_RETURN (CALL_TERMINATOR)
                             LAB_CODE_2917                                   XREF[1]:     CODE:2ab8(j)  
       CODE:2917 20 6f 1b        JB         2d.7,LAB_CODE_2935                                         = ??
       CODE:291a e5 6a           MOV        A,DAT_INTMEM_6a                                            = ??
       CODE:291c 54 10           ANL        A,#0x10
       CODE:291e 70 0f           JNZ        LAB_CODE_292f
       CODE:2920 75 98 00        MOV        SCON,#0x0                                                  = ??
       CODE:2923 e5 6a           MOV        A,DAT_INTMEM_6a                                            = ??
       CODE:2925 54 fb           ANL        A,#0xfb
       CODE:2927 b4 00 08        CJNE       A,#0x0,LAB_CODE_2932
       CODE:292a 05 7b           INC        DAT_INTMEM_7b                                              = ??
       CODE:292c 02 28 1e        LJMP       FUN_CODE_281e                                              undefined FUN_CODE_281e()
                             -- Flow Override: CALL_RETURN (CALL_TERMINATOR)
                             LAB_CODE_292f                                   XREF[1]:     CODE:291e(j)  
       CODE:292f 30 9f 11        JNB        SM0,LAB_CODE_2943                                          = ??
                             LAB_CODE_2932                                   XREF[1]:     CODE:2927(j)  
       CODE:2932 02 27 fd        LJMP       LAB_CODE_27fd
                             LAB_CODE_2935                                   XREF[1]:     CODE:2917(j)  
       CODE:2935 75 98 00        MOV        SCON,#0x0                                                  = ??
       CODE:2938 75 95 88        MOV        DAT_SFR_95,#0x88                                           = ??
       CODE:293b 75 9b 4f        MOV        DAT_SFR_9b,#0x4f                                           = ??
       CODE:293e 75 9c ff        MOV        DAT_SFR_9c,#0xff                                           = ??
       CODE:2941 d2 9a           SETB       RB8                                                        = ??
                             LAB_CODE_2943                                   XREF[1]:     CODE:292f(j)  
       CODE:2943 c2 6f           CLR        2d.7                                                       = ??
       CODE:2945 d2 61           SETB       2c.1                                                       = ??
       CODE:2947 75 66 72        MOV        DAT_INTMEM_66,#0x72                                        = ??
       CODE:294a 75 67 01        MOV        DAT_INTMEM_67,#0x1                                         = ??
       CODE:294d 75 6a f2        MOV        DAT_INTMEM_6a,#0xf2                                        = ??
       CODE:2950 c2 62           CLR        2c.2                                                       = ??
       CODE:2952 d2 63           SETB       2c.3                                                       = ??
       CODE:2954 75 68 73        MOV        DAT_INTMEM_68,#0x73                                        = ??
       CODE:2957 75 69 01        MOV        DAT_INTMEM_69,#0x1                                         = ??
       CODE:295a c2 60           CLR        2c.0                                                       = ??
       CODE:295c 02 28 0e        LJMP       FUN_CODE_280e                                              undefined FUN_CODE_280e()
                             -- Flow Override: CALL_RETURN (CALL_TERMINATOR)
                             LAB_CODE_295f                                   XREF[1]:     CODE:2abb(j)  
       CODE:295f e5 6d           MOV        A,DAT_INTMEM_6d                                            = ??
       CODE:2961 45 6c           ORL        A,DAT_INTMEM_6c                                            = ??
       CODE:2963 60 20           JZ         LAB_CODE_2985
       CODE:2965 d2 57           SETB       2a.7                                                       = ??
       CODE:2967 78 bd           MOV        R0,#0xbd
       CODE:2969 a6 42           MOV        @R0=>DAT_INTMEM_bd,DAT_INTMEM_42                           = ??
       CODE:296b 78 bc           MOV        R0,#0xbc
       CODE:296d a6 41           MOV        @R0=>DAT_INTMEM_bc,DAT_INTMEM_41                           = ??
       CODE:296f 78 6d           MOV        R0,#0x6d
       CODE:2971 79 f5           MOV        R1,#0xf5
       CODE:2973 c2 d5           CLR        F0                                                         = ??
       CODE:2975 12 2c 41        LCALL      FUN_CODE_2c41                                              undefined FUN_CODE_2c41()
       CODE:2978 78 6d           MOV        R0,#0x6d
       CODE:297a 79 f3           MOV        R1,#0xf3
       CODE:297c 12 2c 5b        LCALL      FUN_CODE_2c5b                                              undefined FUN_CODE_2c5b()
       CODE:297f 85 6c 42        MOV        DAT_INTMEM_42,DAT_INTMEM_6c                                = ??
       CODE:2982 85 6d 41        MOV        DAT_INTMEM_41,DAT_INTMEM_6d                                = ??
                             LAB_CODE_2985                                   XREF[1]:     CODE:2963(j)  
       CODE:2985 e5 6b           MOV        A,DAT_INTMEM_6b                                            = ??
       CODE:2987 45 6a           ORL        A,DAT_INTMEM_6a                                            = ??
       CODE:2989 60 20           JZ         LAB_CODE_29ab
       CODE:298b d2 56           SETB       2a.6                                                       = ??
       CODE:298d 78 bb           MOV        R0,#0xbb
       CODE:298f a6 40           MOV        @R0=>DAT_INTMEM_bb,DAT_INTMEM_40                           = ??
       CODE:2991 78 ba           MOV        R0,#0xba
       CODE:2993 a6 3f           MOV        @R0=>DAT_INTMEM_ba,DAT_INTMEM_3f                           = ??
       CODE:2995 78 6b           MOV        R0,#0x6b
       CODE:2997 79 f1           MOV        R1,#0xf1
       CODE:2999 c2 d5           CLR        F0                                                         = ??
       CODE:299b 12 2c 41        LCALL      FUN_CODE_2c41                                              undefined FUN_CODE_2c41()
       CODE:299e 78 6b           MOV        R0,#0x6b
       CODE:29a0 79 ef           MOV        R1,#0xef
       CODE:29a2 12 2c 5b        LCALL      FUN_CODE_2c5b                                              undefined FUN_CODE_2c5b()
       CODE:29a5 85 6a 40        MOV        DAT_INTMEM_40,DAT_INTMEM_6a                                = ??
       CODE:29a8 85 6b 3f        MOV        DAT_INTMEM_3f,DAT_INTMEM_6b                                = ??
                             LAB_CODE_29ab                                   XREF[1]:     CODE:2989(j)  
       CODE:29ab 05 7b           INC        DAT_INTMEM_7b                                              = ??
       CODE:29ad 02 28 1e        LJMP       FUN_CODE_281e                                              undefined FUN_CODE_281e()
                             -- Flow Override: CALL_RETURN (CALL_TERMINATOR)
                             LAB_CODE_29b0                                   XREF[1]:     CODE:2abe(j)  
       CODE:29b0 e5 6d           MOV        A,DAT_INTMEM_6d                                            = ??
       CODE:29b2 45 6c           ORL        A,DAT_INTMEM_6c                                            = ??
       CODE:29b4 60 20           JZ         LAB_CODE_29d6
       CODE:29b6 d2 55           SETB       2a.5                                                       = ??
       CODE:29b8 78 b9           MOV        R0,#0xb9
       CODE:29ba a6 3e           MOV        @R0=>DAT_INTMEM_b9,DAT_INTMEM_3e                           = ??
       CODE:29bc 78 b8           MOV        R0,#0xb8
       CODE:29be a6 3d           MOV        @R0=>DAT_INTMEM_b8,DAT_INTMEM_3d                           = ??
       CODE:29c0 78 6d           MOV        R0,#0x6d
       CODE:29c2 79 ed           MOV        R1,#0xed
       CODE:29c4 c2 d5           CLR        F0                                                         = ??
       CODE:29c6 12 2c 41        LCALL      FUN_CODE_2c41                                              undefined FUN_CODE_2c41()
       CODE:29c9 78 6d           MOV        R0,#0x6d
       CODE:29cb 79 eb           MOV        R1,#0xeb
       CODE:29cd 12 2c 5b        LCALL      FUN_CODE_2c5b                                              undefined FUN_CODE_2c5b()
       CODE:29d0 85 6c 3e        MOV        DAT_INTMEM_3e,DAT_INTMEM_6c                                = ??
       CODE:29d3 85 6d 3d        MOV        DAT_INTMEM_3d,DAT_INTMEM_6d                                = ??
                             LAB_CODE_29d6                                   XREF[1]:     CODE:29b4(j)  
       CODE:29d6 05 7b           INC        DAT_INTMEM_7b                                              = ??
       CODE:29d8 02 28 1e        LJMP       FUN_CODE_281e                                              undefined FUN_CODE_281e()
                             -- Flow Override: CALL_RETURN (CALL_TERMINATOR)
                             LAB_CODE_29db                                   XREF[1]:     CODE:2ac1(j)  
       CODE:29db e5 6d           MOV        A,DAT_INTMEM_6d                                            = ??
       CODE:29dd 45 6c           ORL        A,DAT_INTMEM_6c                                            = ??
       CODE:29df 60 18           JZ         LAB_CODE_29f9
       CODE:29e1 d2 58           SETB       2b.0                                                       = ??
       CODE:29e3 78 6d           MOV        R0,#0x6d
       CODE:29e5 79 f9           MOV        R1,#0xf9
       CODE:29e7 c2 d5           CLR        F0                                                         = ??
       CODE:29e9 12 2c 41        LCALL      FUN_CODE_2c41                                              undefined FUN_CODE_2c41()
       CODE:29ec 78 6d           MOV        R0,#0x6d
       CODE:29ee 79 f7           MOV        R1,#0xf7
       CODE:29f0 12 2c 5b        LCALL      FUN_CODE_2c5b                                              undefined FUN_CODE_2c5b()
       CODE:29f3 85 6c 44        MOV        DAT_INTMEM_44,DAT_INTMEM_6c                                = ??
       CODE:29f6 85 6d 43        MOV        DAT_INTMEM_43,DAT_INTMEM_6d                                = ??
                             LAB_CODE_29f9                                   XREF[1]:     CODE:29df(j)  
       CODE:29f9 05 7b           INC        DAT_INTMEM_7b                                              = ??
       CODE:29fb 02 28 1e        LJMP       FUN_CODE_281e                                              undefined FUN_CODE_281e()
                             -- Flow Override: CALL_RETURN (CALL_TERMINATOR)
                             LAB_CODE_29fe                                   XREF[1]:     CODE:2ac4(j)  
       CODE:29fe e5 7a           MOV        A,DAT_INTMEM_7a                                            = ??
       CODE:2a00 b4 7a 05        CJNE       A,#0x7a,LAB_CODE_2a08
       CODE:2a03 75 6a 00        MOV        DAT_INTMEM_6a,#0x0                                         = ??
       CODE:2a06 80 0b           SJMP       LAB_CODE_2a13
                             LAB_CODE_2a08                                   XREF[1]:     CODE:2a00(j)  
       CODE:2a08 b4 7b 05        CJNE       A,#0x7b,LAB_CODE_2a10
       CODE:2a0b 75 6a 02        MOV        DAT_INTMEM_6a,#0x2                                         = ??
       CODE:2a0e 80 03           SJMP       LAB_CODE_2a13
                             LAB_CODE_2a10                                   XREF[1]:     CODE:2a08(j)  
       CODE:2a10 75 6a 01        MOV        DAT_INTMEM_6a,#0x1                                         = ??
                             LAB_CODE_2a13                                   XREF[2]:     CODE:2a06(j), CODE:2a0e(j)  
       CODE:2a13 05 7b           INC        DAT_INTMEM_7b                                              = ??
       CODE:2a15 02 28 0e        LJMP       FUN_CODE_280e                                              undefined FUN_CODE_280e()
                             -- Flow Override: CALL_RETURN (CALL_TERMINATOR)
                             LAB_CODE_2a18                                   XREF[1]:     CODE:2ac7(j)  
       CODE:2a18 e5 6a           MOV        A,DAT_INTMEM_6a                                            = ??
       CODE:2a1a b4 05 05        CJNE       A,#0x5,LAB_CODE_2a22
       CODE:2a1d 05 7b           INC        DAT_INTMEM_7b                                              = ??
       CODE:2a1f 02 28 1e        LJMP       FUN_CODE_281e                                              undefined FUN_CODE_281e()
                             -- Flow Override: CALL_RETURN (CALL_TERMINATOR)
                             LAB_CODE_2a22                                   XREF[1]:     CODE:2a1a(j)  
       CODE:2a22 02 27 fd        LJMP       LAB_CODE_27fd
                             LAB_CODE_2a25                                   XREF[1]:     CODE:2aca(j)  
       CODE:2a25 e5 7a           MOV        A,DAT_INTMEM_7a                                            = ??
       CODE:2a27 b4 7a 16        CJNE       A,#0x7a,LAB_CODE_2a40
       CODE:2a2a e5 6d           MOV        A,DAT_INTMEM_6d                                            = ??
       CODE:2a2c b4 ca 0e        CJNE       A,#0xca,LAB_CODE_2a3d
       CODE:2a2f e5 6c           MOV        A,DAT_INTMEM_6c                                            = ??
       CODE:2a31 b4 8d 09        CJNE       A,#0x8d,LAB_CODE_2a3d
       CODE:2a34 75 7a 7b        MOV        DAT_INTMEM_7a,#0x7b                                        = ??
       CODE:2a37 85 7a 7b        MOV        DAT_INTMEM_7b,DAT_INTMEM_7a                                = ??
       CODE:2a3a 02 28 1e        LJMP       FUN_CODE_281e                                              undefined FUN_CODE_281e()
                             -- Flow Override: CALL_RETURN (CALL_TERMINATOR)
                             LAB_CODE_2a3d                                   XREF[2]:     CODE:2a2c(j), CODE:2a31(j)  
       CODE:2a3d 02 27 fd        LJMP       LAB_CODE_27fd
                             LAB_CODE_2a40                                   XREF[1]:     CODE:2a27(j)  
       CODE:2a40 e5 6d           MOV        A,DAT_INTMEM_6d                                            = ??
       CODE:2a42 78 bf           MOV        R0,#0xbf
       CODE:2a44 f6              MOV        @R0=>DAT_INTMEM_bf,A                                       = ??
       CODE:2a45 e5 6c           MOV        A,DAT_INTMEM_6c                                            = ??
       CODE:2a47 a2 e0           MOV        CY,ACC.0                                                   = ??
       CODE:2a49 92 59           MOV        2b.1,CY                                                    = ??
       CODE:2a4b 05 7b           INC        DAT_INTMEM_7b                                              = ??
       CODE:2a4d 02 28 1e        LJMP       FUN_CODE_281e                                              undefined FUN_CODE_281e()
                             -- Flow Override: CALL_RETURN (CALL_TERMINATOR)
                             LAB_CODE_2a50                                   XREF[1]:     CODE:2acd(j)  
       CODE:2a50 e5 55           MOV        A,DAT_INTMEM_55                                            = ??
       CODE:2a52 f5 6a           MOV        DAT_INTMEM_6a,A                                            = ??
       CODE:2a54 05 7b           INC        DAT_INTMEM_7b                                              = ??
       CODE:2a56 02 28 0e        LJMP       FUN_CODE_280e                                              undefined FUN_CODE_280e()
                             -- Flow Override: CALL_RETURN (CALL_TERMINATOR)
                             LAB_CODE_2a59                                   XREF[1]:     CODE:2aaa(j)  
       CODE:2a59 74 01           MOV        A,#0x1
       CODE:2a5b 12 25 a1        LCALL      FUN_CODE_25a1                                              undefined FUN_CODE_25a1()
       CODE:2a5e 12 25 a6        LCALL      FUN_CODE_25a6                                              undefined FUN_CODE_25a6()
       CODE:2a61 c4              SWAP       A
       CODE:2a62 54 0f           ANL        A,#0xf
       CODE:2a64 f5 67           MOV        DAT_INTMEM_67,A                                            = ??
       CODE:2a66 12 25 a6        LCALL      FUN_CODE_25a6                                              undefined FUN_CODE_25a6()
       CODE:2a69 f5 69           MOV        DAT_INTMEM_69,A                                            = ??
       CODE:2a6b 53 69 0f        ANL        DAT_INTMEM_69,#0xf                                         = ??
       CODE:2a6e c4              SWAP       A
       CODE:2a6f f5 6b           MOV        DAT_INTMEM_6b,A                                            = ??
       CODE:2a71 53 6b 0f        ANL        DAT_INTMEM_6b,#0xf                                         = ??
       CODE:2a74 12 25 a6        LCALL      FUN_CODE_25a6                                              undefined FUN_CODE_25a6()
       CODE:2a77 a2 e7           MOV        CY,ACC.7                                                   = ??
       CODE:2a79 92 61           MOV        2c.1,CY                                                    = ??
       CODE:2a7b c3              CLR        CY
       CODE:2a7c 33              RLC        A
       CODE:2a7d f5 66           MOV        DAT_INTMEM_66,A                                            = ??
       CODE:2a7f 12 25 a6        LCALL      FUN_CODE_25a6                                              undefined FUN_CODE_25a6()
       CODE:2a82 a2 e7           MOV        CY,ACC.7                                                   = ??
       CODE:2a84 92 62           MOV        2c.2,CY                                                    = ??
       CODE:2a86 c3              CLR        CY
       CODE:2a87 33              RLC        A
       CODE:2a88 f5 6a           MOV        DAT_INTMEM_6a,A                                            = ??
       CODE:2a8a 12 25 a6        LCALL      FUN_CODE_25a6                                              undefined FUN_CODE_25a6()
       CODE:2a8d a2 e7           MOV        CY,ACC.7                                                   = ??
       CODE:2a8f 92 63           MOV        2c.3,CY                                                    = ??
       CODE:2a91 d3              SETB       CY
       CODE:2a92 33              RLC        A
       CODE:2a93 f5 68           MOV        DAT_INTMEM_68,A                                            = ??
       CODE:2a95 74 03           MOV        A,#0x3
       CODE:2a97 12 25 c3        LCALL      FUN_CODE_25c3                                              undefined FUN_CODE_25c3()
       CODE:2a9a d2 60           SETB       2c.0                                                       = ??
       CODE:2a9c 05 7b           INC        DAT_INTMEM_7b                                              = ??
       CODE:2a9e 02 28 0e        LJMP       FUN_CODE_280e                                              undefined FUN_CODE_280e()
                             -- Flow Override: CALL_RETURN (CALL_TERMINATOR)
                             LAB_CODE_2aa1                                   XREF[1]:     FUN_CODE_281e:2824(*)  
       CODE:2aa1 02 28 28        LJMP       LAB_CODE_2828
       CODE:2aa4 02 28 48        LJMP       LAB_CODE_2848
       CODE:2aa7 02 28 4c        LJMP       LAB_CODE_284c
       CODE:2aaa 80 ad           SJMP       LAB_CODE_2a59
       CODE:2aac 02 28 50        LJMP       LAB_CODE_2850
       CODE:2aaf 02 28 98        LJMP       LAB_CODE_2898
       CODE:2ab2 02 28 bb        LJMP       LAB_CODE_28bb
       CODE:2ab5 02 28 ee        LJMP       LAB_CODE_28ee
       CODE:2ab8 02 29 17        LJMP       LAB_CODE_2917
       CODE:2abb 02 29 5f        LJMP       LAB_CODE_295f
       CODE:2abe 02 29 b0        LJMP       LAB_CODE_29b0
       CODE:2ac1 02 29 db        LJMP       LAB_CODE_29db
       CODE:2ac4 02 29 fe        LJMP       LAB_CODE_29fe
       CODE:2ac7 02 2a 18        LJMP       LAB_CODE_2a18
       CODE:2aca 02 2a 25        LJMP       LAB_CODE_2a25
       CODE:2acd 80 81           SJMP       LAB_CODE_2a50
                             DAT_CODE_2acf                                   XREF[13]:    FUN_CODE_281e:281e(*), 
                                                                                          FUN_CODE_281e:2823(*), 
                                                                                          CODE:2863(*), CODE:286d(*), 
                                                                                          CODE:2874(*), CODE:287b(*), 
                                                                                          CODE:288e(*), CODE:28b1(*), 
                                                                                          CODE:28cb(*), CODE:28d6(*), 
                                                                                          CODE:28df(*), CODE:2904(*), 
                                                                                          CODE:290b(*)  
       CODE:2acf 00              ??         00h
       CODE:2ad0 09              ??         09h
       CODE:2ad1 03              ??         03h
       CODE:2ad2 00              ??         00h
       CODE:2ad3 0b              ??         0Bh
       CODE:2ad4 e4              ??         E4h
       CODE:2ad5 00              ??         00h
       CODE:2ad6 00              ??         00h
       CODE:2ad7 00              ??         00h
       CODE:2ad8 1f              ??         1Fh
       CODE:2ad9 0b              ??         0Bh
       CODE:2ada e3              ??         E3h
       CODE:2adb 0f              ??         0Fh
       CODE:2adc ff              ??         FFh
       CODE:2add ff              ??         FFh
       CODE:2ade ff              ??         FFh
       CODE:2adf 0b              ??         0Bh
       CODE:2ae0 db              ??         DBh
       CODE:2ae1 00              ??         00h
       CODE:2ae2 00              ??         00h
       CODE:2ae3 00              ??         00h
       CODE:2ae4 0b              ??         0Bh
       CODE:2ae5 d5              ??         D5h
       CODE:2ae6 00              ??         00h
       CODE:2ae7 00              ??         00h
       CODE:2ae8 00              ??         00h
       CODE:2ae9 75              ??         75h    u
       CODE:2aea 0b              ??         0Bh
       CODE:2aeb d9              ??         D9h
       CODE:2aec 00              ??         00h
       CODE:2aed 00              ??         00h
       CODE:2aee 00              ??         00h
       CODE:2aef 88              ??         88h
       CODE:2af0 0b              ??         0Bh
       CODE:2af1 d4              ??         D4h
       CODE:2af2 09              ??         09h
       CODE:2af3 90              ??         90h
       CODE:2af4 e0              ??         E0h
       CODE:2af5 0e              ??         0Eh
       CODE:2af6 0b              ??         0Bh
       CODE:2af7 dc              ??         DCh
       CODE:2af8 00              ??         00h
       CODE:2af9 00              ??         00h
       CODE:2afa 42              ??         42h    B
       CODE:2afb aa              ??         AAh
       CODE:2afc 0b              ??         0Bh
       CODE:2afd df              ??         DFh
       CODE:2afe 00              ??         00h
       CODE:2aff 00              ??         00h
       CODE:2b00 00              ??         00h
       CODE:2b01 00              ??         00h
       CODE:2b02 03              ??         03h
       CODE:2b03 00              ??         00h
       CODE:2b04 0b              ??         0Bh
       CODE:2b05 d6              ??         D6h
       CODE:2b06 00              ??         00h
       CODE:2b07 00              ??         00h
       CODE:2b08 00              ??         00h
       CODE:2b09 75              ??         75h    u
       CODE:2b0a 0b              ??         0Bh
       CODE:2b0b d9              ??         D9h
       CODE:2b0c 00              ??         00h
       CODE:2b0d 00              ??         00h
       CODE:2b0e 00              ??         00h
       CODE:2b0f 20              ??         20h     
       CODE:2b10 0b              ??         0Bh
       CODE:2b11 d3              ??         D3h
       CODE:2b12 89              ??         89h
       CODE:2b13 83              ??         83h
       CODE:2b14 20              ??         20h     
       CODE:2b15 17              ??         17h
       CODE:2b16 0b              ??         0Bh
       CODE:2b17 ce              ??         CEh
       CODE:2b18 88              ??         88h
       CODE:2b19 e8              ??         E8h
       CODE:2b1a 40              ??         40h    @
       CODE:2b1b 14              ??         14h
       CODE:2b1c 0b              ??         0Bh
       CODE:2b1d d3              ??         D3h
       CODE:2b1e 09              ??         09h
       CODE:2b1f 83              ??         83h
       CODE:2b20 20              ??         20h     
       CODE:2b21 17              ??         17h
       CODE:2b22 0b              ??         0Bh
       CODE:2b23 ce              ??         CEh
       CODE:2b24 08              ??         08h
       CODE:2b25 e8              ??         E8h
       CODE:2b26 40              ??         40h    @
       CODE:2b27 14              ??         14h
       CODE:2b28 0b              ??         0Bh
       CODE:2b29 e3              ??         E3h
       CODE:2b2a 84              ??         84h
       CODE:2b2b 36              ??         36h    6
       CODE:2b2c f6              ??         F6h
       CODE:2b2d 66              ??         66h    f
       CODE:2b2e 03              ??         03h
       CODE:2b2f 00              ??         00h
       CODE:2b30 0b              ??         0Bh
       CODE:2b31 e3              ??         E3h
       CODE:2b32 0f              ??         0Fh
       CODE:2b33 ff              ??         FFh
       CODE:2b34 ff              ??         FFh
       CODE:2b35 ff              ??         FFh
       CODE:2b36 0b              ??         0Bh
       CODE:2b37 d5              ??         D5h
       CODE:2b38 00              ??         00h
       CODE:2b39 00              ??         00h
       CODE:2b3a 00              ??         00h
       CODE:2b3b 75              ??         75h    u
       CODE:2b3c 0b              ??         0Bh
       CODE:2b3d d9              ??         D9h
       CODE:2b3e 00              ??         00h
       CODE:2b3f 00              ??         00h
       CODE:2b40 00              ??         00h
       CODE:2b41 88              ??         88h
       CODE:2b42 0b              ??         0Bh
       CODE:2b43 df              ??         DFh
       CODE:2b44 00              ??         00h
       CODE:2b45 00              ??         00h
       CODE:2b46 00              ??         00h
       CODE:2b47 00              ??         00h
       CODE:2b48 03              ??         03h
       CODE:2b49 06              ??         06h
       CODE:2b4a 06              ??         06h
       CODE:2b4b 00              ??         00h
       CODE:2b4c 11              ??         11h
       CODE:2b4d 02              ??         02h
       CODE:2b4e f3              ??         F3h
       CODE:2b4f 0f              ??         0Fh
       CODE:2b50 01              ??         01h
       CODE:2b51 11              ??         11h
       CODE:2b52 02              ??         02h
       CODE:2b53 f3              ??         F3h
       CODE:2b54 0a              ??         0Ah
       CODE:2b55 01              ??         01h
       CODE:2b56 11              ??         11h
       CODE:2b57 02              ??         02h
       CODE:2b58 ec              ??         ECh
       CODE:2b59 90              ??         90h
       CODE:2b5a 01              ??         01h
       CODE:2b5b 11              ??         11h
       CODE:2b5c 05              ??         05h
       CODE:2b5d ec              ??         ECh
       CODE:2b5e 00              ??         00h
       CODE:2b5f 90              ??         90h
       CODE:2b60 00              ??         00h
       CODE:2b61 00              ??         00h
       CODE:2b62 00              ??         00h
       CODE:2b63 23              ??         23h    #
       CODE:2b64 11              ??         11h
       CODE:2b65 05              ??         05h
       CODE:2b66 f0              ??         F0h
       CODE:2b67 05              ??         05h
       CODE:2b68 00              ??         00h
       CODE:2b69 00              ??         00h
       CODE:2b6a 09              ??         09h
       CODE:2b6b 01              ??         01h
       CODE:2b6c 11              ??         11h
       CODE:2b6d 02              ??         02h
       CODE:2b6e f3              ??         F3h
       CODE:2b6f 02              ??         02h
       CODE:2b70 01              ??         01h
       CODE:2b71 17              ??         17h
       CODE:2b72 14              ??         14h
       CODE:2b73 01              ??         01h
       CODE:2b74 f5              ??         F5h
       CODE:2b75 26              ??         26h    &
       CODE:2b76 14              ??         14h
       CODE:2b77 05              ??         05h
       CODE:2b78 f4              ??         F4h
       CODE:2b79 29              ??         29h    )
       CODE:2b7a 03              ??         03h
       CODE:2b7b 00              ??         00h
       CODE:2b7c 0e              ??         0Eh
       CODE:2b7d e0              ??         E0h
       CODE:2b7e 1a              ??         1Ah
       CODE:2b7f 0e              ??         0Eh
       CODE:2b80 e1              ??         E1h
       CODE:2b81 1d              ??         1Dh
       CODE:2b82 0e              ??         0Eh
       CODE:2b83 e2              ??         E2h
       CODE:2b84 20              ??         20h     
       CODE:2b85 03              ??         03h
       CODE:2b86 00              ??         00h
       CODE:2b87 11              ??         11h
       CODE:2b88 02              ??         02h
       CODE:2b89 f3              ??         F3h
       CODE:2b8a 0f              ??         0Fh
       CODE:2b8b 01              ??         01h
       CODE:2b8c 11              ??         11h
       CODE:2b8d 02              ??         02h
       CODE:2b8e f3              ??         F3h
       CODE:2b8f 0a              ??         0Ah
       CODE:2b90 01              ??         01h
       CODE:2b91 11              ??         11h
       CODE:2b92 02              ??         02h
       CODE:2b93 ec              ??         ECh
       CODE:2b94 90              ??         90h
       CODE:2b95 01              ??         01h
       CODE:2b96 11              ??         11h
       CODE:2b97 05              ??         05h
       CODE:2b98 ec              ??         ECh
       CODE:2b99 00              ??         00h
       CODE:2b9a 60              ??         60h    `
       CODE:2b9b 00              ??         00h
       CODE:2b9c 00              ??         00h
       CODE:2b9d 00              ??         00h
       CODE:2b9e 2c              ??         2Ch    ,
       CODE:2b9f 11              ??         11h
       CODE:2ba0 05              ??         05h
       CODE:2ba1 f0              ??         F0h
       CODE:2ba2 00              ??         00h
       CODE:2ba3 00              ??         00h
       CODE:2ba4 00              ??         00h
       CODE:2ba5 09              ??         09h
       CODE:2ba6 01              ??         01h
       CODE:2ba7 11              ??         11h
       CODE:2ba8 02              ??         02h
       CODE:2ba9 f3              ??         F3h
       CODE:2baa 06              ??         06h
       CODE:2bab 01              ??         01h
       CODE:2bac 17              ??         17h
       CODE:2bad 03              ??         03h
                             **************************************************************
                             *                          FUNCTION                          *
                             **************************************************************
                             undefined FUN_CODE_2bae()
             undefined         ACC:1          <RETURN>
                             FUN_CODE_2bae                                   XREF[6]:     FUN_CODE_27e9:27f1(c), 
                                                                                          FUN_CODE_27e9:27f7(c), 
                                                                                          CODE:2839(c), CODE:283e(c), 
                                                                                          FUN_CODE_2bd8:2bdd(c), 
                                                                                          FUN_CODE_2bd8:2be2(c)  
       CODE:2bae f2              MOVX       @R0,A
       CODE:2baf f2              MOVX       @R0,A
       CODE:2bb0 f2              MOVX       @R0,A
       CODE:2bb1 f2              MOVX       @R0,A
       CODE:2bb2 f2              MOVX       @R0,A
       CODE:2bb3 f2              MOVX       @R0,A
       CODE:2bb4 f2              MOVX       @R0,A
       CODE:2bb5 f2              MOVX       @R0,A
       CODE:2bb6 f2              MOVX       @R0,A
       CODE:2bb7 f2              MOVX       @R0,A
       CODE:2bb8 f2              MOVX       @R0,A
       CODE:2bb9 f2              MOVX       @R0,A
       CODE:2bba f2              MOVX       @R0,A
       CODE:2bbb f2              MOVX       @R0,A
       CODE:2bbc f2              MOVX       @R0,A
       CODE:2bbd 22              RET
                             **************************************************************
                             *                          FUNCTION                          *
                             **************************************************************
                             undefined FUN_CODE_2bbe()
             undefined         ACC:1          <RETURN>
                             FUN_CODE_2bbe                                   XREF[2]:     CODE:282b(c), 
                                                                                          FUN_CODE_2bd8:2be5(c)  
       CODE:2bbe a2 c9           MOV        CY,CT2                                                     = ??
       CODE:2bc0 b3              CPL        CY
       CODE:2bc1 22              RET
                             **************************************************************
                             *                          FUNCTION                          *
                             **************************************************************
                             undefined FUN_CODE_2bc2()
             undefined         ACC:1          <RETURN>
                             FUN_CODE_2bc2                                   XREF[1]:     CODE:2841(c)  
       CODE:2bc2 75 db 00        MOV        CCAPM1,#0x0                                                = ??
       CODE:2bc5 75 dc 00        MOV        CCAPM2,#0x0                                                = ??
       CODE:2bc8 75 dd e1        MOV        CCAPM3,#0xe1                                               = ??
       CODE:2bcb 75 de 83        MOV        CCAPM4,#0x83                                               = ??
       CODE:2bce 75 d8 b0        MOV        CCON,#0xb0                                                 = ??
       CODE:2bd1 75 88 00        MOV        TCON,#0x0                                                  = ??
       CODE:2bd4 75 95 88        MOV        DAT_SFR_95,#0x88                                           = ??
       CODE:2bd7 22              RET
                             **************************************************************
                             *                          FUNCTION                          *
                             **************************************************************
                             undefined FUN_CODE_2bd8()
             undefined         ACC:1          <RETURN>
                             FUN_CODE_2bd8                                   XREF[1]:     CODE:2830(c)  
       CODE:2bd8 75 6a 09        MOV        DAT_INTMEM_6a,#0x9                                         = ??
                             LAB_CODE_2bdb                                   XREF[1]:     CODE:2bec(j)  
       CODE:2bdb c2 c8           CLR        CPRL2                                                      = ??
       CODE:2bdd 12 2b ae        LCALL      FUN_CODE_2bae                                              undefined FUN_CODE_2bae()
       CODE:2be0 d2 c8           SETB       CPRL2                                                      = ??
       CODE:2be2 12 2b ae        LCALL      FUN_CODE_2bae                                              undefined FUN_CODE_2bae()
       CODE:2be5 12 2b be        LCALL      FUN_CODE_2bbe                                              undefined FUN_CODE_2bbe()
       CODE:2be8 40 02           JC         LAB_CODE_2bec
       CODE:2bea c3              CLR        CY
       CODE:2beb 22              RET
                             LAB_CODE_2bec                                   XREF[1]:     CODE:2be8(j)  
       CODE:2bec d5 6a ec        DJNZ       DAT_INTMEM_6a,LAB_CODE_2bdb                                = ??
       CODE:2bef d3              SETB       CY
       CODE:2bf0 22              RET
                             **************************************************************
                             *                          FUNCTION                          *
                             **************************************************************
                             undefined FUN_CODE_2bf1()
             undefined         ACC:1          <RETURN>
                             FUN_CODE_2bf1                                   XREF[1]:     FUN_CODE_1ae9:1ae9(c)  
       CODE:2bf1 c3              CLR        CY
       CODE:2bf2 e4              CLR        A
       CODE:2bf3 30 67 04        JNB        2c.7,LAB_CODE_2bfa                                         = ??
       CODE:2bf6 e5 13           MOV        A,BANK2_R3                                                 = ??
       CODE:2bf8 c2 67           CLR        2c.7                                                       = ??
                             LAB_CODE_2bfa                                   XREF[1]:     CODE:2bf3(j)  
       CODE:2bfa 22              RET
                             **************************************************************
                             *                          FUNCTION                          *
                             **************************************************************
                             undefined FUN_CODE_2bfb()
             undefined         ACC:1          <RETURN>
                             FUN_CODE_2bfb                                   XREF[15]:    CODE:1876(c), CODE:1886(c), 
                                                                                          CODE:18c1(c), CODE:18d2(c), 
                                                                                          CODE:18de(c), CODE:18f3(c), 
                                                                                          CODE:1911(c), CODE:1971(c), 
                                                                                          CODE:197b(c), CODE:1995(c), 
                                                                                          CODE:19b1(c), CODE:19ff(c), 
                                                                                          CODE:1a3d(c), CODE:1a50(c), 
                                                                                          CODE:1ae3(c)  
       CODE:2bfb f5 14           MOV        BANK2_R4,A                                                 = ??
       CODE:2bfd 85 f0 15        MOV        BANK2_R5,B                                                 = ??
       CODE:2c00 78 e8           MOV        R0,#0xe8
       CODE:2c02 f6              MOV        @R0=>DAT_INTMEM_e8,A                                       = ??
       CODE:2c03 75 7e 03        MOV        DAT_INTMEM_7e,#0x3                                         = ??
       CODE:2c06 75 16 00        MOV        BANK2_R6,#0x0                                              = ??
                             LAB_CODE_2c09                                   XREF[1]:     FUN_CODE_2c24:2c3f(j)  
       CODE:2c09 c2 6a           CLR        2d.2                                                       = ??
       CODE:2c0b c2 6b           CLR        2d.3                                                       = ??
       CODE:2c0d d2 69           SETB       2d.1                                                       = ??
       CODE:2c0f e5 14           MOV        A,BANK2_R4                                                 = ??
       CODE:2c11 20 e7 06        JB         ACC.7,LAB_CODE_2c1a                                        = ??
       CODE:2c14 20 e6 06        JB         ACC.6,LAB_CODE_2c1d                                        = ??
       CODE:2c17 20 e5 05        JB         ACC.5,LAB_CODE_2c1f                                        = ??
                             LAB_CODE_2c1a                                   XREF[1]:     CODE:2c11(j)  
       CODE:2c1a d2 68           SETB       2d.0                                                       = ??
       CODE:2c1c 22              RET
                             LAB_CODE_2c1d                                   XREF[1]:     CODE:2c14(j)  
       CODE:2c1d d2 6b           SETB       2d.3                                                       = ??
                             LAB_CODE_2c1f                                   XREF[1]:     CODE:2c17(j)  
       CODE:2c1f d2 6a           SETB       2d.2                                                       = ??
       CODE:2c21 d2 68           SETB       2d.0                                                       = ??
       CODE:2c23 22              RET
                             **************************************************************
                             *                          FUNCTION                          *
                             **************************************************************
                             undefined FUN_CODE_2c24()
             undefined         ACC:1          <RETURN>
                             FUN_CODE_2c24                                   XREF[6]:     CODE:1a14(c), CODE:1a1b(c), 
                                                                                          CODE:1a42(c), CODE:1a79(c), 
                                                                                          CODE:1aa0(c), CODE:1ab5(c)  
       CODE:2c24 c3              CLR        CY
       CODE:2c25 20 68 08        JB         2d.0,LAB_CODE_2c30                                         = ??
       CODE:2c28 20 69 06        JB         2d.1,LAB_CODE_2c31                                         = ??
       CODE:2c2b d3              SETB       CY
       CODE:2c2c c2 d5           CLR        F0                                                         = ??
       CODE:2c2e e5 15           MOV        A,BANK2_R5                                                 = ??
                             LAB_CODE_2c30                                   XREF[1]:     CODE:2c25(j)  
       CODE:2c30 22              RET
                             LAB_CODE_2c31                                   XREF[1]:     CODE:2c28(j)  
       CODE:2c31 d5 7e 04        DJNZ       DAT_INTMEM_7e,LAB_CODE_2c38                                = ??
       CODE:2c34 d3              SETB       CY
       CODE:2c35 d2 d5           SETB       F0                                                         = ??
       CODE:2c37 22              RET
                             LAB_CODE_2c38                                   XREF[1]:     CODE:2c31(j)  
       CODE:2c38 78 e8           MOV        R0,#0xe8
       CODE:2c3a 86 14           MOV        BANK2_R4,@R0=>DAT_INTMEM_e8                                = ??
       CODE:2c3c 75 16 14        MOV        BANK2_R6,#0x14                                             = ??
       CODE:2c3f 80 c8           SJMP       LAB_CODE_2c09
                             **************************************************************
                             *                          FUNCTION                          *
                             **************************************************************
                             undefined FUN_CODE_2c41()
             undefined         ACC:1          <RETURN>
                             FUN_CODE_2c41                                   XREF[4]:     CODE:2975(c), CODE:299b(c), 
                                                                                          CODE:29c6(c), CODE:29e9(c)  
       CODE:2c41 c3              CLR        CY
       CODE:2c42 e6              MOV        A,@R0
       CODE:2c43 97              SUBB       A,@R1
       CODE:2c44 30 d5 01        JNB        F0,LAB_CODE_2c48                                           = ??
       CODE:2c47 f4              CPL        A
                             LAB_CODE_2c48                                   XREF[1]:     CODE:2c44(j)  
       CODE:2c48 f6              MOV        @R0,A
       CODE:2c49 18              DEC        R0
       CODE:2c4a 19              DEC        R1
       CODE:2c4b e6              MOV        A,@R0
       CODE:2c4c 97              SUBB       A,@R1
       CODE:2c4d 30 d5 02        JNB        F0,LAB_CODE_2c52                                           = ??
       CODE:2c50 f4              CPL        A
       CODE:2c51 b3              CPL        CY
                             LAB_CODE_2c52                                   XREF[1]:     CODE:2c4d(j)  
       CODE:2c52 f6              MOV        @R0,A
       CODE:2c53 50 05           JNC        LAB_CODE_2c5a
       CODE:2c55 76 00           MOV        @R0,#0x0
       CODE:2c57 08              INC        R0
       CODE:2c58 76 00           MOV        @R0,#0x0
                             LAB_CODE_2c5a                                   XREF[1]:     CODE:2c53(j)  
       CODE:2c5a 22              RET
                             **************************************************************
                             *                          FUNCTION                          *
                             **************************************************************
                             undefined FUN_CODE_2c5b()
             undefined         ACC:1          <RETURN>
                             FUN_CODE_2c5b                                   XREF[4]:     CODE:297c(c), CODE:29a2(c), 
                                                                                          CODE:29cd(c), CODE:29f0(c)  
       CODE:2c5b e6              MOV        A,@R0
       CODE:2c5c 87 f0           MOV        B,@R1
       CODE:2c5e a4              MUL        AB
       CODE:2c5f aa f0           MOV        R2,B
       CODE:2c61 18              DEC        R0
       CODE:2c62 e6              MOV        A,@R0
       CODE:2c63 87 f0           MOV        B,@R1
       CODE:2c65 a4              MUL        AB
       CODE:2c66 2a              ADD        A,R2
       CODE:2c67 fa              MOV        R2,A
       CODE:2c68 e5 f0           MOV        A,B
       CODE:2c6a 34 00           ADDC       A,#0x0
       CODE:2c6c fb              MOV        R3,A
       CODE:2c6d 08              INC        R0
       CODE:2c6e 19              DEC        R1
       CODE:2c6f e6              MOV        A,@R0
       CODE:2c70 87 f0           MOV        B,@R1
       CODE:2c72 a4              MUL        AB
       CODE:2c73 2a              ADD        A,R2
       CODE:2c74 fa              MOV        R2,A
       CODE:2c75 e5 f0           MOV        A,B
       CODE:2c77 3b              ADDC       A,R3
       CODE:2c78 fb              MOV        R3,A
       CODE:2c79 74 00           MOV        A,#0x0
       CODE:2c7b 34 00           ADDC       A,#0x0
       CODE:2c7d fc              MOV        R4,A
       CODE:2c7e 18              DEC        R0
       CODE:2c7f e6              MOV        A,@R0
       CODE:2c80 87 f0           MOV        B,@R1
       CODE:2c82 a4              MUL        AB
       CODE:2c83 2b              ADD        A,R3
       CODE:2c84 fb              MOV        R3,A
       CODE:2c85 e5 f0           MOV        A,B
       CODE:2c87 3c              ADDC       A,R4
       CODE:2c88 fc              MOV        R4,A
       CODE:2c89 7d 03           MOV        R5,#0x3
                             LAB_CODE_2c8b                                   XREF[1]:     CODE:2c96(j)  
       CODE:2c8b ea              MOV        A,R2
       CODE:2c8c 33              RLC        A
       CODE:2c8d fa              MOV        R2,A
       CODE:2c8e eb              MOV        A,R3
       CODE:2c8f 33              RLC        A
       CODE:2c90 fb              MOV        R3,A
       CODE:2c91 ec              MOV        A,R4
       CODE:2c92 33              RLC        A
       CODE:2c93 fc              MOV        R4,A
       CODE:2c94 40 0e           JC         LAB_CODE_2ca4
       CODE:2c96 dd f3           DJNZ       R5,LAB_CODE_2c8b
       CODE:2c98 ec              MOV        A,R4
       CODE:2c99 70 04           JNZ        LAB_CODE_2c9f
       CODE:2c9b 74 01           MOV        A,#0x1
       CODE:2c9d 7b 00           MOV        R3,#0x0
                             LAB_CODE_2c9f                                   XREF[2]:     CODE:2c99(j), CODE:2ca8(j)  
       CODE:2c9f f6              MOV        @R0,A
       CODE:2ca0 08              INC        R0
       CODE:2ca1 eb              MOV        A,R3
       CODE:2ca2 f6              MOV        @R0,A
       CODE:2ca3 22              RET
                             LAB_CODE_2ca4                                   XREF[1]:     CODE:2c94(j)  
       CODE:2ca4 74 ff           MOV        A,#0xff
       CODE:2ca6 7b ff           MOV        R3,#0xff
       CODE:2ca8 80 f5           SJMP       LAB_CODE_2c9f
                             **************************************************************
                             *                          FUNCTION                          *
                             **************************************************************
                             undefined FUN_CODE_2caa()
             undefined         ACC:1          <RETURN>
                             FUN_CODE_2caa                                   XREF[1]:     FUN_CODE_1cdf:1ce7(c)  
       CODE:2caa 30 66 1d        JNB        2c.6,LAB_CODE_2cca                                         = ??
       CODE:2cad e5 72           MOV        A,DAT_INTMEM_72                                            = ??
       CODE:2caf 70 1b           JNZ        LAB_CODE_2ccc
       CODE:2cb1 e5 73           MOV        A,DAT_INTMEM_73                                            = ??
       CODE:2cb3 a2 e3           MOV        CY,ACC.3                                                   = ??
       CODE:2cb5 92 d5           MOV        F0,CY                                                      = ??
       CODE:2cb7 12 2e 81        LCALL      FUN_CODE_2e81                                              undefined FUN_CODE_2e81()
       CODE:2cba 50 0c           JNC        LAB_CODE_2cc8
       CODE:2cbc e4              CLR        A
       CODE:2cbd d2 e6           SETB       ACC.6                                                      = ??
       CODE:2cbf a2 d5           MOV        CY,F0                                                      = ??
       CODE:2cc1 92 e7           MOV        ACC.7,CY                                                   = ??
       CODE:2cc3 aa 74           MOV        R2,DAT_INTMEM_74                                           = ??
                             LAB_CODE_2cc5                                   XREF[3]:     CODE:2cdd(j), CODE:2d11(j), 
                                                                                          CODE:2d25(j)  
       CODE:2cc5 c2 66           CLR        2c.6                                                       = ??
       CODE:2cc7 22              RET
                             LAB_CODE_2cc8                                   XREF[7]:     CODE:2cba(j), CODE:2cd2(j), 
                                                                                          CODE:2cd7(j), CODE:2ce5(j), 
                                                                                          CODE:2cea(j), CODE:2d16(j), 
                                                                                          CODE:2d1b(j)  
       CODE:2cc8 c2 66           CLR        2c.6                                                       = ??
                             LAB_CODE_2cca                                   XREF[1]:     CODE:2caa(j)  
       CODE:2cca e4              CLR        A
       CODE:2ccb 22              RET
                             LAB_CODE_2ccc                                   XREF[1]:     CODE:2caf(j)  
       CODE:2ccc b4 07 10        CJNE       A,#0x7,LAB_CODE_2cdf
       CODE:2ccf 12 2d 27        LCALL      FUN_CODE_2d27                                              undefined FUN_CODE_2d27()
       CODE:2cd2 70 f4           JNZ        LAB_CODE_2cc8
       CODE:2cd4 12 2e 7d        LCALL      FUN_CODE_2e7d                                              undefined FUN_CODE_2e7d()
       CODE:2cd7 50 ef           JNC        LAB_CODE_2cc8
       CODE:2cd9 e5 72           MOV        A,DAT_INTMEM_72                                            = ??
       CODE:2cdb aa 76           MOV        R2,DAT_INTMEM_76                                           = ??
       CODE:2cdd 80 e6           SJMP       LAB_CODE_2cc5
                             LAB_CODE_2cdf                                   XREF[1]:     CODE:2ccc(j)  
       CODE:2cdf b4 01 31        CJNE       A,#0x1,LAB_CODE_2d13
       CODE:2ce2 12 2d 6a        LCALL      FUN_CODE_2d6a                                              undefined FUN_CODE_2d6a()
       CODE:2ce5 70 e1           JNZ        LAB_CODE_2cc8
       CODE:2ce7 12 2e 7d        LCALL      FUN_CODE_2e7d                                              undefined FUN_CODE_2e7d()
       CODE:2cea 50 dc           JNC        LAB_CODE_2cc8
       CODE:2cec e5 76           MOV        A,DAT_INTMEM_76                                            = ??
       CODE:2cee 33              RLC        A
       CODE:2cef f5 76           MOV        DAT_INTMEM_76,A                                            = ??
       CODE:2cf1 e5 75           MOV        A,DAT_INTMEM_75                                            = ??
       CODE:2cf3 33              RLC        A
       CODE:2cf4 f5 75           MOV        DAT_INTMEM_75,A                                            = ??
       CODE:2cf6 e5 74           MOV        A,DAT_INTMEM_74                                            = ??
       CODE:2cf8 33              RLC        A
       CODE:2cf9 f5 74           MOV        DAT_INTMEM_74,A                                            = ??
       CODE:2cfb e5 76           MOV        A,DAT_INTMEM_76                                            = ??
       CODE:2cfd 23              RL         A
       CODE:2cfe 23              RL         A
       CODE:2cff 54 03           ANL        A,#0x3
       CODE:2d01 fc              MOV        R4,A
       CODE:2d02 e5 75           MOV        A,DAT_INTMEM_75                                            = ??
       CODE:2d04 a2 e7           MOV        CY,ACC.7                                                   = ??
       CODE:2d06 c2 e7           CLR        ACC.7                                                      = ??
       CODE:2d08 fb              MOV        R3,A
       CODE:2d09 e5 74           MOV        A,DAT_INTMEM_74                                            = ??
       CODE:2d0b 33              RLC        A
       CODE:2d0c c2 e7           CLR        ACC.7                                                      = ??
       CODE:2d0e fa              MOV        R2,A
       CODE:2d0f e5 72           MOV        A,DAT_INTMEM_72                                            = ??
       CODE:2d11 80 b2           SJMP       LAB_CODE_2cc5
                             LAB_CODE_2d13                                   XREF[1]:     CODE:2cdf(j)  
       CODE:2d13 12 2d e4        LCALL      FUN_CODE_2de4                                              undefined FUN_CODE_2de4()
       CODE:2d16 70 b0           JNZ        LAB_CODE_2cc8
       CODE:2d18 12 2e 7d        LCALL      FUN_CODE_2e7d                                              undefined FUN_CODE_2e7d()
       CODE:2d1b 50 ab           JNC        LAB_CODE_2cc8
       CODE:2d1d e5 72           MOV        A,DAT_INTMEM_72                                            = ??
       CODE:2d1f aa 74           MOV        R2,DAT_INTMEM_74                                           = ??
       CODE:2d21 ab 75           MOV        R3,DAT_INTMEM_75                                           = ??
       CODE:2d23 ac 76           MOV        R4,DAT_INTMEM_76                                           = ??
       CODE:2d25 80 9e           SJMP       LAB_CODE_2cc5
                             **************************************************************
                             *                          FUNCTION                          *
                             **************************************************************
                             undefined FUN_CODE_2d27()
             undefined         ACC:1          <RETURN>
                             FUN_CODE_2d27                                   XREF[1]:     FUN_CODE_2caa:2ccf(c)  
       CODE:2d27 e4              CLR        A
       CODE:2d28 85 73 f0        MOV        B,DAT_INTMEM_73                                            = ??
       CODE:2d2b 30 f7 02        JNB        B.7,LAB_CODE_2d30                                          = ??
       CODE:2d2e 64 0f           XRL        A,#0xf
                             LAB_CODE_2d30                                   XREF[1]:     CODE:2d2b(j)  
       CODE:2d30 30 f6 02        JNB        B.6,LAB_CODE_2d35                                          = ??
       CODE:2d33 64 0e           XRL        A,#0xe
                             LAB_CODE_2d35                                   XREF[1]:     CODE:2d30(j)  
       CODE:2d35 30 f5 02        JNB        B.5,LAB_CODE_2d3a                                          = ??
       CODE:2d38 64 0d           XRL        A,#0xd
                             LAB_CODE_2d3a                                   XREF[1]:     CODE:2d35(j)  
       CODE:2d3a 85 76 f0        MOV        B,DAT_INTMEM_76                                            = ??
       CODE:2d3d 30 f7 02        JNB        B.7,LAB_CODE_2d42                                          = ??
       CODE:2d40 64 0c           XRL        A,#0xc
                             LAB_CODE_2d42                                   XREF[1]:     CODE:2d3d(j)  
       CODE:2d42 30 f6 02        JNB        B.6,LAB_CODE_2d47                                          = ??
       CODE:2d45 64 0b           XRL        A,#0xb
                             LAB_CODE_2d47                                   XREF[1]:     CODE:2d42(j)  
       CODE:2d47 30 f5 02        JNB        B.5,LAB_CODE_2d4c                                          = ??
       CODE:2d4a 64 0a           XRL        A,#0xa
                             LAB_CODE_2d4c                                   XREF[1]:     CODE:2d47(j)  
       CODE:2d4c 30 f4 02        JNB        B.4,LAB_CODE_2d51                                          = ??
       CODE:2d4f 64 09           XRL        A,#0x9
                             LAB_CODE_2d51                                   XREF[1]:     CODE:2d4c(j)  
       CODE:2d51 30 f3 02        JNB        B.3,LAB_CODE_2d56                                          = ??
       CODE:2d54 64 07           XRL        A,#0x7
                             LAB_CODE_2d56                                   XREF[1]:     CODE:2d51(j)  
       CODE:2d56 30 f2 02        JNB        B.2,LAB_CODE_2d5b                                          = ??
       CODE:2d59 64 06           XRL        A,#0x6
                             LAB_CODE_2d5b                                   XREF[1]:     CODE:2d56(j)  
       CODE:2d5b 30 f1 02        JNB        B.1,LAB_CODE_2d60                                          = ??
       CODE:2d5e 64 05           XRL        A,#0x5
                             LAB_CODE_2d60                                   XREF[1]:     CODE:2d5b(j)  
       CODE:2d60 30 f0 02        JNB        B.0,LAB_CODE_2d65                                          = ??
       CODE:2d63 64 03           XRL        A,#0x3
                             LAB_CODE_2d65                                   XREF[1]:     CODE:2d60(j)  
       CODE:2d65 65 73           XRL        A,DAT_INTMEM_73                                            = ??
       CODE:2d67 54 1f           ANL        A,#0x1f
       CODE:2d69 22              RET
                             **************************************************************
                             *                          FUNCTION                          *
                             **************************************************************
                             undefined FUN_CODE_2d6a()
             undefined         ACC:1          <RETURN>
                             FUN_CODE_2d6a                                   XREF[1]:     FUN_CODE_2caa:2ce2(c)  
       CODE:2d6a e5 76           MOV        A,DAT_INTMEM_76                                            = ??
       CODE:2d6c f4              CPL        A
       CODE:2d6d 65 73           XRL        A,DAT_INTMEM_73                                            = ??
       CODE:2d6f 54 1f           ANL        A,#0x1f
       CODE:2d71 70 70           JNZ        LAB_CODE_2de3
       CODE:2d73 e4              CLR        A
       CODE:2d74 85 73 f0        MOV        B,DAT_INTMEM_73                                            = ??
       CODE:2d77 30 f7 02        JNB        B.7,LAB_CODE_2d7c                                          = ??
       CODE:2d7a 64 18           XRL        A,#0x18
                             LAB_CODE_2d7c                                   XREF[1]:     CODE:2d77(j)  
       CODE:2d7c 30 f6 02        JNB        B.6,LAB_CODE_2d81                                          = ??
       CODE:2d7f 64 17           XRL        A,#0x17
                             LAB_CODE_2d81                                   XREF[1]:     CODE:2d7c(j)  
       CODE:2d81 30 f5 02        JNB        B.5,LAB_CODE_2d86                                          = ??
       CODE:2d84 64 16           XRL        A,#0x16
                             LAB_CODE_2d86                                   XREF[1]:     CODE:2d81(j)  
       CODE:2d86 85 74 f0        MOV        B,DAT_INTMEM_74                                            = ??
       CODE:2d89 30 f4 02        JNB        B.4,LAB_CODE_2d8e                                          = ??
       CODE:2d8c 64 15           XRL        A,#0x15
                             LAB_CODE_2d8e                                   XREF[1]:     CODE:2d89(j)  
       CODE:2d8e 30 f3 02        JNB        B.3,LAB_CODE_2d93                                          = ??
       CODE:2d91 64 14           XRL        A,#0x14
                             LAB_CODE_2d93                                   XREF[1]:     CODE:2d8e(j)  
       CODE:2d93 30 f2 02        JNB        B.2,LAB_CODE_2d98                                          = ??
       CODE:2d96 64 13           XRL        A,#0x13
                             LAB_CODE_2d98                                   XREF[1]:     CODE:2d93(j)  
       CODE:2d98 30 f1 02        JNB        B.1,LAB_CODE_2d9d                                          = ??
       CODE:2d9b 64 12           XRL        A,#0x12
                             LAB_CODE_2d9d                                   XREF[1]:     CODE:2d98(j)  
       CODE:2d9d 30 f0 02        JNB        B.0,LAB_CODE_2da2                                          = ??
       CODE:2da0 64 11           XRL        A,#0x11
                             LAB_CODE_2da2                                   XREF[1]:     CODE:2d9d(j)  
       CODE:2da2 85 75 f0        MOV        B,DAT_INTMEM_75                                            = ??
       CODE:2da5 30 f7 02        JNB        B.7,LAB_CODE_2daa                                          = ??
       CODE:2da8 64 0f           XRL        A,#0xf
                             LAB_CODE_2daa                                   XREF[1]:     CODE:2da5(j)  
       CODE:2daa 30 f6 02        JNB        B.6,LAB_CODE_2daf                                          = ??
       CODE:2dad 64 0e           XRL        A,#0xe
                             LAB_CODE_2daf                                   XREF[1]:     CODE:2daa(j)  
       CODE:2daf 30 f5 02        JNB        B.5,LAB_CODE_2db4                                          = ??
       CODE:2db2 64 0d           XRL        A,#0xd
                             LAB_CODE_2db4                                   XREF[1]:     CODE:2daf(j)  
       CODE:2db4 30 f4 02        JNB        B.4,LAB_CODE_2db9                                          = ??
       CODE:2db7 64 0c           XRL        A,#0xc
                             LAB_CODE_2db9                                   XREF[1]:     CODE:2db4(j)  
       CODE:2db9 30 f3 02        JNB        B.3,LAB_CODE_2dbe                                          = ??
       CODE:2dbc 64 0b           XRL        A,#0xb
                             LAB_CODE_2dbe                                   XREF[1]:     CODE:2db9(j)  
       CODE:2dbe 30 f2 02        JNB        B.2,LAB_CODE_2dc3                                          = ??
       CODE:2dc1 64 0a           XRL        A,#0xa
                             LAB_CODE_2dc3                                   XREF[1]:     CODE:2dbe(j)  
       CODE:2dc3 30 f1 02        JNB        B.1,LAB_CODE_2dc8                                          = ??
       CODE:2dc6 64 09           XRL        A,#0x9
                             LAB_CODE_2dc8                                   XREF[1]:     CODE:2dc3(j)  
       CODE:2dc8 30 f0 02        JNB        B.0,LAB_CODE_2dcd                                          = ??
       CODE:2dcb 64 07           XRL        A,#0x7
                             LAB_CODE_2dcd                                   XREF[1]:     CODE:2dc8(j)  
       CODE:2dcd 85 76 f0        MOV        B,DAT_INTMEM_76                                            = ??
       CODE:2dd0 30 f7 02        JNB        B.7,LAB_CODE_2dd5                                          = ??
       CODE:2dd3 64 06           XRL        A,#0x6
                             LAB_CODE_2dd5                                   XREF[1]:     CODE:2dd0(j)  
       CODE:2dd5 30 f6 02        JNB        B.6,LAB_CODE_2dda                                          = ??
       CODE:2dd8 64 05           XRL        A,#0x5
                             LAB_CODE_2dda                                   XREF[1]:     CODE:2dd5(j)  
       CODE:2dda 30 f5 02        JNB        B.5,LAB_CODE_2ddf                                          = ??
       CODE:2ddd 64 03           XRL        A,#0x3
                             LAB_CODE_2ddf                                   XREF[1]:     CODE:2dda(j)  
       CODE:2ddf 65 73           XRL        A,DAT_INTMEM_73                                            = ??
       CODE:2de1 54 1f           ANL        A,#0x1f
                             LAB_CODE_2de3                                   XREF[1]:     CODE:2d71(j)  
       CODE:2de3 22              RET
                             **************************************************************
                             *                          FUNCTION                          *
                             **************************************************************
                             undefined FUN_CODE_2de4()
             undefined         ACC:1          <RETURN>
                             FUN_CODE_2de4                                   XREF[1]:     FUN_CODE_2caa:2d13(c)  
       CODE:2de4 e4              CLR        A
       CODE:2de5 85 73 f0        MOV        B,DAT_INTMEM_73                                            = ??
       CODE:2de8 30 f7 02        JNB        B.7,LAB_CODE_2ded                                          = ??
       CODE:2deb 64 1f           XRL        A,#0x1f
                             LAB_CODE_2ded                                   XREF[1]:     CODE:2de8(j)  
       CODE:2ded 30 f6 02        JNB        B.6,LAB_CODE_2df2                                          = ??
       CODE:2df0 64 1f           XRL        A,#0x1f
                             LAB_CODE_2df2                                   XREF[1]:     CODE:2ded(j)  
       CODE:2df2 30 f5 02        JNB        B.5,LAB_CODE_2df7                                          = ??
       CODE:2df5 64 1e           XRL        A,#0x1e
                             LAB_CODE_2df7                                   XREF[1]:     CODE:2df2(j)  
       CODE:2df7 85 74 f0        MOV        B,DAT_INTMEM_74                                            = ??
       CODE:2dfa 30 f7 02        JNB        B.7,LAB_CODE_2dff                                          = ??
       CODE:2dfd 64 1d           XRL        A,#0x1d
                             LAB_CODE_2dff                                   XREF[1]:     CODE:2dfa(j)  
       CODE:2dff 30 f6 02        JNB        B.6,LAB_CODE_2e04                                          = ??
       CODE:2e02 64 1c           XRL        A,#0x1c
                             LAB_CODE_2e04                                   XREF[1]:     CODE:2dff(j)  
       CODE:2e04 30 f5 02        JNB        B.5,LAB_CODE_2e09                                          = ??
       CODE:2e07 64 1b           XRL        A,#0x1b
                             LAB_CODE_2e09                                   XREF[1]:     CODE:2e04(j)  
       CODE:2e09 30 f4 02        JNB        B.4,LAB_CODE_2e0e                                          = ??
       CODE:2e0c 64 1a           XRL        A,#0x1a
                             LAB_CODE_2e0e                                   XREF[1]:     CODE:2e09(j)  
       CODE:2e0e 30 f3 02        JNB        B.3,LAB_CODE_2e13                                          = ??
       CODE:2e11 64 19           XRL        A,#0x19
                             LAB_CODE_2e13                                   XREF[1]:     CODE:2e0e(j)  
       CODE:2e13 30 f2 02        JNB        B.2,LAB_CODE_2e18                                          = ??
       CODE:2e16 64 18           XRL        A,#0x18
                             LAB_CODE_2e18                                   XREF[1]:     CODE:2e13(j)  
       CODE:2e18 30 f1 02        JNB        B.1,LAB_CODE_2e1d                                          = ??
       CODE:2e1b 64 17           XRL        A,#0x17
                             LAB_CODE_2e1d                                   XREF[1]:     CODE:2e18(j)  
       CODE:2e1d 30 f0 02        JNB        B.0,LAB_CODE_2e22                                          = ??
       CODE:2e20 64 16           XRL        A,#0x16
                             LAB_CODE_2e22                                   XREF[1]:     CODE:2e1d(j)  
       CODE:2e22 85 75 f0        MOV        B,DAT_INTMEM_75                                            = ??
       CODE:2e25 30 f7 02        JNB        B.7,LAB_CODE_2e2a                                          = ??
       CODE:2e28 64 15           XRL        A,#0x15
                             LAB_CODE_2e2a                                   XREF[1]:     CODE:2e25(j)  
       CODE:2e2a 30 f6 02        JNB        B.6,LAB_CODE_2e2f                                          = ??
       CODE:2e2d 64 14           XRL        A,#0x14
                             LAB_CODE_2e2f                                   XREF[1]:     CODE:2e2a(j)  
       CODE:2e2f 30 f5 02        JNB        B.5,LAB_CODE_2e34                                          = ??
       CODE:2e32 64 13           XRL        A,#0x13
                             LAB_CODE_2e34                                   XREF[1]:     CODE:2e2f(j)  
       CODE:2e34 30 f4 02        JNB        B.4,LAB_CODE_2e39                                          = ??
       CODE:2e37 64 12           XRL        A,#0x12
                             LAB_CODE_2e39                                   XREF[1]:     CODE:2e34(j)  
       CODE:2e39 30 f3 02        JNB        B.3,LAB_CODE_2e3e                                          = ??
       CODE:2e3c 64 11           XRL        A,#0x11
                             LAB_CODE_2e3e                                   XREF[1]:     CODE:2e39(j)  
       CODE:2e3e 30 f2 02        JNB        B.2,LAB_CODE_2e43                                          = ??
       CODE:2e41 64 0f           XRL        A,#0xf
                             LAB_CODE_2e43                                   XREF[1]:     CODE:2e3e(j)  
       CODE:2e43 30 f1 02        JNB        B.1,LAB_CODE_2e48                                          = ??
       CODE:2e46 64 0e           XRL        A,#0xe
                             LAB_CODE_2e48                                   XREF[1]:     CODE:2e43(j)  
       CODE:2e48 30 f0 02        JNB        B.0,LAB_CODE_2e4d                                          = ??
       CODE:2e4b 64 0d           XRL        A,#0xd
                             LAB_CODE_2e4d                                   XREF[1]:     CODE:2e48(j)  
       CODE:2e4d 85 76 f0        MOV        B,DAT_INTMEM_76                                            = ??
       CODE:2e50 30 f7 02        JNB        B.7,LAB_CODE_2e55                                          = ??
       CODE:2e53 64 0c           XRL        A,#0xc
                             LAB_CODE_2e55                                   XREF[1]:     CODE:2e50(j)  
       CODE:2e55 30 f6 02        JNB        B.6,LAB_CODE_2e5a                                          = ??
       CODE:2e58 64 0b           XRL        A,#0xb
                             LAB_CODE_2e5a                                   XREF[1]:     CODE:2e55(j)  
       CODE:2e5a 30 f5 02        JNB        B.5,LAB_CODE_2e5f                                          = ??
       CODE:2e5d 64 0a           XRL        A,#0xa
                             LAB_CODE_2e5f                                   XREF[1]:     CODE:2e5a(j)  
       CODE:2e5f 30 f4 02        JNB        B.4,LAB_CODE_2e64                                          = ??
       CODE:2e62 64 09           XRL        A,#0x9
                             LAB_CODE_2e64                                   XREF[1]:     CODE:2e5f(j)  
       CODE:2e64 30 f3 02        JNB        B.3,LAB_CODE_2e69                                          = ??
       CODE:2e67 64 07           XRL        A,#0x7
                             LAB_CODE_2e69                                   XREF[1]:     CODE:2e64(j)  
       CODE:2e69 30 f2 02        JNB        B.2,LAB_CODE_2e6e                                          = ??
       CODE:2e6c 64 06           XRL        A,#0x6
                             LAB_CODE_2e6e                                   XREF[1]:     CODE:2e69(j)  
       CODE:2e6e 30 f1 02        JNB        B.1,LAB_CODE_2e73                                          = ??
       CODE:2e71 64 05           XRL        A,#0x5
                             LAB_CODE_2e73                                   XREF[1]:     CODE:2e6e(j)  
       CODE:2e73 30 f0 02        JNB        B.0,LAB_CODE_2e78                                          = ??
       CODE:2e76 64 03           XRL        A,#0x3
                             LAB_CODE_2e78                                   XREF[1]:     CODE:2e73(j)  
       CODE:2e78 65 73           XRL        A,DAT_INTMEM_73                                            = ??
       CODE:2e7a 54 1f           ANL        A,#0x1f
       CODE:2e7c 22              RET
                             **************************************************************
                             *                          FUNCTION                          *
                             **************************************************************
                             undefined FUN_CODE_2e7d()
             undefined         ACC:1          <RETURN>
                             FUN_CODE_2e7d                                   XREF[3]:     FUN_CODE_2caa:2cd4(c), 
                                                                                          FUN_CODE_2caa:2ce7(c), 
                                                                                          FUN_CODE_2caa:2d18(c)  
       CODE:2e7d e5 73           MOV        A,DAT_INTMEM_73                                            = ??
       CODE:2e7f c4              SWAP       A
       CODE:2e80 03              RR         A
                             **************************************************************
                             *                          FUNCTION                          *
                             **************************************************************
                             undefined FUN_CODE_2e81()
             undefined         ACC:1          <RETURN>
                             FUN_CODE_2e81                                   XREF[1]:     FUN_CODE_2caa:2cb7(c)  
       CODE:2e81 78 81           MOV        R0,#0x81
       CODE:2e83 86 f0           MOV        B,@R0=>DAT_INTMEM_81                                       = ??
       CODE:2e85 20 f3 03        JB         B.3,LAB_CODE_2e8b                                          = ??
       CODE:2e88 a2 f0           MOV        CY,B.0                                                     = ??
       CODE:2e8a 22              RET
                             LAB_CODE_2e8b                                   XREF[1]:     CODE:2e85(j)  
       CODE:2e8b 54 07           ANL        A,#0x7
       CODE:2e8d b4 07 02        CJNE       A,#0x7,LAB_CODE_2e92
                             LAB_CODE_2e90                                   XREF[1]:     CODE:2e96(j)  
       CODE:2e90 d3              SETB       CY
       CODE:2e91 22              RET
                             LAB_CODE_2e92                                   XREF[1]:     CODE:2e8d(j)  
       CODE:2e92 65 f0           XRL        A,B
       CODE:2e94 54 07           ANL        A,#0x7
       CODE:2e96 60 f8           JZ         LAB_CODE_2e90
       CODE:2e98 c3              CLR        CY
       CODE:2e99 22              RET
                             **************************************************************
                             *                          FUNCTION                          *
                             **************************************************************
                             undefined FUN_CODE_2e9a()
             undefined         ACC:1          <RETURN>
                             FUN_CODE_2e9a                                   XREF[1]:     CODE:1f65(c)  
       CODE:2e9a e5 1f           MOV        A,BANK3_R7                                                 = ??
       CODE:2e9c 22              RET
                             **************************************************************
                             *                          FUNCTION                          *
                             **************************************************************
                             undefined FUN_CODE_2e9d()
             undefined         ACC:1          <RETURN>
                             FUN_CODE_2e9d                                   XREF[2]:     CODE:1f6d(c), CODE:20b0(c)  
       CODE:2e9d 12 27 9a        LCALL      FUN_CODE_279a                                              undefined FUN_CODE_279a()
       CODE:2ea0 c3              CLR        CY
       CODE:2ea1 20 5b 01        JB         2b.3,LAB_CODE_2ea5                                         = ??
       CODE:2ea4 22              RET
                             LAB_CODE_2ea5                                   XREF[1]:     CODE:2ea1(j)  
       CODE:2ea5 ee              MOV        A,R6
       CODE:2ea6 95 2f           SUBB       A,DAT_INTMEM_2f                                            = ??
       CODE:2ea8 40 16           JC         LAB_CODE_2ec0
       CODE:2eaa 70 14           JNZ        LAB_CODE_2ec0
       CODE:2eac c3              CLR        CY
       CODE:2ead ed              MOV        A,R5
       CODE:2eae 95 30           SUBB       A,DAT_INTMEM_30                                            = ??
       CODE:2eb0 40 0e           JC         LAB_CODE_2ec0
       CODE:2eb2 70 0c           JNZ        LAB_CODE_2ec0
       CODE:2eb4 c3              CLR        CY
       CODE:2eb5 ec              MOV        A,R4
       CODE:2eb6 95 31           SUBB       A,DAT_INTMEM_31                                            = ??
       CODE:2eb8 40 06           JC         LAB_CODE_2ec0
       CODE:2eba 70 04           JNZ        LAB_CODE_2ec0
       CODE:2ebc c3              CLR        CY
       CODE:2ebd eb              MOV        A,R3
       CODE:2ebe 95 32           SUBB       A,DAT_INTMEM_32                                            = ??
                             LAB_CODE_2ec0                                   XREF[6]:     CODE:2ea8(j), CODE:2eaa(j), 
                                                                                          CODE:2eb0(j), CODE:2eb2(j), 
                                                                                          CODE:2eb8(j), CODE:2eba(j)  
       CODE:2ec0 b3              CPL        CY
       CODE:2ec1 22              RET
                             **************************************************************
                             *                          FUNCTION                          *
                             **************************************************************
                             undefined FUN_CODE_2ec2()
             undefined         ACC:1          <RETURN>
                             FUN_CODE_2ec2                                   XREF[6]:     FUN_CODE_087f:0883(c), 
                                                                                          FUN_CODE_087f:088a(c), 
                                                                                          FUN_CODE_08a2:08a6(c), 
                                                                                          FUN_CODE_08a2:08ad(c), 
                                                                                          FUN_CODE_24cf:24fa(c), 
                                                                                          CODE:2ec5(j)  
       CODE:2ec2 76 00           MOV        @R0,#0x0
       CODE:2ec4 08              INC        R0
       CODE:2ec5 da fb           DJNZ       R2,FUN_CODE_2ec2
       CODE:2ec7 22              RET
                             LAB_CODE_2ec8                                   XREF[1]:     CODE:2ed0(j)  
       CODE:2ec8 f9              MOV        R1,A
       CODE:2ec9 a3              INC        DPTR
       CODE:2eca e4              CLR        A
       CODE:2ecb 93              MOVC       A,@A+DPTR
       CODE:2ecc f7              MOV        @R1,A
       CODE:2ecd a3              INC        DPTR
                             **************************************************************
                             *                          FUNCTION                          *
                             **************************************************************
                             undefined FUN_CODE_2ece()
             undefined         ACC:1          <RETURN>
                             FUN_CODE_2ece                                   XREF[1]:     FUN_CODE_25db:25e0(c)  
       CODE:2ece e4              CLR        A
       CODE:2ecf 93              MOVC       A,@A+DPTR
       CODE:2ed0 70 f6           JNZ        LAB_CODE_2ec8
       CODE:2ed2 22              RET
                             **************************************************************
                             *                          FUNCTION                          *
                             **************************************************************
                             undefined FUN_CODE_2ed3()
             undefined         ACC:1          <RETURN>
                             FUN_CODE_2ed3                                   XREF[3]:     FUN_CODE_087f:0891(c), 
                                                                                          FUN_CODE_08a2:08b4(c), 
                                                                                          CODE:2ee6(j)  
       CODE:2ed3 e8              MOV        A,R0
       CODE:2ed4 75 f0 08        MOV        B,#0x8
       CODE:2ed7 84              DIV        AB
       CODE:2ed8 24 20           ADD        A,#0x20
       CODE:2eda f9              MOV        R1,A
       CODE:2edb 05 f0           INC        B
       CODE:2edd 74 7f           MOV        A,#0x7f
                             LAB_CODE_2edf                                   XREF[1]:     CODE:2ee0(j)  
       CODE:2edf 23              RL         A
       CODE:2ee0 d5 f0 fc        DJNZ       B,LAB_CODE_2edf
       CODE:2ee3 57              ANL        A,@R1
       CODE:2ee4 f7              MOV        @R1,A
       CODE:2ee5 08              INC        R0
       CODE:2ee6 da eb           DJNZ       R2,FUN_CODE_2ed3
       CODE:2ee8 22              RET
       CODE:2ee9 00              ??         00h
       CODE:2eea 00              ??         00h
       CODE:2eeb 00              ??         00h
       CODE:2eec 00              ??         00h
       CODE:2eed 00              ??         00h
       CODE:2eee 00              ??         00h
       CODE:2eef 00              ??         00h
       CODE:2ef0 00              ??         00h
       CODE:2ef1 00              ??         00h
       CODE:2ef2 00              ??         00h
       CODE:2ef3 00              ??         00h
       CODE:2ef4 00              ??         00h
       CODE:2ef5 00              ??         00h
       CODE:2ef6 00              ??         00h
       CODE:2ef7 00              ??         00h
       CODE:2ef8 00              ??         00h
       CODE:2ef9 00              ??         00h
       CODE:2efa 00              ??         00h
       CODE:2efb 00              ??         00h
       CODE:2efc 00              ??         00h
       CODE:2efd 00              ??         00h
       CODE:2efe 00              ??         00h
       CODE:2eff 00              ??         00h
       CODE:2f00 00              ??         00h
       CODE:2f01 00              ??         00h
       CODE:2f02 00              ??         00h
       CODE:2f03 00              ??         00h
       CODE:2f04 00              ??         00h
       CODE:2f05 00              ??         00h
       CODE:2f06 00              ??         00h
       CODE:2f07 00              ??         00h
       CODE:2f08 00              ??         00h
       CODE:2f09 00              ??         00h
       CODE:2f0a 00              ??         00h
       CODE:2f0b 00              ??         00h
       CODE:2f0c 00              ??         00h
       CODE:2f0d 00              ??         00h
       CODE:2f0e 00              ??         00h
       CODE:2f0f 00              ??         00h
       CODE:2f10 00              ??         00h
       CODE:2f11 00              ??         00h
       CODE:2f12 00              ??         00h
       CODE:2f13 00              ??         00h
       CODE:2f14 00              ??         00h
       CODE:2f15 00              ??         00h
       CODE:2f16 00              ??         00h
       CODE:2f17 00              ??         00h
       CODE:2f18 00              ??         00h
       CODE:2f19 00              ??         00h
       CODE:2f1a 00              ??         00h
       CODE:2f1b 00              ??         00h
       CODE:2f1c 00              ??         00h
       CODE:2f1d 00              ??         00h
       CODE:2f1e 00              ??         00h
       CODE:2f1f 00              ??         00h
       CODE:2f20 00              ??         00h
       CODE:2f21 00              ??         00h
       CODE:2f22 00              ??         00h
       CODE:2f23 00              ??         00h
       CODE:2f24 00              ??         00h
       CODE:2f25 00              ??         00h
       CODE:2f26 00              ??         00h
       CODE:2f27 00              ??         00h
       CODE:2f28 00              ??         00h
       CODE:2f29 00              ??         00h
       CODE:2f2a 00              ??         00h
       CODE:2f2b 00              ??         00h
       CODE:2f2c 00              ??         00h
       CODE:2f2d 00              ??         00h
       CODE:2f2e 00              ??         00h
       CODE:2f2f 00              ??         00h
       CODE:2f30 00              ??         00h
       CODE:2f31 00              ??         00h
       CODE:2f32 00              ??         00h
       CODE:2f33 00              ??         00h
       CODE:2f34 00              ??         00h
       CODE:2f35 00              ??         00h
       CODE:2f36 00              ??         00h
       CODE:2f37 00              ??         00h
       CODE:2f38 00              ??         00h
       CODE:2f39 00              ??         00h
       CODE:2f3a 00              ??         00h
       CODE:2f3b 00              ??         00h
       CODE:2f3c 00              ??         00h
       CODE:2f3d 00              ??         00h
       CODE:2f3e 00              ??         00h
       CODE:2f3f 00              ??         00h
       CODE:2f40 00              ??         00h
       CODE:2f41 00              ??         00h
       CODE:2f42 00              ??         00h
       CODE:2f43 00              ??         00h
       CODE:2f44 00              ??         00h
       CODE:2f45 00              ??         00h
       CODE:2f46 00              ??         00h
       CODE:2f47 00              ??         00h
       CODE:2f48 00              ??         00h
       CODE:2f49 00              ??         00h
       CODE:2f4a 00              ??         00h
       CODE:2f4b 00              ??         00h
       CODE:2f4c 00              ??         00h
       CODE:2f4d 00              ??         00h
       CODE:2f4e 00              ??         00h
       CODE:2f4f 00              ??         00h
       CODE:2f50 00              ??         00h
       CODE:2f51 00              ??         00h
       CODE:2f52 00              ??         00h
       CODE:2f53 00              ??         00h
       CODE:2f54 00              ??         00h
       CODE:2f55 00              ??         00h
       CODE:2f56 00              ??         00h
       CODE:2f57 00              ??         00h
       CODE:2f58 00              ??         00h
       CODE:2f59 00              ??         00h
       CODE:2f5a 00              ??         00h
       CODE:2f5b 00              ??         00h
       CODE:2f5c 00              ??         00h
       CODE:2f5d 00              ??         00h
       CODE:2f5e 00              ??         00h
       CODE:2f5f 00              ??         00h
       CODE:2f60 00              ??         00h
       CODE:2f61 00              ??         00h
       CODE:2f62 00              ??         00h
       CODE:2f63 00              ??         00h
       CODE:2f64 00              ??         00h
       CODE:2f65 00              ??         00h
       CODE:2f66 00              ??         00h
       CODE:2f67 00              ??         00h
       CODE:2f68 00              ??         00h
       CODE:2f69 00              ??         00h
       CODE:2f6a 00              ??         00h
       CODE:2f6b 00              ??         00h
       CODE:2f6c 00              ??         00h
       CODE:2f6d 00              ??         00h
       CODE:2f6e 00              ??         00h
       CODE:2f6f 00              ??         00h
       CODE:2f70 00              ??         00h
       CODE:2f71 00              ??         00h
       CODE:2f72 00              ??         00h
       CODE:2f73 00              ??         00h
       CODE:2f74 00              ??         00h
       CODE:2f75 00              ??         00h
       CODE:2f76 00              ??         00h
       CODE:2f77 00              ??         00h
       CODE:2f78 00              ??         00h
       CODE:2f79 00              ??         00h
       CODE:2f7a 00              ??         00h
       CODE:2f7b 00              ??         00h
       CODE:2f7c 00              ??         00h
       CODE:2f7d 00              ??         00h
       CODE:2f7e 00              ??         00h
       CODE:2f7f 00              ??         00h
       CODE:2f80 00              ??         00h
       CODE:2f81 00              ??         00h
       CODE:2f82 00              ??         00h
       CODE:2f83 00              ??         00h
       CODE:2f84 00              ??         00h
       CODE:2f85 00              ??         00h
       CODE:2f86 00              ??         00h
       CODE:2f87 00              ??         00h
       CODE:2f88 00              ??         00h
       CODE:2f89 00              ??         00h
       CODE:2f8a 00              ??         00h
       CODE:2f8b 00              ??         00h
       CODE:2f8c 00              ??         00h
       CODE:2f8d 00              ??         00h
       CODE:2f8e 00              ??         00h
       CODE:2f8f 00              ??         00h
       CODE:2f90 00              ??         00h
       CODE:2f91 00              ??         00h
       CODE:2f92 00              ??         00h
       CODE:2f93 00              ??         00h
       CODE:2f94 00              ??         00h
       CODE:2f95 00              ??         00h
       CODE:2f96 00              ??         00h
       CODE:2f97 00              ??         00h
       CODE:2f98 00              ??         00h
       CODE:2f99 00              ??         00h
       CODE:2f9a 00              ??         00h
       CODE:2f9b 00              ??         00h
       CODE:2f9c 00              ??         00h
       CODE:2f9d 00              ??         00h
       CODE:2f9e 00              ??         00h
       CODE:2f9f 00              ??         00h
       CODE:2fa0 00              ??         00h
       CODE:2fa1 00              ??         00h
       CODE:2fa2 00              ??         00h
       CODE:2fa3 00              ??         00h
       CODE:2fa4 00              ??         00h
       CODE:2fa5 00              ??         00h
       CODE:2fa6 00              ??         00h
       CODE:2fa7 00              ??         00h
       CODE:2fa8 00              ??         00h
       CODE:2fa9 00              ??         00h
       CODE:2faa 00              ??         00h
       CODE:2fab 00              ??         00h
       CODE:2fac 00              ??         00h
       CODE:2fad 00              ??         00h
       CODE:2fae 00              ??         00h
       CODE:2faf 00              ??         00h
       CODE:2fb0 00              ??         00h
       CODE:2fb1 00              ??         00h
       CODE:2fb2 00              ??         00h
       CODE:2fb3 00              ??         00h
       CODE:2fb4 00              ??         00h
       CODE:2fb5 00              ??         00h
       CODE:2fb6 00              ??         00h
       CODE:2fb7 00              ??         00h
       CODE:2fb8 00              ??         00h
       CODE:2fb9 00              ??         00h
       CODE:2fba 00              ??         00h
       CODE:2fbb 00              ??         00h
       CODE:2fbc 00              ??         00h
       CODE:2fbd 00              ??         00h
       CODE:2fbe 00              ??         00h
       CODE:2fbf 00              ??         00h
       CODE:2fc0 00              ??         00h
       CODE:2fc1 00              ??         00h
       CODE:2fc2 00              ??         00h
       CODE:2fc3 00              ??         00h
       CODE:2fc4 00              ??         00h
       CODE:2fc5 00              ??         00h
       CODE:2fc6 00              ??         00h
       CODE:2fc7 00              ??         00h
       CODE:2fc8 00              ??         00h
       CODE:2fc9 00              ??         00h
       CODE:2fca 00              ??         00h
       CODE:2fcb 00              ??         00h
       CODE:2fcc 00              ??         00h
       CODE:2fcd 00              ??         00h
       CODE:2fce 00              ??         00h
       CODE:2fcf 00              ??         00h
       CODE:2fd0 00              ??         00h
       CODE:2fd1 00              ??         00h
       CODE:2fd2 00              ??         00h
       CODE:2fd3 00              ??         00h
       CODE:2fd4 00              ??         00h
       CODE:2fd5 00              ??         00h
       CODE:2fd6 00              ??         00h
       CODE:2fd7 00              ??         00h
       CODE:2fd8 00              ??         00h
       CODE:2fd9 00              ??         00h
       CODE:2fda 00              ??         00h
       CODE:2fdb 00              ??         00h
       CODE:2fdc 00              ??         00h
       CODE:2fdd 00              ??         00h
       CODE:2fde 00              ??         00h
       CODE:2fdf 00              ??         00h
       CODE:2fe0 00              ??         00h
       CODE:2fe1 00              ??         00h
       CODE:2fe2 00              ??         00h
       CODE:2fe3 00              ??         00h
       CODE:2fe4 00              ??         00h
       CODE:2fe5 00              ??         00h
       CODE:2fe6 00              ??         00h
       CODE:2fe7 00              ??         00h
       CODE:2fe8 00              ??         00h
       CODE:2fe9 00              ??         00h
       CODE:2fea 00              ??         00h
       CODE:2feb 00              ??         00h
       CODE:2fec 00              ??         00h
       CODE:2fed 00              ??         00h
       CODE:2fee 00              ??         00h
       CODE:2fef 00              ??         00h
       CODE:2ff0 00              ??         00h
       CODE:2ff1 00              ??         00h
       CODE:2ff2 00              ??         00h
       CODE:2ff3 00              ??         00h
       CODE:2ff4 00              ??         00h
       CODE:2ff5 00              ??         00h
       CODE:2ff6 00              ??         00h
       CODE:2ff7 00              ??         00h
       CODE:2ff8 e1              ??         E1h
       CODE:2ff9 e3              ??         E3h
       CODE:2ffa 01              ??         01h
       CODE:2ffb d3              ??         D3h
       CODE:2ffc 00              ??         00h
       CODE:2ffd 00              ??         00h
       CODE:2ffe 00              ??         00h
       CODE:2fff 00              ??         00h
                             //
                             // REG_BANK_1 
                             // INTMEM:00-INTMEM:07
                             //
                             BANK0_R0
       INTMEM:00                 ??         ??
                             BANK0_R1
       INTMEM:01                 ??         ??
                             BANK0_R2
       INTMEM:02                 ??         ??
                             BANK0_R3
       INTMEM:03                 ??         ??
                             BANK0_R4
       INTMEM:04                 ??         ??
                             BANK0_R5
       INTMEM:05                 ??         ??
                             BANK0_R6
       INTMEM:06                 ??         ??
                             BANK0_R7
       INTMEM:07                 ??         ??
                             //
                             // REG_BANK_2 
                             // INTMEM:08-INTMEM:0f
                             //
                             BANK1_R0
       INTMEM:08                 ??         ??
                             BANK1_R1
       INTMEM:09                 ??         ??
                             BANK1_R2
       INTMEM:0a                 ??         ??
                             BANK1_R3
       INTMEM:0b                 ??         ??
                             BANK1_R4
       INTMEM:0c                 ??         ??
                             BANK1_R5
       INTMEM:0d                 ??         ??
                             BANK1_R6
       INTMEM:0e                 ??         ??
                             BANK1_R7
       INTMEM:0f                 ??         ??
                             //
                             // REG_BANK_3 
                             // INTMEM:10-INTMEM:17
                             //
                             BANK2_R0                                        XREF[11]:    CODE:0533(W), CODE:0537(W), 
                                                                                          CODE:053b(W), CODE:053f(W), 
                                                                                          CODE:0543(W), CODE:0547(W), 
                                                                                          CODE:054b(W), CODE:054f(W), 
                                                                                          CODE:0553(W), 
                                                                                          FUN_CODE_05ee:05ee(R), 
                                                                                          FUN_CODE_24cf:24db(W)  
       INTMEM:10                 undefined1 ??
                             BANK2_R1                                        XREF[17]:    CODE:048f(W), CODE:04b2(W), 
                                                                                          CODE:04b7(RW), CODE:04c6(RW), 
                                                                                          CODE:04cc(RW), CODE:04d4(W), 
                                                                                          CODE:04fb(RW), CODE:0518(W), 
                                                                                          CODE:0524(RW), CODE:052e(W), 
                                                                                          CODE:055a(RW), CODE:0587(W), 
                                                                                          CODE:0598(RW), CODE:059f(W), 
                                                                                          CODE:05c3(RW), CODE:05d4(W), 
                                                                                          CODE:05e1(W)  
       INTMEM:11                 ??         ??
                             BANK2_R2                                        XREF[6]:     CODE:04af(W), CODE:0515(W), 
                                                                                          CODE:0564(RW), CODE:05a2(R), 
                                                                                          CODE:05a4(RW), CODE:05d0(R)  
       INTMEM:12                 undefined1 ??
                             BANK2_R3                                        XREF[4]:     CODE:0574(R), CODE:058a(R), 
                                                                                          CODE:058f(W), 
                                                                                          FUN_CODE_2bf1:2bf6(R)  
       INTMEM:13                 undefined1 ??
                             BANK2_R4                                        XREF[7]:     CODE:0504(W), CODE:050b(R), 
                                                                                          CODE:05b7(R), CODE:05ba(W), 
                                                                                          FUN_CODE_2bfb:2bfb(W), 
                                                                                          FUN_CODE_2bfb:2c0f(R), 
                                                                                          FUN_CODE_2c24:2c3a(W)  
       INTMEM:14                 undefined1 ??
                             BANK2_R5                                        XREF[4]:     CODE:0504(R), CODE:0574(W), 
                                                                                          FUN_CODE_2bfb:2bfd(W), 
                                                                                          FUN_CODE_2c24:2c2e(R)  
       INTMEM:15                 undefined1 ??
                             BANK2_R6                                        XREF[4]:     CODE:04eb(R), CODE:04f4(RW), 
                                                                                          FUN_CODE_2bfb:2c06(W), 
                                                                                          FUN_CODE_2c24:2c3c(W)  
       INTMEM:16                 undefined1 ??
                             BANK2_R7                                        XREF[4]:     FUN_CODE_0607:060e(R), 
                                                                                          FUN_CODE_0607:0667(W), 
                                                                                          FUN_CODE_0607:066c(R), 
                                                                                          FUN_CODE_0607:06c5(W)  
       INTMEM:17                 undefined1 ??
                             //
                             // REG_BANK_4 
                             // INTMEM:18-INTMEM:1f
                             //
                             BANK3_R0                                        XREF[4]:     FUN_CODE_0607:06ca(R), 
                                                                                          FUN_CODE_0607:0723(W), 
                                                                                          FUN_CODE_0607:0728(R), 
                                                                                          FUN_CODE_0607:0781(W)  
       INTMEM:18                 undefined1 ??
                             BANK3_R1                                        XREF[2]:     FUN_CODE_0607:0786(R), 
                                                                                          FUN_CODE_0607:07df(W)  
       INTMEM:19                 undefined1 ??
                             BANK3_R2                                        XREF[6]:     FUN_CODE_0607:0620(W), 
                                                                                          FUN_CODE_0607:0628(RW), 
                                                                                          FUN_CODE_0607:0644(W), 
                                                                                          FUN_CODE_0607:064f(RW), 
                                                                                          FUN_CODE_0607:065b(RW), 
                                                                                          FUN_CODE_0607:0664(W)  
       INTMEM:1a                 ??         ??
                             BANK3_R3                                        XREF[6]:     FUN_CODE_0607:067e(W), 
                                                                                          FUN_CODE_0607:0686(RW), 
                                                                                          FUN_CODE_0607:06a2(W), 
                                                                                          FUN_CODE_0607:06ad(RW), 
                                                                                          FUN_CODE_0607:06b9(RW), 
                                                                                          FUN_CODE_0607:06c2(W)  
       INTMEM:1b                 ??         ??
                             BANK3_R4                                        XREF[6]:     FUN_CODE_0607:06dc(W), 
                                                                                          FUN_CODE_0607:06e4(RW), 
                                                                                          FUN_CODE_0607:0700(W), 
                                                                                          FUN_CODE_0607:070b(RW), 
                                                                                          FUN_CODE_0607:0717(RW), 
                                                                                          FUN_CODE_0607:0720(W)  
       INTMEM:1c                 ??         ??
                             BANK3_R5                                        XREF[6]:     FUN_CODE_0607:073a(W), 
                                                                                          FUN_CODE_0607:0742(RW), 
                                                                                          FUN_CODE_0607:075e(W), 
                                                                                          FUN_CODE_0607:0769(RW), 
                                                                                          FUN_CODE_0607:0775(RW), 
                                                                                          FUN_CODE_0607:077e(W)  
       INTMEM:1d                 ??         ??
                             BANK3_R6                                        XREF[6]:     FUN_CODE_0607:0798(W), 
                                                                                          FUN_CODE_0607:07a0(RW), 
                                                                                          FUN_CODE_0607:07bc(W), 
                                                                                          FUN_CODE_0607:07c7(RW), 
                                                                                          FUN_CODE_0607:07d3(RW), 
                                                                                          FUN_CODE_0607:07dc(W)  
       INTMEM:1e                 ??         ??
                             BANK3_R7                                        XREF[8]:     FUN_CODE_0607:0607(R), 
                                                                                          FUN_CODE_0607:065e(W), 
                                                                                          FUN_CODE_0607:06bc(W), 
                                                                                          FUN_CODE_0607:071a(W), 
                                                                                          FUN_CODE_0607:0778(W), 
                                                                                          FUN_CODE_0607:07d6(W), 
                                                                                          FUN_CODE_24cf:24fd(W), 
                                                                                          FUN_CODE_2e9a:2e9a(R)  
       INTMEM:1f                 undefined1 ??
                             //
                             // INTMEM 
                             // INTMEM:20-INTMEM:ff
                             //
       INTMEM:20                 ??         ??
       INTMEM:21                 ??         ??
       INTMEM:22                 ??         ??
       INTMEM:23                 ??         ??
       INTMEM:24                 ??         ??
       INTMEM:25                 ??         ??
       INTMEM:26                 ??         ??
       INTMEM:27                 ??         ??
       INTMEM:28                 ??         ??
       INTMEM:29                 ??         ??
       INTMEM:2a                 ??         ??
       INTMEM:2b                 ??         ??
       INTMEM:2c                 ??         ??
       INTMEM:2d                 ??         ??
                             DAT_INTMEM_2e                                   XREF[13]:    FUN_CODE_087f:089c(W), 
                                                                                          FUN_CODE_08a2:08c7(R), 
                                                                                          FUN_CODE_08a2:08cd(W), 
                                                                                          FUN_CODE_08d0:09d6(R), 
                                                                                          FUN_CODE_08d0:09ff(R), 
                                                                                          FUN_CODE_0de8:0eb1(R), 
                                                                                          CODE:1425(R), CODE:1444(R), 
                                                                                          CODE:1452(W), CODE:1545(R), 
                                                                                          CODE:1a81(R), CODE:1cb3(R), 
                                                                                          FUN_CODE_1cdf:1ced(R)  
       INTMEM:2e                 undefined1 ??
                             DAT_INTMEM_2f                                   XREF[3]:     FUN_CODE_08d0:098d(R), 
                                                                                          FUN_CODE_08d0:0c5b(W), 
                                                                                          FUN_CODE_2e9d:2ea6(R)  
       INTMEM:2f                 undefined1 ??
                             DAT_INTMEM_30                                   XREF[3]:     FUN_CODE_08d0:0988(R), 
                                                                                          FUN_CODE_08d0:0c5d(W), 
                                                                                          FUN_CODE_2e9d:2eae(R)  
       INTMEM:30                 undefined1 ??
                             DAT_INTMEM_31                                   XREF[3]:     FUN_CODE_08d0:0983(R), 
                                                                                          FUN_CODE_08d0:0c5f(W), 
                                                                                          FUN_CODE_2e9d:2eb6(R)  
       INTMEM:31                 undefined1 ??
                             DAT_INTMEM_32                                   XREF[3]:     FUN_CODE_08d0:097e(R), 
                                                                                          FUN_CODE_08d0:0c61(W), 
                                                                                          FUN_CODE_2e9d:2ebe(R)  
       INTMEM:32                 undefined1 ??
                             DAT_INTMEM_33                                   XREF[7]:     FUN_CODE_07e3:0816(RW), 
                                                                                          FUN_CODE_07e3:081b(RW), 
                                                                                          CODE:10a8(RW), CODE:1901(R), 
                                                                                          CODE:190c(RW), CODE:1951(R), 
                                                                                          CODE:1ad6(RW)  
       INTMEM:33                 undefined1 ??
                             DAT_INTMEM_34                                   XREF[7]:     FUN_CODE_1d8e:1d8e(R), 
                                                                                          FUN_CODE_1d8e:1d92(RW), 
                                                                                          CODE:1dc2(R), CODE:1dcb(W), 
                                                                                          CODE:1e42(W), CODE:21d9(W), 
                                                                                          CODE:21f6(W)  
       INTMEM:34                 undefined1 ??
                             DAT_INTMEM_35                                   XREF[4]:     FUN_CODE_08d0:0b2c(R), 
                                                                                          CODE:1dc8(RW), CODE:1e09(RW), 
                                                                                          CODE:1e0b(RW)  
       INTMEM:35                 undefined1 ??
                             DAT_INTMEM_36                                   XREF[19]:    CODE:2220(W), CODE:2257(W), 
                                                                                          CODE:2272(RW), CODE:227f(W), 
                                                                                          CODE:2287(RW), CODE:2295(W), 
                                                                                          CODE:229d(W), CODE:22d0(RW), 
                                                                                          CODE:22d5(RW), CODE:22db(W), 
                                                                                          CODE:22e0(RW), CODE:22e3(W), 
                                                                                          CODE:22f5(RW), CODE:22f8(W), 
                                                                                          CODE:22fe(W), CODE:231c(RW), 
                                                                                          CODE:2324(W), CODE:2356(RW), 
                                                                                          FUN_CODE_2371:2374(W)  
       INTMEM:36                 ??         ??
                             DAT_INTMEM_37                                   XREF[23]:    FUN_CODE_08d0:09cb(R), 
                                                                                          FUN_CODE_08d0:0ca5(R), 
                                                                                          FUN_CODE_0de8:0f58(R), 
                                                                                          CODE:20de(R), CODE:221b(R), 
                                                                                          CODE:2231(R), CODE:2239(R), 
                                                                                          CODE:223e(W), CODE:2250(R), 
                                                                                          CODE:2262(W), CODE:226a(W), 
                                                                                          CODE:227a(W), CODE:2292(W), 
                                                                                          CODE:229a(W), CODE:22e6(R), 
                                                                                          CODE:2301(R), CODE:2312(W), 
                                                                                          CODE:2336(W), CODE:234b(W), 
                                                                                          FUN_CODE_2371:237c(R), [more]
       INTMEM:37                 undefined1 ??
                             DAT_INTMEM_38                                   XREF[28]:    FUN_CODE_08d0:0cb3(W), 
                                                                                          CODE:1f47(W), CODE:1f7a(W), 
                                                                                          CODE:1f82(W), CODE:2011(R), 
                                                                                          CODE:2013(W), CODE:2019(W), 
                                                                                          CODE:2024(W), CODE:202b(R), 
                                                                                          CODE:202d(W), CODE:2033(W), 
                                                                                          CODE:203e(W), CODE:20ea(R), 
                                                                                          CODE:20ec(W), CODE:20f2(W), 
                                                                                          CODE:20fd(W), CODE:210d(W), 
                                                                                          CODE:2229(R), CODE:2244(W), 
                                                                                          CODE:224b(W), [more]
       INTMEM:38                 undefined1 ??
                             DAT_INTMEM_39                                   XREF[2]:     CODE:14d0(W), CODE:14d5(RW)  
       INTMEM:39                 ??         ??
                             DAT_INTMEM_3a                                   XREF[8]:     CODE:14c0(R), CODE:14ce(W), 
                                                                                          CODE:1fd7(W), CODE:1fe8(W), 
                                                                                          CODE:1ff0(W), CODE:2055(W), 
                                                                                          CODE:2114(W), CODE:2147(W)  
       INTMEM:3a                 undefined1 ??
                             DAT_INTMEM_3b                                   XREF[29]:    FUN_CODE_08d0:0bd8(W), 
                                                                                          FUN_CODE_08d0:0be2(W), 
                                                                                          FUN_CODE_08d0:0bf9(W), 
                                                                                          FUN_CODE_08d0:0c03(W), 
                                                                                          FUN_CODE_08d0:0c13(W), 
                                                                                          CODE:10ab(W), CODE:11aa(W), 
                                                                                          CODE:11c1(RW), CODE:11c4(W), 
                                                                                          CODE:1316(W), CODE:131b(RW), 
                                                                                          CODE:132f(W), CODE:1367(RW), 
                                                                                          CODE:137e(W), CODE:1391(RW), 
                                                                                          CODE:1394(W), CODE:139f(RW), 
                                                                                          CODE:2052(W), CODE:2097(R), 
                                                                                          CODE:20c1(RW), [more]
       INTMEM:3b                 undefined1 ??
                             DAT_INTMEM_3c                                   XREF[5]:     FUN_CODE_08d0:0945(R), 
                                                                                          CODE:13b3(RW), CODE:13b5(R), 
                                                                                          CODE:208c(W), CODE:2144(W)  
       INTMEM:3c                 undefined1 ??
                             DAT_INTMEM_3d                                   XREF[3]:     FUN_CODE_08d0:0998(R), 
                                                                                          CODE:29be(R), CODE:29d3(W)  
       INTMEM:3d                 undefined1 ??
                             DAT_INTMEM_3e                                   XREF[5]:     FUN_CODE_08d0:099d(R), 
                                                                                          FUN_CODE_1598:15ae(R), 
                                                                                          FUN_CODE_1598:15c9(R), 
                                                                                          CODE:29ba(R), CODE:29d0(W)  
       INTMEM:3e                 undefined1 ??
                             DAT_INTMEM_3f                                   XREF[3]:     FUN_CODE_08d0:09a2(R), 
                                                                                          CODE:2993(R), CODE:29a8(W)  
       INTMEM:3f                 undefined1 ??
                             DAT_INTMEM_40                                   XREF[5]:     FUN_CODE_08d0:09a7(R), 
                                                                                          FUN_CODE_1598:15b4(R), 
                                                                                          FUN_CODE_1598:15e4(R), 
                                                                                          CODE:298f(R), CODE:29a5(W)  
       INTMEM:40                 undefined1 ??
                             DAT_INTMEM_41                                   XREF[3]:     FUN_CODE_08d0:09ac(R), 
                                                                                          CODE:296d(R), CODE:2982(W)  
       INTMEM:41                 undefined1 ??
                             DAT_INTMEM_42                                   XREF[5]:     FUN_CODE_08d0:09b1(R), 
                                                                                          FUN_CODE_1598:15ba(R), 
                                                                                          FUN_CODE_1598:15ff(R), 
                                                                                          CODE:2969(R), CODE:297f(W)  
       INTMEM:42                 undefined1 ??
                             DAT_INTMEM_43                                   XREF[3]:     FUN_CODE_08d0:09b6(R), 
                                                                                          FUN_CODE_16dc:170a(R), 
                                                                                          CODE:29f6(W)  
       INTMEM:43                 undefined1 ??
                             DAT_INTMEM_44                                   XREF[4]:     FUN_CODE_08a2:08bd(W), 
                                                                                          FUN_CODE_08d0:09bb(R), 
                                                                                          FUN_CODE_16dc:16dc(R), 
                                                                                          CODE:29f3(W)  
       INTMEM:44                 undefined1 ??
                             DAT_INTMEM_45                                   XREF[3]:     FUN_CODE_1598:1656(R), 
                                                                                          CODE:2636(*), 
                                                                                          FUN_CODE_265d:2741(W)  
       INTMEM:45                 undefined1 ??
                             DAT_INTMEM_46                                   XREF[3]:     FUN_CODE_1598:166e(R), 
                                                                                          CODE:2638(*), 
                                                                                          FUN_CODE_265d:2744(W)  
       INTMEM:46                 undefined1 ??
                             DAT_INTMEM_47                                   XREF[3]:     FUN_CODE_1598:1686(R), 
                                                                                          CODE:263a(*), 
                                                                                          FUN_CODE_265d:2747(W)  
       INTMEM:47                 undefined1 ??
                             DAT_INTMEM_48                                   XREF[3]:     FUN_CODE_1598:15cb(R), 
                                                                                          CODE:263c(*), 
                                                                                          FUN_CODE_265d:2750(W)  
       INTMEM:48                 ??         ??
                             DAT_INTMEM_49                                   XREF[3]:     FUN_CODE_1598:15e6(R), 
                                                                                          CODE:263e(*), 
                                                                                          FUN_CODE_265d:2753(W)  
       INTMEM:49                 ??         ??
                             DAT_INTMEM_4a                                   XREF[3]:     FUN_CODE_1598:1601(R), 
                                                                                          CODE:2640(*), 
                                                                                          FUN_CODE_265d:2756(W)  
       INTMEM:4a                 ??         ??
                             DAT_INTMEM_4b                                   XREF[3]:     FUN_CODE_08a2:08b7(W), 
                                                                                          FUN_CODE_217c:2182(RW), 
                                                                                          FUN_CODE_217c:2185(W)  
       INTMEM:4b                 ??         ??
                             DAT_INTMEM_4c                                   XREF[4]:     FUN_CODE_08a2:08ba(W), 
                                                                                          FUN_CODE_08d0:0c8d(W), 
                                                                                          FUN_CODE_217c:219e(W), 
                                                                                          FUN_CODE_217c:21a2(RW)  
       INTMEM:4c                 ??         ??
                             DAT_INTMEM_4d                                   XREF[3]:     FUN_CODE_1598:159e(W), 
                                                                                          FUN_CODE_1598:15a6(RW), 
                                                                                          FUN_CODE_1598:15a9(W)  
       INTMEM:4d                 ??         ??
                             DAT_INTMEM_4e                                   XREF[6]:     CODE:11ad(W), CODE:11c7(RW), 
                                                                                          CODE:12a9(W), 
                                                                                          FUN_CODE_1598:1626(W), 
                                                                                          FUN_CODE_1598:162c(RW), 
                                                                                          FUN_CODE_1598:163d(W)  
       INTMEM:4e                 ??         ??
                             DAT_INTMEM_4f                                   XREF[4]:     CODE:12a9(R), 
                                                                                          FUN_CODE_1598:163d(R), 
                                                                                          CODE:260e(*), 
                                                                                          FUN_CODE_265d:26e0(W)  
       INTMEM:4f                 undefined1 ??
                             DAT_INTMEM_50                                   XREF[5]:     FUN_CODE_1598:15d5(R), 
                                                                                          FUN_CODE_1598:15f0(R), 
                                                                                          FUN_CODE_1598:160b(R), 
                                                                                          CODE:2610(*), 
                                                                                          FUN_CODE_265d:26e3(W)  
       INTMEM:50                 ??         ??
                             DAT_INTMEM_51                                   XREF[5]:     FUN_CODE_1598:15dd(R), 
                                                                                          FUN_CODE_1598:15f8(R), 
                                                                                          FUN_CODE_1598:1613(R), 
                                                                                          CODE:2612(*), 
                                                                                          FUN_CODE_265d:26e6(W)  
       INTMEM:51                 ??         ??
                             DAT_INTMEM_52                                   XREF[9]:     FUN_CODE_08d0:09c0(R), 
                                                                                          FUN_CODE_1598:159b(W), 
                                                                                          FUN_CODE_1598:16b6(R), 
                                                                                          FUN_CODE_1598:16b9(W), 
                                                                                          FUN_CODE_1598:16c3(R), 
                                                                                          FUN_CODE_16dc:1714(W), 
                                                                                          FUN_CODE_177e:1821(R), 
                                                                                          FUN_CODE_177e:1839(R), 
                                                                                          FUN_CODE_177e:1840(R)  
       INTMEM:52                 undefined1 ??
                             DAT_INTMEM_53                                   XREF[4]:     FUN_CODE_08d0:0c99(W), 
                                                                                          FUN_CODE_1598:16c5(R), 
                                                                                          CODE:260a(*), 
                                                                                          FUN_CODE_265d:26e9(W)  
       INTMEM:53                 undefined1 ??
                             DAT_INTMEM_54                                   XREF[5]:     FUN_CODE_16dc:16eb(R), 
                                                                                          FUN_CODE_177e:1831(R), 
                                                                                          FUN_CODE_177e:1837(R), 
                                                                                          CODE:2642(*), 
                                                                                          FUN_CODE_265d:2759(W)  
       INTMEM:54                 undefined1 ??
                             DAT_INTMEM_55                                   XREF[28]:    FUN_CODE_08d0:0d97(W), 
                                                                                          CODE:130a(W), CODE:1323(W), 
                                                                                          CODE:136a(W), CODE:1383(W), 
                                                                                          CODE:13a2(W), 
                                                                                          FUN_CODE_1598:1633(W), 
                                                                                          CODE:19de(R), CODE:19e5(R), 
                                                                                          CODE:19f3(R), CODE:1a8a(W), 
                                                                                          CODE:1c15(W), 
                                                                                          FUN_CODE_1e47:1e8d(W), 
                                                                                          FUN_CODE_1e47:1e9a(W), 
                                                                                          FUN_CODE_1e47:1ea7(W), 
                                                                                          FUN_CODE_1e47:1eb4(W), 
                                                                                          FUN_CODE_1e47:1ec1(W), 
                                                                                          FUN_CODE_1e47:1ece(W), 
                                                                                          CODE:2166(R), 
                                                                                          FUN_CODE_217c:21a7(W), [more]
       INTMEM:55                 undefined1 ??
                             DAT_INTMEM_56                                   XREF[24]:    FUN_CODE_08d0:0d99(W), 
                                                                                          CODE:10bd(W), CODE:10dd(W), 
                                                                                          CODE:10fb(W), CODE:130d(W), 
                                                                                          CODE:1326(W), CODE:136d(W), 
                                                                                          CODE:1386(W), CODE:13a5(W), 
                                                                                          CODE:13ba(R), CODE:13c0(RW), 
                                                                                          FUN_CODE_1598:1635(W), 
                                                                                          CODE:1961(R), CODE:1c18(W), 
                                                                                          FUN_CODE_1e47:1e90(W), 
                                                                                          FUN_CODE_1e47:1e9d(W), 
                                                                                          FUN_CODE_1e47:1eaa(W), 
                                                                                          FUN_CODE_1e47:1eb7(W), 
                                                                                          FUN_CODE_1e47:1ec4(W), 
                                                                                          FUN_CODE_1e47:1ed1(W), [more]
       INTMEM:56                 undefined1 ??
                             DAT_INTMEM_57                                   XREF[8]:     CODE:1423(W), CODE:142d(R), 
                                                                                          CODE:1433(W), CODE:1442(R), 
                                                                                          CODE:1452(R), CODE:1c83(RW), 
                                                                                          CODE:1c8b(R), CODE:1c8f(W)  
       INTMEM:57                 undefined1 ??
                             DAT_INTMEM_58                                   XREF[3]:     CODE:141d(W), CODE:143b(RW), 
                                                                                          CODE:144a(W)  
       INTMEM:58                 ??         ??
                             DAT_INTMEM_59                                   XREF[3]:     CODE:1e42(R), CODE:260c(*), 
                                                                                          FUN_CODE_265d:26ca(W)  
       INTMEM:59                 undefined1 ??
                             DAT_INTMEM_5a                                   XREF[8]:     CODE:1909(W), CODE:1963(W), 
                                                                                          CODE:1969(R), CODE:1a24(R), 
                                                                                          CODE:1abd(R), CODE:1acf(R), 
                                                                                          CODE:1ad3(R), CODE:1ada(R)  
       INTMEM:5a                 undefined1 ??
                             DAT_INTMEM_5b                                   XREF[6]:     FUN_CODE_07e3:0820(R), 
                                                                                          FUN_CODE_07e3:0824(RW), 
                                                                                          FUN_CODE_07e3:0826(R), 
                                                                                          FUN_CODE_08d0:0a2f(W), 
                                                                                          FUN_CODE_08d0:0a37(W), 
                                                                                          CODE:1be9(W)  
       INTMEM:5b                 undefined1 ??
                             DAT_INTMEM_5c                                   XREF[20]:    FUN_CODE_07e3:082c(R), 
                                                                                          FUN_CODE_08a2:08c0(W), 
                                                                                          FUN_CODE_08d0:0cd0(R), 
                                                                                          FUN_CODE_08d0:0d03(W), 
                                                                                          FUN_CODE_08d0:0d11(R), 
                                                                                          FUN_CODE_08d0:0d26(W), 
                                                                                          FUN_CODE_08d0:0db4(RW), 
                                                                                          CODE:13cd(RW), CODE:188e(R), 
                                                                                          CODE:1897(RW), CODE:1986(R), 
                                                                                          CODE:19bc(R), CODE:1e1a(R), 
                                                                                          CODE:1fcb(W), CODE:2108(W), 
                                                                                          CODE:2131(RW), CODE:2136(RW), 
                                                                                          CODE:2173(RW), 
                                                                                          FUN_CODE_23b2:23be(RW), 
                                                                                          FUN_CODE_23b2:23c4(RW)  
       INTMEM:5c                 undefined1 ??
                             DAT_INTMEM_5d                                   XREF[6]:     FUN_CODE_08d0:0cfe(RW), 
                                                                                          FUN_CODE_08d0:0d01(RW), 
                                                                                          FUN_CODE_08d0:0d2c(RW), 
                                                                                          FUN_CODE_08d0:0d2f(RW), 
                                                                                          CODE:18ad(R), CODE:1a06(R)  
       INTMEM:5d                 undefined1 ??
                             DAT_INTMEM_5e                                   XREF[13]:    FUN_CODE_08d0:0d9e(W), 
                                                                                          FUN_CODE_08d0:0da4(W), 
                                                                                          FUN_CODE_08d0:0daa(W), 
                                                                                          CODE:13c6(W), CODE:18b2(R), 
                                                                                          CODE:19ce(R), CODE:1e27(R), 
                                                                                          CODE:1e2d(RW), CODE:1e35(R), 
                                                                                          CODE:1e39(W), CODE:1e3d(RW), 
                                                                                          CODE:2163(W), CODE:2170(W)  
       INTMEM:5e                 undefined1 ??
                             DAT_INTMEM_5f                                   XREF[14]:    FUN_CODE_08d0:093b(R), 
                                                                                          CODE:1f75(W), CODE:1f7d(W), 
                                                                                          CODE:1f85(W), CODE:1f8a(W), 
                                                                                          CODE:1f8f(W), CODE:1f94(W), 
                                                                                          CODE:1f99(W), CODE:1f9e(W), 
                                                                                          CODE:1fa3(W), CODE:1fa8(W), 
                                                                                          CODE:1fb0(W), CODE:2122(W), 
                                                                                          CODE:2129(W)  
       INTMEM:5f                 undefined1 ??
                             DAT_INTMEM_60                                   XREF[2]:     FUN_CODE_08d0:0c19(W), 
                                                                                          CODE:105b(R)  
       INTMEM:60                 undefined1 ??
                             DAT_INTMEM_61                                   XREF[4]:     CODE:21c7(W), CODE:21d6(RW), 
                                                                                          CODE:21e4(W), CODE:21f3(RW)  
       INTMEM:61                 ??         ??
                             DAT_INTMEM_62                                   XREF[8]:     FUN_CODE_08d0:0caa(W), 
                                                                                          FUN_CODE_08d0:0cba(W), 
                                                                                          CODE:1005(W), CODE:1027(RW), 
                                                                                          CODE:20b5(R), CODE:20d0(RW), 
                                                                                          CODE:20e5(W), 
                                                                                          FUN_CODE_2371:2382(W)  
       INTMEM:62                 undefined1 ??
                             DAT_INTMEM_63                                   XREF[3]:     FUN_CODE_08d0:0b22(R), 
                                                                                          FUN_CODE_08d0:0dc9(W), 
                                                                                          CODE:211c(W)  
       INTMEM:63                 undefined1 ??
                             DAT_INTMEM_64                                   XREF[3]:     FUN_CODE_08d0:0b27(R), 
                                                                                          FUN_CODE_08d0:0dcb(W), 
                                                                                          CODE:211f(W)  
       INTMEM:64                 undefined1 ??
                             DAT_INTMEM_65                                   XREF[10]:    FUN_CODE_012d:013e(R), 
                                                                                          CODE:017a(W), CODE:017f(W), 
                                                                                          CODE:0184(W), CODE:019b(W), 
                                                                                          CODE:01d8(W), CODE:01e6(W), 
                                                                                          CODE:0209(W), CODE:0241(W), 
                                                                                          FUN_CODE_280e:2812(W)  
       INTMEM:65                 undefined1 ??
                             DAT_INTMEM_66                                   XREF[7]:     CODE:0193(R), CODE:2852(W), 
                                                                                          CODE:289a(W), CODE:28bd(W), 
                                                                                          CODE:28f0(W), CODE:2947(W), 
                                                                                          CODE:2a7d(W)  
       INTMEM:66                 undefined1 ??
                             DAT_INTMEM_67                                   XREF[9]:     CODE:01a8(R), CODE:01ac(RW), 
                                                                                          CODE:01b3(R), CODE:2855(W), 
                                                                                          CODE:289d(W), CODE:28cc(W), 
                                                                                          CODE:28f3(W), CODE:294a(W), 
                                                                                          CODE:2a64(W)  
       INTMEM:67                 undefined1 ??
                             DAT_INTMEM_68                                   XREF[5]:     CODE:0239(R), CODE:28a4(W), 
                                                                                          CODE:28fa(W), CODE:2954(W), 
                                                                                          CODE:2a93(W)  
       INTMEM:68                 undefined1 ??
                             DAT_INTMEM_69                                   XREF[8]:     CODE:0251(R), CODE:025e(RW), 
                                                                                          CODE:026f(R), CODE:28a7(W), 
                                                                                          CODE:2905(W), CODE:2957(W), 
                                                                                          CODE:2a69(W), CODE:2a6b(RW)  
       INTMEM:69                 undefined1 ??
                             DAT_INTMEM_6a                                   XREF[17]:    CODE:0201(R), CODE:286e(W), 
                                                                                          CODE:28b2(W), CODE:290c(W), 
                                                                                          CODE:291a(R), CODE:2923(R), 
                                                                                          CODE:294d(W), CODE:2987(R), 
                                                                                          CODE:29a5(R), CODE:2a03(W), 
                                                                                          CODE:2a0b(W), CODE:2a10(W), 
                                                                                          CODE:2a18(R), CODE:2a52(W), 
                                                                                          CODE:2a88(W), 
                                                                                          FUN_CODE_2bd8:2bd8(W), 
                                                                                          FUN_CODE_2bd8:2bec(RW)  
       INTMEM:6a                 undefined1 ??
                             DAT_INTMEM_6b                                   XREF[7]:     CODE:0216(R), CODE:021d(RW), 
                                                                                          CODE:2875(W), CODE:2985(R), 
                                                                                          CODE:29a8(R), CODE:2a6f(W), 
                                                                                          CODE:2a71(RW)  
       INTMEM:6b                 undefined1 ??
                             DAT_INTMEM_6c                                   XREF[9]:     CODE:287c(W), CODE:2961(R), 
                                                                                          CODE:297f(R), CODE:29b2(R), 
                                                                                          CODE:29d0(R), CODE:29dd(R), 
                                                                                          CODE:29f3(R), CODE:2a2f(R), 
                                                                                          CODE:2a45(R)  
       INTMEM:6c                 undefined1 ??
                             DAT_INTMEM_6d                                   XREF[10]:    CODE:2886(W), CODE:288f(W), 
                                                                                          CODE:295f(R), CODE:2982(R), 
                                                                                          CODE:29b0(R), CODE:29d3(R), 
                                                                                          CODE:29db(R), CODE:29f6(R), 
                                                                                          CODE:2a2a(R), CODE:2a40(R)  
       INTMEM:6d                 undefined1 ??
                             DAT_INTMEM_6e                                   XREF[1]:     CODE:2866(W)  
       INTMEM:6e                 ??         ??
                             DAT_INTMEM_6f                                   XREF[2]:     CODE:2864(W), CODE:287e(R)  
       INTMEM:6f                 undefined1 ??
                             DAT_INTMEM_70                                   XREF[16]:    CODE:0171(W), CODE:018e(R), 
                                                                                          CODE:0198(W), CODE:01a3(R), 
                                                                                          CODE:01bf(W), CODE:01d2(W), 
                                                                                          CODE:01eb(R), CODE:01fc(R), 
                                                                                          CODE:0206(W), CODE:0211(R), 
                                                                                          CODE:0221(W), CODE:0234(R), 
                                                                                          CODE:023e(W), CODE:0249(R), 
                                                                                          CODE:025b(W), CODE:0263(W)  
       INTMEM:70                 undefined1 ??
                             DAT_INTMEM_71                                   XREF[17]:    FUN_CODE_02bb:02e0(R), 
                                                                                          FUN_CODE_02bb:0364(RW), 
                                                                                          FUN_CODE_02bb:0372(W), 
                                                                                          FUN_CODE_02bb:0381(W), 
                                                                                          FUN_CODE_02bb:039e(RW), 
                                                                                          FUN_CODE_02bb:03ac(RW), 
                                                                                          FUN_CODE_02bb:03ba(RW), 
                                                                                          FUN_CODE_02bb:03be(W), 
                                                                                          FUN_CODE_02bb:03de(RW), 
                                                                                          FUN_CODE_02bb:03e6(RW), 
                                                                                          FUN_CODE_02bb:03f4(RW), 
                                                                                          FUN_CODE_02bb:0418(RW), 
                                                                                          FUN_CODE_02bb:0420(RW), 
                                                                                          FUN_CODE_02bb:0437(W), 
                                                                                          FUN_CODE_02bb:043f(W), 
                                                                                          FUN_CODE_02bb:0449(RW), 
                                                                                          FUN_CODE_0455:0470(W)  
       INTMEM:71                 undefined1 ??
                             DAT_INTMEM_72                                   XREF[7]:     FUN_CODE_02bb:0352(W), 
                                                                                          FUN_CODE_02bb:0429(W), 
                                                                                          FUN_CODE_02bb:042f(R), 
                                                                                          FUN_CODE_2caa:2cad(R), 
                                                                                          FUN_CODE_2caa:2cd9(R), 
                                                                                          FUN_CODE_2caa:2d0f(R), 
                                                                                          FUN_CODE_2caa:2d1d(R)  
       INTMEM:72                 undefined1 ??
                             DAT_INTMEM_73                                   XREF[12]:    FUN_CODE_02bb:03cd(R), 
                                                                                          FUN_CODE_02bb:03d0(W), 
                                                                                          FUN_CODE_02bb:042c(W), 
                                                                                          FUN_CODE_2caa:2cb1(R), 
                                                                                          FUN_CODE_2d27:2d28(R), 
                                                                                          FUN_CODE_2d27:2d65(R), 
                                                                                          FUN_CODE_2d6a:2d6d(R), 
                                                                                          FUN_CODE_2d6a:2d74(R), 
                                                                                          FUN_CODE_2d6a:2ddf(R), 
                                                                                          FUN_CODE_2de4:2de5(R), 
                                                                                          FUN_CODE_2de4:2e78(R), 
                                                                                          FUN_CODE_2e7d:2e7d(R)  
       INTMEM:73                 undefined1 ??
                             DAT_INTMEM_74                                   XREF[11]:    FUN_CODE_02bb:03c8(R), 
                                                                                          FUN_CODE_02bb:03cb(W), 
                                                                                          FUN_CODE_02bb:0407(R), 
                                                                                          FUN_CODE_02bb:040a(W), 
                                                                                          FUN_CODE_2caa:2cc3(R), 
                                                                                          FUN_CODE_2caa:2cf6(R), 
                                                                                          FUN_CODE_2caa:2cf9(W), 
                                                                                          FUN_CODE_2caa:2d09(R), 
                                                                                          FUN_CODE_2caa:2d1f(R), 
                                                                                          FUN_CODE_2d6a:2d86(R), 
                                                                                          FUN_CODE_2de4:2df7(R)  
       INTMEM:74                 undefined1 ??
                             DAT_INTMEM_75                                   XREF[9]:     FUN_CODE_02bb:0402(R), 
                                                                                          FUN_CODE_02bb:0405(W), 
                                                                                          FUN_CODE_02bb:0429(R), 
                                                                                          FUN_CODE_2caa:2cf1(R), 
                                                                                          FUN_CODE_2caa:2cf4(W), 
                                                                                          FUN_CODE_2caa:2d02(R), 
                                                                                          FUN_CODE_2caa:2d21(R), 
                                                                                          FUN_CODE_2d6a:2da2(R), 
                                                                                          FUN_CODE_2de4:2e22(R)  
       INTMEM:75                 undefined1 ??
                             DAT_INTMEM_76                                   XREF[13]:    FUN_CODE_02bb:034f(W), 
                                                                                          FUN_CODE_02bb:03fd(R), 
                                                                                          FUN_CODE_02bb:0400(W), 
                                                                                          FUN_CODE_02bb:042c(R), 
                                                                                          FUN_CODE_2caa:2cdb(R), 
                                                                                          FUN_CODE_2caa:2cec(R), 
                                                                                          FUN_CODE_2caa:2cef(W), 
                                                                                          FUN_CODE_2caa:2cfb(R), 
                                                                                          FUN_CODE_2caa:2d23(R), 
                                                                                          FUN_CODE_2d27:2d3a(R), 
                                                                                          FUN_CODE_2d6a:2d6a(R), 
                                                                                          FUN_CODE_2d6a:2dcd(R), 
                                                                                          FUN_CODE_2de4:2e4d(R)  
       INTMEM:76                 undefined1 ??
                             DAT_INTMEM_77                                   XREF[7]:     FUN_CODE_02bb:02a2(RW), 
                                                                                          FUN_CODE_02bb:02d0(W), 
                                                                                          FUN_CODE_02bb:02d3(R), 
                                                                                          FUN_CODE_02bb:0355(R), 
                                                                                          FUN_CODE_02bb:0386(R), 
                                                                                          FUN_CODE_02bb:03c3(R), 
                                                                                          FUN_CODE_02bb:03f8(R)  
       INTMEM:77                 undefined1 ??
                             DAT_INTMEM_78                                   XREF[5]:     FUN_CODE_00d3:00e1(RW), 
                                                                                          FUN_CODE_245c:245c(W), 
                                                                                          FUN_CODE_2469:2469(R), 
                                                                                          FUN_CODE_2469:2474(R), 
                                                                                          FUN_CODE_2469:2479(W)  
       INTMEM:78                 undefined1 ??
                             DAT_INTMEM_79                                   XREF[3]:     FUN_CODE_00d3:00ef(RW), 
                                                                                          FUN_CODE_2790:2790(W), 
                                                                                          FUN_CODE_2794:2794(R)  
       INTMEM:79                 undefined1 ??
                             DAT_INTMEM_7a                                   XREF[14]:    FUN_CODE_27b6:27b6(W), 
                                                                                          FUN_CODE_27be:27be(W), 
                                                                                          FUN_CODE_27c3:27c3(W), 
                                                                                          FUN_CODE_27c8:27c8(W), 
                                                                                          FUN_CODE_27cd:27cd(W), 
                                                                                          FUN_CODE_27d2:27d2(W), 
                                                                                          FUN_CODE_27d7:27d7(W), 
                                                                                          FUN_CODE_27dc:27dc(W), 
                                                                                          FUN_CODE_27e1:27e4(R), 
                                                                                          FUN_CODE_27e9:2807(R), 
                                                                                          CODE:29fe(R), CODE:2a25(R), 
                                                                                          CODE:2a34(W), CODE:2a37(R)  
       INTMEM:7a                 undefined1 ??
                             DAT_INTMEM_7b                                   XREF[41]:    FUN_CODE_27e1:27e4(W), 
                                                                                          FUN_CODE_27e9:2807(W), 
                                                                                          FUN_CODE_281e:2821(R), 
                                                                                          CODE:2844(RW), CODE:284c(RW), 
                                                                                          CODE:285f(RW), CODE:2861(R), 
                                                                                          CODE:2869(RW), CODE:286b(R), 
                                                                                          CODE:2870(RW), CODE:2872(R), 
                                                                                          CODE:2877(RW), CODE:2879(R), 
                                                                                          CODE:288a(RW), CODE:288c(R), 
                                                                                          CODE:2893(RW), CODE:28ad(RW), 
                                                                                          CODE:28af(R), CODE:28b6(RW), 
                                                                                          CODE:28c7(RW), [more]
       INTMEM:7b                 undefined1 ??
                             DAT_INTMEM_7c                                   XREF[3]:     FUN_CODE_27b6:27b9(W), 
                                                                                          FUN_CODE_27e1:27e1(W), 
                                                                                          FUN_CODE_27e9:27fd(RW)  
       INTMEM:7c                 ??         ??
       INTMEM:7d                 ??         ??
                             DAT_INTMEM_7e                                   XREF[2]:     FUN_CODE_2bfb:2c03(W), 
                                                                                          FUN_CODE_2c24:2c31(RW)  
       INTMEM:7e                 ??         ??
                             DAT_INTMEM_7f                                   XREF[10]:    FUN_CODE_1f24:1f29(R), 
                                                                                          FUN_CODE_1f24:1f2a(R), 
                                                                                          FUN_CODE_1f24:1f2b(R), 
                                                                                          CODE:205f(W), CODE:2064(W), 
                                                                                          CODE:2069(W), CODE:206e(W), 
                                                                                          CODE:2073(W), CODE:2078(W), 
                                                                                          CODE:207d(W)  
       INTMEM:7f                 undefined1 ??
                             DAT_INTMEM_80                                   XREF[7]:     CODE:21b4(W), CODE:21b9(W), 
                                                                                          CODE:21be(W), CODE:21c3(W), 
                                                                                          FUN_CODE_2201:2203(R), 
                                                                                          FUN_CODE_2201:2204(R), 
                                                                                          FUN_CODE_2201:2205(R)  
       INTMEM:80                 undefined1 ??
                             DAT_INTMEM_81                                   XREF[6]:     FUN_CODE_087f:0896(W), 
                                                                                          FUN_CODE_08d0:09de(R), 
                                                                                          FUN_CODE_08d0:0d43(W), 
                                                                                          CODE:18e8(R), CODE:1ab2(W), 
                                                                                          FUN_CODE_2e81:2e83(R)  
       INTMEM:81                 undefined1 ??
                             DAT_INTMEM_82                                   XREF[3]:     FUN_CODE_1cdf:1cfe(R), 
                                                                                          FUN_CODE_1cdf:1d01(W), 
                                                                                          FUN_CODE_1cdf:1d17(W)  
       INTMEM:82                 undefined1 ??
                             DAT_INTMEM_83                                   XREF[5]:     FUN_CODE_087f:089a(W), 
                                                                                          FUN_CODE_1cdf:1ce1(R), 
                                                                                          FUN_CODE_1cdf:1ce6(RW), 
                                                                                          FUN_CODE_1cdf:1d08(R), 
                                                                                          FUN_CODE_1cdf:1d11(W)  
       INTMEM:83                 undefined1 ??
       INTMEM:84                 ??         ??
       INTMEM:85                 ??         ??
       INTMEM:86                 ??         ??
       INTMEM:87                 ??         ??
       INTMEM:88                 ??         ??
       INTMEM:89                 ??         ??
       INTMEM:8a                 ??         ??
       INTMEM:8b                 ??         ??
       INTMEM:8c                 ??         ??
       INTMEM:8d                 ??         ??
       INTMEM:8e                 ??         ??
       INTMEM:8f                 ??         ??
       INTMEM:90                 ??         ??
       INTMEM:91                 ??         ??
       INTMEM:92                 ??         ??
       INTMEM:93                 ??         ??
       INTMEM:94                 ??         ??
       INTMEM:95                 ??         ??
       INTMEM:96                 ??         ??
       INTMEM:97                 ??         ??
       INTMEM:98                 ??         ??
       INTMEM:99                 ??         ??
       INTMEM:9a                 ??         ??
       INTMEM:9b                 ??         ??
                             DAT_INTMEM_9c                                   XREF[7]:     CODE:1272(W), CODE:1277(W), 
                                                                                          CODE:127c(W), 
                                                                                          FUN_CODE_12c8:12cd(W), 
                                                                                          FUN_CODE_12c8:12d2(R), 
                                                                                          FUN_CODE_12c8:12d3(R), 
                                                                                          FUN_CODE_12c8:12d4(R)  
       INTMEM:9c                 undefined1 ??
                             DAT_INTMEM_9d                                   XREF[13]:    CODE:1079(W), CODE:107e(W), 
                                                                                          CODE:1083(W), CODE:1088(W), 
                                                                                          CODE:108d(W), CODE:1092(W), 
                                                                                          CODE:1097(W), CODE:109c(W), 
                                                                                          CODE:10a1(W), 
                                                                                          FUN_CODE_1176:117d(W), 
                                                                                          FUN_CODE_1176:1182(R), 
                                                                                          FUN_CODE_1176:1183(R), 
                                                                                          FUN_CODE_1176:1184(R)  
       INTMEM:9d                 undefined1 ??
                             DAT_INTMEM_9e                                   XREF[13]:    CODE:1336(W), CODE:133b(W), 
                                                                                          CODE:1340(W), CODE:1345(W), 
                                                                                          CODE:134a(W), CODE:134f(W), 
                                                                                          CODE:1354(W), CODE:1359(W), 
                                                                                          CODE:135e(W), 
                                                                                          FUN_CODE_13e1:13e6(W), 
                                                                                          FUN_CODE_13e1:13eb(R), 
                                                                                          FUN_CODE_13e1:13ec(R), 
                                                                                          FUN_CODE_13e1:13ed(R)  
       INTMEM:9e                 undefined1 ??
                             DAT_INTMEM_9f                                   XREF[7]:     CODE:11e7(W), CODE:11ec(W), 
                                                                                          CODE:11f1(W), 
                                                                                          FUN_CODE_124e:1253(W), 
                                                                                          FUN_CODE_124e:1258(R), 
                                                                                          FUN_CODE_124e:1259(R), 
                                                                                          FUN_CODE_124e:125a(R)  
       INTMEM:9f                 undefined1 ??
                             DAT_INTMEM_a0                                   XREF[15]:    FUN_CODE_0f60:0f65(W), 
                                                                                          FUN_CODE_0f60:0f6a(R), 
                                                                                          FUN_CODE_0f60:0f6b(R), 
                                                                                          FUN_CODE_0f60:0f6c(R), 
                                                                                          CODE:0fc0(W), CODE:0fc5(W), 
                                                                                          CODE:0fca(W), CODE:0fcf(W), 
                                                                                          CODE:0fd4(W), CODE:0fd9(W), 
                                                                                          CODE:0fde(W), CODE:0fe3(W), 
                                                                                          CODE:0fe8(W), CODE:0fed(W), 
                                                                                          CODE:0ff2(W)  
       INTMEM:a0                 undefined1 ??
                             DAT_INTMEM_a1                                   XREF[6]:     CODE:140f(W), CODE:1414(W), 
                                                                                          CODE:1419(W), 
                                                                                          FUN_CODE_145b:145d(R), 
                                                                                          FUN_CODE_145b:145e(R), 
                                                                                          FUN_CODE_145b:145f(R)  
       INTMEM:a1                 undefined1 ??
                             DAT_INTMEM_a2                                   XREF[7]:     CODE:146f(W), CODE:1474(W), 
                                                                                          CODE:1479(W), CODE:147e(W), 
                                                                                          FUN_CODE_1482:1484(R), 
                                                                                          FUN_CODE_1482:1485(R), 
                                                                                          FUN_CODE_1482:1486(R)  
       INTMEM:a2                 undefined1 ??
                             DAT_INTMEM_a3                                   XREF[5]:     CODE:14b7(W), CODE:14bc(W), 
                                                                                          FUN_CODE_14da:14dc(R), 
                                                                                          FUN_CODE_14da:14dd(R), 
                                                                                          FUN_CODE_14da:14de(R)  
       INTMEM:a3                 undefined1 ??
                             DAT_INTMEM_a4                                   XREF[6]:     CODE:14f5(W), CODE:14fa(W), 
                                                                                          CODE:14ff(W), 
                                                                                          FUN_CODE_1583:1585(R), 
                                                                                          FUN_CODE_1583:1586(R), 
                                                                                          FUN_CODE_1583:1587(R)  
       INTMEM:a4                 undefined1 ??
       INTMEM:a5                 ??         ??
                             DAT_INTMEM_a6                                   XREF[10]:    CODE:1a57(W), CODE:1a5c(W), 
                                                                                          CODE:1a61(W), CODE:1a66(W), 
                                                                                          CODE:1a6b(W), CODE:1a70(W), 
                                                                                          CODE:1a75(W), 
                                                                                          FUN_CODE_1ae9:1b10(R), 
                                                                                          FUN_CODE_1ae9:1b11(R), 
                                                                                          FUN_CODE_1ae9:1b12(R)  
       INTMEM:a6                 undefined1 ??
                             DAT_INTMEM_a7                                   XREF[12]:    FUN_CODE_1b2c:1b2e(R), 
                                                                                          FUN_CODE_1b2c:1b2f(R), 
                                                                                          FUN_CODE_1b2c:1b30(R), 
                                                                                          CODE:1c23(W), CODE:1c28(W), 
                                                                                          CODE:1c2d(W), CODE:1c32(W), 
                                                                                          CODE:1c37(W), CODE:1c3c(W), 
                                                                                          CODE:1c41(W), CODE:1c46(W), 
                                                                                          CODE:1c4b(W)  
       INTMEM:a7                 undefined1 ??
                             DAT_INTMEM_a8                                   XREF[8]:     FUN_CODE_1d8e:1d96(R), 
                                                                                          FUN_CODE_1d8e:1d97(R), 
                                                                                          FUN_CODE_1d8e:1d98(R), 
                                                                                          CODE:1dd2(W), CODE:1dd7(W), 
                                                                                          CODE:1ddc(W), CODE:1de1(W), 
                                                                                          CODE:1de6(W)  
       INTMEM:a8                 undefined1 ??
                             DAT_INTMEM_a9                                   XREF[6]:     CODE:1edb(W), CODE:1ee0(W), 
                                                                                          CODE:1ee5(W), 
                                                                                          FUN_CODE_1f12:1f14(R), 
                                                                                          FUN_CODE_1f12:1f15(R), 
                                                                                          FUN_CODE_1f12:1f16(R)  
       INTMEM:a9                 undefined1 ??
                             DAT_INTMEM_aa                                   XREF[13]:    CODE:22a4(W), CODE:22a9(W), 
                                                                                          CODE:22ae(W), CODE:22b3(W), 
                                                                                          CODE:22b8(W), CODE:22bd(W), 
                                                                                          CODE:22c2(W), CODE:22c7(W), 
                                                                                          CODE:22cc(W), 
                                                                                          FUN_CODE_2371:2379(W), 
                                                                                          FUN_CODE_2371:238d(R), 
                                                                                          FUN_CODE_2371:238e(R), 
                                                                                          FUN_CODE_2371:238f(R)  
       INTMEM:aa                 undefined1 ??
                             DAT_INTMEM_ab                                   XREF[5]:     CODE:23cc(W), CODE:23d1(W), 
                                                                                          FUN_CODE_23f3:23f5(R), 
                                                                                          FUN_CODE_23f3:23f6(R), 
                                                                                          FUN_CODE_23f3:23f7(R)  
       INTMEM:ab                 undefined1 ??
                             DAT_INTMEM_ac                                   XREF[3]:     FUN_CODE_0de8:0f07(R), 
                                                                                          CODE:1cac(W), 
                                                                                          FUN_CODE_1cdf:1d8a(W)  
       INTMEM:ac                 undefined1 ??
                             DAT_INTMEM_ad                                   XREF[3]:     FUN_CODE_0de8:0f17(R), 
                                                                                          CODE:1ca9(W), 
                                                                                          FUN_CODE_1cdf:1d7a(W)  
       INTMEM:ad                 undefined1 ??
                             DAT_INTMEM_ae                                   XREF[2]:     FUN_CODE_0de8:0f1b(R), 
                                                                                          FUN_CODE_1cdf:1d80(W)  
       INTMEM:ae                 undefined1 ??
                             DAT_INTMEM_af                                   XREF[2]:     FUN_CODE_0de8:0f1f(R), 
                                                                                          FUN_CODE_1cdf:1d86(W)  
       INTMEM:af                 undefined1 ??
                             DAT_INTMEM_b0                                   XREF[6]:     FUN_CODE_08d0:0d5e(W), 
                                                                                          FUN_CODE_0de8:0ee7(R), 
                                                                                          CODE:19a1(R), CODE:1a92(R), 
                                                                                          CODE:1a99(W), CODE:1cc5(W)  
       INTMEM:b0                 undefined1 ??
                             DAT_INTMEM_b1                                   XREF[4]:     FUN_CODE_08d0:0d63(W), 
                                                                                          FUN_CODE_0de8:0eeb(R), 
                                                                                          CODE:199d(R), CODE:1a80(W)  
       INTMEM:b1                 undefined1 ??
       INTMEM:b2                 ??         ??
                             DAT_INTMEM_b3                                   XREF[1]:     FUN_CODE_1598:16b8(R)  
       INTMEM:b3                 undefined1 ??
       INTMEM:b4                 ??         ??
       INTMEM:b5                 ??         ??
       INTMEM:b6                 ??         ??
       INTMEM:b7                 ??         ??
                             DAT_INTMEM_b8                                   XREF[1]:     CODE:29be(W)  
       INTMEM:b8                 undefined1 ??
                             DAT_INTMEM_b9                                   XREF[2]:     FUN_CODE_1598:1645(R), 
                                                                                          CODE:29ba(W)  
       INTMEM:b9                 undefined1 ??
                             DAT_INTMEM_ba                                   XREF[1]:     CODE:2993(W)  
       INTMEM:ba                 undefined1 ??
                             DAT_INTMEM_bb                                   XREF[2]:     FUN_CODE_1598:164a(R), 
                                                                                          CODE:298f(W)  
       INTMEM:bb                 undefined1 ??
                             DAT_INTMEM_bc                                   XREF[1]:     CODE:296d(W)  
       INTMEM:bc                 undefined1 ??
                             DAT_INTMEM_bd                                   XREF[2]:     FUN_CODE_1598:164f(R), 
                                                                                          CODE:2969(W)  
       INTMEM:bd                 undefined1 ??
                             DAT_INTMEM_be                                   XREF[2]:     FUN_CODE_07e3:0833(RW), 
                                                                                          FUN_CODE_07e3:0834(R)  
       INTMEM:be                 undefined1 ??
                             DAT_INTMEM_bf                                   XREF[3]:     CODE:1c88(R), CODE:1ca3(R), 
                                                                                          CODE:2a44(W)  
       INTMEM:bf                 undefined1 ??
       INTMEM:c0                 ??         ??
       INTMEM:c1                 ??         ??
       INTMEM:c2                 ??         ??
       INTMEM:c3                 ??         ??
       INTMEM:c4                 ??         ??
       INTMEM:c5                 ??         ??
       INTMEM:c6                 ??         ??
       INTMEM:c7                 ??         ??
       INTMEM:c8                 ??         ??
       INTMEM:c9                 ??         ??
       INTMEM:ca                 ??         ??
       INTMEM:cb                 ??         ??
       INTMEM:cc                 ??         ??
       INTMEM:cd                 ??         ??
       INTMEM:ce                 ??         ??
       INTMEM:cf                 ??         ??
       INTMEM:d0                 ??         ??
       INTMEM:d1                 ??         ??
       INTMEM:d2                 ??         ??
       INTMEM:d3                 ??         ??
       INTMEM:d4                 ??         ??
       INTMEM:d5                 ??         ??
       INTMEM:d6                 ??         ??
       INTMEM:d7                 ??         ??
       INTMEM:d8                 ??         ??
       INTMEM:d9                 ??         ??
       INTMEM:da                 ??         ??
       INTMEM:db                 ??         ??
       INTMEM:dc                 ??         ??
       INTMEM:dd                 ??         ??
       INTMEM:de                 ??         ??
       INTMEM:df                 ??         ??
       INTMEM:e0                 ??         ??
       INTMEM:e1                 ??         ??
       INTMEM:e2                 ??         ??
       INTMEM:e3                 ??         ??
       INTMEM:e4                 ??         ??
       INTMEM:e5                 ??         ??
       INTMEM:e6                 ??         ??
       INTMEM:e7                 ??         ??
                             DAT_INTMEM_e8                                   XREF[2]:     FUN_CODE_2bfb:2c02(W), 
                                                                                          FUN_CODE_2c24:2c3a(R)  
       INTMEM:e8                 undefined1 ??
                             DAT_INTMEM_e9                                   XREF[3]:     CODE:2634(*), 
                                                                                          FUN_CODE_265d:273f(W), 
                                                                                          CODE:2885(R)  
       INTMEM:e9                 undefined1 ??
                             DAT_INTMEM_ea                                   XREF[2]:     CODE:2614(*), 
                                                                                          FUN_CODE_265d:26f3(W)  
       INTMEM:ea                 undefined1 ??
                             DAT_INTMEM_eb                                   XREF[2]:     CODE:2616(*), 
                                                                                          FUN_CODE_265d:26f6(W)  
       INTMEM:eb                 undefined1 ??
                             DAT_INTMEM_ec                                   XREF[2]:     CODE:2618(*), 
                                                                                          FUN_CODE_265d:26f9(W)  
       INTMEM:ec                 undefined1 ??
                             DAT_INTMEM_ed                                   XREF[2]:     CODE:261a(*), 
                                                                                          FUN_CODE_265d:26fc(W)  
       INTMEM:ed                 undefined1 ??
                             DAT_INTMEM_ee                                   XREF[2]:     CODE:261c(*), 
                                                                                          FUN_CODE_265d:2706(W)  
       INTMEM:ee                 undefined1 ??
                             DAT_INTMEM_ef                                   XREF[2]:     CODE:261e(*), 
                                                                                          FUN_CODE_265d:2709(W)  
       INTMEM:ef                 undefined1 ??
                             DAT_INTMEM_f0                                   XREF[2]:     CODE:2620(*), 
                                                                                          FUN_CODE_265d:270c(W)  
       INTMEM:f0                 undefined1 ??
                             DAT_INTMEM_f1                                   XREF[2]:     CODE:2622(*), 
                                                                                          FUN_CODE_265d:270f(W)  
       INTMEM:f1                 undefined1 ??
                             DAT_INTMEM_f2                                   XREF[2]:     CODE:2624(*), 
                                                                                          FUN_CODE_265d:2719(W)  
       INTMEM:f2                 undefined1 ??
                             DAT_INTMEM_f3                                   XREF[2]:     CODE:2626(*), 
                                                                                          FUN_CODE_265d:271c(W)  
       INTMEM:f3                 undefined1 ??
                             DAT_INTMEM_f4                                   XREF[2]:     CODE:2628(*), 
                                                                                          FUN_CODE_265d:271f(W)  
       INTMEM:f4                 undefined1 ??
                             DAT_INTMEM_f5                                   XREF[2]:     CODE:262a(*), 
                                                                                          FUN_CODE_265d:2722(W)  
       INTMEM:f5                 undefined1 ??
                             DAT_INTMEM_f6                                   XREF[2]:     CODE:262c(*), 
                                                                                          FUN_CODE_265d:272c(W)  
       INTMEM:f6                 undefined1 ??
                             DAT_INTMEM_f7                                   XREF[2]:     CODE:262e(*), 
                                                                                          FUN_CODE_265d:272f(W)  
       INTMEM:f7                 undefined1 ??
                             DAT_INTMEM_f8                                   XREF[2]:     CODE:2630(*), 
                                                                                          FUN_CODE_265d:2732(W)  
       INTMEM:f8                 undefined1 ??
                             DAT_INTMEM_f9                                   XREF[2]:     CODE:2632(*), 
                                                                                          FUN_CODE_265d:2735(W)  
       INTMEM:f9                 undefined1 ??
       INTMEM:fa                 ??         ??
       INTMEM:fb                 ??         ??
       INTMEM:fc                 ??         ??
       INTMEM:fd                 ??         ??
       INTMEM:fe                 ??         ??
       INTMEM:ff                 ??         ??
                             //
                             // SFR 
                             // SFR:80-SFR:ff
                             //
                             P0                                              XREF[1]:     FUN_CODE_2492:24b0(W)  
          SFR:80                 ??         ??
                             SP                                              XREF[2]:     FUN_CODE_07e3:07e3(W), 
                                                                                          FUN_CODE_07e3:0802(W)  
          SFR:81                 ??         ??
                             DPL
          SFR:82                 ??         ??
                             DPH
          SFR:83                 ??         ??
                             DPXL
          SFR:84                 ??         ??
          SFR:85                 ??         ??
          SFR:86                 ??         ??
                             PCON                                            XREF[1]:     FUN_CODE_24cf:2506(RW)  
          SFR:87                 ??         ??
                             TCON                                            XREF[2]:     FUN_CODE_24cf:24ed(W), 
                                                                                          FUN_CODE_2bc2:2bd1(W)  
          SFR:88                 ??         ??
                             TMOD
          SFR:89                 ??         ??
                             TL0
          SFR:8a                 ??         ??
                             TL1                                             XREF[1]:     CODE:0153(W)  
          SFR:8b                 ??         ??
                             TH0                                             XREF[1]:     CODE:0156(W)  
          SFR:8c                 ??         ??
                             TH1
          SFR:8d                 ??         ??
          SFR:8e                 ??         ??
                             FADDR                                           XREF[8]:     FUN_CODE_005f:005f(R), 
                                                                                          FUN_CODE_00d3:00de(RW), 
                                                                                          FUN_CODE_00d3:00f1(RW), 
                                                                                          FUN_CODE_012d:0138(RW), 
                                                                                          CODE:015e(RW), 
                                                                                          FUN_CODE_02bb:02ac(RW), 
                                                                                          FUN_CODE_02bb:02c6(RW), 
                                                                                          FUN_CODE_2402:2406(RW)  
          SFR:8f                 undefined1 ??
                             P1                                              XREF[1]:     FUN_CODE_2492:24b3(W)  
          SFR:90                 ??         ??
                             DAT_SFR_91                                      XREF[1]:     FUN_CODE_24cf:24e7(W)  
          SFR:91                 ??         ??
                             DAT_SFR_92                                      XREF[1]:     FUN_CODE_24cf:24e1(W)  
          SFR:92                 ??         ??
                             DPX                                             XREF[2]:     FUN_CODE_24cf:24ea(W), 
                                                                                          FUN_CODE_275d:275d(W)  
          SFR:93                 ??         ??
                             DAT_SFR_94                                      XREF[1]:     FUN_CODE_24cf:24e4(W)  
          SFR:94                 ??         ??
                             DAT_SFR_95                                      XREF[3]:     FUN_CODE_24cf:24f3(W), 
                                                                                          CODE:2938(W), 
                                                                                          FUN_CODE_2bc2:2bd4(W)  
          SFR:95                 ??         ??
                             DAT_SFR_96                                      XREF[1]:     FUN_CODE_24cf:24de(W)  
          SFR:96                 ??         ??
                             HADDR                                           XREF[2]:     FUN_CODE_0053:0053(W), 
                                                                                          FUN_CODE_006b:0075(R)  
          SFR:97                 undefined1 ??
                             SCON                                            XREF[3]:     FUN_CODE_24cf:24f0(W), 
                                                                                          CODE:2920(W), CODE:2935(W)  
          SFR:98                 ??         ??
                             SBUF
          SFR:99                 ??         ??
          SFR:9a                 ??         ??
                             DAT_SFR_9b                                      XREF[1]:     CODE:293b(W)  
          SFR:9b                 ??         ??
                             DAT_SFR_9c                                      XREF[1]:     CODE:293e(W)  
          SFR:9c                 ??         ??
                             DAT_SFR_9d                                      XREF[7]:     CODE:047d(RW), CODE:0480(RW), 
                                                                                          CODE:0494(RW), CODE:0497(RW), 
                                                                                          CODE:04d9(RW), CODE:04dc(RW), 
                                                                                          FUN_CODE_2492:24a1(W)  
          SFR:9d                 ??         ??
                             DAT_SFR_9e                                      XREF[1]:     FUN_CODE_2492:24a4(W)  
          SFR:9e                 ??         ??
                             DAT_SFR_9f                                      XREF[1]:     FUN_CODE_2492:24a7(W)  
          SFR:9f                 ??         ??
                             P2                                              XREF[1]:     FUN_CODE_2492:24b6(W)  
          SFR:a0                 ??         ??
                             HIE                                             XREF[1]:     FUN_CODE_2492:24aa(W)  
          SFR:a1                 ??         ??
                             FIE                                             XREF[8]:     CODE:0483(RW), CODE:0486(RW), 
                                                                                          CODE:049a(RW), CODE:049d(RW), 
                                                                                          CODE:04df(RW), CODE:04e2(RW), 
                                                                                          FUN_CODE_2492:2492(RW), 
                                                                                          FUN_CODE_2492:24bf(W)  
          SFR:a2                 ??         ??
                             FIE1                                            XREF[2]:     FUN_CODE_2492:2495(RW), 
                                                                                          FUN_CODE_2492:24c2(W)  
          SFR:a3                 ??         ??
                             DAT_SFR_a4                                      XREF[2]:     FUN_CODE_2492:2498(RW), 
                                                                                          FUN_CODE_2492:24c5(W)  
          SFR:a4                 ??         ??
                             DAT_SFR_a5                                      XREF[4]:     FUN_CODE_027b:0281(RW), 
                                                                                          FUN_CODE_248a:248a(RW), 
                                                                                          FUN_CODE_2492:249b(RW), 
                                                                                          FUN_CODE_2492:24c8(W)  
          SFR:a5                 ??         ??
                             WDTRST                                          XREF[7]:     FUN_CODE_027b:027b(RW), 
                                                                                          FUN_CODE_027b:027e(RW), 
                                                                                          FUN_CODE_027b:0284(RW), 
                                                                                          FUN_CODE_027b:0291(RW), 
                                                                                          FUN_CODE_027b:0294(RW), 
                                                                                          FUN_CODE_2492:249e(RW), 
                                                                                          FUN_CODE_2492:24cb(W)  
          SFR:a6                 ??         ??
                             WCON                                            XREF[3]:     FUN_CODE_027b:0287(RW), 
                                                                                          FUN_CODE_027b:028a(RW), 
                                                                                          FUN_CODE_2492:24ad(W)  
          SFR:a7                 ??         ??
                             IE                                              XREF[1]:     FUN_CODE_240a:241f(W)  
          SFR:a8                 ??         ??
                             SADDR                                           XREF[1]:     FUN_CODE_0053:0056(W)  
          SFR:a9                 ??         ??
                             DAT_SFR_aa                                      XREF[2]:     FUN_CODE_279a:27a5(R), 
                                                                                          FUN_CODE_27a8:27b0(W)  
          SFR:aa                 undefined1 ??
                             DAT_SFR_ab                                      XREF[2]:     FUN_CODE_279a:27a3(R), 
                                                                                          FUN_CODE_27a8:27ae(W)  
          SFR:ab                 undefined1 ??
                             DAT_SFR_ac                                      XREF[2]:     FUN_CODE_279a:27a1(R), 
                                                                                          FUN_CODE_27a8:27ac(W)  
          SFR:ac                 undefined1 ??
                             DAT_SFR_ad                                      XREF[2]:     FUN_CODE_279a:279f(R), 
                                                                                          FUN_CODE_27a8:27aa(W)  
          SFR:ad                 undefined1 ??
                             HSTAT                                           XREF[2]:     FUN_CODE_279a:279d(R), 
                                                                                          FUN_CODE_27a8:27a8(W)  
          SFR:ae                 undefined1 ??
                             DAT_SFR_af                                      XREF[2]:     FUN_CODE_279a:279a(RW), 
                                                                                          FUN_CODE_27a8:27b2(RW)  
          SFR:af                 ??         ??
                             P3                                              XREF[3]:     FUN_CODE_02bb:02a9(W), 
                                                                                          FUN_CODE_02bb:02c9(R), 
                                                                                          FUN_CODE_0455:046a(W)  
          SFR:b0                 undefined1 ??
                             IEN1                                            XREF[2]:     FUN_CODE_0455:045b(W), 
                                                                                          FUN_CODE_0455:046d(W)  
          SFR:b1                 ??         ??
                             IPL1                                            XREF[2]:     FUN_CODE_0455:045e(W), 
                                                                                          FUN_CODE_0455:0461(W)  
          SFR:b2                 ??         ??
                             IPH1                                            XREF[1]:     FUN_CODE_0455:0464(W)  
          SFR:b3                 ??         ??
                             DAT_SFR_b4                                      XREF[1]:     FUN_CODE_0455:0467(W)  
          SFR:b4                 ??         ??
                             DAT_SFR_b5                                      XREF[1]:     FUN_CODE_02bb:02ce(R)  
          SFR:b5                 undefined1 ??
                             DAT_SFR_b6                                      XREF[1]:     FUN_CODE_02bb:02d0(R)  
          SFR:b6                 undefined1 ??
                             IPH0                                            XREF[3]:     FUN_CODE_0455:0455(W), 
                                                                                          FUN_CODE_0455:0458(W), 
                                                                                          FUN_CODE_0455:0473(RW)  
          SFR:b7                 ??         ??
                             IP                                              XREF[1]:     FUN_CODE_240a:2422(W)  
          SFR:b8                 ??         ??
                             SADEN                                           XREF[2]:     FUN_CODE_0455:0476(RW), 
                                                                                          FUN_CODE_240a:2416(W)  
          SFR:b9                 ??         ??
                             DAT_SFR_ba                                      XREF[1]:     FUN_CODE_240a:2419(W)  
          SFR:ba                 ??         ??
                             DAT_SFR_bb                                      XREF[1]:     FUN_CODE_240a:241c(W)  
          SFR:bb                 ??         ??
                             DAT_SFR_bc                                      XREF[8]:     FUN_CODE_00c6:00c6(RW), 
                                                                                          FUN_CODE_012d:013b(RW), 
                                                                                          CODE:015b(RW), CODE:01e1(RW), 
                                                                                          FUN_CODE_0455:0479(RW), 
                                                                                          FUN_CODE_240a:240d(W), 
                                                                                          FUN_CODE_245c:245f(RW), 
                                                                                          FUN_CODE_280e:2817(RW)  
          SFR:bc                 ??         ??
                             DAT_SFR_bd                                      XREF[3]:     FUN_CODE_00c6:00c9(RW), 
                                                                                          FUN_CODE_00c6:00cc(RW), 
                                                                                          FUN_CODE_240a:2410(W)  
          SFR:bd                 ??         ??
                             SPH                                             XREF[1]:     FUN_CODE_240a:2413(W)  
          SFR:be                 ??         ??
                             DAT_SFR_bf                                      XREF[11]:    FUN_CODE_00d3:00d3(RW), 
                                                                                          FUN_CODE_00d3:00fc(RW), 
                                                                                          FUN_CODE_012d:012d(RW), 
                                                                                          CODE:0169(RW), 
                                                                                          FUN_CODE_02bb:02b7(RW), 
                                                                                          FUN_CODE_02bb:02bb(RW), 
                                                                                          FUN_CODE_240a:240a(W), 
                                                                                          FUN_CODE_245c:2462(RW), 
                                                                                          FUN_CODE_2469:2471(RW), 
                                                                                          FUN_CODE_2469:247c(RW), 
                                                                                          FUN_CODE_2510:2510(RW)  
          SFR:bf                 ??         ??
                             FIFLG                                           XREF[1]:     FUN_CODE_2492:24b9(W)  
          SFR:c0                 ??         ??
                             FIFLG1                                          XREF[1]:     FUN_CODE_240a:2425(W)  
          SFR:c1                 ??         ??
                             DAT_SFR_c2                                      XREF[2]:     FUN_CODE_240a:2428(W), 
                                                                                          FUN_CODE_24cf:2503(RW)  
          SFR:c2                 ??         ??
                             DAT_SFR_c3                                      XREF[1]:     FUN_CODE_240a:242b(W)  
          SFR:c3                 ??         ??
                             DAT_SFR_c4                                      XREF[1]:     FUN_CODE_240a:242e(W)  
          SFR:c4                 ??         ??
                             DAT_SFR_c5                                      XREF[1]:     FUN_CODE_240a:2431(W)  
          SFR:c5                 ??         ??
                             DAT_SFR_c6                                      XREF[1]:     FUN_CODE_240a:2434(W)  
          SFR:c6                 ??         ??
                             EPCONFIG                                        XREF[1]:     FUN_CODE_240a:2437(W)  
          SFR:c7                 ??         ??
                             T2CON                                           XREF[1]:     FUN_CODE_2492:24bc(W)  
          SFR:c8                 ??         ??
                             T2MOD                                           XREF[1]:     FUN_CODE_240a:243a(W)  
          SFR:c9                 ??         ??
                             RCAP2L                                          XREF[1]:     FUN_CODE_240a:243d(W)  
          SFR:ca                 ??         ??
                             RCAP2H                                          XREF[1]:     FUN_CODE_240a:2440(W)  
          SFR:cb                 ??         ??
                             TL2                                             XREF[1]:     FUN_CODE_240a:2443(W)  
          SFR:cc                 ??         ??
                             TH2                                             XREF[1]:     FUN_CODE_240a:2446(W)  
          SFR:cd                 ??         ??
                             DAT_SFR_ce                                      XREF[1]:     FUN_CODE_240a:2449(W)  
          SFR:ce                 ??         ??
                             HPCON                                           XREF[1]:     FUN_CODE_240a:244c(W)  
          SFR:cf                 ??         ??
                             PSW
          SFR:d0                 ??         ??
                             PSW1                                            XREF[1]:     FUN_CODE_240a:244f(W)  
          SFR:d1                 ??         ??
                             SOFL                                            XREF[1]:     FUN_CODE_240a:2452(W)  
          SFR:d2                 ??         ??
                             DAT_SFR_d3                                      XREF[1]:     FUN_CODE_240a:2455(W)  
          SFR:d3                 ??         ??
                             HPINDEX                                         XREF[1]:     FUN_CODE_240a:2458(W)  
          SFR:d4                 ??         ??
                             HPSC                                            XREF[4]:     CODE:0276(W), 
                                                                                          FUN_CODE_25b4:25bb(W), 
                                                                                          FUN_CODE_25c8:25c8(W), 
                                                                                          FUN_CODE_25cb:25cc(W)  
          SFR:d5                 ??         ??
                             DAT_SFR_d6                                      XREF[5]:     FUN_CODE_25b4:25b7(W), 
                                                                                          FUN_CODE_25b4:25be(R), 
                                                                                          FUN_CODE_25c3:25c5(W), 
                                                                                          FUN_CODE_25d2:25d2(W), 
                                                                                          FUN_CODE_25d6:25d6(R)  
          SFR:d6                 undefined1 ??
                             HPSTAT                                          XREF[9]:     FUN_CODE_0607:06c8(R), 
                                                                                          FUN_CODE_0607:06d0(R), 
                                                                                          FUN_CODE_0607:06d5(R), 
                                                                                          FUN_CODE_0607:0726(R), 
                                                                                          FUN_CODE_0607:072e(R), 
                                                                                          FUN_CODE_0607:0733(R), 
                                                                                          FUN_CODE_0607:0784(R), 
                                                                                          FUN_CODE_0607:078c(R), 
                                                                                          FUN_CODE_0607:0791(R)  
          SFR:d7                 undefined1 ??
                             CCON                                            XREF[1]:     FUN_CODE_2bc2:2bce(W)  
          SFR:d8                 ??         ??
                             CMOD                                            XREF[6]:     CODE:0190(R), CODE:01a5(R), 
                                                                                          CODE:01fe(R), CODE:0213(R), 
                                                                                          CODE:0236(R), CODE:024b(R)  
          SFR:d9                 ??         ??
                             CCAPM0                                          XREF[8]:     CODE:0193(W), CODE:01b6(W), 
                                                                                          CODE:01ba(W), CODE:0201(W), 
                                                                                          CODE:021a(W), CODE:0239(W), 
                                                                                          CODE:0272(R), CODE:0276(R)  
          SFR:da                 undefined1 ??
                             CCAPM1                                          XREF[1]:     FUN_CODE_2bc2:2bc2(W)  
          SFR:db                 ??         ??
                             CCAPM2                                          XREF[2]:     FUN_CODE_027b:0297(W), 
                                                                                          FUN_CODE_2bc2:2bc5(W)  
          SFR:dc                 ??         ??
                             CCAPM3                                          XREF[1]:     FUN_CODE_2bc2:2bc8(W)  
          SFR:dd                 ??         ??
                             CCAPM4                                          XREF[1]:     FUN_CODE_2bc2:2bcb(W)  
          SFR:de                 ??         ??
                             PCON1                                           XREF[2]:     FUN_CODE_0053:0059(W), 
                                                                                          FUN_CODE_006b:0070(R)  
          SFR:df                 undefined1 ??
                             ACC
          SFR:e0                 ??         ??
                             EPCON                                           XREF[5]:     CODE:01ba(R), CODE:021a(R), 
                                                                                          FUN_CODE_2595:259c(R), 
                                                                                          FUN_CODE_25a6:25a6(R), 
                                                                                          FUN_CODE_25a9:25a9(R)  
          SFR:e1                 undefined1 ??
                             RXSTAT                                          XREF[4]:     FUN_CODE_2590:2590(R), 
                                                                                          FUN_CODE_2595:259a(W), 
                                                                                          FUN_CODE_25a1:25a3(W), 
                                                                                          FUN_CODE_25b0:25b0(W)  
          SFR:e2                 undefined1 ??
                             RXDAT                                           XREF[5]:     FUN_CODE_00b0:00b0(W), 
                                                                                          FUN_CODE_00b0:00b3(W), 
                                                                                          FUN_CODE_00b0:00b6(W), 
                                                                                          FUN_CODE_00b0:00b9(W), 
                                                                                          FUN_CODE_25db:25e3(R)  
          SFR:e3                 undefined1 ??
                             RXCON
          SFR:e4                 ??         ??
                             RXFLG                                           XREF[2]:     FUN_CODE_006b:006b(R), 
                                                                                          FUN_CODE_25db:25f0(R)  
          SFR:e5                 undefined1 ??
                             RXCNTL
          SFR:e6                 ??         ??
                             RXCNTH
          SFR:e7                 ??         ??
                             HIFLG                                           XREF[1]:     FUN_CODE_24cf:2500(W)  
          SFR:e8                 ??         ??
                             CL
          SFR:e9                 ??         ??
                             CCAP0L                                          XREF[11]:    FUN_CODE_265d:2671(W), 
                                                                                          FUN_CODE_265d:267c(W), 
                                                                                          FUN_CODE_265d:2688(W), 
                                                                                          FUN_CODE_265d:26c4(W), 
                                                                                          FUN_CODE_265d:26cf(W), 
                                                                                          FUN_CODE_265d:26eb(W), 
                                                                                          FUN_CODE_265d:26fe(W), 
                                                                                          FUN_CODE_265d:2711(W), 
                                                                                          FUN_CODE_265d:2724(W), 
                                                                                          FUN_CODE_265d:2737(W), 
                                                                                          FUN_CODE_265d:274a(W)  
          SFR:ea                 ??         ??
                             CCAP1L                                          XREF[3]:     FUN_CODE_25db:2604(W), 
                                                                                          FUN_CODE_265d:266e(W), 
                                                                                          FUN_CODE_265d:26c1(W)  
          SFR:eb                 ??         ??
                             CCAP2L                                          XREF[1]:     FUN_CODE_25db:25ff(W)  
          SFR:ec                 ??         ??
                             CCAP3L                                          XREF[1]:     FUN_CODE_25db:25fa(W)  
          SFR:ed                 ??         ??
                             CCAP4L                                          XREF[1]:     FUN_CODE_265d:265f(R)  
          SFR:ee                 undefined1 ??
          SFR:ef                 ??         ??
                             B
          SFR:f0                 ??         ??
                             EPINDEX                                         XREF[9]:     FUN_CODE_265d:2682(R), 
                                                                                          FUN_CODE_265d:2692(R), 
                                                                                          FUN_CODE_265d:26d5(R), 
                                                                                          FUN_CODE_265d:26f6(R), 
                                                                                          FUN_CODE_265d:2709(R), 
                                                                                          FUN_CODE_265d:271c(R), 
                                                                                          FUN_CODE_265d:272f(R), 
                                                                                          FUN_CODE_265d:273f(R), 
                                                                                          FUN_CODE_265d:2750(R)  
          SFR:f1                 undefined1 ??
                             TXSTAT                                          XREF[11]:    FUN_CODE_265d:2684(R), 
                                                                                          FUN_CODE_265d:2696(R), 
                                                                                          FUN_CODE_265d:26cd(R), 
                                                                                          FUN_CODE_265d:26e0(R), 
                                                                                          FUN_CODE_265d:26f3(R), 
                                                                                          FUN_CODE_265d:2706(R), 
                                                                                          FUN_CODE_265d:2719(R), 
                                                                                          FUN_CODE_265d:2719(R), 
                                                                                          FUN_CODE_265d:272c(R), 
                                                                                          FUN_CODE_265d:2741(R), 
                                                                                          FUN_CODE_265d:2753(R)  
          SFR:f2                 undefined1 ??
                             TXDAT                                           XREF[9]:     FUN_CODE_265d:2677(R), 
                                                                                          FUN_CODE_265d:269a(R), 
                                                                                          FUN_CODE_265d:26e3(R), 
                                                                                          FUN_CODE_265d:26fc(R), 
                                                                                          FUN_CODE_265d:270f(R), 
                                                                                          FUN_CODE_265d:2722(R), 
                                                                                          FUN_CODE_265d:2735(R), 
                                                                                          FUN_CODE_265d:2744(R), 
                                                                                          FUN_CODE_265d:2756(R)  
          SFR:f3                 undefined1 ??
                             TXCON                                           XREF[10]:    FUN_CODE_265d:269e(R), 
                                                                                          FUN_CODE_265d:26ca(R), 
                                                                                          FUN_CODE_265d:26e6(R), 
                                                                                          FUN_CODE_265d:26f9(R), 
                                                                                          FUN_CODE_265d:270c(R), 
                                                                                          FUN_CODE_265d:271f(R), 
                                                                                          FUN_CODE_265d:271f(R), 
                                                                                          FUN_CODE_265d:2732(R), 
                                                                                          FUN_CODE_265d:2747(R), 
                                                                                          FUN_CODE_265d:2759(R)  
          SFR:f4                 undefined1 ??
                             TXFLG                                           XREF[12]:    FUN_CODE_25db:2606(W), 
                                                                                          FUN_CODE_265d:2674(W), 
                                                                                          FUN_CODE_265d:267f(W), 
                                                                                          FUN_CODE_265d:268b(W), 
                                                                                          FUN_CODE_265d:26c7(W), 
                                                                                          FUN_CODE_265d:26d2(W), 
                                                                                          FUN_CODE_265d:26ee(W), 
                                                                                          FUN_CODE_265d:2701(W), 
                                                                                          FUN_CODE_265d:2714(W), 
                                                                                          FUN_CODE_265d:2727(W), 
                                                                                          FUN_CODE_265d:273a(W), 
                                                                                          FUN_CODE_265d:274d(W)  
          SFR:f5                 ??         ??
                             TXCNTL
          SFR:f6                 ??         ??
                             TXCNTH
          SFR:f7                 ??         ??
          SFR:f8                 ??         ??
                             CH
          SFR:f9                 ??         ??
                             CCAP0H
          SFR:fa                 ??         ??
                             CCAP1H
          SFR:fb                 ??         ??
                             CCAP2H                                          XREF[1]:     FUN_CODE_0086:0086(W)  
          SFR:fc                 ??         ??
                             CCAP3H                                          XREF[6]:     FUN_CODE_0607:060c(R), 
                                                                                          FUN_CODE_0607:0614(R), 
                                                                                          FUN_CODE_0607:0619(R), 
                                                                                          FUN_CODE_0607:066a(R), 
                                                                                          FUN_CODE_0607:0672(R), 
                                                                                          FUN_CODE_0607:0677(R)  
          SFR:fd                 undefined1 ??
                             CCAP4H                                          XREF[3]:     FUN_CODE_2480:2480(W), 
                                                                                          FUN_CODE_2480:2486(W), 
                                                                                          FUN_CODE_2510:2516(W)  
          SFR:fe                 ??         ??
                             DAT_SFR_ff                                      XREF[2]:     FUN_CODE_2480:2483(W), 
                                                                                          FUN_CODE_2510:2513(W)  
          SFR:ff                 ??         ??
                             //
                             // BITS (bitmap[0x0, 0x80, INTMEM:20])
                             // BITS:00-BITS:7f
                             //
                             20.0                                            XREF[3]:     FUN_CODE_087f:089f(W), 
                                                                                          FUN_CODE_1cdf:1d1b(R), 
                                                                                          FUN_CODE_1cdf:1d1e(W)  
         BITS:00                 ??         ??
                             20.1                                            XREF[3]:     FUN_CODE_1cdf:1d23(W), 
                                                                                          FUN_CODE_1cdf:1d25(R), 
                                                                                          FUN_CODE_1cdf:1d31(RW)  
         BITS:01                 ??         ??
                             20.2                                            XREF[4]:     FUN_CODE_1cdf:1d33(R), 
                                                                                          FUN_CODE_1cdf:1d39(W), 
                                                                                          CODE:1fc9(W), CODE:2110(W)  
         BITS:02                 ??         ??
                             20.3                                            XREF[5]:     FUN_CODE_08d0:0c01(W), 
                                                                                          CODE:18cb(R), CODE:1f4a(R), 
                                                                                          CODE:1fb5(W), CODE:209e(R)  
         BITS:03                 ??         ??
                             20.4                                            XREF[3]:     FUN_CODE_08d0:0be0(W), 
                                                                                          CODE:128c(R), CODE:209b(R)  
         BITS:04                 ??         ??
                             20.5                                            XREF[5]:     FUN_CODE_08d0:09ee(R), 
                                                                                          FUN_CODE_0de8:0ecd(R), 
                                                                                          CODE:1880(R), CODE:21dc(W), 
                                                                                          CODE:21f9(W)  
         BITS:05                 ??         ??
                             20.6                                            XREF[2]:     FUN_CODE_07e3:0810(R), 
                                                                                          FUN_CODE_07e3:081e(W)  
         BITS:06                 ??         ??
                             20.7                                            XREF[2]:     FUN_CODE_08d0:0958(R), 
                                                                                          FUN_CODE_08d0:0c3a(W)  
         BITS:07                 ??         ??
                             21.0                                            XREF[11]:    FUN_CODE_08d0:0bd6(W), 
                                                                                          FUN_CODE_08d0:0c0d(W), 
                                                                                          FUN_CODE_0de8:0e49(R), 
                                                                                          CODE:1015(W), CODE:1033(R), 
                                                                                          CODE:11b8(W), CODE:1e07(W), 
                                                                                          CODE:1f53(R), CODE:1fbb(W), 
                                                                                          CODE:2007(R), CODE:20a4(R)  
         BITS:08                 ??         ??
                             21.1                                            XREF[7]:     CODE:1dc6(W), CODE:1f4d(R), 
                                                                                          CODE:1fb7(W), CODE:1ffe(R), 
                                                                                          CODE:200f(W), CODE:20b9(R), 
                                                                                          CODE:20d5(W)  
         BITS:09                 ??         ??
                             21.2                                            XREF[7]:     FUN_CODE_07e3:0800(W), 
                                                                                          CODE:154a(W), CODE:1c9d(W), 
                                                                                          CODE:1cd0(R), CODE:1cd4(W), 
                                                                                          CODE:1f5f(R), CODE:1fc1(W)  
         BITS:0a                 ??         ??
                             21.3                                            XREF[10]:    FUN_CODE_08d0:0c11(W), 
                                                                                          FUN_CODE_0de8:0e4f(R), 
                                                                                          CODE:1019(W), CODE:1039(R), 
                                                                                          CODE:11bc(W), CODE:1575(W), 
                                                                                          CODE:1cca(R), CODE:1cce(W), 
                                                                                          CODE:1fc3(W), CODE:20aa(R)  
         BITS:0b                 ??         ??
                             21.4                                            XREF[5]:     FUN_CODE_07e3:07fb(W), 
                                                                                          CODE:12c2(W), 
                                                                                          FUN_CODE_12c8:12c8(R), 
                                                                                          CODE:1fe6(W), CODE:1fed(R)  
         BITS:0c                 ??         ??
                             21.5                                            XREF[6]:     FUN_CODE_1176:1176(R), 
                                                                                          FUN_CODE_1176:1179(W), 
                                                                                          CODE:1fd5(W), CODE:2043(W), 
                                                                                          CODE:2087(R), CODE:2158(W)  
         BITS:0d                 ??         ??
                             21.6                                            XREF[8]:     CODE:13aa(W), CODE:13d4(W), 
                                                                                          FUN_CODE_13e1:13e1(R), 
                                                                                          CODE:1ffb(R), CODE:2047(W), 
                                                                                          CODE:208a(W), CODE:2142(W), 
                                                                                          CODE:215c(W)  
         BITS:0e                 ??         ??
                             21.7                                            XREF[9]:     CODE:124a(W), 
                                                                                          FUN_CODE_124e:124e(R), 
                                                                                          CODE:12f6(W), CODE:13ae(R), 
                                                                                          CODE:13dc(W), CODE:2049(W), 
                                                                                          CODE:2112(W), CODE:214d(R), 
                                                                                          CODE:215e(W)  
         BITS:0f                 ??         ??
                             22.0                                            XREF[6]:     FUN_CODE_0f60:0f60(R), 
                                                                                          CODE:106e(W), CODE:1fe0(R), 
                                                                                          CODE:2045(W), CODE:2150(W), 
                                                                                          CODE:215a(W)  
         BITS:10                 ??         ??
                             22.1                                            XREF[2]:     FUN_CODE_248a:248f(W), 
                                                                                          FUN_CODE_265d:2668(R)  
         BITS:11                 ??         ??
                             22.2                                            XREF[4]:     CODE:11d4(W), CODE:1372(W), 
                                                                                          FUN_CODE_1e47:1e77(R), 
                                                                                          CODE:2004(R)  
         BITS:12                 ??         ??
                             22.3                                            XREF[11]:    FUN_CODE_08d0:094f(W), 
                                                                                          FUN_CODE_08d0:0c1b(W), 
                                                                                          FUN_CODE_08d0:0dad(R), 
                                                                                          FUN_CODE_0de8:0de9(R), 
                                                                                          CODE:11ca(W), CODE:138b(R), 
                                                                                          CODE:1399(R), CODE:1a87(R), 
                                                                                          CODE:1cb9(R), CODE:20c6(R), 
                                                                                          CODE:20db(R)  
         BITS:13                 ??         ??
                             22.4                                            XREF[12]:    FUN_CODE_08d0:0bee(W), 
                                                                                          FUN_CODE_08d0:0c0b(W), 
                                                                                          FUN_CODE_0de8:0e46(R), 
                                                                                          CODE:12e7(R), CODE:12f4(W), 
                                                                                          CODE:1cd6(R), CODE:1cda(W), 
                                                                                          CODE:20a1(R), CODE:2103(R), 
                                                                                          CODE:2125(W), 
                                                                                          FUN_CODE_2371:2385(R), 
                                                                                          FUN_CODE_2371:2389(W)  
         BITS:14                 ??         ??
                             22.5                                            XREF[4]:     FUN_CODE_08d0:0bf3(W), 
                                                                                          CODE:18ce(R), CODE:18d7(W), 
                                                                                          CODE:213d(R)  
         BITS:15                 ??         ??
                             22.6                                            XREF[3]:     FUN_CODE_08d0:0bf7(W), 
                                                                                          CODE:212e(R), CODE:2134(W)  
         BITS:16                 ??         ??
                             22.7                                            XREF[7]:     FUN_CODE_07e3:0813(R), 
                                                                                          CODE:102a(W), CODE:10d1(W), 
                                                                                          FUN_CODE_1598:1598(R), 
                                                                                          FUN_CODE_1e47:1e47(R), 
                                                                                          FUN_CODE_217c:217c(R), 
                                                                                          FUN_CODE_2521:2523(R)  
         BITS:17                 ??         ??
                             23.0                                            XREF[4]:     CODE:0ff6(W), CODE:112e(W), 
                                                                                          FUN_CODE_1e47:1e4f(R), 
                                                                                          FUN_CODE_2538:253a(R)  
         BITS:18                 ??         ??
                             23.1                                            XREF[4]:     CODE:0fb7(W), CODE:1149(W), 
                                                                                          FUN_CODE_1e47:1e57(R), 
                                                                                          FUN_CODE_2549:254b(R)  
         BITS:19                 ??         ??
                             23.2                                            XREF[4]:     CODE:0ffd(W), CODE:110d(W), 
                                                                                          FUN_CODE_1e47:1e5f(R), 
                                                                                          FUN_CODE_255a:255c(R)  
         BITS:1a                 ??         ??
                             23.3                                            XREF[4]:     FUN_CODE_003f:0041(R), 
                                                                                          CODE:0fad(W), CODE:1172(W), 
                                                                                          FUN_CODE_1e47:1e67(R)  
         BITS:1b                 ??         ??
                             23.4                                            XREF[4]:     CODE:100a(W), CODE:10ef(W), 
                                                                                          FUN_CODE_1e47:1e6f(R), 
                                                                                          FUN_CODE_256b:256d(R)  
         BITS:1c                 ??         ??
                             23.5                                            XREF[3]:     FUN_CODE_1e47:1e7a(W), 
                                                                                          FUN_CODE_1e47:1e7e(R), 
                                                                                          FUN_CODE_1e47:1e86(W)  
         BITS:1d                 ??         ??
                             23.6                                            XREF[24]:    FUN_CODE_08d0:0d67(R), 
                                                                                          CODE:10b8(W), CODE:10d8(W), 
                                                                                          CODE:10f6(W), CODE:1114(W), 
                                                                                          CODE:1135(W), CODE:1161(W), 
                                                                                          CODE:11b2(R), CODE:1c13(W), 
                                                                                          FUN_CODE_1e47:1e8b(W), 
                                                                                          FUN_CODE_1e47:1e98(W), 
                                                                                          FUN_CODE_1e47:1ea5(W), 
                                                                                          FUN_CODE_1e47:1eb2(W), 
                                                                                          FUN_CODE_1e47:1ebf(W), 
                                                                                          FUN_CODE_1e47:1ecc(W), 
                                                                                          CODE:1fd2(R), CODE:1ff5(R), 
                                                                                          CODE:2081(R), CODE:2091(R), 
                                                                                          CODE:2160(R), [more]
         BITS:1e                 ??         ??
                             23.7                                            XREF[12]:    FUN_CODE_08d0:0d6a(R), 
                                                                                          CODE:0f95(R), CODE:1012(R), 
                                                                                          CODE:1049(R), CODE:11a7(R), 
                                                                                          CODE:11b5(R), 
                                                                                          FUN_CODE_1598:1619(R), 
                                                                                          FUN_CODE_1598:162f(W), 
                                                                                          FUN_CODE_1598:16c0(R), 
                                                                                          CODE:1ff8(R), CODE:2084(R), 
                                                                                          CODE:2094(R)  
         BITS:1f                 ??         ??
                             24.0                                            XREF[5]:     FUN_CODE_08d0:0d9b(W), 
                                                                                          CODE:12e5(W), CODE:138e(R), 
                                                                                          CODE:139c(R), CODE:13c3(R)  
         BITS:20                 ??         ??
                             24.1                                            XREF[4]:     FUN_CODE_08a2:08c5(W), 
                                                                                          FUN_CODE_1cdf:1d4d(R), 
                                                                                          CODE:1f45(W), CODE:1fc7(W)  
         BITS:21                 ??         ??
                             24.2                                            XREF[12]:    FUN_CODE_08d0:0c0f(W), 
                                                                                          FUN_CODE_0de8:0e4c(R), 
                                                                                          CODE:1017(W), CODE:1036(R), 
                                                                                          CODE:11ba(W), 
                                                                                          FUN_CODE_1cdf:1d41(W), 
                                                                                          FUN_CODE_1cdf:1d56(W), 
                                                                                          FUN_CODE_1cdf:1d73(W), 
                                                                                          CODE:1f56(R), CODE:1fbd(W), 
                                                                                          CODE:200a(R), CODE:20a7(R)  
         BITS:22                 ??         ??
                             24.3                                            XREF[3]:     FUN_CODE_1cdf:1d6a(W), 
                                                                                          CODE:1f59(R), CODE:1fbf(W)  
         BITS:23                 ??         ??
                             24.4                                            XREF[2]:     FUN_CODE_1cdf:1d61(W), 
                                                                                          CODE:1f5c(R)  
         BITS:24                 ??         ??
                             24.5                                            XREF[7]:     FUN_CODE_1cdf:1d4a(W), 
                                                                                          CODE:1f50(R), CODE:1fb9(W), 
                                                                                          CODE:2001(R), CODE:2029(W), 
                                                                                          CODE:20bc(R), CODE:20d9(W)  
         BITS:25                 ??         ??
                             24.6                                            XREF[3]:     CODE:0fa4(W), CODE:114b(W), 
                                                                                          FUN_CODE_2371:2371(R)  
         BITS:26                 ??         ??
                             24.7                                            XREF[5]:     FUN_CODE_08a2:08c3(W), 
                                                                                          FUN_CODE_08d0:0cca(W), 
                                                                                          CODE:1fb3(W), CODE:2216(R), 
                                                                                          CODE:2219(W)  
         BITS:27                 ??         ??
                             25.0                                            XREF[5]:     CODE:224e(W), CODE:2255(W), 
                                                                                          CODE:22fb(R), CODE:231f(R), 
                                                                                          CODE:2322(W)  
         BITS:28                 ??         ??
                             25.1                                            XREF[6]:     CODE:2318(W), CODE:2329(R), 
                                                                                          CODE:2331(W), CODE:2351(W), 
                                                                                          CODE:2359(R), CODE:2361(W)  
         BITS:29                 ??         ??
                             25.2                                            XREF[6]:     CODE:2021(R), CODE:203b(R), 
                                                                                          CODE:20fa(R), CODE:2247(W), 
                                                                                          CODE:232f(W), CODE:235f(W)  
         BITS:2a                 ??         ??
                             25.3                                            XREF[4]:     FUN_CODE_08d0:0ccd(W), 
                                                                                          CODE:11cc(W), CODE:12ea(W), 
                                                                                          FUN_CODE_2371:2387(R)  
         BITS:2b                 ??         ??
                             25.4                                            XREF[5]:     CODE:104f(W), CODE:11dc(W), 
                                                                                          CODE:1248(W), CODE:12ac(W), 
                                                                                          CODE:1b52(R)  
         BITS:2c                 ??         ??
                             25.5                                            XREF[4]:     CODE:123a(R), CODE:123f(R), 
                                                                                          CODE:1b50(W), CODE:1bd3(W)  
         BITS:2d                 ??         ??
                             25.6                                            XREF[3]:     FUN_CODE_08d0:0b09(W), 
                                                                                          CODE:1b57(R), CODE:1bec(W)  
         BITS:2e                 ??         ??
                             25.7                                            XREF[4]:     CODE:12b0(W), CODE:12bc(R), 
                                                                                          CODE:1b65(R), CODE:1c0e(W)  
         BITS:2f                 ??         ??
                             26.0                                            XREF[3]:     CODE:10c7(W), CODE:1b74(R), 
                                                                                          CODE:1c54(W)  
         BITS:30                 ??         ??
                             26.1                                            XREF[3]:     CODE:102c(W), CODE:1b83(R), 
                                                                                          CODE:1c60(W)  
         BITS:31                 ??         ??
                             26.2                                            XREF[4]:     CODE:143e(W), CODE:144f(R), 
                                                                                          CODE:1b95(R), CODE:1c7e(W)  
         BITS:32                 ??         ??
                             26.3                                            XREF[4]:     CODE:154e(W), CODE:157b(R), 
                                                                                          CODE:1ba4(R), CODE:1c98(W)  
         BITS:33                 ??         ??
                             26.4                                            XREF[3]:     CODE:1bb3(R), CODE:1c69(W), 
                                                                                          FUN_CODE_217c:2188(W)  
         BITS:34                 ??         ??
                             26.5                                            XREF[22]:    FUN_CODE_07e3:0837(W), 
                                                                                          FUN_CODE_08d0:0db2(W), 
                                                                                          CODE:10c2(W), CODE:10e2(W), 
                                                                                          CODE:1100(W), CODE:111e(W), 
                                                                                          CODE:113f(W), CODE:13cb(W), 
                                                                                          CODE:13da(W), 
                                                                                          FUN_CODE_1598:1639(W), 
                                                                                          CODE:1a8c(W), CODE:1bc5(R), 
                                                                                          CODE:1c1d(W), CODE:1c75(W), 
                                                                                          FUN_CODE_1e47:1e95(W), 
                                                                                          FUN_CODE_1e47:1ea2(W), 
                                                                                          FUN_CODE_1e47:1eaf(W), 
                                                                                          FUN_CODE_1e47:1ebc(W), 
                                                                                          FUN_CODE_1e47:1ec9(W), 
                                                                                          FUN_CODE_1e47:1ed6(W), [more]
         BITS:35                 ??         ??
                             26.6                                            XREF[6]:     FUN_CODE_07e3:082a(W), 
                                                                                          FUN_CODE_08d0:0a35(W), 
                                                                                          FUN_CODE_08d0:0a48(W), 
                                                                                          FUN_CODE_08d0:0a55(R), 
                                                                                          CODE:1b92(R), CODE:1bc2(R)  
         BITS:36                 ??         ??
                             26.7                                            XREF[6]:     FUN_CODE_08d0:092c(W), 
                                                                                          CODE:1ef1(R), CODE:1ef9(R), 
                                                                                          CODE:1f07(W), CODE:23e7(W), 
                                                                                          CODE:23eb(R)  
         BITS:37                 ??         ??
                             27.0                                            XREF[5]:     FUN_CODE_08d0:0b0b(W), 
                                                                                          CODE:1bee(W), CODE:1ef4(W), 
                                                                                          CODE:1efc(R), CODE:1f01(R)  
         BITS:38                 ??         ??
                             27.1                                            XREF[5]:     FUN_CODE_0de8:0df0(W), 
                                                                                          FUN_CODE_0de8:0e0a(R), 
                                                                                          FUN_CODE_0de8:0ea5(W), 
                                                                                          CODE:1455(W), CODE:204e(W)  
         BITS:39                 ??         ??
                             27.2                                            XREF[4]:     FUN_CODE_0de8:0df2(W), 
                                                                                          FUN_CODE_0de8:0e10(R), 
                                                                                          FUN_CODE_0de8:0eb9(W), 
                                                                                          CODE:1991(W)  
         BITS:3a                 ??         ??
                             27.3                                            XREF[5]:     FUN_CODE_0de8:0df4(W), 
                                                                                          FUN_CODE_0de8:0e16(R), 
                                                                                          FUN_CODE_0de8:0ec8(W), 
                                                                                          CODE:21de(W), CODE:21fb(W)  
         BITS:3b                 ??         ??
                             27.4                                            XREF[4]:     FUN_CODE_0de8:0dec(W), 
                                                                                          FUN_CODE_0de8:0dff(R), 
                                                                                          FUN_CODE_0de8:0e44(W), 
                                                                                          CODE:20c9(W)  
         BITS:3c                 ??         ??
                             27.5                                            XREF[5]:     FUN_CODE_08d0:0d4b(R), 
                                                                                          FUN_CODE_0de8:0df6(W), 
                                                                                          FUN_CODE_0de8:0e1c(R), 
                                                                                          FUN_CODE_0de8:0ee3(W), 
                                                                                          CODE:1a9a(W)  
         BITS:3d                 ??         ??
                             27.6                                            XREF[5]:     FUN_CODE_0de8:0df8(W), 
                                                                                          FUN_CODE_0de8:0e22(R), 
                                                                                          FUN_CODE_0de8:0f03(W), 
                                                                                          CODE:1cae(W), 
                                                                                          FUN_CODE_1cdf:1d8b(W)  
         BITS:3e                 ??         ??
                             27.7                                            XREF[4]:     FUN_CODE_0de8:0dfa(W), 
                                                                                          FUN_CODE_0de8:0e28(R), 
                                                                                          FUN_CODE_0de8:0f42(W), 
                                                                                          FUN_CODE_1598:1631(W)  
         BITS:3f                 ??         ??
                             28.0                                            XREF[3]:     FUN_CODE_0de8:0dee(W), 
                                                                                          FUN_CODE_0de8:0e04(R), 
                                                                                          CODE:20e3(W)  
         BITS:40                 ??         ??
                             28.1                                            XREF[7]:     FUN_CODE_08d0:0cb0(W), 
                                                                                          FUN_CODE_08d0:0cc0(W), 
                                                                                          FUN_CODE_0de8:0dfc(W), 
                                                                                          FUN_CODE_0de8:0e2e(R), 
                                                                                          FUN_CODE_0de8:0f51(W), 
                                                                                          CODE:2050(W), 
                                                                                          FUN_CODE_23b2:23b2(W)  
         BITS:41                 ??         ??
                             28.2                                            XREF[3]:     CODE:1051(W), CODE:12ae(W), 
                                                                                          CODE:1919(R)  
         BITS:42                 ??         ??
                             28.3                                            XREF[4]:     CODE:1066(R), CODE:106b(R), 
                                                                                          CODE:1917(W), CODE:195a(W)  
         BITS:43                 ??         ??
                             28.4                                            XREF[3]:     CODE:14b1(W), CODE:1947(R), 
                                                                                          CODE:1984(W)  
         BITS:44                 ??         ??
                             28.5                                            XREF[3]:     CODE:1879(W), CODE:191c(R), 
                                                                                          FUN_CODE_1ae9:1afc(W)  
         BITS:45                 ??         ??
                             28.6                                            XREF[7]:     CODE:12b2(W), CODE:1457(W), 
                                                                                          CODE:1889(W), CODE:1927(R), 
                                                                                          FUN_CODE_1ae9:1b0c(W), 
                                                                                          CODE:21e0(W), CODE:21fd(W)  
         BITS:46                 ??         ??
                             28.7                                            XREF[4]:     CODE:12b6(W), CODE:12bf(R), 
                                                                                          CODE:1922(R), CODE:1aa5(W)  
         BITS:47                 ??         ??
                             29.0                                            XREF[6]:     FUN_CODE_08d0:0c3e(W), 
                                                                                          FUN_CODE_08d0:0c77(W), 
                                                                                          FUN_CODE_08d0:0d45(W), 
                                                                                          CODE:18f6(W), CODE:194c(R), 
                                                                                          CODE:1fae(W)  
         BITS:48                 ??         ??
                             29.1                                            XREF[20]:    FUN_CODE_08d0:0db0(W), 
                                                                                          CODE:10c0(W), CODE:10e0(W), 
                                                                                          CODE:10fe(W), CODE:111c(W), 
                                                                                          CODE:113d(W), CODE:1169(W), 
                                                                                          CODE:13c9(W), CODE:13d8(W), 
                                                                                          FUN_CODE_1598:1637(W), 
                                                                                          CODE:1938(R), CODE:195f(W), 
                                                                                          CODE:1c1b(W), 
                                                                                          FUN_CODE_1e47:1e93(W), 
                                                                                          FUN_CODE_1e47:1ea0(W), 
                                                                                          FUN_CODE_1e47:1ead(W), 
                                                                                          FUN_CODE_1e47:1eba(W), 
                                                                                          FUN_CODE_1e47:1ec7(W), 
                                                                                          FUN_CODE_1e47:1ed4(W), 
                                                                                          FUN_CODE_217c:21ad(W)  
         BITS:49                 ??         ??
                             29.2                                            XREF[13]:    FUN_CODE_08d0:0d06(W), 
                                                                                          FUN_CODE_08d0:0db9(W), 
                                                                                          CODE:12b8(W), CODE:13d2(W), 
                                                                                          CODE:18c4(W), CODE:1932(R), 
                                                                                          FUN_CODE_1ae9:1b06(W), 
                                                                                          CODE:1fce(W), CODE:210b(W), 
                                                                                          CODE:2139(W), CODE:2178(W), 
                                                                                          FUN_CODE_23b2:23c1(W), 
                                                                                          FUN_CODE_23b2:23c7(W)  
         BITS:4a                 ??         ??
                             29.3                                            XREF[10]:    FUN_CODE_08d0:0d31(W), 
                                                                                          FUN_CODE_08d0:0db7(W), 
                                                                                          CODE:13d0(W), CODE:1942(R), 
                                                                                          CODE:1a02(W), 
                                                                                          FUN_CODE_1ae9:1b08(W), 
                                                                                          CODE:1e25(W), CODE:1fd0(W), 
                                                                                          CODE:213b(W), CODE:2176(W)  
         BITS:4b                 ??         ??
                             29.4                                            XREF[3]:     CODE:193d(R), CODE:1977(W), 
                                                                                          FUN_CODE_1e47:1e88(W)  
         BITS:4c                 ??         ??
                             29.5                                            XREF[4]:     CODE:12b4(W), CODE:18d5(W), 
                                                                                          CODE:192d(R), CODE:2140(W)  
         BITS:4d                 ??         ??
                             29.6                                            XREF[5]:     FUN_CODE_08d0:0d48(R), 
                                                                                          FUN_CODE_08d0:0d64(W), 
                                                                                          CODE:1955(R), CODE:1a9c(W), 
                                                                                          CODE:1cc6(W)  
         BITS:4e                 ??         ??
                             29.7                                            XREF[3]:     FUN_CODE_1ae9:1b00(W), 
                                                                                          CODE:1f62(R), CODE:1fc5(W)  
         BITS:4f                 ??         ??
                             2a.0                                            XREF[3]:     FUN_CODE_08d0:0c8b(W), 
                                                                                          FUN_CODE_1598:16bd(R), 
                                                                                          FUN_CODE_217c:217f(R)  
         BITS:50                 ??         ??
                             2a.1                                            XREF[6]:     FUN_CODE_08d0:0c86(W), 
                                                                                          FUN_CODE_1598:1658(R), 
                                                                                          FUN_CODE_1598:1670(R), 
                                                                                          FUN_CODE_1598:1688(R), 
                                                                                          FUN_CODE_16dc:16de(R), 
                                                                                          CODE:212c(W)  
         BITS:51                 ??         ??
                             2a.2                                            XREF[3]:     CODE:101b(R), 
                                                                                          FUN_CODE_1598:15ac(W), 
                                                                                          FUN_CODE_1598:15c0(W)  
         BITS:52                 ??         ??
                             2a.3                                            XREF[6]:     CODE:1021(R), 
                                                                                          FUN_CODE_1598:15c2(W), 
                                                                                          FUN_CODE_1598:15d3(W), 
                                                                                          FUN_CODE_1598:15ee(W), 
                                                                                          FUN_CODE_1598:1609(W), 
                                                                                          FUN_CODE_1598:1629(R)  
         BITS:53                 ??         ??
                             2a.4                                            XREF[5]:     CODE:11be(R), 
                                                                                          FUN_CODE_1598:15c4(W), 
                                                                                          FUN_CODE_1598:15e1(W), 
                                                                                          FUN_CODE_1598:15fc(W), 
                                                                                          FUN_CODE_1598:1617(W)  
         BITS:54                 ??         ??
                             2a.5                                            XREF[3]:     FUN_CODE_217c:218a(R), 
                                                                                          FUN_CODE_217c:2196(W), 
                                                                                          CODE:29b6(W)  
         BITS:55                 ??         ??
                             2a.6                                            XREF[3]:     FUN_CODE_217c:218d(R), 
                                                                                          FUN_CODE_217c:2198(W), 
                                                                                          CODE:298b(W)  
         BITS:56                 ??         ??
                             2a.7                                            XREF[3]:     FUN_CODE_217c:2190(R), 
                                                                                          FUN_CODE_217c:219a(W), 
                                                                                          CODE:2965(W)  
         BITS:57                 ??         ??
                             2b.0                                            XREF[3]:     FUN_CODE_217c:2193(R), 
                                                                                          FUN_CODE_217c:219c(W), 
                                                                                          CODE:29e1(W)  
         BITS:58                 ??         ??
                             2b.1                                            XREF[2]:     CODE:1ca4(R), CODE:2a49(W)  
         BITS:59                 ??         ??
                             2b.2                                            XREF[5]:     CODE:1044(R), CODE:104c(R), 
                                                                                          CODE:216b(R), 
                                                                                          FUN_CODE_25db:25db(W), 
                                                                                          FUN_CODE_265d:26d9(W)  
         BITS:5a                 ??         ??
                             2b.3                                            XREF[8]:     FUN_CODE_08d0:0c3c(W), 
                                                                                          FUN_CODE_08d0:0c67(W), 
                                                                                          FUN_CODE_08d0:0c75(W), 
                                                                                          CODE:18eb(R), CODE:1aac(W), 
                                                                                          CODE:1fac(W), CODE:211a(W), 
                                                                                          FUN_CODE_2e9d:2ea1(R)  
         BITS:5b                 ??         ??
                             2b.4                                            XREF[5]:     FUN_CODE_08d0:095c(R), 
                                                                                          FUN_CODE_08d0:0c65(W), 
                                                                                          CODE:18ee(R), CODE:1f6a(R), 
                                                                                          CODE:20ad(R)  
         BITS:5c                 ??         ??
                             2b.5                                            XREF[3]:     FUN_CODE_08d0:0932(R), 
                                                                                          FUN_CODE_265d:265d(W), 
                                                                                          FUN_CODE_265d:266b(W)  
         BITS:5d                 ??         ??
                             2b.6
         BITS:5e                 ??         ??
                             2b.7                                            XREF[3]:     FUN_CODE_00d3:00e5(R), 
                                                                                          FUN_CODE_250a:250a(W), 
                                                                                          FUN_CODE_250d:250d(W)  
         BITS:5f                 ??         ??
                             2c.0                                            XREF[8]:     CODE:01ae(R), CODE:026a(R), 
                                                                                          CODE:2891(W), CODE:28b4(W), 
                                                                                          CODE:28e2(W), CODE:2910(W), 
                                                                                          CODE:295a(W), CODE:2a9a(W)  
         BITS:60                 ??         ??
                             2c.1                                            XREF[7]:     CODE:0174(R), CODE:2850(W), 
                                                                                          CODE:2898(W), CODE:28bb(W), 
                                                                                          CODE:28ee(W), CODE:2945(W), 
                                                                                          CODE:2a79(W)  
         BITS:61                 ??         ??
                             2c.2                                            XREF[10]:    CODE:0177(R), CODE:01c4(R), 
                                                                                          CODE:01d5(R), CODE:0226(W), 
                                                                                          CODE:2858(W), CODE:28a0(W), 
                                                                                          CODE:28c0(W), CODE:28f6(W), 
                                                                                          CODE:2950(W), CODE:2a84(W)  
         BITS:62                 ??         ??
                             2c.3                                            XREF[8]:     CODE:01c7(R), CODE:0228(R), 
                                                                                          CODE:285a(W), CODE:28a2(W), 
                                                                                          CODE:28c2(W), CODE:28f8(W), 
                                                                                          CODE:2952(W), CODE:2a8f(W)  
         BITS:63                 ??         ??
                             2c.4                                            XREF[3]:     CODE:01e4(W), 
                                                                                          FUN_CODE_27e9:27e9(R), 
                                                                                          FUN_CODE_280e:2810(W)  
         BITS:64                 ??         ??
                             2c.5                                            XREF[6]:     CODE:01ca(W), CODE:022b(W), 
                                                                                          CODE:0255(W), 
                                                                                          FUN_CODE_27e9:27fa(R), 
                                                                                          FUN_CODE_27e9:280a(W), 
                                                                                          FUN_CODE_280e:280e(W)  
         BITS:65                 ??         ??
                             2c.6                                            XREF[6]:     FUN_CODE_02bb:02da(R), 
                                                                                          FUN_CODE_02bb:0390(W), 
                                                                                          FUN_CODE_24cf:24cf(W), 
                                                                                          FUN_CODE_2caa:2caa(R), 
                                                                                          FUN_CODE_2caa:2cc5(W), 
                                                                                          FUN_CODE_2caa:2cc8(W)  
         BITS:66                 ??         ??
                             2c.7                                            XREF[6]:     CODE:04c9(R), CODE:056d(W), 
                                                                                          CODE:0583(W), 
                                                                                          FUN_CODE_24cf:24d9(W), 
                                                                                          FUN_CODE_2bf1:2bf3(R), 
                                                                                          FUN_CODE_2bf1:2bf8(W)  
         BITS:67                 ??         ??
                             2d.0                                            XREF[16]:    CODE:04ab(W), CODE:04ba(W), 
                                                                                          CODE:04ef(R), CODE:04fe(W), 
                                                                                          CODE:050f(W), CODE:052a(W), 
                                                                                          CODE:0560(W), CODE:0577(W), 
                                                                                          CODE:057f(W), CODE:059b(W), 
                                                                                          CODE:05c6(W), CODE:05e6(W), 
                                                                                          FUN_CODE_24cf:24d7(W), 
                                                                                          FUN_CODE_2bfb:2c1a(W), 
                                                                                          FUN_CODE_2bfb:2c21(W), 
                                                                                          FUN_CODE_2c24:2c25(R)  
         BITS:68                 ??         ??
                             2d.1                                            XREF[5]:     CODE:0511(W), CODE:0579(W), 
                                                                                          CODE:05e8(W), 
                                                                                          FUN_CODE_2bfb:2c0d(W), 
                                                                                          FUN_CODE_2c24:2c28(R)  
         BITS:69                 ??         ??
                             2d.2                                            XREF[3]:     CODE:05dc(R), 
                                                                                          FUN_CODE_2bfb:2c09(W), 
                                                                                          FUN_CODE_2bfb:2c1f(W)  
         BITS:6a                 ??         ??
                             2d.3                                            XREF[4]:     CODE:04a8(R), CODE:04f8(R), 
                                                                                          FUN_CODE_2bfb:2c0b(W), 
                                                                                          FUN_CODE_2bfb:2c1d(W)  
         BITS:6b                 ??         ??
                             2d.4                                            XREF[12]:    CODE:0489(W), CODE:04a5(R), 
                                                                                          CODE:04ad(W), CODE:04e8(R), 
                                                                                          CODE:0527(R), CODE:055d(R), 
                                                                                          CODE:0567(R), CODE:057b(W), 
                                                                                          CODE:0581(W), CODE:05d9(R), 
                                                                                          CODE:05df(W), CODE:05ea(W)  
         BITS:6c                 ??         ??
                             2d.5                                            XREF[7]:     CODE:0502(W), CODE:0509(W), 
                                                                                          CODE:056a(R), CODE:0571(R), 
                                                                                          CODE:0591(W), CODE:05b1(R), 
                                                                                          CODE:05bc(W)  
         BITS:6d                 ??         ??
                             2d.6                                            XREF[4]:     CODE:051d(W), CODE:05a9(W), 
                                                                                          CODE:05b5(W), CODE:05ca(R)  
         BITS:6e                 ??         ??
                             2d.7                                            XREF[4]:     CODE:28e0(W), CODE:290e(W), 
                                                                                          CODE:2917(R), CODE:2943(W)  
         BITS:6f                 ??         ??
                             2e.0
         BITS:70                 ??         ??
                             2e.1
         BITS:71                 ??         ??
                             2e.2
         BITS:72                 ??         ??
                             2e.3
         BITS:73                 ??         ??
                             2e.4
         BITS:74                 ??         ??
                             2e.5
         BITS:75                 ??         ??
                             2e.6
         BITS:76                 ??         ??
                             2e.7
         BITS:77                 ??         ??
                             2f.0
         BITS:78                 ??         ??
                             2f.1
         BITS:79                 ??         ??
                             2f.2
         BITS:7a                 ??         ??
                             2f.3
         BITS:7b                 ??         ??
                             2f.4
         BITS:7c                 ??         ??
                             2f.5
         BITS:7d                 ??         ??
                             2f.6
         BITS:7e                 ??         ??
                             2f.7
         BITS:7f                 ??         ??
                             //
                             // SFR-BITS (bitmap[0x0, 0x80, SFR:80])
                             // BITS:80-BITS:ff
                             //
                             P0.0                                            XREF[2]:     FUN_CODE_004a:004a(W), 
                                                                                          FUN_CODE_004d:004d(W)  
         BITS:80                 ??         ??
                             P0.1                                            XREF[2]:     FUN_CODE_0030:0030(W), 
                                                                                          FUN_CODE_0033:0033(W)  
         BITS:81                 ??         ??
                             P0.2                                            XREF[9]:     CODE:048b(W), CODE:04a0(R), 
                                                                                          CODE:04be(R), CODE:04d0(W), 
                                                                                          CODE:04e5(R), CODE:0521(R), 
                                                                                          CODE:0557(R), CODE:0595(R), 
                                                                                          CODE:05c0(R)  
         BITS:82                 ??         ??
                             P0.3                                            XREF[8]:     CODE:048d(W), CODE:04c1(R), 
                                                                                          CODE:04d2(W), CODE:051b(W), 
                                                                                          CODE:058c(R), CODE:05a7(W), 
                                                                                          CODE:05b3(W), CODE:05cd(R)  
         BITS:83                 ??         ??
                             P0.4                                            XREF[2]:     FUN_CODE_00aa:00aa(W), 
                                                                                          FUN_CODE_00ad:00ad(W)  
         BITS:84                 ??         ??
                             P0.5                                            XREF[2]:     FUN_CODE_007d:007d(W), 
                                                                                          FUN_CODE_0080:0080(W)  
         BITS:85                 ??         ??
                             P0.6                                            XREF[2]:     FUN_CODE_0050:0050(W), 
                                                                                          FUN_CODE_0053:005c(W)  
         BITS:86                 ??         ??
                             P0.7                                            XREF[1]:     FUN_CODE_0036:0036(R)  
         BITS:87                 ??         ??
                             IT0
         BITS:88                 ??         ??
                             IE0
         BITS:89                 ??         ??
                             IT1                                             XREF[1]:     CODE:0159(W)  
         BITS:8a                 ??         ??
                             IE1
         BITS:8b                 ??         ??
                             TR0
         BITS:8c                 ??         ??
                             TF0
         BITS:8d                 ??         ??
                             TR1
         BITS:8e                 ??         ??
                             TF1
         BITS:8f                 ??         ??
                             P1.0                                            XREF[1]:     FUN_CODE_2764:2764(R)  
         BITS:90                 ??         ??
                             P1.1                                            XREF[1]:     FUN_CODE_276c:2772(R)  
         BITS:91                 ??         ??
                             P1.2                                            XREF[1]:     FUN_CODE_2768:2768(R)  
         BITS:92                 ??         ??
                             P1.3                                            XREF[2]:     FUN_CODE_2554:2554(W), 
                                                                                          FUN_CODE_2557:2557(W)  
         BITS:93                 ??         ??
                             P1.4                                            XREF[2]:     FUN_CODE_2532:2532(W), 
                                                                                          FUN_CODE_2535:2535(W)  
         BITS:94                 ??         ??
                             P1.5                                            XREF[2]:     FUN_CODE_252c:252c(W), 
                                                                                          FUN_CODE_252f:252f(W)  
         BITS:95                 ??         ??
                             P1.6                                            XREF[1]:     FUN_CODE_003f:003f(R)  
         BITS:96                 ??         ??
                             P1.7                                            XREF[2]:     FUN_CODE_0039:0039(W), 
                                                                                          FUN_CODE_003c:003c(W)  
         BITS:97                 ??         ??
                             RI
         BITS:98                 ??         ??
                             TI
         BITS:99                 ??         ??
                             RB8                                             XREF[1]:     CODE:2941(W)  
         BITS:9a                 ??         ??
                             TB8
         BITS:9b                 ??         ??
                             REN
         BITS:9c                 ??         ??
                             SM2
         BITS:9d                 ??         ??
                             SM1
         BITS:9e                 ??         ??
                             SM0                                             XREF[1]:     CODE:292f(R)  
         BITS:9f                 ??         ??
                             P2.0                                            XREF[2]:     FUN_CODE_00bd:00bd(W), 
                                                                                          FUN_CODE_00c0:00c0(W)  
         BITS:a0                 ??         ??
                             P2.1                                            XREF[2]:     FUN_CODE_251b:251b(W), 
                                                                                          FUN_CODE_251e:251e(W)  
         BITS:a1                 ??         ??
                             P2.2                                            XREF[2]:     FUN_CODE_2565:2565(W), 
                                                                                          FUN_CODE_2568:2568(W)  
         BITS:a2                 ??         ??
                             P2.3                                            XREF[2]:     FUN_CODE_00c3:00c3(W), 
                                                                                          FUN_CODE_2576:2576(W)  
         BITS:a3                 ??         ??
                             P2.4                                            XREF[1]:     FUN_CODE_256b:256b(R)  
         BITS:a4                 ??         ??
                             P2.5                                            XREF[1]:     FUN_CODE_2521:2521(R)  
         BITS:a5                 ??         ??
                             P2.6                                            XREF[2]:     FUN_CODE_2543:2543(W), 
                                                                                          FUN_CODE_2546:2546(W)  
         BITS:a6                 ??         ??
                             P2.7                                            XREF[1]:     FUN_CODE_2760:2760(R)  
         BITS:a7                 ??         ??
                             EX0                                             XREF[2]:     FUN_CODE_276c:276c(R), 
                                                                                          FUN_CODE_276c:276e(W)  
         BITS:a8                 ??         ??
                             ET0                                             XREF[2]:     FUN_CODE_2521:2526(W), 
                                                                                          FUN_CODE_2521:2529(R)  
         BITS:a9                 ??         ??
                             EX1                                             XREF[2]:     FUN_CODE_2538:253d(W), 
                                                                                          FUN_CODE_2538:2540(R)  
         BITS:aa                 ??         ??
                             ET1                                             XREF[2]:     FUN_CODE_2549:254e(W), 
                                                                                          FUN_CODE_2549:2551(R)  
         BITS:ab                 ??         ??
                             ES                                              XREF[2]:     FUN_CODE_255a:255f(W), 
                                                                                          FUN_CODE_255a:2562(R)  
         BITS:ac                 ??         ??
                             ET2                                             XREF[2]:     FUN_CODE_003f:0044(W), 
                                                                                          FUN_CODE_003f:0047(R)  
         BITS:ad                 ??         ??
                             EC                                              XREF[2]:     FUN_CODE_256b:2570(W), 
                                                                                          FUN_CODE_256b:2573(R)  
         BITS:ae                 ??         ??
                             EA
         BITS:af                 ??         ??
                             RXD
         BITS:b0                 ??         ??
                             TXD
         BITS:b1                 ??         ??
                             INT0
         BITS:b2                 ??         ??
                             INT1
         BITS:b3                 ??         ??
                             T0
         BITS:b4                 ??         ??
                             T1
         BITS:b5                 ??         ??
                             WR
         BITS:b6                 ??         ??
                             RD
         BITS:b7                 ??         ??
                             PX0
         BITS:b8                 ??         ??
                             PT0
         BITS:b9                 ??         ??
                             PX1
         BITS:ba                 ??         ??
                             PT1
         BITS:bb                 ??         ??
                             PS
         BITS:bc                 ??         ??
                             PT2
         BITS:bd                 ??         ??
                             PC                                              XREF[2]:     FUN_CODE_0083:0083(W), 
                                                                                          CODE:00a7(W)  
         BITS:be                 ??         ??
                             IP.7                                            XREF[1]:     FUN_CODE_00d3:00e3(W)  
         BITS:bf                 ??         ??
                             FIFLG.0                                         XREF[3]:     FUN_CODE_248a:248d(R), 
                                                                                          FUN_CODE_258a:258a(W), 
                                                                                          FUN_CODE_258d:258d(W)  
         BITS:c0                 ??         ??
                             FIFLG.1                                         XREF[1]:     FUN_CODE_2549:2549(R)  
         BITS:c1                 ??         ??
                             FIFLG.2                                         XREF[1]:     FUN_CODE_2776:2777(R)  
         BITS:c2                 ??         ??
                             FIFLG.3                                         XREF[1]:     FUN_CODE_2538:2538(R)  
         BITS:c3                 ??         ??
                             FIFLG.4                                         XREF[1]:     FUN_CODE_2776:2787(R)  
         BITS:c4                 ??         ??
                             FIFLG.5                                         XREF[1]:     FUN_CODE_2776:2783(R)  
         BITS:c5                 ??         ??
                             FIFLG.6                                         XREF[1]:     FUN_CODE_2776:277f(R)  
         BITS:c6                 ??         ??
                             FIFLG.7                                         XREF[1]:     FUN_CODE_2776:277b(R)  
         BITS:c7                 ??         ??
                             CPRL2                                           XREF[3]:     FUN_CODE_027b:028d(W), 
                                                                                          FUN_CODE_2bd8:2bdb(W), 
                                                                                          FUN_CODE_2bd8:2be0(W)  
         BITS:c8                 ??         ??
                             CT2                                             XREF[4]:     FUN_CODE_027b:028f(W), 
                                                                                          CODE:2837(W), CODE:283c(W), 
                                                                                          FUN_CODE_2bbe:2bbe(R)  
         BITS:c9                 ??         ??
                             TR2                                             XREF[1]:     FUN_CODE_007a:007a(R)  
         BITS:ca                 ??         ??
                             EXEN2                                           XREF[1]:     FUN_CODE_2776:278b(R)  
         BITS:cb                 ??         ??
                             TCLK                                            XREF[1]:     FUN_CODE_255a:255a(R)  
         BITS:cc                 ??         ??
                             RCLK                                            XREF[2]:     FUN_CODE_00d3:00ec(R), 
                                                                                          FUN_CODE_2794:2796(R)  
         BITS:cd                 ??         ??
                             EXF2                                            XREF[1]:     FUN_CODE_2579:257e(R)  
         BITS:ce                 ??         ??
                             TF2                                             XREF[4]:     FUN_CODE_2579:257a(R), 
                                                                                          FUN_CODE_2581:2581(W), 
                                                                                          FUN_CODE_2584:2584(W), 
                                                                                          FUN_CODE_2587:2587(RW)  
         BITS:cf                 ??         ??
                             P                                               XREF[18]:    FUN_CODE_005f:0063(R), 
                                                                                          FUN_CODE_02bb:0431(R), 
                                                                                          FUN_CODE_0607:063d(R), 
                                                                                          FUN_CODE_0607:064c(R), 
                                                                                          FUN_CODE_0607:0658(R), 
                                                                                          FUN_CODE_0607:069b(R), 
                                                                                          FUN_CODE_0607:06aa(R), 
                                                                                          FUN_CODE_0607:06b6(R), 
                                                                                          FUN_CODE_0607:06f9(R), 
                                                                                          FUN_CODE_0607:0708(R), 
                                                                                          FUN_CODE_0607:0714(R), 
                                                                                          FUN_CODE_0607:0757(R), 
                                                                                          FUN_CODE_0607:0766(R), 
                                                                                          FUN_CODE_0607:0772(R), 
                                                                                          FUN_CODE_0607:07b5(R), 
                                                                                          FUN_CODE_0607:07c4(R), 
                                                                                          FUN_CODE_0607:07d0(R), 
                                                                                          CODE:1df5(R)  
         BITS:d0                 ??         ??
                             UD                                              XREF[20]:    CODE:150e(W), CODE:1517(W), 
                                                                                          CODE:1519(RW), CODE:1524(W), 
                                                                                          CODE:152d(W), CODE:152f(RW), 
                                                                                          CODE:1531(R), CODE:1536(W), 
                                                                                          CODE:153f(W), CODE:1541(RW), 
                                                                                          CODE:1554(W), CODE:155d(W), 
                                                                                          CODE:155f(RW), CODE:1561(R), 
                                                                                          CODE:1566(W), CODE:156f(W), 
                                                                                          CODE:1571(RW), 
                                                                                          FUN_CODE_1746:176f(W), 
                                                                                          FUN_CODE_177e:1781(R), 
                                                                                          FUN_CODE_177e:17c8(R)  
         BITS:d1                 ??         ??
                             OV                                              XREF[2]:     FUN_CODE_177e:1824(R), 
                                                                                          FUN_CODE_1847:184e(R)  
         BITS:d2                 ??         ??
                             RS0                                             XREF[7]:     FUN_CODE_00d3:00d6(W), 
                                                                                          FUN_CODE_00d3:00fa(W), 
                                                                                          FUN_CODE_012d:0130(W), 
                                                                                          CODE:0167(W), 
                                                                                          FUN_CODE_02bb:02b5(W), 
                                                                                          FUN_CODE_02bb:02be(W), 
                                                                                          FUN_CODE_2402:2402(W)  
         BITS:d3                 ??         ??
                             RS1                                             XREF[1]:     FUN_CODE_2402:2404(W)  
         BITS:d4                 ??         ??
                             F0                                              XREF[68]:    CODE:150c(W), CODE:1515(W), 
                                                                                          CODE:1522(W), 
                                                                                          FUN_CODE_16dc:16fe(W), 
                                                                                          FUN_CODE_16dc:1707(R), 
                                                                                          FUN_CODE_1746:1758(W), 
                                                                                          FUN_CODE_177e:17e4(R), 
                                                                                          FUN_CODE_1cdf:1cfa(W), 
                                                                                          FUN_CODE_1cdf:1d0b(W), 
                                                                                          FUN_CODE_1cdf:1d27(W), 
                                                                                          FUN_CODE_1cdf:1d2c(RW), 
                                                                                          FUN_CODE_1cdf:1d2e(R), 
                                                                                          FUN_CODE_1cdf:1d36(R), 
                                                                                          FUN_CODE_1cdf:1d3e(R), 
                                                                                          FUN_CODE_1cdf:1d47(R), 
                                                                                          FUN_CODE_1cdf:1d53(R), 
                                                                                          FUN_CODE_1cdf:1d5e(R), 
                                                                                          FUN_CODE_1cdf:1d67(R), 
                                                                                          FUN_CODE_1cdf:1d70(R), 
                                                                                          FUN_CODE_2caa:2cb5(W), [more]
         BITS:d5                 ??         ??
                             AC
         BITS:d6                 ??         ??
                             C
         BITS:d7                 ??         ??
                             CCF.0                                           XREF[2]:     CODE:0259(W), CODE:0261(W)  
         BITS:d8                 ??         ??
                             CCF.1                                           XREF[16]:    CODE:016d(W), CODE:018b(R), 
                                                                                          CODE:0196(W), CODE:01a0(R), 
                                                                                          CODE:01bd(W), CODE:01d0(W), 
                                                                                          CODE:01df(W), CODE:01f9(R), 
                                                                                          CODE:0204(W), CODE:020e(R), 
                                                                                          CODE:021f(W), CODE:0231(R), 
                                                                                          CODE:023c(W), CODE:0246(R), 
                                                                                          CODE:0266(W), 
                                                                                          FUN_CODE_280e:2815(W)  
         BITS:d9                 ??         ??
                             CCF.2                                           XREF[3]:     CODE:01dd(W), 
                                                                                          FUN_CODE_27e9:27ee(R), 
                                                                                          FUN_CODE_27e9:27f4(R)  
         BITS:da                 ??         ??
                             CCF.3                                           XREF[5]:     CODE:016f(W), CODE:0189(W), 
                                                                                          CODE:01ce(W), CODE:01f7(W), 
                                                                                          CODE:022f(W)  
         BITS:db                 ??         ??
                             CCF.4
         BITS:dc                 ??         ??
                             CCON.5
         BITS:dd                 ??         ??
                             CR
         BITS:de                 ??         ??
                             CF                                              XREF[1]:     FUN_CODE_027b:029a(W)  
         BITS:df                 ??         ??
                             ACC.0                                           XREF[28]:    FUN_CODE_0607:066f(*), 
                                                                                          FUN_CODE_0607:0674(*), 
                                                                                          FUN_CODE_0607:0679(*), 
                                                                                          FUN_CODE_0607:0789(*), 
                                                                                          FUN_CODE_0607:078e(*), 
                                                                                          FUN_CODE_0607:0793(*), 
                                                                                          FUN_CODE_08d0:0a29(*), 
                                                                                          FUN_CODE_08d0:0a63(*), 
                                                                                          FUN_CODE_08d0:0bf1(*), 
                                                                                          FUN_CODE_08d0:0c84(*), 
                                                                                          FUN_CODE_08d0:0ce6(*), 
                                                                                          FUN_CODE_08d0:0d22(*), 
                                                                                          FUN_CODE_08d0:0da1(*), 
                                                                                          FUN_CODE_0de8:0f12(*), 
                                                                                          FUN_CODE_1ae9:1b04(*), 
                                                                                          CODE:1be6(*), CODE:1cd8(*), 
                                                                                          CODE:1dee(*), CODE:1df8(*), 
                                                                                          FUN_CODE_2579:257c(*), [more]
         BITS:e0                 ??         ??
                             ACC.1                                           XREF[12]:    FUN_CODE_006b:006d(*), 
                                                                                          FUN_CODE_0607:068d(*), 
                                                                                          FUN_CODE_0607:07a7(*), 
                                                                                          FUN_CODE_08d0:0a32(*), 
                                                                                          FUN_CODE_08d0:0bf5(*), 
                                                                                          FUN_CODE_08d0:0c88(*), 
                                                                                          FUN_CODE_08d0:0da7(*), 
                                                                                          CODE:1884(*), 
                                                                                          FUN_CODE_1ae9:1b0a(*), 
                                                                                          CODE:1df3(*), 
                                                                                          FUN_CODE_265d:26db(*), 
                                                                                          FUN_CODE_2776:2789(*)  
         BITS:e1                 ??         ??
                             ACC.2                                           XREF[9]:     FUN_CODE_006b:0072(*), 
                                                                                          FUN_CODE_0607:0611(*), 
                                                                                          FUN_CODE_0607:0616(*), 
                                                                                          FUN_CODE_0607:061b(*), 
                                                                                          FUN_CODE_07e3:080c(*), 
                                                                                          FUN_CODE_08d0:0a45(*), 
                                                                                          CODE:18a5(*), CODE:1cd2(*), 
                                                                                          FUN_CODE_2776:2785(*)  
         BITS:e2                 ??         ??
                             ACC.3                                           XREF[10]:    FUN_CODE_02bb:0357(*), 
                                                                                          FUN_CODE_02bb:0388(*), 
                                                                                          FUN_CODE_02bb:03c5(*), 
                                                                                          FUN_CODE_02bb:03fa(*), 
                                                                                          FUN_CODE_0607:062f(*), 
                                                                                          CODE:18a9(*), CODE:198b(*), 
                                                                                          CODE:1ccc(*), 
                                                                                          FUN_CODE_2776:2781(*), 
                                                                                          FUN_CODE_2caa:2cb3(*)  
         BITS:e3                 ??         ??
                             ACC.4                                           XREF[11]:    FUN_CODE_0607:06cd(*), 
                                                                                          FUN_CODE_0607:06d2(*), 
                                                                                          FUN_CODE_0607:06d7(*), 
                                                                                          FUN_CODE_1ae9:1af9(*), 
                                                                                          FUN_CODE_2590:2592(*), 
                                                                                          FUN_CODE_2595:2598(*), 
                                                                                          FUN_CODE_25a1:25a1(*), 
                                                                                          FUN_CODE_25b4:25b5(*), 
                                                                                          FUN_CODE_25c3:25c3(*), 
                                                                                          FUN_CODE_25d6:25d8(*), 
                                                                                          FUN_CODE_2776:277d(*)  
         BITS:e4                 ??         ??
                             ACC.5                                           XREF[8]:     FUN_CODE_0607:06eb(*), 
                                                                                          FUN_CODE_07e3:082e(*), 
                                                                                          FUN_CODE_08d0:0a01(*), 
                                                                                          CODE:1547(*), CODE:198e(*), 
                                                                                          FUN_CODE_1ae9:1af6(*), 
                                                                                          CODE:1c8d(*), 
                                                                                          FUN_CODE_2bfb:2c17(*)  
         BITS:e5                 ??         ??
                             ACC.6                                           XREF[14]:    FUN_CODE_0607:072b(*), 
                                                                                          FUN_CODE_0607:0730(*), 
                                                                                          FUN_CODE_0607:0735(*), 
                                                                                          FUN_CODE_08d0:0a04(*), 
                                                                                          FUN_CODE_0de8:0f0d(*), 
                                                                                          CODE:1a95(*), 
                                                                                          FUN_CODE_1ae9:1af3(*), 
                                                                                          CODE:1cbc(*), 
                                                                                          FUN_CODE_1cdf:1cf4(*), 
                                                                                          CODE:1e32(*), 
                                                                                          FUN_CODE_265d:26d7(*), 
                                                                                          FUN_CODE_2776:2779(*), 
                                                                                          FUN_CODE_2bfb:2c14(*), 
                                                                                          FUN_CODE_2caa:2cbd(*)  
         BITS:e6                 ??         ??
                             ACC.7                                           XREF[28]:    FUN_CODE_0607:0749(*), 
                                                                                          FUN_CODE_08d0:0a7e(*), 
                                                                                          FUN_CODE_08d0:0a82(*), 
                                                                                          FUN_CODE_08d0:0a86(*), 
                                                                                          FUN_CODE_08d0:0aa7(*), 
                                                                                          FUN_CODE_08d0:0ad5(*), 
                                                                                          FUN_CODE_08d0:0afc(*), 
                                                                                          FUN_CODE_1746:1756(*), 
                                                                                          FUN_CODE_1746:176d(*), 
                                                                                          FUN_CODE_177e:1827(*), 
                                                                                          FUN_CODE_1847:1851(*), 
                                                                                          FUN_CODE_1847:1857(*), 
                                                                                          FUN_CODE_1ae9:1af0(*), 
                                                                                          CODE:1cc1(*), 
                                                                                          FUN_CODE_1cdf:1d20(*), 
                                                                                          FUN_CODE_1cdf:1d29(*), 
                                                                                          FUN_CODE_2595:259e(*), 
                                                                                          FUN_CODE_2caa:2cc1(*), 
                                                                                          FUN_CODE_2caa:2d04(*), 
                                                                                          FUN_CODE_2caa:2d06(*), [more]
         BITS:e7                 ??         ??
                             HIFLG.0
         BITS:e8                 ??         ??
                             HIFLG.1
         BITS:e9                 ??         ??
                             HIFLG.2
         BITS:ea                 ??         ??
                             HIFLG.3
         BITS:eb                 ??         ??
                             HIFLG.4
         BITS:ec                 ??         ??
                             HIFLG.5
         BITS:ed                 ??         ??
                             HIFLG.6
         BITS:ee                 ??         ??
                             HIFLG.7
         BITS:ef                 ??         ??
                             B.0                                             XREF[28]:    FUN_CODE_0607:061e(*), 
                                                                                          FUN_CODE_0607:0625(*), 
                                                                                          FUN_CODE_0607:062b(*), 
                                                                                          FUN_CODE_0607:06da(*), 
                                                                                          FUN_CODE_0607:06e1(*), 
                                                                                          FUN_CODE_0607:06e7(*), 
                                                                                          FUN_CODE_0607:0796(*), 
                                                                                          FUN_CODE_0607:079d(*), 
                                                                                          FUN_CODE_0607:07a3(*), 
                                                                                          FUN_CODE_08d0:0934(*), 
                                                                                          FUN_CODE_08d0:095a(*), 
                                                                                          FUN_CODE_08d0:09f0(*), 
                                                                                          FUN_CODE_08d0:0c63(*), 
                                                                                          FUN_CODE_08d0:0ce8(*), 
                                                                                          FUN_CODE_2d27:2d60(*), 
                                                                                          FUN_CODE_2d6a:2d9d(*), 
                                                                                          FUN_CODE_2d6a:2dc8(*), 
                                                                                          FUN_CODE_2de4:2e1d(*), 
                                                                                          FUN_CODE_2de4:2e48(*), 
                                                                                          FUN_CODE_2de4:2e73(*), [more]
         BITS:f0                 ??         ??
                             B.1                                             XREF[20]:    FUN_CODE_0607:0631(*), 
                                                                                          FUN_CODE_0607:0637(*), 
                                                                                          FUN_CODE_0607:0652(*), 
                                                                                          FUN_CODE_0607:06ed(*), 
                                                                                          FUN_CODE_0607:06f3(*), 
                                                                                          FUN_CODE_0607:070e(*), 
                                                                                          FUN_CODE_0607:07a9(*), 
                                                                                          FUN_CODE_0607:07af(*), 
                                                                                          FUN_CODE_0607:07ca(*), 
                                                                                          FUN_CODE_08d0:095e(*), 
                                                                                          CODE:18a7(*), 
                                                                                          FUN_CODE_25db:25f3(*), 
                                                                                          FUN_CODE_265d:2698(*), 
                                                                                          FUN_CODE_265d:26a8(*), 
                                                                                          FUN_CODE_2d27:2d5b(*), 
                                                                                          FUN_CODE_2d6a:2d98(*), 
                                                                                          FUN_CODE_2d6a:2dc3(*), 
                                                                                          FUN_CODE_2de4:2e18(*), 
                                                                                          FUN_CODE_2de4:2e43(*), 
                                                                                          FUN_CODE_2de4:2e6e(*)  
         BITS:f1                 ??         ??
                             B.2                                             XREF[23]:    FUN_CODE_0607:062d(*), 
                                                                                          FUN_CODE_0607:063a(*), 
                                                                                          FUN_CODE_0607:0640(*), 
                                                                                          FUN_CODE_0607:0654(*), 
                                                                                          FUN_CODE_0607:06e9(*), 
                                                                                          FUN_CODE_0607:06f6(*), 
                                                                                          FUN_CODE_0607:06fc(*), 
                                                                                          FUN_CODE_0607:0710(*), 
                                                                                          FUN_CODE_0607:07a5(*), 
                                                                                          FUN_CODE_0607:07b2(*), 
                                                                                          FUN_CODE_0607:07b8(*), 
                                                                                          FUN_CODE_0607:07cc(*), 
                                                                                          FUN_CODE_08d0:0ce3(*), 
                                                                                          FUN_CODE_08d0:0cf3(*), 
                                                                                          CODE:18a0(*), 
                                                                                          FUN_CODE_2d27:2d56(*), 
                                                                                          FUN_CODE_2d6a:2d93(*), 
                                                                                          FUN_CODE_2d6a:2dbe(*), 
                                                                                          FUN_CODE_2de4:2e13(*), 
                                                                                          FUN_CODE_2de4:2e3e(*), [more]
         BITS:f2                 ??         ??
                             B.3                                             XREF[21]:    FUN_CODE_0607:0642(*), 
                                                                                          FUN_CODE_0607:0649(*), 
                                                                                          FUN_CODE_0607:0662(*), 
                                                                                          FUN_CODE_0607:06fe(*), 
                                                                                          FUN_CODE_0607:0705(*), 
                                                                                          FUN_CODE_0607:071e(*), 
                                                                                          FUN_CODE_0607:07ba(*), 
                                                                                          FUN_CODE_0607:07c1(*), 
                                                                                          FUN_CODE_0607:07da(*), 
                                                                                          FUN_CODE_08d0:0d24(*), 
                                                                                          CODE:1895(*), CODE:19c7(*), 
                                                                                          FUN_CODE_265d:26a0(*), 
                                                                                          FUN_CODE_265d:26b0(*), 
                                                                                          FUN_CODE_2d27:2d51(*), 
                                                                                          FUN_CODE_2d6a:2d8e(*), 
                                                                                          FUN_CODE_2d6a:2db9(*), 
                                                                                          FUN_CODE_2de4:2e0e(*), 
                                                                                          FUN_CODE_2de4:2e39(*), 
                                                                                          FUN_CODE_2de4:2e64(*), [more]
         BITS:f3                 ??         ??
                             B.4                                             XREF[12]:    FUN_CODE_0607:067c(*), 
                                                                                          FUN_CODE_0607:0683(*), 
                                                                                          FUN_CODE_0607:0689(*), 
                                                                                          FUN_CODE_0607:0738(*), 
                                                                                          FUN_CODE_0607:073f(*), 
                                                                                          FUN_CODE_0607:0745(*), 
                                                                                          FUN_CODE_2d27:2d4c(*), 
                                                                                          FUN_CODE_2d6a:2d89(*), 
                                                                                          FUN_CODE_2d6a:2db4(*), 
                                                                                          FUN_CODE_2de4:2e09(*), 
                                                                                          FUN_CODE_2de4:2e34(*), 
                                                                                          FUN_CODE_2de4:2e5f(*)  
         BITS:f4                 ??         ??
                             B.5                                             XREF[21]:    FUN_CODE_0607:068f(*), 
                                                                                          FUN_CODE_0607:0695(*), 
                                                                                          FUN_CODE_0607:06b0(*), 
                                                                                          FUN_CODE_0607:074b(*), 
                                                                                          FUN_CODE_0607:0751(*), 
                                                                                          FUN_CODE_0607:076c(*), 
                                                                                          CODE:189d(*), CODE:19c4(*), 
                                                                                          CODE:1a84(*), CODE:1cb6(*), 
                                                                                          FUN_CODE_1cdf:1cf0(*), 
                                                                                          CODE:1e1d(*), 
                                                                                          FUN_CODE_2d27:2d35(*), 
                                                                                          FUN_CODE_2d27:2d47(*), 
                                                                                          FUN_CODE_2d6a:2d81(*), 
                                                                                          FUN_CODE_2d6a:2daf(*), 
                                                                                          FUN_CODE_2d6a:2dda(*), 
                                                                                          FUN_CODE_2de4:2df2(*), 
                                                                                          FUN_CODE_2de4:2e04(*), 
                                                                                          FUN_CODE_2de4:2e2f(*), [more]
         BITS:f5                 ??         ??
                             B.6                                             XREF[18]:    FUN_CODE_0607:068b(*), 
                                                                                          FUN_CODE_0607:0698(*), 
                                                                                          FUN_CODE_0607:069e(*), 
                                                                                          FUN_CODE_0607:06b2(*), 
                                                                                          FUN_CODE_0607:0747(*), 
                                                                                          FUN_CODE_0607:0754(*), 
                                                                                          FUN_CODE_0607:075a(*), 
                                                                                          FUN_CODE_0607:076e(*), 
                                                                                          FUN_CODE_16dc:1710(*), 
                                                                                          FUN_CODE_2d27:2d30(*), 
                                                                                          FUN_CODE_2d27:2d42(*), 
                                                                                          FUN_CODE_2d6a:2d7c(*), 
                                                                                          FUN_CODE_2d6a:2daa(*), 
                                                                                          FUN_CODE_2d6a:2dd5(*), 
                                                                                          FUN_CODE_2de4:2ded(*), 
                                                                                          FUN_CODE_2de4:2dff(*), 
                                                                                          FUN_CODE_2de4:2e2a(*), 
                                                                                          FUN_CODE_2de4:2e55(*)  
         BITS:f6                 ??         ??
                             B.7                                             XREF[21]:    FUN_CODE_0607:06a0(*), 
                                                                                          FUN_CODE_0607:06a7(*), 
                                                                                          FUN_CODE_0607:06c0(*), 
                                                                                          FUN_CODE_0607:075c(*), 
                                                                                          FUN_CODE_0607:0763(*), 
                                                                                          FUN_CODE_0607:077c(*), 
                                                                                          FUN_CODE_1598:16c8(*), 
                                                                                          FUN_CODE_1598:16cb(*), 
                                                                                          FUN_CODE_16dc:170d(*), 
                                                                                          CODE:189a(*), CODE:18f1(*), 
                                                                                          CODE:19c1(*), 
                                                                                          FUN_CODE_2d27:2d2b(*), 
                                                                                          FUN_CODE_2d27:2d3d(*), 
                                                                                          FUN_CODE_2d6a:2d77(*), 
                                                                                          FUN_CODE_2d6a:2da5(*), 
                                                                                          FUN_CODE_2d6a:2dd0(*), 
                                                                                          FUN_CODE_2de4:2de8(*), 
                                                                                          FUN_CODE_2de4:2dfa(*), 
                                                                                          FUN_CODE_2de4:2e25(*), [more]
         BITS:f7                 ??         ??
                             F8.0
         BITS:f8                 ??         ??
                             F8.1
         BITS:f9                 ??         ??
                             F8.2
         BITS:fa                 ??         ??
                             F8.3
         BITS:fb                 ??         ??
                             F8.4
         BITS:fc                 ??         ??
                             F8.5
         BITS:fd                 ??         ??
                             F8.6
         BITS:fe                 ??         ??
                             F8.7
         BITS:ff                 ??         ??
