                             //
                             // CODE 
                             // CODE:0000-CODE:2fff
                             //
       CODE:0000 e1 56           AJMP       FUN_CODE_0756                                              undefined FUN_CODE_0756()
                             -- Flow Override: CALL_RETURN (CALL_TERMINATOR)
       CODE:0002 21 3a           AJMP       FUN_CODE_013a                                              undefined FUN_CODE_013a()
                             -- Flow Override: CALL_RETURN (CALL_TERMINATOR)
       CODE:0004 21 2d           AJMP       FUN_CODE_012d                                              undefined FUN_CODE_012d()
                             -- Flow Override: CALL_RETURN (CALL_TERMINATOR)
       CODE:0006 41 fe           AJMP       FUN_CODE_02fe                                              undefined FUN_CODE_02fe()
                             -- Flow Override: CALL_RETURN (CALL_TERMINATOR)
       CODE:0008 21 2d           AJMP       FUN_CODE_012d                                              undefined FUN_CODE_012d()
                             -- Flow Override: CALL_RETURN (CALL_TERMINATOR)
       CODE:000a 21 63           AJMP       FUN_CODE_0163                                              undefined FUN_CODE_0163()
                             -- Flow Override: CALL_RETURN (CALL_TERMINATOR)
       CODE:000c 21 2d           AJMP       FUN_CODE_012d                                              undefined FUN_CODE_012d()
                             -- Flow Override: CALL_RETURN (CALL_TERMINATOR)
       CODE:000e 21 2d           AJMP       FUN_CODE_012d                                              undefined FUN_CODE_012d()
                             -- Flow Override: CALL_RETURN (CALL_TERMINATOR)
       CODE:0010 21 2d           AJMP       FUN_CODE_012d                                              undefined FUN_CODE_012d()
                             -- Flow Override: CALL_RETURN (CALL_TERMINATOR)
       CODE:0012 21 63           AJMP       FUN_CODE_0163                                              undefined FUN_CODE_0163()
                             -- Flow Override: CALL_RETURN (CALL_TERMINATOR)
       CODE:0014 21 2d           AJMP       FUN_CODE_012d                                              undefined FUN_CODE_012d()
                             -- Flow Override: CALL_RETURN (CALL_TERMINATOR)
       CODE:0016 21 2d           AJMP       FUN_CODE_012d                                              undefined FUN_CODE_012d()
                             -- Flow Override: CALL_RETURN (CALL_TERMINATOR)
       CODE:0018 21 2d           AJMP       FUN_CODE_012d                                              undefined FUN_CODE_012d()
                             -- Flow Override: CALL_RETURN (CALL_TERMINATOR)
       CODE:001a 21 2d           AJMP       FUN_CODE_012d                                              undefined FUN_CODE_012d()
                             -- Flow Override: CALL_RETURN (CALL_TERMINATOR)
       CODE:001c 21 2d           AJMP       FUN_CODE_012d                                              undefined FUN_CODE_012d()
                             -- Flow Override: CALL_RETURN (CALL_TERMINATOR)
       CODE:001e 21 2d           AJMP       FUN_CODE_012d                                              undefined FUN_CODE_012d()
                             -- Flow Override: CALL_RETURN (CALL_TERMINATOR)
       CODE:0020 21 2d           AJMP       FUN_CODE_012d                                              undefined FUN_CODE_012d()
                             -- Flow Override: CALL_RETURN (CALL_TERMINATOR)
       CODE:0022 21 2d           AJMP       FUN_CODE_012d                                              undefined FUN_CODE_012d()
                             -- Flow Override: CALL_RETURN (CALL_TERMINATOR)
       CODE:0024 21 2d           AJMP       FUN_CODE_012d                                              undefined FUN_CODE_012d()
                             -- Flow Override: CALL_RETURN (CALL_TERMINATOR)
       CODE:0026 21 2d           AJMP       FUN_CODE_012d                                              undefined FUN_CODE_012d()
                             -- Flow Override: CALL_RETURN (CALL_TERMINATOR)
       CODE:0028 21 2d           AJMP       FUN_CODE_012d                                              undefined FUN_CODE_012d()
                             -- Flow Override: CALL_RETURN (CALL_TERMINATOR)
       CODE:002a 21 2d           AJMP       FUN_CODE_012d                                              undefined FUN_CODE_012d()
                             -- Flow Override: CALL_RETURN (CALL_TERMINATOR)
       CODE:002c 21 2d           AJMP       FUN_CODE_012d                                              undefined FUN_CODE_012d()
                             -- Flow Override: CALL_RETURN (CALL_TERMINATOR)
       CODE:002e 21 37           AJMP       thunk_FUN_CODE_2333                                        undefined thunk_FUN_CODE_2333()
                             -- Flow Override: CALL_RETURN (CALL_TERMINATOR)
                             **************************************************************
                             *                          FUNCTION                          *
                             **************************************************************
                             undefined FUN_CODE_0030()
             undefined         ACC:1          <RETURN>
                             FUN_CODE_0030                                   XREF[1]:     CODE:0fb9(c)  
       CODE:0030 c2 a2           CLR        P2.2                                                       = ??
       CODE:0032 22              RET
                             **************************************************************
                             *                          FUNCTION                          *
                             **************************************************************
                             undefined FUN_CODE_0033()
             undefined         ACC:1          <RETURN>
                             FUN_CODE_0033                                   XREF[1]:     CODE:0f00(c)  
       CODE:0033 d2 a2           SETB       P2.2                                                       = ??
       CODE:0035 22              RET
                             **************************************************************
                             *                          FUNCTION                          *
                             **************************************************************
                             undefined FUN_CODE_0036()
             undefined         ACC:1          <RETURN>
                             FUN_CODE_0036                                   XREF[3]:     CODE:0fbe(c), CODE:0fd4(c), 
                                                                                          FUN_CODE_1c98:1cb3(c)  
       CODE:0036 a2 a4           MOV        CY,P2.4                                                    = ??
       CODE:0038 20 1a 03        JB         23.2,LAB_CODE_003e                                         = ??
       CODE:003b c2 ac           CLR        ES                                                         = ??
       CODE:003d 22              RET
                             LAB_CODE_003e                                   XREF[1]:     CODE:0038(j)  
       CODE:003e b0 ac           ANL        CY,/ES                                                     = ??
       CODE:0040 22              RET
                             **************************************************************
                             *                          FUNCTION                          *
                             **************************************************************
                             undefined FUN_CODE_0041()
             undefined         ACC:1          <RETURN>
                             FUN_CODE_0041                                   XREF[2]:     CODE:106b(c), CODE:11a1(c)  
       CODE:0041 c2 81           CLR        P0.1                                                       = ??
       CODE:0043 22              RET
                             **************************************************************
                             *                          FUNCTION                          *
                             **************************************************************
                             undefined FUN_CODE_0044()
             undefined         ACC:1          <RETURN>
                             FUN_CODE_0044                                   XREF[2]:     CODE:119c(c), CODE:11a6(c)  
       CODE:0044 d2 c3           SETB       FIFLG.3                                                    = ??
       CODE:0046 c2 c3           CLR        FIFLG.3                                                    = ??
       CODE:0048 d2 c3           SETB       FIFLG.3                                                    = ??
       CODE:004a c2 c3           CLR        FIFLG.3                                                    = ??
       CODE:004c d2 81           SETB       P0.1                                                       = ??
       CODE:004e 22              RET
                             **************************************************************
                             *                          FUNCTION                          *
                             **************************************************************
                             undefined FUN_CODE_004f()
             undefined         ACC:1          <RETURN>
                             FUN_CODE_004f                                   XREF[2]:     CODE:1188(c), CODE:11b3(c)  
       CODE:004f a2 87           MOV        CY,P0.7                                                    = ??
       CODE:0051 22              RET
                             **************************************************************
                             *                          FUNCTION                          *
                             **************************************************************
                             undefined FUN_CODE_0052()
             undefined         ACC:1          <RETURN>
                             FUN_CODE_0052                                   XREF[1]:     CODE:0fff(c)  
       CODE:0052 d2 97           SETB       P1.7                                                       = ??
       CODE:0054 22              RET
                             **************************************************************
                             *                          FUNCTION                          *
                             **************************************************************
                             undefined FUN_CODE_0055()
             undefined         ACC:1          <RETURN>
                             FUN_CODE_0055                                   XREF[1]:     CODE:0ea7(c)  
       CODE:0055 c2 97           CLR        P1.7                                                       = ??
       CODE:0057 22              RET
                             **************************************************************
                             *                          FUNCTION                          *
                             **************************************************************
                             undefined FUN_CODE_0058()
             undefined         ACC:1          <RETURN>
                             FUN_CODE_0058                                   XREF[3]:     CODE:1004(c), CODE:101a(c), 
                                                                                          FUN_CODE_1c98:1cab(c)  
       CODE:0058 a2 96           MOV        CY,P1.6                                                    = ??
       CODE:005a 20 19 03        JB         23.1,LAB_CODE_0060                                         = ??
       CODE:005d c2 ab           CLR        ET1                                                        = ??
       CODE:005f 22              RET
                             LAB_CODE_0060                                   XREF[1]:     CODE:005a(j)  
       CODE:0060 b0 ab           ANL        CY,/ET1                                                    = ??
       CODE:0062 22              RET
                             **************************************************************
                             *                          FUNCTION                          *
                             **************************************************************
                             undefined FUN_CODE_0063()
             undefined         ACC:1          <RETURN>
                             FUN_CODE_0063                                   XREF[1]:     CODE:1171(c)  
       CODE:0063 d2 80           SETB       P0.0                                                       = ??
       CODE:0065 22              RET
                             **************************************************************
                             *                          FUNCTION                          *
                             **************************************************************
                             undefined FUN_CODE_0066()
             undefined         ACC:1          <RETURN>
                             FUN_CODE_0066                                   XREF[1]:     CODE:10bf(c)  
       CODE:0066 c2 80           CLR        P0.0                                                       = ??
       CODE:0068 22              RET
                             **************************************************************
                             *                          FUNCTION                          *
                             **************************************************************
                             undefined FUN_CODE_0069()
             undefined         ACC:1          <RETURN>
                             FUN_CODE_0069                                   XREF[1]:     CODE:106e(c)  
       CODE:0069 c2 86           CLR        P0.6                                                       = ??
       CODE:006b 22              RET
                             **************************************************************
                             *                          FUNCTION                          *
                             **************************************************************
                             undefined FUN_CODE_006c()
             undefined         ACC:1          <RETURN>
                             FUN_CODE_006c                                   XREF[1]:     CODE:1225(c)  
       CODE:006c d2 86           SETB       P0.6                                                       = ??
       CODE:006e 22              RET
                             **************************************************************
                             *                          FUNCTION                          *
                             **************************************************************
                             undefined FUN_CODE_006f()
             undefined         ACC:1          <RETURN>
                             FUN_CODE_006f                                   XREF[1]:     CODE:120c(c)  
       CODE:006f e5 8f           MOV        A,FADDR                                                    = ??
       CODE:0071 54 30           ANL        A,#0x30
       CODE:0073 a2 d0           MOV        CY,P                                                       = ??
       CODE:0075 22              RET
                             **************************************************************
                             *                          FUNCTION                          *
                             **************************************************************
                             undefined FUN_CODE_0076()
             undefined         ACC:1          <RETURN>
                             FUN_CODE_0076                                   XREF[1]:     CODE:1180(c)  
       CODE:0076 d2 85           SETB       P0.5                                                       = ??
       CODE:0078 22              RET
                             **************************************************************
                             *                          FUNCTION                          *
                             **************************************************************
                             undefined FUN_CODE_0079()
             undefined         ACC:1          <RETURN>
                             FUN_CODE_0079                                   XREF[1]:     CODE:1073(c)  
       CODE:0079 c2 85           CLR        P0.5                                                       = ??
       CODE:007b 22              RET
                             **************************************************************
                             *                          FUNCTION                          *
                             **************************************************************
                             undefined FUN_CODE_007c()
             undefined         ACC:1          <RETURN>
                             FUN_CODE_007c                                   XREF[2]:     CODE:10bc(c), CODE:1117(c)  
       CODE:007c c2 be           CLR        PC                                                         = ??
       CODE:007e 22              RET
                             **************************************************************
                             *                          FUNCTION                          *
                             **************************************************************
                             undefined FUN_CODE_007f()
             undefined         ACC:1          <RETURN>
                             FUN_CODE_007f                                   XREF[1]:     CODE:1183(c)  
       CODE:007f 74 43           MOV        A,#0x43
       CODE:0081 20 ca 02        JB         TR2,LAB_CODE_0086                                          = ??
       CODE:0084 74 c2           MOV        A,#0xc2
                             LAB_CODE_0086                                   XREF[1]:     CODE:0081(j)  
       CODE:0086 f5 fc           MOV        CCAP2H,A                                                   = ??
       CODE:0088 f2              MOVX       @R0,A
       CODE:0089 f2              MOVX       @R0,A
       CODE:008a f2              MOVX       @R0,A
       CODE:008b f2              MOVX       @R0,A
       CODE:008c f2              MOVX       @R0,A
       CODE:008d f2              MOVX       @R0,A
       CODE:008e f2              MOVX       @R0,A
       CODE:008f f2              MOVX       @R0,A
       CODE:0090 f2              MOVX       @R0,A
       CODE:0091 f2              MOVX       @R0,A
       CODE:0092 f2              MOVX       @R0,A
       CODE:0093 f2              MOVX       @R0,A
       CODE:0094 f2              MOVX       @R0,A
       CODE:0095 f2              MOVX       @R0,A
       CODE:0096 f2              MOVX       @R0,A
       CODE:0097 f2              MOVX       @R0,A
       CODE:0098 f2              MOVX       @R0,A
       CODE:0099 f2              ??         F2h
       CODE:009a f2              ??         F2h
       CODE:009b f2              ??         F2h
       CODE:009c f2              ??         F2h
       CODE:009d f2              ??         F2h
       CODE:009e f2              ??         F2h
       CODE:009f f2              ??         F2h
       CODE:00a0 f2              ??         F2h
       CODE:00a1 f2              ??         F2h
       CODE:00a2 f2              ??         F2h
       CODE:00a3 f2              ??         F2h
       CODE:00a4 f2              ??         F2h
       CODE:00a5 f2              ??         F2h
       CODE:00a6 d2              ??         D2h
       CODE:00a7 be              ??         BEh
       CODE:00a8 22              ??         22h    "
                             **************************************************************
                             *                          FUNCTION                          *
                             **************************************************************
                             undefined FUN_CODE_00a9()
             undefined         ACC:1          <RETURN>
                             FUN_CODE_00a9                                   XREF[1]:     CODE:1076(c)  
       CODE:00a9 c2 84           CLR        P0.4                                                       = ??
       CODE:00ab 22              RET
                             **************************************************************
                             *                          FUNCTION                          *
                             **************************************************************
                             undefined FUN_CODE_00ac()
             undefined         ACC:1          <RETURN>
                             FUN_CODE_00ac                                   XREF[1]:     CODE:11ab(c)  
       CODE:00ac d2 84           SETB       P0.4                                                       = ??
       CODE:00ae 22              RET
                             **************************************************************
                             *                          FUNCTION                          *
                             **************************************************************
                             undefined FUN_CODE_00af()
             undefined         ACC:1          <RETURN>
                             FUN_CODE_00af                                   XREF[1]:     CODE:107d(c)  
       CODE:00af 75 e3 01        MOV        RXDAT,#0x1                                                 = ??
       CODE:00b2 75 e3 00        MOV        RXDAT,#0x0                                                 = ??
       CODE:00b5 75 e3 01        MOV        RXDAT,#0x1                                                 = ??
       CODE:00b8 75 e3 00        MOV        RXDAT,#0x0                                                 = ??
       CODE:00bb 22              RET
                             **************************************************************
                             *                          FUNCTION                          *
                             **************************************************************
                             undefined FUN_CODE_00bc()
             undefined         ACC:1          <RETURN>
                             FUN_CODE_00bc                                   XREF[1]:     CODE:0ffa(c)  
       CODE:00bc d2 a0           SETB       P2.0                                                       = ??
       CODE:00be 22              RET
                             **************************************************************
                             *                          FUNCTION                          *
                             **************************************************************
                             undefined FUN_CODE_00bf()
             undefined         ACC:1          <RETURN>
                             FUN_CODE_00bf                                   XREF[1]:     CODE:0ea0(c)  
       CODE:00bf c2 a0           CLR        P2.0                                                       = ??
       CODE:00c1 22              RET
                             **************************************************************
                             *                          FUNCTION                          *
                             **************************************************************
                             undefined FUN_CODE_00c2()
             undefined         ACC:1          <RETURN>
                             FUN_CODE_00c2                                   XREF[1]:     CODE:10ca(c)  
       CODE:00c2 c2 a3           CLR        P2.3                                                       = ??
       CODE:00c4 22              RET
                             **************************************************************
                             *                          FUNCTION                          *
                             **************************************************************
                             undefined FUN_CODE_00c5()
             undefined         ACC:1          <RETURN>
                             FUN_CODE_00c5                                   XREF[2]:     CODE:10cd(c), CODE:111a(c)  
       CODE:00c5 d2 a3           SETB       P2.3                                                       = ??
       CODE:00c7 22              RET
                             **************************************************************
                             *                          FUNCTION                          *
                             **************************************************************
                             undefined FUN_CODE_00c8()
             undefined         ACC:1          <RETURN>
                             FUN_CODE_00c8                                   XREF[5]:     FUN_CODE_2036:2054(c), 
                                                                                          FUN_CODE_2092:2095(c), 
                                                                                          FUN_CODE_20a7:20aa(c), 
                                                                                          CODE:212d(c), CODE:2166(c)  
       CODE:00c8 e4              CLR        A
       CODE:00c9 a2 cf           MOV        CY,TF2                                                     = ??
       CODE:00cb 92 e0           MOV        ACC.0,CY                                                   = ??
       CODE:00cd a2 ce           MOV        CY,EXF2                                                    = ??
       CODE:00cf 22              RET
                             **************************************************************
                             *                          FUNCTION                          *
                             **************************************************************
                             undefined FUN_CODE_00d0()
             undefined         ACC:1          <RETURN>
                             FUN_CODE_00d0                                   XREF[1]:     CODE:2110(c)  
       CODE:00d0 d2 cf           SETB       TF2                                                        = ??
       CODE:00d2 22              RET
                             **************************************************************
                             *                          FUNCTION                          *
                             **************************************************************
                             undefined FUN_CODE_00d3()
             undefined         ACC:1          <RETURN>
                             FUN_CODE_00d3                                   XREF[2]:     CODE:20f8(c), CODE:210b(c)  
       CODE:00d3 c2 cf           CLR        TF2                                                        = ??
       CODE:00d5 22              RET
                             **************************************************************
                             *                          FUNCTION                          *
                             **************************************************************
                             undefined FUN_CODE_00d6()
             undefined         ACC:1          <RETURN>
                             FUN_CODE_00d6                                   XREF[4]:     FUN_CODE_2036:2043(c), 
                                                                                          FUN_CODE_2036:207a(c), 
                                                                                          FUN_CODE_2092:20a2(c), 
                                                                                          FUN_CODE_20a7:20af(c)  
       CODE:00d6 b2 cf           CPL        TF2                                                        = ??
       CODE:00d8 22              RET
                             **************************************************************
                             *                          FUNCTION                          *
                             **************************************************************
                             undefined FUN_CODE_00d9()
             undefined         ACC:1          <RETURN>
                             FUN_CODE_00d9                                   XREF[1]:     FUN_CODE_0756:077b(c)  
       CODE:00d9 e5 8f           MOV        A,FADDR                                                    = ??
       CODE:00db 54 30           ANL        A,#0x30
       CODE:00dd 30 d0 06        JNB        P,LAB_CODE_00e6                                            = ??
       CODE:00e0 20 e4 06        JB         ACC.4,LAB_CODE_00e9                                        = ??
       CODE:00e3 74 ff           MOV        A,#0xff
       CODE:00e5 22              RET
                             LAB_CODE_00e6                                   XREF[1]:     CODE:00dd(j)  
       CODE:00e6 74 00           MOV        A,#0x0
       CODE:00e8 22              RET
                             LAB_CODE_00e9                                   XREF[1]:     CODE:00e0(j)  
       CODE:00e9 74 f0           MOV        A,#0xf0
       CODE:00eb 22              RET
                             **************************************************************
                             *                          FUNCTION                          *
                             **************************************************************
                             undefined FUN_CODE_00ec()
             undefined         ACC:1          <RETURN>
                             FUN_CODE_00ec                                   XREF[1]:     CODE:139e(c)  
       CODE:00ec 22              RET
                             **************************************************************
                             *                          FUNCTION                          *
                             **************************************************************
                             undefined FUN_CODE_00ed()
             undefined         ACC:1          <RETURN>
                             FUN_CODE_00ed                                   XREF[1]:     CODE:1399(c)  
       CODE:00ed 22              RET
                             **************************************************************
                             *                          FUNCTION                          *
                             **************************************************************
                             undefined FUN_CODE_00ee()
             undefined         ACC:1          <RETURN>
                             FUN_CODE_00ee                                   XREF[1]:     CODE:1390(c)  
       CODE:00ee 22              RET
                             **************************************************************
                             *                          FUNCTION                          *
                             **************************************************************
                             undefined FUN_CODE_00ef()
             undefined         ACC:1          <RETURN>
                             FUN_CODE_00ef                                   XREF[1]:     CODE:138b(c)  
       CODE:00ef 22              RET
                             **************************************************************
                             *                          FUNCTION                          *
                             **************************************************************
                             undefined FUN_CODE_00f0()
             undefined         ACC:1          <RETURN>
                             FUN_CODE_00f0                                   XREF[1]:     CODE:1382(c)  
       CODE:00f0 d2 c0           SETB       FIFLG.0                                                    = ??
       CODE:00f2 22              RET
                             **************************************************************
                             *                          FUNCTION                          *
                             **************************************************************
                             undefined FUN_CODE_00f3()
             undefined         ACC:1          <RETURN>
                             FUN_CODE_00f3                                   XREF[1]:     CODE:137d(c)  
       CODE:00f3 c2 c0           CLR        FIFLG.0                                                    = ??
       CODE:00f5 22              RET
                             **************************************************************
                             *                          FUNCTION                          *
                             **************************************************************
                             undefined FUN_CODE_00f6()
             undefined         ACC:1          <RETURN>
                             FUN_CODE_00f6                                   XREF[1]:     CODE:21ff(c)  
       CODE:00f6 e5 e2           MOV        A,RXSTAT                                                   = ??
       CODE:00f8 a2 e4           MOV        CY,ACC.4                                                   = ??
       CODE:00fa 22              RET
       CODE:00fb 00              ??         00h
       CODE:00fc 00              ??         00h
       CODE:00fd 00              ??         00h
       CODE:00fe 00              ??         00h
       CODE:00ff 00              ??         00h
       CODE:0100 21              ??         21h    !
       CODE:0101 01              ??         01h
       CODE:0102 0a              ??         0Ah
       CODE:0103 01              ??         01h
       CODE:0104 01              ??         01h
       CODE:0105 08              ??         08h
       CODE:0106 00              ??         00h
       CODE:0107 00              ??         00h
       CODE:0108 20              ??         20h     
       CODE:0109 20              ??         20h     
       CODE:010a 20              ??         20h     
       CODE:010b 3c              ??         3Ch    <
       CODE:010c 43              ??         43h    C
       CODE:010d 6f              ??         6Fh    o
       CODE:010e 70              ??         70h    p
       CODE:010f 79              ??         79h    y
       CODE:0110 72              ??         72h    r
       CODE:0111 69              ??         69h    i
       CODE:0112 67              ??         67h    g
       CODE:0113 68              ??         68h    h
       CODE:0114 74              ??         74h    t
       CODE:0115 20              ??         20h     
       CODE:0116 32              ??         32h    2
       CODE:0117 30              ??         30h    0
       CODE:0118 30              ??         30h    0
       CODE:0119 31              ??         31h    1
       CODE:011a 2d              ??         2Dh    -
       CODE:011b 32              ??         32h    2
       CODE:011c 30              ??         30h    0
       CODE:011d 30              ??         30h    0
       CODE:011e 35              ??         35h    5
       CODE:011f 20              ??         20h     
       CODE:0120 4d              ??         4Dh    M
       CODE:0121 69              ??         69h    i
       CODE:0122 63              ??         63h    c
       CODE:0123 72              ??         72h    r
       CODE:0124 6f              ??         6Fh    o
       CODE:0125 73              ??         73h    s
       CODE:0126 6f              ??         6Fh    o
       CODE:0127 66              ??         66h    f
       CODE:0128 74              ??         74h    t
       CODE:0129 3e              ??         3Eh    >
       CODE:012a 20              ??         20h     
       CODE:012b 20              ??         20h     
       CODE:012c 20              ??         20h     
                             **************************************************************
                             *                          FUNCTION                          *
                             **************************************************************
                             undefined FUN_CODE_012d()
             undefined         ACC:1          <RETURN>
                             FUN_CODE_012d                                   XREF[18]:    CODE:0004(c), CODE:0008(c), 
                                                                                          CODE:000c(c), CODE:000e(c), 
                                                                                          CODE:0010(c), CODE:0014(c), 
                                                                                          CODE:0016(c), CODE:0018(c), 
                                                                                          CODE:001a(c), CODE:001c(c), 
                                                                                          CODE:001e(c), CODE:0020(c), 
                                                                                          CODE:0022(c), CODE:0024(c), 
                                                                                          CODE:0026(c), CODE:0028(c), 
                                                                                          CODE:002a(c), CODE:002c(c)  
       CODE:012d 43 bc 36        ORL        DAT_SFR_bc,#0x36                                           = ??
       CODE:0130 43 bd ff        ORL        DAT_SFR_bd,#0xff                                           = ??
       CODE:0133 43 bd 3f        ORL        DAT_SFR_bd,#0x3f                                           = ??
       CODE:0136 32              RETI
                             **************************************************************
                             *                       THUNK FUNCTION                       *
                             **************************************************************
                             thunk undefined thunk_FUN_CODE_2333()
                               Thunked-Function: FUN_CODE_2333
             undefined         ACC:1          <RETURN>
                             thunk_FUN_CODE_2333                             XREF[1]:     CODE:002e(c)  
       CODE:0137 02 23 33        LJMP       FUN_CODE_2333
                             **************************************************************
                             *                          FUNCTION                          *
                             **************************************************************
                             undefined FUN_CODE_013a()
             undefined         ACC:1          <RETURN>
                             FUN_CODE_013a                                   XREF[1]:     CODE:0002(c)  
       CODE:013a 43 bf 01        ORL        DAT_SFR_bf,#0x1                                            = ??
       CODE:013d c0 e0           PUSH       A
       CODE:013f c0 d0           PUSH       PSW
       CODE:0141 d2 d3           SETB       RS0                                                        = ??
       CODE:0143 43 8f 02        ORL        FADDR,#0x2                                                 = ??
       CODE:0146 05 76           INC        DAT_INTMEM_76                                              = ??
       CODE:0148 c2 bf           CLR        IP.7                                                       = ??
       CODE:014a 30 59 09        JNB        2b.1,LAB_CODE_0156                                         = ??
       CODE:014d d1 48           ACALL      FUN_CODE_0648                                              undefined FUN_CODE_0648()
       CODE:014f d1 2f           ACALL      FUN_CODE_062f                                              undefined FUN_CODE_062f()
       CODE:0151 20 cd 02        JB         RCLK,LAB_CODE_0156                                         = ??
       CODE:0154 05 77           INC        DAT_INTMEM_77                                              = ??
                             LAB_CODE_0156                                   XREF[2]:     CODE:014a(j), CODE:0151(j)  
       CODE:0156 53 8f fd        ANL        FADDR,#0xfd                                                = ??
       CODE:0159 c2 d3           CLR        RS0                                                        = ??
       CODE:015b d0 d0           POP        PSW
       CODE:015d d0 e0           POP        A
       CODE:015f 53 bf fe        ANL        DAT_SFR_bf,#0xfe                                           = ??
       CODE:0162 32              RETI
                             **************************************************************
                             *                          FUNCTION                          *
                             **************************************************************
                             undefined FUN_CODE_0163()
             undefined         ACC:1          <RETURN>
                             FUN_CODE_0163                                   XREF[2]:     CODE:000a(c), CODE:0012(c)  
       CODE:0163 43 bf 01        ORL        DAT_SFR_bf,#0x1                                            = ??
       CODE:0166 c0 e0           PUSH       A
       CODE:0168 c0 d0           PUSH       PSW
       CODE:016a d2 d3           SETB       RS0                                                        = ??
       CODE:016c 43 8f 02        ORL        FADDR,#0x2                                                 = ??
       CODE:016f 43 bc 01        ORL        DAT_SFR_bc,#0x1                                            = ??
       CODE:0172 e5 10           MOV        A,BANK2_R0                                                 = ??
       CODE:0174 23              RL         A
       CODE:0175 90 01 79        MOV        DPTR,#LAB_CODE_0179
       CODE:0178 73              JMP        @A+DPTR
                             LAB_CODE_0179                                   XREF[1]:     FUN_CODE_0163:0175(*)  
       CODE:0179 21 9f           AJMP       LAB_CODE_019f
       CODE:017b 21 bb           AJMP       LAB_CODE_01bb
       CODE:017d 21 d2           AJMP       LAB_CODE_01d2
       CODE:017f 41 29           AJMP       LAB_CODE_0229
       CODE:0181 41 40           AJMP       LAB_CODE_0240
       CODE:0183 41 61           AJMP       LAB_CODE_0261
       CODE:0185 41 78           AJMP       LAB_CODE_0278
                             LAB_CODE_0187                                   XREF[10]:    CODE:01af(j), CODE:01b4(j), 
                                                                                          CODE:01b9(j), CODE:01d0(j), 
                                                                                          CODE:01f4(j), CODE:020d(j), 
                                                                                          CODE:023e(j), CODE:0256(j), 
                                                                                          CODE:0276(j), CODE:029a(j)  
       CODE:0187 75 8b 8a        MOV        TL1,#0x8a                                                  = ??
       CODE:018a 75 8c ff        MOV        TH0,#0xff                                                  = ??
       CODE:018d d2 8a           SETB       IT1                                                        = ??
       CODE:018f 53 bc fe        ANL        DAT_SFR_bc,#0xfe                                           = ??
                             LAB_CODE_0192                                   XREF[1]:     CODE:021b(j)  
       CODE:0192 53 8f fd        ANL        FADDR,#0xfd                                                = ??
       CODE:0195 c2 d3           CLR        RS0                                                        = ??
       CODE:0197 d0 d0           POP        PSW
       CODE:0199 d0 e0           POP        A
       CODE:019b 53 bf fe        ANL        DAT_SFR_bf,#0xfe                                           = ??
       CODE:019e 32              RETI
                             LAB_CODE_019f                                   XREF[1]:     CODE:0179(j)  
       CODE:019f c2 d9           CLR        CCF.1                                                      = ??
       CODE:01a1 d2 db           SETB       CCF.3                                                      = ??
       CODE:01a3 75 1b 08        MOV        BANK3_R3,#0x8                                              = ??
       CODE:01a6 20 5b 08        JB         2b.3,LAB_CODE_01b1                                         = ??
       CODE:01a9 20 5c 0a        JB         2b.4,LAB_CODE_01b6                                         = ??
       CODE:01ac 75 10 05        MOV        BANK2_R0,#0x5                                              = ??
       CODE:01af 21 87           AJMP       LAB_CODE_0187
                             LAB_CODE_01b1                                   XREF[1]:     CODE:01a6(j)  
       CODE:01b1 75 10 01        MOV        BANK2_R0,#0x1                                              = ??
       CODE:01b4 21 87           AJMP       LAB_CODE_0187
                             LAB_CODE_01b6                                   XREF[2]:     CODE:01a9(j), CODE:0207(j)  
       CODE:01b6 75 10 03        MOV        BANK2_R0,#0x3                                              = ??
       CODE:01b9 21 87           AJMP       LAB_CODE_0187
                             LAB_CODE_01bb                                   XREF[1]:     CODE:017b(j)  
       CODE:01bb c2 db           CLR        CCF.3                                                      = ??
       CODE:01bd 30 d9 5d        JNB        CCF.1,LAB_CODE_021d                                        = ??
       CODE:01c0 e5 1b           MOV        A,BANK3_R3                                                 = ??
       CODE:01c2 b5 d9 5f        CJNE       A,CMOD,LAB_CODE_0224                                       = ??
       CODE:01c5 85 11 da        MOV        CCAPM0,BANK2_R1                                            = ??
       CODE:01c8 c2 d9           CLR        CCF.1                                                      = ??
       CODE:01ca 75 1b 18        MOV        BANK3_R3,#0x18                                             = ??
       CODE:01cd 75 10 02        MOV        BANK2_R0,#0x2                                              = ??
       CODE:01d0 21 87           AJMP       LAB_CODE_0187
                             LAB_CODE_01d2                                   XREF[1]:     CODE:017d(j)  
       CODE:01d2 30 d9 48        JNB        CCF.1,LAB_CODE_021d                                        = ??
       CODE:01d5 e5 1b           MOV        A,BANK3_R3                                                 = ??
       CODE:01d7 b5 d9 4a        CJNE       A,CMOD,LAB_CODE_0224                                       = ??
       CODE:01da e5 12           MOV        A,BANK2_R2                                                 = ??
       CODE:01dc 60 18           JZ         LAB_CODE_01f6
       CODE:01de 15 12           DEC        BANK2_R2                                                   = ??
       CODE:01e0 20 5a 09        JB         2b.2,LAB_CODE_01ec                                         = ??
       CODE:01e3 74 15           MOV        A,#0x15
       CODE:01e5 25 12           ADD        A,BANK2_R2                                                 = ??
       CODE:01e7 f8              MOV        R0,A
       CODE:01e8 86 da           MOV        CCAPM0,@R0                                                 = ??
       CODE:01ea 21 ef           AJMP       LAB_CODE_01ef
                             LAB_CODE_01ec                                   XREF[1]:     CODE:01e0(j)  
       CODE:01ec 85 e1 da        MOV        CCAPM0,EPCON                                               = ??
                             LAB_CODE_01ef                                   XREF[1]:     CODE:01ea(j)  
       CODE:01ef c2 d9           CLR        CCF.1                                                      = ??
       CODE:01f1 75 1b 28        MOV        BANK3_R3,#0x28                                             = ??
       CODE:01f4 21 87           AJMP       LAB_CODE_0187
                             LAB_CODE_01f6                                   XREF[1]:     CODE:01dc(j)  
       CODE:01f6 20 5c 07        JB         2b.4,LAB_CODE_0200                                         = ??
       CODE:01f9 20 5d 04        JB         2b.5,LAB_CODE_0200                                         = ??
       CODE:01fc c2 5f           CLR        2b.7                                                       = ??
       CODE:01fe 41 0f           AJMP       LAB_CODE_020f
                             LAB_CODE_0200                                   XREF[3]:     CODE:01f6(j), CODE:01f9(j), 
                                                                                          CODE:025a(j)  
       CODE:0200 d2 db           SETB       CCF.3                                                      = ??
       CODE:0202 c2 d9           CLR        CCF.1                                                      = ??
       CODE:0204 75 1b 10        MOV        BANK3_R3,#0x10                                             = ??
       CODE:0207 20 5c ac        JB         2b.4,LAB_CODE_01b6                                         = ??
       CODE:020a 75 10 05        MOV        BANK2_R0,#0x5                                              = ??
       CODE:020d 21 87           AJMP       LAB_CODE_0187
                             LAB_CODE_020f                                   XREF[4]:     CODE:01fe(j), CODE:021f(j), 
                                                                                          CODE:025f(j), CODE:0289(j)  
       CODE:020f d2 da           SETB       CCF.2                                                      = ??
       CODE:0211 c2 d9           CLR        CCF.1                                                      = ??
                             LAB_CODE_0213                                   XREF[2]:     CODE:0222(j), CODE:0227(j)  
       CODE:0213 43 bc 08        ORL        DAT_SFR_bc,#0x8                                            = ??
       CODE:0216 c2 5e           CLR        2b.6                                                       = ??
       CODE:0218 75 10 00        MOV        BANK2_R0,#0x0                                              = ??
       CODE:021b 21 92           AJMP       LAB_CODE_0192
                             LAB_CODE_021d                                   XREF[7]:     CODE:01bd(j), CODE:01d2(j), 
                                                                                          CODE:0224(j), CODE:022b(j), 
                                                                                          CODE:0240(j), CODE:0263(j), 
                                                                                          CODE:0278(j)  
       CODE:021d e5 1b           MOV        A,BANK3_R3                                                 = ??
       CODE:021f b4 08 ed        CJNE       A,#0x8,LAB_CODE_020f
       CODE:0222 41 13           AJMP       LAB_CODE_0213
                             LAB_CODE_0224                                   XREF[6]:     CODE:01c2(j), CODE:01d7(j), 
                                                                                          CODE:0230(j), CODE:0245(j), 
                                                                                          CODE:0268(j), CODE:027d(j)  
       CODE:0224 b4 00 f6        CJNE       A,#0x0,LAB_CODE_021d
       CODE:0227 41 13           AJMP       LAB_CODE_0213
                             LAB_CODE_0229                                   XREF[1]:     CODE:017f(j)  
       CODE:0229 c2 db           CLR        CCF.3                                                      = ??
       CODE:022b 30 d9 ef        JNB        CCF.1,LAB_CODE_021d                                        = ??
       CODE:022e e5 1b           MOV        A,BANK3_R3                                                 = ??
       CODE:0230 b5 d9 f1        CJNE       A,CMOD,LAB_CODE_0224                                       = ??
       CODE:0233 85 15 da        MOV        CCAPM0,BANK2_R5                                            = ??
       CODE:0236 c2 d9           CLR        CCF.1                                                      = ??
       CODE:0238 75 1b 18        MOV        BANK3_R3,#0x18                                             = ??
       CODE:023b 75 10 04        MOV        BANK2_R0,#0x4                                              = ??
       CODE:023e 21 87           AJMP       LAB_CODE_0187
                             LAB_CODE_0240                                   XREF[1]:     CODE:0181(j)  
       CODE:0240 30 d9 da        JNB        CCF.1,LAB_CODE_021d                                        = ??
       CODE:0243 e5 1b           MOV        A,BANK3_R3                                                 = ??
       CODE:0245 b5 d9 dc        CJNE       A,CMOD,LAB_CODE_0224                                       = ??
       CODE:0248 e5 16           MOV        A,BANK2_R6                                                 = ??
       CODE:024a 60 0c           JZ         LAB_CODE_0258
       CODE:024c 85 e1 da        MOV        CCAPM0,EPCON                                               = ??
       CODE:024f 15 16           DEC        BANK2_R6                                                   = ??
       CODE:0251 c2 d9           CLR        CCF.1                                                      = ??
       CODE:0253 75 1b 28        MOV        BANK3_R3,#0x28                                             = ??
       CODE:0256 21 87           AJMP       LAB_CODE_0187
                             LAB_CODE_0258                                   XREF[1]:     CODE:024a(j)  
       CODE:0258 c2 5c           CLR        2b.4                                                       = ??
       CODE:025a 20 5d a3        JB         2b.5,LAB_CODE_0200                                         = ??
       CODE:025d c2 5f           CLR        2b.7                                                       = ??
       CODE:025f 41 0f           AJMP       LAB_CODE_020f
                             LAB_CODE_0261                                   XREF[1]:     CODE:0183(j)  
       CODE:0261 c2 db           CLR        CCF.3                                                      = ??
       CODE:0263 30 d9 b7        JNB        CCF.1,LAB_CODE_021d                                        = ??
       CODE:0266 e5 1b           MOV        A,BANK3_R3                                                 = ??
       CODE:0268 b5 d9 b9        CJNE       A,CMOD,LAB_CODE_0224                                       = ??
       CODE:026b 85 13 da        MOV        CCAPM0,BANK2_R3                                            = ??
       CODE:026e c2 d9           CLR        CCF.1                                                      = ??
       CODE:0270 75 1b 40        MOV        BANK3_R3,#0x40                                             = ??
       CODE:0273 75 10 06        MOV        BANK2_R0,#0x6                                              = ??
       CODE:0276 21 87           AJMP       LAB_CODE_0187
                             LAB_CODE_0278                                   XREF[1]:     CODE:0185(j)  
       CODE:0278 30 d9 a2        JNB        CCF.1,LAB_CODE_021d                                        = ??
       CODE:027b e5 1b           MOV        A,BANK3_R3                                                 = ??
       CODE:027d b5 d9 a4        CJNE       A,CMOD,LAB_CODE_0224                                       = ??
       CODE:0280 b4 40 19        CJNE       A,#0x40,LAB_CODE_029c
                             LAB_CODE_0283                                   XREF[2]:     CODE:02a6(j), CODE:02ab(j)  
       CODE:0283 e5 14           MOV        A,BANK2_R4                                                 = ??
       CODE:0285 70 04           JNZ        LAB_CODE_028b
       CODE:0287 c2 5f           CLR        2b.7                                                       = ??
       CODE:0289 41 0f           AJMP       LAB_CODE_020f
                             LAB_CODE_028b                                   XREF[1]:     CODE:0285(j)  
       CODE:028b d2 d8           SETB       CCF.0                                                      = ??
       CODE:028d 75 1b 50        MOV        BANK3_R3,#0x50                                             = ??
       CODE:0290 d5 14 05        DJNZ       BANK2_R4,LAB_CODE_0298                                     = ??
       CODE:0293 c2 d8           CLR        CCF.0                                                      = ??
       CODE:0295 75 1b 58        MOV        BANK3_R3,#0x58                                             = ??
                             LAB_CODE_0298                                   XREF[1]:     CODE:0290(j)  
       CODE:0298 c2 d9           CLR        CCF.1                                                      = ??
       CODE:029a 21 87           AJMP       LAB_CODE_0187
                             LAB_CODE_029c                                   XREF[1]:     CODE:0280(j)  
       CODE:029c 20 5a 09        JB         2b.2,LAB_CODE_02a8                                         = ??
       CODE:029f 74 15           MOV        A,#0x15
       CODE:02a1 25 14           ADD        A,BANK2_R4                                                 = ??
       CODE:02a3 f8              MOV        R0,A
       CODE:02a4 a6 da           MOV        @R0,CCAPM0                                                 = ??
       CODE:02a6 41 83           AJMP       LAB_CODE_0283
                             LAB_CODE_02a8                                   XREF[1]:     CODE:029c(j)  
       CODE:02a8 85 da d5        MOV        HPSC,CCAPM0                                                = ??
       CODE:02ab 41 83           AJMP       LAB_CODE_0283
                             **************************************************************
                             *                          FUNCTION                          *
                             **************************************************************
                             undefined FUN_CODE_02ad()
             undefined         ACC:1          <RETURN>
                             FUN_CODE_02ad                                   XREF[3]:     FUN_CODE_22f9:22fe(c), 
                                                                                          FUN_CODE_258f:25a8(c), 
                                                                                          CODE:25ce(c)  
       CODE:02ad 43 a6 01        ORL        WDTRST,#0x1                                                = ??
       CODE:02b0 43 a6 02        ORL        WDTRST,#0x2                                                = ??
       CODE:02b3 43 a5 10        ORL        DAT_SFR_a5,#0x10                                           = ??
       CODE:02b6 43 a6 08        ORL        WDTRST,#0x8                                                = ??
       CODE:02b9 43 a7 01        ORL        WCON,#0x1                                                  = ??
       CODE:02bc 43 a7 02        ORL        WCON,#0x2                                                  = ??
       CODE:02bf d2 c8           SETB       CPRL2                                                      = ??
       CODE:02c1 d2 c9           SETB       CT2                                                        = ??
       CODE:02c3 53 a6 fe        ANL        WDTRST,#0xfe                                               = ??
       CODE:02c6 53 a6 fd        ANL        WDTRST,#0xfd                                               = ??
       CODE:02c9 75 dc 03        MOV        CCAPM2,#0x3                                                = ??
       CODE:02cc c2 df           CLR        CF                                                         = ??
       CODE:02ce 22              RET
       CODE:02cf 00              ??         00h
       CODE:02d0 00              ??         00h
       CODE:02d1 00              ??         00h
       CODE:02d2 00              ??         00h
       CODE:02d3 00              ??         00h
       CODE:02d4 00              ??         00h
       CODE:02d5 00              ??         00h
       CODE:02d6 00              ??         00h
       CODE:02d7 00              ??         00h
       CODE:02d8 00              ??         00h
       CODE:02d9 00              ??         00h
       CODE:02da 00              ??         00h
       CODE:02db 00              ??         00h
       CODE:02dc 00              ??         00h
       CODE:02dd 00              ??         00h
       CODE:02de 00              ??         00h
       CODE:02df 00              ??         00h
       CODE:02e0 00              ??         00h
       CODE:02e1 00              ??         00h
                             LAB_CODE_02e2                                   XREF[1]:     CODE:030c(j)  
       CODE:02e2 b4 04 07        CJNE       A,#0x4,LAB_CODE_02ec
       CODE:02e5 7a ff           MOV        R2,#0xff
       CODE:02e7 63 75 ff        XRL        DAT_INTMEM_75,#0xff                                        = ??
       CODE:02ea 61 1b           AJMP       LAB_CODE_031b
                             LAB_CODE_02ec                                   XREF[2]:     CODE:02e2(j), CODE:0318(j)  
       CODE:02ec 91 96           ACALL      FUN_CODE_0496                                              undefined FUN_CODE_0496()
                             LAB_CODE_02ee                                   XREF[11]:    CODE:03a7(j), CODE:03b6(j), 
                                                                                          CODE:03c5(j), CODE:03e1(j), 
                                                                                          CODE:03ef(j), CODE:03fd(j), 
                                                                                          CODE:0402(j), CODE:0421(j), 
                                                                                          CODE:0437(j), CODE:045b(j), 
                                                                                          CODE:048c(j)  
       CODE:02ee 75 b0 85        MOV        P3,#0x85                                                   = ??
       CODE:02f1 53 8f fd        ANL        FADDR,#0xfd                                                = ??
       CODE:02f4 c2 d3           CLR        RS0                                                        = ??
       CODE:02f6 d0 d0           POP        PSW
       CODE:02f8 d0 e0           POP        A
       CODE:02fa 53 bf fe        ANL        DAT_SFR_bf,#0xfe                                           = ??
       CODE:02fd 32              RETI
                             **************************************************************
                             *                          FUNCTION                          *
                             **************************************************************
                             undefined FUN_CODE_02fe()
             undefined         ACC:1          <RETURN>
                             FUN_CODE_02fe                                   XREF[1]:     CODE:0006(c)  
       CODE:02fe 43 bf 01        ORL        DAT_SFR_bf,#0x1                                            = ??
       CODE:0301 c0 e0           PUSH       A
       CODE:0303 c0 d0           PUSH       PSW
       CODE:0305 d2 d3           SETB       RS0                                                        = ??
       CODE:0307 43 8f 02        ORL        FADDR,#0x2                                                 = ??
       CODE:030a e5 b0           MOV        A,P3                                                       = ??
       CODE:030c b4 01 d3        CJNE       A,#0x1,LAB_CODE_02e2
       CODE:030f aa b5           MOV        R2,DAT_SFR_b5                                              = ??
       CODE:0311 85 b6 75        MOV        DAT_INTMEM_75,DAT_SFR_b6                                   = ??
       CODE:0314 e5 75           MOV        A,DAT_INTMEM_75                                            = ??
       CODE:0316 54 f0           ANL        A,#0xf0
       CODE:0318 b4 10 d1        CJNE       A,#0x10,LAB_CODE_02ec
                             LAB_CODE_031b                                   XREF[3]:     CODE:02ea(j), CODE:0429(j), 
                                                                                          CODE:0463(j)  
       CODE:031b 30 60 02        JNB        2c.0,LAB_CODE_0320                                         = ??
       CODE:031e 61 ff           AJMP       LAB_CODE_03ff
                             LAB_CODE_0320                                   XREF[1]:     CODE:031b(j)  
       CODE:0320 c3              CLR        CY
       CODE:0321 e5 6f           MOV        A,DAT_INTMEM_6f                                            = ??
       CODE:0323 13              RRC        A
       CODE:0324 83              MOVC       A,@A+PC
       CODE:0325 50 01           JNC        LAB_CODE_0328
       CODE:0327 c4              SWAP       A
                             LAB_CODE_0328                                   XREF[1]:     CODE:0325(j)  
       CODE:0328 54 0f           ANL        A,#0xf
       CODE:032a 23              RL         A
       CODE:032b 90 03 78        MOV        DPTR,#switchD_CODE:032e::caseD_0
                             switchD_CODE:032e::switchD
       CODE:032e 73              JMP        @A+DPTR
       CODE:032f 10              ??         10h
       CODE:0330 33              ??         33h    3
       CODE:0331 33              ??         33h    3
       CODE:0332 43              ??         43h    C
       CODE:0333 43              ??         43h    C
       CODE:0334 45              ??         45h    E
       CODE:0335 33              ??         33h    3
       CODE:0336 33              ??         33h    3
       CODE:0337 33              ??         33h    3
       CODE:0338 33              ??         33h    3
       CODE:0339 33              ??         33h    3
       CODE:033a 33              ??         33h    3
       CODE:033b 33              ??         33h    3
       CODE:033c 33              ??         33h    3
       CODE:033d 33              ??         33h    3
       CODE:033e 33              ??         33h    3
       CODE:033f 34              ??         34h    4
       CODE:0340 33              ??         33h    3
       CODE:0341 33              ??         33h    3
       CODE:0342 73              ??         73h    s
       CODE:0343 76              ??         76h    v
       CODE:0344 76              ??         76h    v
       CODE:0345 76              ??         76h    v
       CODE:0346 76              ??         76h    v
       CODE:0347 43              ??         43h    C
       CODE:0348 34              ??         34h    4
       CODE:0349 73              ??         73h    s
       CODE:034a 76              ??         76h    v
       CODE:034b 76              ??         76h    v
       CODE:034c 76              ??         76h    v
       CODE:034d 76              ??         76h    v
       CODE:034e 76              ??         76h    v
       CODE:034f 76              ??         76h    v
       CODE:0350 76              ??         76h    v
       CODE:0351 76              ??         76h    v
       CODE:0352 82              ??         82h
       CODE:0353 a8              ??         A8h
       CODE:0354 a9              ??         A9h
       CODE:0355 a9              ??         A9h
       CODE:0356 a9              ??         A9h
       CODE:0357 a9              ??         A9h
       CODE:0358 a9              ??         A9h
       CODE:0359 a9              ??         A9h
       CODE:035a a9              ??         A9h
       CODE:035b a9              ??         A9h
       CODE:035c a9              ??         A9h
       CODE:035d a9              ??         A9h
       CODE:035e b9              ??         B9h
       CODE:035f a9              ??         A9h
       CODE:0360 a9              ??         A9h
       CODE:0361 a9              ??         A9h
       CODE:0362 a9              ??         A9h
       CODE:0363 a9              ??         A9h
       CODE:0364 a9              ??         A9h
       CODE:0365 a9              ??         A9h
       CODE:0366 a9              ??         A9h
       CODE:0367 a9              ??         A9h
       CODE:0368 a9              ??         A9h
       CODE:0369 a9              ??         A9h
       CODE:036a a9              ??         A9h
       CODE:036b a9              ??         A9h
       CODE:036c a9              ??         A9h
       CODE:036d a9              ??         A9h
       CODE:036e a9              ??         A9h
       CODE:036f a9              ??         A9h
       CODE:0370 a9              ??         A9h
       CODE:0371 a9              ??         A9h
       CODE:0372 a9              ??         A9h
       CODE:0373 a9              ??         A9h
       CODE:0374 a9              ??         A9h
       CODE:0375 a9              ??         A9h
       CODE:0376 a9              ??         A9h
       CODE:0377 02              ??         02h
                             switchD_CODE:032e::caseD_0                      XREF[2]:     CODE:032b(*), CODE:032e(j)  
       CODE:0378 61 90           AJMP       switchD_CODE:032e::caseD_c
                             switchD_CODE:032e::caseD_1                      XREF[1]:     CODE:032e(j)  
       CODE:037a 61 a9           AJMP       LAB_CODE_03a9
                             switchD_CODE:032e::caseD_2                      XREF[1]:     CODE:032e(j)  
       CODE:037c 61 c7           AJMP       LAB_CODE_03c7
                             switchD_CODE:032e::caseD_3                      XREF[1]:     CODE:032e(j)  
       CODE:037e 61 d5           AJMP       LAB_CODE_03d5
                             switchD_CODE:032e::caseD_4                      XREF[1]:     CODE:032e(j)  
       CODE:0380 61 e3           AJMP       LAB_CODE_03e3
                             switchD_CODE:032e::caseD_5                      XREF[1]:     CODE:032e(j)  
       CODE:0382 61 f1           AJMP       LAB_CODE_03f1
                             switchD_CODE:032e::caseD_6                      XREF[1]:     CODE:032e(j)  
       CODE:0384 81 04           AJMP       LAB_CODE_0404
                             switchD_CODE:032e::caseD_7                      XREF[1]:     CODE:032e(j)  
       CODE:0386 81 15           AJMP       LAB_CODE_0415
                             switchD_CODE:032e::caseD_8                      XREF[1]:     CODE:032e(j)  
       CODE:0388 81 2b           AJMP       LAB_CODE_042b
                             switchD_CODE:032e::caseD_9                      XREF[1]:     CODE:032e(j)  
       CODE:038a 81 39           AJMP       LAB_CODE_0439
                             switchD_CODE:032e::caseD_a                      XREF[1]:     CODE:032e(j)  
       CODE:038c 81 4f           AJMP       LAB_CODE_044f
                             switchD_CODE:032e::caseD_b                      XREF[1]:     CODE:032e(j)  
       CODE:038e 81 65           AJMP       LAB_CODE_0465
                             caseD_d (CODE:0390+2)                           XREF[2,1]:   CODE:032e(j), CODE:0378(j), 
                             switchD_CODE:032e::caseD_c                                   CODE:032e(j)  
       CODE:0390 75 74 00        MOV        DAT_INTMEM_74,#0x0                                         = ??
                             caseD_e (CODE:0393+1)                           XREF[0,1]:   CODE:032e(j)  
       CODE:0393 75 70 00        MOV        DAT_INTMEM_70,#0x0                                         = ??
                             switchD_CODE:032e::caseD_f                      XREF[1]:     CODE:032e(j)  
       CODE:0396 e5 75           MOV        A,DAT_INTMEM_75                                            = ??
       CODE:0398 20 e3 64        JB         ACC.3,LAB_CODE_03ff                                        = ??
       CODE:039b ea              MOV        A,R2
       CODE:039c 24 4a           ADD        A,#0x4a
       CODE:039e 50 5f           JNC        LAB_CODE_03ff
       CODE:03a0 ea              MOV        A,R2
       CODE:03a1 24 2f           ADD        A,#0x2f
       CODE:03a3 40 5a           JC         LAB_CODE_03ff
       CODE:03a5 05 6f           INC        DAT_INTMEM_6f                                              = ??
       CODE:03a7 41 ee           AJMP       LAB_CODE_02ee
                             LAB_CODE_03a9                                   XREF[1]:     CODE:037a(j)  
       CODE:03a9 ea              MOV        A,R2
       CODE:03aa 24 ca           ADD        A,#0xca
       CODE:03ac 50 0a           JNC        LAB_CODE_03b8
       CODE:03ae ea              MOV        A,R2
       CODE:03af 24 b5           ADD        A,#0xb5
       CODE:03b1 40 05           JC         LAB_CODE_03b8
       CODE:03b3 75 6f 16        MOV        DAT_INTMEM_6f,#0x16                                        = ??
       CODE:03b6 41 ee           AJMP       LAB_CODE_02ee
                             LAB_CODE_03b8                                   XREF[2]:     CODE:03ac(j), CODE:03b1(j)  
       CODE:03b8 ea              MOV        A,R2
       CODE:03b9 24 f4           ADD        A,#0xf4
       CODE:03bb 50 42           JNC        LAB_CODE_03ff
       CODE:03bd ea              MOV        A,R2
       CODE:03be 24 df           ADD        A,#0xdf
       CODE:03c0 40 3d           JC         LAB_CODE_03ff
       CODE:03c2 75 6f 5b        MOV        DAT_INTMEM_6f,#0x5b                                        = ??
       CODE:03c5 41 ee           AJMP       LAB_CODE_02ee
                             LAB_CODE_03c7                                   XREF[1]:     CODE:037c(j)  
       CODE:03c7 e5 75           MOV        A,DAT_INTMEM_75                                            = ??
       CODE:03c9 30 e3 33        JNB        ACC.3,LAB_CODE_03ff                                        = ??
       CODE:03cc ea              MOV        A,R2
       CODE:03cd 24 4a           ADD        A,#0x4a
       CODE:03cf 50 2e           JNC        LAB_CODE_03ff
       CODE:03d1 d2 60           SETB       2c.0                                                       = ??
       CODE:03d3 61 ff           AJMP       LAB_CODE_03ff
                             LAB_CODE_03d5                                   XREF[2]:     CODE:037e(j), CODE:0413(j)  
       CODE:03d5 ea              MOV        A,R2
       CODE:03d6 24 ea           ADD        A,#0xea
       CODE:03d8 50 25           JNC        LAB_CODE_03ff
       CODE:03da ea              MOV        A,R2
       CODE:03db 24 d5           ADD        A,#0xd5
       CODE:03dd 40 20           JC         LAB_CODE_03ff
       CODE:03df 05 6f           INC        DAT_INTMEM_6f                                              = ??
       CODE:03e1 41 ee           AJMP       LAB_CODE_02ee
                             LAB_CODE_03e3                                   XREF[1]:     CODE:0380(j)  
       CODE:03e3 ea              MOV        A,R2
       CODE:03e4 24 ca           ADD        A,#0xca
       CODE:03e6 50 17           JNC        LAB_CODE_03ff
       CODE:03e8 ea              MOV        A,R2
       CODE:03e9 24 b5           ADD        A,#0xb5
       CODE:03eb 40 12           JC         LAB_CODE_03ff
       CODE:03ed 05 6f           INC        DAT_INTMEM_6f                                              = ??
       CODE:03ef 41 ee           AJMP       LAB_CODE_02ee
                             LAB_CODE_03f1                                   XREF[1]:     CODE:0382(j)  
       CODE:03f1 ea              MOV        A,R2
       CODE:03f2 24 aa           ADD        A,#0xaa
       CODE:03f4 50 09           JNC        LAB_CODE_03ff
       CODE:03f6 ea              MOV        A,R2
       CODE:03f7 24 95           ADD        A,#0x95
       CODE:03f9 40 04           JC         LAB_CODE_03ff
       CODE:03fb 05 6f           INC        DAT_INTMEM_6f                                              = ??
       CODE:03fd 41 ee           AJMP       LAB_CODE_02ee
                             LAB_CODE_03ff                                   XREF[21]:    CODE:031e(j), CODE:0398(j), 
                                                                                          CODE:039e(j), CODE:03a3(j), 
                                                                                          CODE:03bb(j), CODE:03c0(j), 
                                                                                          CODE:03c9(j), CODE:03cf(j), 
                                                                                          CODE:03d3(j), CODE:03d8(j), 
                                                                                          CODE:03dd(j), CODE:03e6(j), 
                                                                                          CODE:03eb(j), CODE:03f4(j), 
                                                                                          CODE:03f9(j), CODE:0418(j), 
                                                                                          CODE:042e(j), CODE:0433(j), 
                                                                                          CODE:0452(j), CODE:0468(j), [more]
       CODE:03ff 75 6f 14        MOV        DAT_INTMEM_6f,#0x14                                        = ??
       CODE:0402 41 ee           AJMP       LAB_CODE_02ee
                             LAB_CODE_0404                                   XREF[1]:     CODE:0384(j)  
       CODE:0404 e5 75           MOV        A,DAT_INTMEM_75                                            = ??
       CODE:0406 a2 e3           MOV        CY,ACC.3                                                   = ??
       CODE:0408 b3              CPL        CY
       CODE:0409 e5 72           MOV        A,DAT_INTMEM_72                                            = ??
       CODE:040b 33              RLC        A
       CODE:040c f5 72           MOV        DAT_INTMEM_72,A                                            = ??
       CODE:040e e5 71           MOV        A,DAT_INTMEM_71                                            = ??
       CODE:0410 33              RLC        A
       CODE:0411 f5 71           MOV        DAT_INTMEM_71,A                                            = ??
       CODE:0413 61 d5           AJMP       LAB_CODE_03d5
                             LAB_CODE_0415                                   XREF[1]:     CODE:0386(j)  
       CODE:0415 ea              MOV        A,R2
       CODE:0416 24 ea           ADD        A,#0xea
       CODE:0418 50 e5           JNC        LAB_CODE_03ff
       CODE:041a ea              MOV        A,R2
       CODE:041b 24 d5           ADD        A,#0xd5
       CODE:041d 40 04           JC         LAB_CODE_0423
       CODE:041f 05 6f           INC        DAT_INTMEM_6f                                              = ??
       CODE:0421 41 ee           AJMP       LAB_CODE_02ee
                             LAB_CODE_0423                                   XREF[1]:     CODE:041d(j)  
       CODE:0423 ea              MOV        A,R2
       CODE:0424 94 20           SUBB       A,#0x20
       CODE:0426 fa              MOV        R2,A
       CODE:0427 05 6f           INC        DAT_INTMEM_6f                                              = ??
       CODE:0429 61 1b           AJMP       LAB_CODE_031b
                             LAB_CODE_042b                                   XREF[2]:     CODE:0388(j), CODE:044d(j)  
       CODE:042b ea              MOV        A,R2
       CODE:042c 24 f4           ADD        A,#0xf4
       CODE:042e 50 cf           JNC        LAB_CODE_03ff
       CODE:0430 ea              MOV        A,R2
       CODE:0431 24 df           ADD        A,#0xdf
       CODE:0433 40 ca           JC         LAB_CODE_03ff
       CODE:0435 05 6f           INC        DAT_INTMEM_6f                                              = ??
       CODE:0437 41 ee           AJMP       LAB_CODE_02ee
                             LAB_CODE_0439                                   XREF[1]:     CODE:038a(j)  
       CODE:0439 e5 75           MOV        A,DAT_INTMEM_75                                            = ??
       CODE:043b a2 e3           MOV        CY,ACC.3                                                   = ??
       CODE:043d b3              CPL        CY
       CODE:043e e5 74           MOV        A,DAT_INTMEM_74                                            = ??
       CODE:0440 33              RLC        A
       CODE:0441 f5 74           MOV        DAT_INTMEM_74,A                                            = ??
       CODE:0443 e5 73           MOV        A,DAT_INTMEM_73                                            = ??
       CODE:0445 33              RLC        A
       CODE:0446 f5 73           MOV        DAT_INTMEM_73,A                                            = ??
       CODE:0448 e5 72           MOV        A,DAT_INTMEM_72                                            = ??
       CODE:044a 33              RLC        A
       CODE:044b f5 72           MOV        DAT_INTMEM_72,A                                            = ??
       CODE:044d 81 2b           AJMP       LAB_CODE_042b
                             LAB_CODE_044f                                   XREF[1]:     CODE:038c(j)  
       CODE:044f ea              MOV        A,R2
       CODE:0450 24 f4           ADD        A,#0xf4
       CODE:0452 50 ab           JNC        LAB_CODE_03ff
       CODE:0454 ea              MOV        A,R2
       CODE:0455 24 df           ADD        A,#0xdf
       CODE:0457 40 04           JC         LAB_CODE_045d
       CODE:0459 05 6f           INC        DAT_INTMEM_6f                                              = ??
       CODE:045b 41 ee           AJMP       LAB_CODE_02ee
                             LAB_CODE_045d                                   XREF[2]:     CODE:0457(j), CODE:0488(j)  
       CODE:045d ea              MOV        A,R2
       CODE:045e 94 16           SUBB       A,#0x16
       CODE:0460 fa              MOV        R2,A
       CODE:0461 05 6f           INC        DAT_INTMEM_6f                                              = ??
       CODE:0463 61 1b           AJMP       LAB_CODE_031b
                             LAB_CODE_0465                                   XREF[1]:     CODE:038e(j)  
       CODE:0465 ea              MOV        A,R2
       CODE:0466 24 f4           ADD        A,#0xf4
       CODE:0468 50 95           JNC        LAB_CODE_03ff
       CODE:046a 85 73 70        MOV        DAT_INTMEM_70,DAT_INTMEM_73                                = ??
       CODE:046d 85 74 71        MOV        DAT_INTMEM_71,DAT_INTMEM_74                                = ??
       CODE:0470 e5 70           MOV        A,DAT_INTMEM_70                                            = ??
       CODE:0472 30 d0 8a        JNB        P,LAB_CODE_03ff                                            = ??
       CODE:0475 b4 07 05        CJNE       A,#0x7,LAB_CODE_047d
       CODE:0478 75 6f 93        MOV        DAT_INTMEM_6f,#0x93                                        = ??
       CODE:047b 81 85           AJMP       LAB_CODE_0485
                             LAB_CODE_047d                                   XREF[1]:     CODE:0475(j)  
       CODE:047d b4 01 05        CJNE       A,#0x1,LAB_CODE_0485
       CODE:0480 75 6f 79        MOV        DAT_INTMEM_6f,#0x79                                        = ??
       CODE:0483 81 85           AJMP       LAB_CODE_0485
                             LAB_CODE_0485                                   XREF[3]:     CODE:047b(j), CODE:047d(j), 
                                                                                          CODE:0483(j)  
       CODE:0485 ea              MOV        A,R2
       CODE:0486 24 df           ADD        A,#0xdf
       CODE:0488 40 d3           JC         LAB_CODE_045d
       CODE:048a 05 6f           INC        DAT_INTMEM_6f                                              = ??
       CODE:048c 41 ee           AJMP       LAB_CODE_02ee
       CODE:048e ea              ??         EAh
       CODE:048f 94              ??         94h
       CODE:0490 16              ??         16h
       CODE:0491 fa              ??         FAh
       CODE:0492 05              ??         05h
       CODE:0493 6f              ??         6Fh    o
       CODE:0494 61              ??         61h    a
       CODE:0495 1b              ??         1Bh
                             **************************************************************
                             *                          FUNCTION                          *
                             **************************************************************
                             undefined FUN_CODE_0496()
             undefined         ACC:1          <RETURN>
                             FUN_CODE_0496                                   XREF[2]:     FUN_CODE_02fe:02ec(c), 
                                                                                          FUN_CODE_22f9:22fb(c)  
       CODE:0496 75 b7 f2        MOV        IPH0,#0xf2                                                 = ??
       CODE:0499 75 b7 10        MOV        IPH0,#0x10                                                 = ??
       CODE:049c 75 b1 00        MOV        IEN1,#0x0                                                  = ??
       CODE:049f 75 b2 4c        MOV        IPL1,#0x4c                                                 = ??
       CODE:04a2 75 b2 82        MOV        IPL1,#0x82                                                 = ??
       CODE:04a5 75 b3 0c        MOV        IPH1,#0xc                                                  = ??
       CODE:04a8 75 b4 3f        MOV        DAT_SFR_b4,#0x3f                                           = ??
       CODE:04ab 75 b0 87        MOV        P3,#0x87                                                   = ??
       CODE:04ae 75 b1 07        MOV        IEN1,#0x7                                                  = ??
       CODE:04b1 75 6f 14        MOV        DAT_INTMEM_6f,#0x14                                        = ??
       CODE:04b4 43 b7 01        ORL        IPH0,#0x1                                                  = ??
       CODE:04b7 43 b9 40        ORL        SADEN,#0x40                                                = ??
       CODE:04ba 53 bc bf        ANL        DAT_SFR_bc,#0xbf                                           = ??
       CODE:04bd 22              RET
                             LAB_CODE_04be                                   XREF[1]:     CODE:0636(j)  
       CODE:04be 43 9d 04        ORL        DAT_SFR_9d,#0x4                                            = ??
       CODE:04c1 43 9d 08        ORL        DAT_SFR_9d,#0x8                                            = ??
       CODE:04c4 53 a2 fb        ANL        FIE,#0xfb                                                  = ??
       CODE:04c7 53 a2 f7        ANL        FIE,#0xf7                                                  = ??
       CODE:04ca c2 66           CLR        2c.6                                                       = ??
       CODE:04cc c2 82           CLR        P0.2                                                       = ??
       CODE:04ce c2 83           CLR        P0.3                                                       = ??
       CODE:04d0 75 69 0b        MOV        DAT_INTMEM_69,#0xb                                         = ??
       CODE:04d3 a1 78           AJMP       LAB_CODE_0578
                             LAB_CODE_04d5                                   XREF[1]:     CODE:063c(j)  
       CODE:04d5 43 9d 04        ORL        DAT_SFR_9d,#0x4                                            = ??
       CODE:04d8 43 9d 08        ORL        DAT_SFR_9d,#0x8                                            = ??
       CODE:04db 53 a2 fb        ANL        FIE,#0xfb                                                  = ??
       CODE:04de 53 a2 f7        ANL        FIE,#0xf7                                                  = ??
       CODE:04e1 30 82 02        JNB        P0.2,LAB_CODE_04e6                                         = ??
       CODE:04e4 a1 84           AJMP       LAB_CODE_0584
                             LAB_CODE_04e6                                   XREF[2]:     CODE:04e1(j), CODE:0526(j)  
       CODE:04e6 30 66 07        JNB        2c.6,LAB_CODE_04f0                                         = ??
       CODE:04e9 20 65 04        JB         2c.5,LAB_CODE_04f0                                         = ??
       CODE:04ec c2 62           CLR        2c.2                                                       = ??
       CODE:04ee c2 66           CLR        2c.6                                                       = ??
                             LAB_CODE_04f0                                   XREF[2]:     CODE:04e6(j), CODE:04e9(j)  
       CODE:04f0 75 6a 0b        MOV        DAT_INTMEM_6a,#0xb                                         = ??
       CODE:04f3 75 69 0b        MOV        DAT_INTMEM_69,#0xb                                         = ??
       CODE:04f6 a1 8c           AJMP       LAB_CODE_058c
                             LAB_CODE_04f8                                   XREF[1]:     CODE:063a(j)  
       CODE:04f8 d5 69 04        DJNZ       DAT_INTMEM_69,LAB_CODE_04ff                                = ??
       CODE:04fb c2 62           CLR        2c.2                                                       = ??
       CODE:04fd a1 74           AJMP       LAB_CODE_0574
                             LAB_CODE_04ff                                   XREF[1]:     CODE:04f8(j)  
       CODE:04ff 30 82 7a        JNB        P0.2,LAB_CODE_057c                                         = ??
       CODE:0502 30 83 77        JNB        P0.3,LAB_CODE_057c                                         = ??
       CODE:0505 a1 80           AJMP       LAB_CODE_0580
                             LAB_CODE_0507                                   XREF[1]:     CODE:0638(j)  
       CODE:0507 d5 69 6e        DJNZ       DAT_INTMEM_69,LAB_CODE_0578                                = ??
       CODE:050a 30 61 04        JNB        2c.1,LAB_CODE_0511                                         = ??
       CODE:050d 05 69           INC        DAT_INTMEM_69                                              = ??
       CODE:050f a1 78           AJMP       LAB_CODE_0578
                             LAB_CODE_0511                                   XREF[1]:     CODE:050a(j)  
       CODE:0511 d2 82           SETB       P0.2                                                       = ??
       CODE:0513 d2 83           SETB       P0.3                                                       = ??
       CODE:0515 75 69 64        MOV        DAT_INTMEM_69,#0x64                                        = ??
       CODE:0518 a1 7c           AJMP       LAB_CODE_057c
                             LAB_CODE_051a                                   XREF[1]:     CODE:063e(j)  
       CODE:051a 43 9d 04        ORL        DAT_SFR_9d,#0x4                                            = ??
       CODE:051d 43 9d 08        ORL        DAT_SFR_9d,#0x8                                            = ??
       CODE:0520 53 a2 fb        ANL        FIE,#0xfb                                                  = ??
       CODE:0523 53 a2 f7        ANL        FIE,#0xf7                                                  = ??
       CODE:0526 30 82 bd        JNB        P0.2,LAB_CODE_04e6                                         = ??
       CODE:0529 20 66 0d        JB         2c.6,LAB_CODE_0539                                         = ??
       CODE:052c e5 6e           MOV        A,DAT_INTMEM_6e                                            = ??
       CODE:052e 70 05           JNZ        LAB_CODE_0535
       CODE:0530 20 62 17        JB         2c.2,LAB_CODE_054a                                         = ??
       CODE:0533 a1 84           AJMP       LAB_CODE_0584
                             LAB_CODE_0535                                   XREF[1]:     CODE:052e(j)  
       CODE:0535 15 6e           DEC        DAT_INTMEM_6e                                              = ??
       CODE:0537 a1 84           AJMP       LAB_CODE_0584
                             LAB_CODE_0539                                   XREF[1]:     CODE:0529(j)  
       CODE:0539 30 65 07        JNB        2c.5,LAB_CODE_0543                                         = ??
       CODE:053c d5 69 45        DJNZ       DAT_INTMEM_69,LAB_CODE_0584                                = ??
       CODE:053f c2 62           CLR        2c.2                                                       = ??
       CODE:0541 a1 74           AJMP       LAB_CODE_0574
                             LAB_CODE_0543                                   XREF[1]:     CODE:0539(j)  
       CODE:0543 d2 67           SETB       2c.7                                                       = ??
       CODE:0545 85 6d 6c        MOV        DAT_INTMEM_6c,DAT_INTMEM_6d                                = ??
       CODE:0548 a1 56           AJMP       LAB_CODE_0556
                             LAB_CODE_054a                                   XREF[1]:     CODE:0530(j)  
       CODE:054a c2 67           CLR        2c.7                                                       = ??
       CODE:054c e5 6c           MOV        A,DAT_INTMEM_6c                                            = ??
       CODE:054e 70 06           JNZ        LAB_CODE_0556
       CODE:0550 c2 62           CLR        2c.2                                                       = ??
       CODE:0552 c2 63           CLR        2c.3                                                       = ??
       CODE:0554 a1 74           AJMP       LAB_CODE_0574
                             LAB_CODE_0556                                   XREF[2]:     CODE:0548(j), CODE:054e(j)  
       CODE:0556 75 6a 0b        MOV        DAT_INTMEM_6a,#0xb                                         = ??
       CODE:0559 75 69 0b        MOV        DAT_INTMEM_69,#0xb                                         = ??
       CODE:055c c2 83           CLR        P0.3                                                       = ??
       CODE:055e c2 68           CLR        2d.0                                                       = ??
       CODE:0560 a1 90           AJMP       LAB_CODE_0590
                             LAB_CODE_0562                                   XREF[1]:     CODE:0640(j)  
       CODE:0562 30 82 0a        JNB        P0.2,LAB_CODE_056f                                         = ??
       CODE:0565 d5 69 20        DJNZ       DAT_INTMEM_69,LAB_CODE_0588                                = ??
       CODE:0568 30 66 02        JNB        2c.6,LAB_CODE_056d                                         = ??
       CODE:056b c2 62           CLR        2c.2                                                       = ??
                             LAB_CODE_056d                                   XREF[1]:     CODE:0568(j)  
       CODE:056d a1 74           AJMP       LAB_CODE_0574
                             LAB_CODE_056f                                   XREF[1]:     CODE:0562(j)  
       CODE:056f 75 69 0b        MOV        DAT_INTMEM_69,#0xb                                         = ??
       CODE:0572 a1 8c           AJMP       LAB_CODE_058c
                             LAB_CODE_0574                                   XREF[8]:     CODE:04fd(j), CODE:0541(j), 
                                                                                          CODE:0554(j), CODE:056d(j), 
                                                                                          CODE:05a3(j), CODE:05b0(j), 
                                                                                          CODE:05de(j), CODE:0609(j)  
       CODE:0574 75 68 00        MOV        DAT_INTMEM_68,#0x0                                         = ??
       CODE:0577 22              RET
                             LAB_CODE_0578                                   XREF[3]:     CODE:04d3(j), CODE:0507(j), 
                                                                                          CODE:050f(j)  
       CODE:0578 75 68 01        MOV        DAT_INTMEM_68,#0x1                                         = ??
       CODE:057b 22              RET
                             LAB_CODE_057c                                   XREF[3]:     CODE:04ff(j), CODE:0502(j), 
                                                                                          CODE:0518(j)  
       CODE:057c 75 68 02        MOV        DAT_INTMEM_68,#0x2                                         = ??
       CODE:057f 22              RET
                             LAB_CODE_0580                                   XREF[6]:     CODE:0505(j), CODE:05ab(j), 
                                                                                          CODE:05be(j), CODE:05c6(j), 
                                                                                          CODE:0625(j), CODE:062d(j)  
       CODE:0580 75 68 03        MOV        DAT_INTMEM_68,#0x3                                         = ??
       CODE:0583 22              RET
                             LAB_CODE_0584                                   XREF[4]:     CODE:04e4(j), CODE:0533(j), 
                                                                                          CODE:0537(j), CODE:053c(j)  
       CODE:0584 75 68 04        MOV        DAT_INTMEM_68,#0x4                                         = ??
       CODE:0587 22              RET
                             LAB_CODE_0588                                   XREF[2]:     CODE:0565(j), CODE:05d4(j)  
       CODE:0588 75 68 05        MOV        DAT_INTMEM_68,#0x5                                         = ??
       CODE:058b 22              RET
                             LAB_CODE_058c                                   XREF[3]:     CODE:04f6(j), CODE:0572(j), 
                                                                                          CODE:059b(j)  
       CODE:058c 75 68 06        MOV        DAT_INTMEM_68,#0x6                                         = ??
       CODE:058f 22              RET
                             LAB_CODE_0590                                   XREF[3]:     CODE:0560(j), CODE:05d9(j), 
                                                                                          CODE:0618(j)  
       CODE:0590 75 68 07        MOV        DAT_INTMEM_68,#0x7                                         = ??
       CODE:0593 22              RET
                             LAB_CODE_0594                                   XREF[4]:     CODE:05ec(j), CODE:05f0(j), 
                                                                                          CODE:05ff(j), CODE:0604(j)  
       CODE:0594 75 68 08        MOV        DAT_INTMEM_68,#0x8                                         = ??
       CODE:0597 22              RET
                             LAB_CODE_0598                                   XREF[1]:     CODE:0642(j)  
       CODE:0598 20 82 0a        JB         P0.2,LAB_CODE_05a5                                         = ??
       CODE:059b d5 69 ee        DJNZ       DAT_INTMEM_69,LAB_CODE_058c                                = ??
       CODE:059e 30 66 02        JNB        2c.6,LAB_CODE_05a3                                         = ??
       CODE:05a1 c2 62           CLR        2c.2                                                       = ??
                             LAB_CODE_05a3                                   XREF[1]:     CODE:059e(j)  
       CODE:05a3 a1 74           AJMP       LAB_CODE_0574
                             LAB_CODE_05a5                                   XREF[1]:     CODE:0598(j)  
       CODE:05a5 d5 6a 20        DJNZ       DAT_INTMEM_6a,LAB_CODE_05c8                                = ??
       CODE:05a8 20 66 07        JB         2c.6,LAB_CODE_05b2                                         = ??
       CODE:05ab 20 67 d2        JB         2c.7,LAB_CODE_0580                                         = ??
       CODE:05ae d2 61           SETB       2c.1                                                       = ??
       CODE:05b0 a1 74           AJMP       LAB_CODE_0574
                             LAB_CODE_05b2                                   XREF[1]:     CODE:05a8(j)  
       CODE:05b2 30 67 0b        JNB        2c.7,LAB_CODE_05c0                                         = ??
       CODE:05b5 85 6b 6d        MOV        DAT_INTMEM_6d,DAT_INTMEM_6b                                = ??
       CODE:05b8 c2 62           CLR        2c.2                                                       = ??
       CODE:05ba c2 63           CLR        2c.3                                                       = ??
       CODE:05bc c2 66           CLR        2c.6                                                       = ??
       CODE:05be a1 80           AJMP       LAB_CODE_0580
                             LAB_CODE_05c0                                   XREF[1]:     CODE:05b2(j)  
       CODE:05c0 c2 62           CLR        2c.2                                                       = ??
       CODE:05c2 c2 66           CLR        2c.6                                                       = ??
       CODE:05c4 d2 61           SETB       2c.1                                                       = ??
       CODE:05c6 a1 80           AJMP       LAB_CODE_0580
                             LAB_CODE_05c8                                   XREF[1]:     CODE:05a5(j)  
       CODE:05c8 75 69 0b        MOV        DAT_INTMEM_69,#0xb                                         = ??
       CODE:05cb e5 6b           MOV        A,DAT_INTMEM_6b                                            = ??
       CODE:05cd a2 83           MOV        CY,P0.3                                                    = ??
       CODE:05cf 33              RLC        A
       CODE:05d0 f5 6b           MOV        DAT_INTMEM_6b,A                                            = ??
       CODE:05d2 92 67           MOV        2c.7,CY                                                    = ??
       CODE:05d4 a1 88           AJMP       LAB_CODE_0588
                             LAB_CODE_05d6                                   XREF[1]:     CODE:0644(j)  
       CODE:05d6 30 82 07        JNB        P0.2,LAB_CODE_05e0                                         = ??
       CODE:05d9 d5 69 b4        DJNZ       DAT_INTMEM_69,LAB_CODE_0590                                = ??
       CODE:05dc c2 62           CLR        2c.2                                                       = ??
       CODE:05de a1 74           AJMP       LAB_CODE_0574
                             LAB_CODE_05e0                                   XREF[1]:     CODE:05d6(j)  
       CODE:05e0 75 69 0b        MOV        DAT_INTMEM_69,#0xb                                         = ??
       CODE:05e3 e5 6a           MOV        A,DAT_INTMEM_6a                                            = ??
       CODE:05e5 d5 6a 06        DJNZ       DAT_INTMEM_6a,LAB_CODE_05ee                                = ??
       CODE:05e8 d2 83           SETB       P0.3                                                       = ??
       CODE:05ea d2 68           SETB       2d.0                                                       = ??
       CODE:05ec a1 94           AJMP       LAB_CODE_0594
                             LAB_CODE_05ee                                   XREF[1]:     CODE:05e5(j)  
       CODE:05ee 64 0b           XRL        A,#0xb
       CODE:05f0 60 a2           JZ         LAB_CODE_0594
       CODE:05f2 a2 67           MOV        CY,2c.7                                                    = ??
       CODE:05f4 92 83           MOV        P0.3,CY                                                    = ??
       CODE:05f6 92 68           MOV        2d.0,CY                                                    = ??
       CODE:05f8 e5 6c           MOV        A,DAT_INTMEM_6c                                            = ??
       CODE:05fa 33              RLC        A
       CODE:05fb f5 6c           MOV        DAT_INTMEM_6c,A                                            = ??
       CODE:05fd 92 67           MOV        2c.7,CY                                                    = ??
       CODE:05ff a1 94           AJMP       LAB_CODE_0594
                             LAB_CODE_0601                                   XREF[1]:     CODE:0646(j)  
       CODE:0601 20 82 07        JB         P0.2,LAB_CODE_060b                                         = ??
       CODE:0604 d5 69 8d        DJNZ       DAT_INTMEM_69,LAB_CODE_0594                                = ??
                             LAB_CODE_0607                                   XREF[1]:     CODE:060e(j)  
       CODE:0607 c2 62           CLR        2c.2                                                       = ??
       CODE:0609 a1 74           AJMP       LAB_CODE_0574
                             LAB_CODE_060b                                   XREF[1]:     CODE:0601(j)  
       CODE:060b 30 68 03        JNB        2d.0,LAB_CODE_0611                                         = ??
       CODE:060e 30 83 f6        JNB        P0.3,LAB_CODE_0607                                         = ??
                             LAB_CODE_0611                                   XREF[1]:     CODE:060b(j)  
       CODE:0611 e5 6a           MOV        A,DAT_INTMEM_6a                                            = ??
       CODE:0613 60 05           JZ         LAB_CODE_061a
       CODE:0615 75 69 0b        MOV        DAT_INTMEM_69,#0xb                                         = ??
       CODE:0618 a1 90           AJMP       LAB_CODE_0590
                             LAB_CODE_061a                                   XREF[1]:     CODE:0613(j)  
       CODE:061a 20 66 0a        JB         2c.6,LAB_CODE_0627                                         = ??
       CODE:061d 30 64 07        JNB        2c.4,LAB_CODE_0627                                         = ??
       CODE:0620 d2 66           SETB       2c.6                                                       = ??
       CODE:0622 75 69 96        MOV        DAT_INTMEM_69,#0x96                                        = ??
       CODE:0625 a1 80           AJMP       LAB_CODE_0580
                             LAB_CODE_0627                                   XREF[2]:     CODE:061a(j), CODE:061d(j)  
       CODE:0627 c2 62           CLR        2c.2                                                       = ??
       CODE:0629 c2 63           CLR        2c.3                                                       = ??
       CODE:062b c2 66           CLR        2c.6                                                       = ??
       CODE:062d a1 80           AJMP       LAB_CODE_0580
                             **************************************************************
                             *                          FUNCTION                          *
                             **************************************************************
                             undefined FUN_CODE_062f()
             undefined         ACC:1          <RETURN>
                             FUN_CODE_062f                                   XREF[1]:     FUN_CODE_013a:014f(c)  
       CODE:062f e5 68           MOV        A,DAT_INTMEM_68                                            = ??
       CODE:0631 23              RL         A
       CODE:0632 90 06 36        MOV        DPTR,#LAB_CODE_0636
       CODE:0635 73              JMP        @A+DPTR
                             LAB_CODE_0636                                   XREF[1]:     FUN_CODE_062f:0632(*)  
       CODE:0636 81 be           AJMP       LAB_CODE_04be
       CODE:0638 a1 07           AJMP       LAB_CODE_0507
       CODE:063a 81 f8           AJMP       LAB_CODE_04f8
       CODE:063c 81 d5           AJMP       LAB_CODE_04d5
       CODE:063e a1 1a           AJMP       LAB_CODE_051a
       CODE:0640 a1 62           AJMP       LAB_CODE_0562
       CODE:0642 a1 98           AJMP       LAB_CODE_0598
       CODE:0644 a1 d6           AJMP       LAB_CODE_05d6
       CODE:0646 c1 01           AJMP       LAB_CODE_0601
                             **************************************************************
                             *                          FUNCTION                          *
                             **************************************************************
                             undefined FUN_CODE_0648()
             undefined         ACC:1          <RETURN>
                             FUN_CODE_0648                                   XREF[1]:     FUN_CODE_013a:014d(c)  
       CODE:0648 e5 1f           MOV        A,BANK3_R7                                                 = ??
       CODE:064a 60 01           JZ         LAB_CODE_064d
       CODE:064c 22              RET
                             LAB_CODE_064d                                   XREF[1]:     CODE:064a(j)  
       CODE:064d e5 d7           MOV        A,HPSTAT                                                   = ??
       CODE:064f 30 e0 11        JNB        ACC.0,LAB_CODE_0663                                        = ??
       CODE:0652 e5 d7           MOV        A,HPSTAT                                                   = ??
       CODE:0654 30 e0 4e        JNB        ACC.0,LAB_CODE_06a5                                        = ??
       CODE:0657 e5 d7           MOV        A,HPSTAT                                                   = ??
       CODE:0659 30 e0 49        JNB        ACC.0,LAB_CODE_06a5                                        = ??
       CODE:065c c2 69           CLR        2d.1                                                       = ??
       CODE:065e 75 1c 64        MOV        BANK3_R4,#0x64                                             = ??
       CODE:0661 c1 a5           AJMP       LAB_CODE_06a5
                             LAB_CODE_0663                                   XREF[1]:     CODE:064f(j)  
       CODE:0663 20 69 0d        JB         2d.1,LAB_CODE_0673                                         = ??
       CODE:0666 d5 1c 3c        DJNZ       BANK3_R4,LAB_CODE_06a5                                     = ??
       CODE:0669 d2 69           SETB       2d.1                                                       = ??
       CODE:066b c2 6f           CLR        2d.7                                                       = ??
       CODE:066d a2 e1           MOV        CY,ACC.1                                                   = ??
       CODE:066f 92 6c           MOV        2d.4,CY                                                    = ??
       CODE:0671 c1 a5           AJMP       LAB_CODE_06a5
                             LAB_CODE_0673                                   XREF[1]:     CODE:0663(j)  
       CODE:0673 54 02           ANL        A,#0x2
       CODE:0675 a2 6c           MOV        CY,2d.4                                                    = ??
       CODE:0677 13              RRC        A
       CODE:0678 20 6f 0c        JB         2d.7,LAB_CODE_0687                                         = ??
       CODE:067b 30 d0 27        JNB        P,LAB_CODE_06a5                                            = ??
       CODE:067e d2 6f           SETB       2d.7                                                       = ??
       CODE:0680 c2 72           CLR        2e.2                                                       = ??
       CODE:0682 75 1c 32        MOV        BANK3_R4,#0x32                                             = ??
       CODE:0685 c1 a5           AJMP       LAB_CODE_06a5
                             LAB_CODE_0687                                   XREF[1]:     CODE:0678(j)  
       CODE:0687 20 72 0c        JB         2e.2,LAB_CODE_0696                                         = ??
       CODE:068a 30 d0 13        JNB        P,LAB_CODE_06a0                                            = ??
       CODE:068d d5 1c 15        DJNZ       BANK3_R4,LAB_CODE_06a5                                     = ??
                             LAB_CODE_0690                                   XREF[1]:     CODE:0696(j)  
       CODE:0690 b2 6c           CPL        2d.4                                                       = ??
       CODE:0692 c2 6f           CLR        2d.7                                                       = ??
       CODE:0694 c1 a5           AJMP       LAB_CODE_06a5
                             LAB_CODE_0696                                   XREF[1]:     CODE:0687(j)  
       CODE:0696 20 d0 f7        JB         P,LAB_CODE_0690                                            = ??
       CODE:0699 d5 1c 09        DJNZ       BANK3_R4,LAB_CODE_06a5                                     = ??
       CODE:069c 75 1f 56        MOV        BANK3_R7,#0x56                                             = ??
       CODE:069f 22              RET
                             LAB_CODE_06a0                                   XREF[1]:     CODE:068a(j)  
       CODE:06a0 d2 72           SETB       2e.2                                                       = ??
       CODE:06a2 75 1c 64        MOV        BANK3_R4,#0x64                                             = ??
                             LAB_CODE_06a5                                   XREF[10]:    CODE:0654(j), CODE:0659(j), 
                                                                                          CODE:0661(j), CODE:0666(j), 
                                                                                          CODE:0671(j), CODE:067b(j), 
                                                                                          CODE:0685(j), CODE:068d(j), 
                                                                                          CODE:0694(j), CODE:0699(j)  
       CODE:06a5 e5 d7           MOV        A,HPSTAT                                                   = ??
       CODE:06a7 30 e2 11        JNB        ACC.2,LAB_CODE_06bb                                        = ??
       CODE:06aa e5 d7           MOV        A,HPSTAT                                                   = ??
       CODE:06ac 30 e2 4e        JNB        ACC.2,LAB_CODE_06fd                                        = ??
       CODE:06af e5 d7           MOV        A,HPSTAT                                                   = ??
       CODE:06b1 30 e2 49        JNB        ACC.2,LAB_CODE_06fd                                        = ??
       CODE:06b4 c2 6a           CLR        2d.2                                                       = ??
       CODE:06b6 75 1d 64        MOV        BANK3_R5,#0x64                                             = ??
       CODE:06b9 c1 fd           AJMP       LAB_CODE_06fd
                             LAB_CODE_06bb                                   XREF[1]:     CODE:06a7(j)  
       CODE:06bb 20 6a 0d        JB         2d.2,LAB_CODE_06cb                                         = ??
       CODE:06be d5 1d 3c        DJNZ       BANK3_R5,LAB_CODE_06fd                                     = ??
       CODE:06c1 d2 6a           SETB       2d.2                                                       = ??
       CODE:06c3 c2 70           CLR        2e.0                                                       = ??
       CODE:06c5 a2 e3           MOV        CY,ACC.3                                                   = ??
       CODE:06c7 92 6d           MOV        2d.5,CY                                                    = ??
       CODE:06c9 c1 fd           AJMP       LAB_CODE_06fd
                             LAB_CODE_06cb                                   XREF[1]:     CODE:06bb(j)  
       CODE:06cb 54 08           ANL        A,#0x8
       CODE:06cd a2 6d           MOV        CY,2d.5                                                    = ??
       CODE:06cf 13              RRC        A
       CODE:06d0 20 70 0c        JB         2e.0,LAB_CODE_06df                                         = ??
       CODE:06d3 30 d0 27        JNB        P,LAB_CODE_06fd                                            = ??
       CODE:06d6 d2 70           SETB       2e.0                                                       = ??
       CODE:06d8 c2 73           CLR        2e.3                                                       = ??
       CODE:06da 75 1d 32        MOV        BANK3_R5,#0x32                                             = ??
       CODE:06dd c1 fd           AJMP       LAB_CODE_06fd
                             LAB_CODE_06df                                   XREF[1]:     CODE:06d0(j)  
       CODE:06df 20 73 0c        JB         2e.3,LAB_CODE_06ee                                         = ??
       CODE:06e2 30 d0 13        JNB        P,LAB_CODE_06f8                                            = ??
       CODE:06e5 d5 1d 15        DJNZ       BANK3_R5,LAB_CODE_06fd                                     = ??
                             LAB_CODE_06e8                                   XREF[1]:     CODE:06ee(j)  
       CODE:06e8 b2 6d           CPL        2d.5                                                       = ??
       CODE:06ea c2 70           CLR        2e.0                                                       = ??
       CODE:06ec c1 fd           AJMP       LAB_CODE_06fd
                             LAB_CODE_06ee                                   XREF[1]:     CODE:06df(j)  
       CODE:06ee 20 d0 f7        JB         P,LAB_CODE_06e8                                            = ??
       CODE:06f1 d5 1d 09        DJNZ       BANK3_R5,LAB_CODE_06fd                                     = ??
       CODE:06f4 75 1f 57        MOV        BANK3_R7,#0x57                                             = ??
       CODE:06f7 22              RET
                             LAB_CODE_06f8                                   XREF[1]:     CODE:06e2(j)  
       CODE:06f8 d2 73           SETB       2e.3                                                       = ??
       CODE:06fa 75 1d 64        MOV        BANK3_R5,#0x64                                             = ??
                             LAB_CODE_06fd                                   XREF[10]:    CODE:06ac(j), CODE:06b1(j), 
                                                                                          CODE:06b9(j), CODE:06be(j), 
                                                                                          CODE:06c9(j), CODE:06d3(j), 
                                                                                          CODE:06dd(j), CODE:06e5(j), 
                                                                                          CODE:06ec(j), CODE:06f1(j)  
       CODE:06fd e5 fd           MOV        A,CCAP3H                                                   = ??
       CODE:06ff 30 e4 11        JNB        ACC.4,LAB_CODE_0713                                        = ??
       CODE:0702 e5 fd           MOV        A,CCAP3H                                                   = ??
       CODE:0704 30 e4 4e        JNB        ACC.4,LAB_CODE_0755                                        = ??
       CODE:0707 e5 fd           MOV        A,CCAP3H                                                   = ??
       CODE:0709 30 e4 49        JNB        ACC.4,LAB_CODE_0755                                        = ??
       CODE:070c c2 6b           CLR        2d.3                                                       = ??
       CODE:070e 75 1e 64        MOV        BANK3_R6,#0x64                                             = ??
       CODE:0711 e1 55           AJMP       LAB_CODE_0755
                             LAB_CODE_0713                                   XREF[1]:     CODE:06ff(j)  
       CODE:0713 20 6b 0d        JB         2d.3,LAB_CODE_0723                                         = ??
       CODE:0716 d5 1e 3c        DJNZ       BANK3_R6,LAB_CODE_0755                                     = ??
       CODE:0719 d2 6b           SETB       2d.3                                                       = ??
       CODE:071b c2 71           CLR        2e.1                                                       = ??
       CODE:071d a2 e5           MOV        CY,ACC.5                                                   = ??
       CODE:071f 92 6e           MOV        2d.6,CY                                                    = ??
       CODE:0721 e1 55           AJMP       LAB_CODE_0755
                             LAB_CODE_0723                                   XREF[1]:     CODE:0713(j)  
       CODE:0723 54 20           ANL        A,#0x20
       CODE:0725 a2 6e           MOV        CY,2d.6                                                    = ??
       CODE:0727 13              RRC        A
       CODE:0728 20 71 0c        JB         2e.1,LAB_CODE_0737                                         = ??
       CODE:072b 30 d0 27        JNB        P,LAB_CODE_0755                                            = ??
       CODE:072e d2 71           SETB       2e.1                                                       = ??
       CODE:0730 c2 74           CLR        2e.4                                                       = ??
       CODE:0732 75 1e 32        MOV        BANK3_R6,#0x32                                             = ??
       CODE:0735 e1 55           AJMP       LAB_CODE_0755
                             LAB_CODE_0737                                   XREF[1]:     CODE:0728(j)  
       CODE:0737 20 74 0c        JB         2e.4,LAB_CODE_0746                                         = ??
       CODE:073a 30 d0 13        JNB        P,LAB_CODE_0750                                            = ??
       CODE:073d d5 1e 15        DJNZ       BANK3_R6,LAB_CODE_0755                                     = ??
                             LAB_CODE_0740                                   XREF[1]:     CODE:0746(j)  
       CODE:0740 b2 6e           CPL        2d.6                                                       = ??
       CODE:0742 c2 71           CLR        2e.1                                                       = ??
       CODE:0744 e1 55           AJMP       LAB_CODE_0755
                             LAB_CODE_0746                                   XREF[1]:     CODE:0737(j)  
       CODE:0746 20 d0 f7        JB         P,LAB_CODE_0740                                            = ??
       CODE:0749 d5 1e 09        DJNZ       BANK3_R6,LAB_CODE_0755                                     = ??
       CODE:074c 75 1f 5a        MOV        BANK3_R7,#0x5a                                             = ??
       CODE:074f 22              RET
                             LAB_CODE_0750                                   XREF[1]:     CODE:073a(j)  
       CODE:0750 d2 74           SETB       2e.4                                                       = ??
       CODE:0752 75 1e 64        MOV        BANK3_R6,#0x64                                             = ??
                             LAB_CODE_0755                                   XREF[10]:    CODE:0704(j), CODE:0709(j), 
                                                                                          CODE:0711(j), CODE:0716(j), 
                                                                                          CODE:0721(j), CODE:072b(j), 
                                                                                          CODE:0735(j), CODE:073d(j), 
                                                                                          CODE:0744(j), CODE:0749(j)  
       CODE:0755 22              RET
                             **************************************************************
                             *                          FUNCTION                          *
                             **************************************************************
                             undefined FUN_CODE_0756()
             undefined         ACC:1          <RETURN>
                             FUN_CODE_0756                                   XREF[1]:     CODE:0000(c)  
       CODE:0756 75 81 7c        MOV        SP,#0x7c                                                   = ??
       CODE:0759 12 22 2c        LCALL      FUN_CODE_222c                                              undefined FUN_CODE_222c()
       CODE:075c 12 23 2d        LCALL      FUN_CODE_232d                                              undefined FUN_CODE_232d()
       CODE:075f 12 22 34        LCALL      FUN_CODE_2234                                              undefined FUN_CODE_2234()
       CODE:0762 12 22 86        LCALL      FUN_CODE_2286                                              undefined FUN_CODE_2286()
       CODE:0765 12 22 aa        LCALL      FUN_CODE_22aa                                              undefined FUN_CODE_22aa()
       CODE:0768 12 08 0d        LCALL      FUN_CODE_080d                                              undefined FUN_CODE_080d()
       CODE:076b 12 07 ea        LCALL      FUN_CODE_07ea                                              undefined FUN_CODE_07ea()
       CODE:076e d2 0c           SETB       21.4                                                       = ??
       CODE:0770 12 25 3a        LCALL      FUN_CODE_253a                                              undefined FUN_CODE_253a()
       CODE:0773 92 0a           MOV        21.2,CY                                                    = ??
                             LAB_CODE_0775                                   XREF[1]:     CODE:07e8(j)  
       CODE:0775 75 81 7c        MOV        SP,#0x7c                                                   = ??
       CODE:0778 12 22 2c        LCALL      FUN_CODE_222c                                              undefined FUN_CODE_222c()
       CODE:077b 12 00 d9        LCALL      FUN_CODE_00d9                                              undefined FUN_CODE_00d9()
       CODE:077e f5 39           MOV        DAT_INTMEM_39,A                                            = ??
       CODE:0780 12 25 40        LCALL      FUN_CODE_2540                                              undefined FUN_CODE_2540()
       CODE:0783 ec              MOV        A,R4
       CODE:0784 a2 e2           MOV        CY,ACC.2                                                   = ??
       CODE:0786 50 0e           JNC        LAB_CODE_0796
       CODE:0788 20 06 0b        JB         20.6,LAB_CODE_0796                                         = ??
       CODE:078b 20 17 05        JB         22.7,LAB_CODE_0793                                         = ??
       CODE:078e 43 34 20        ORL        DAT_INTMEM_34,#0x20                                        = ??
       CODE:0791 80 03           SJMP       LAB_CODE_0796
                             LAB_CODE_0793                                   XREF[1]:     CODE:078b(j)  
       CODE:0793 43 34 04        ORL        DAT_INTMEM_34,#0x4                                         = ??
                             LAB_CODE_0796                                   XREF[3]:     CODE:0786(j), CODE:0788(j), 
                                                                                          CODE:0791(j)  
       CODE:0796 92 06           MOV        20.6,CY                                                    = ??
       CODE:0798 e5 60           MOV        A,DAT_INTMEM_60                                            = ??
       CODE:079a 60 02           JZ         LAB_CODE_079e
       CODE:079c 15 60           DEC        DAT_INTMEM_60                                              = ??
                             LAB_CODE_079e                                   XREF[1]:     CODE:079a(j)  
       CODE:079e e5 60           MOV        A,DAT_INTMEM_60                                            = ??
       CODE:07a0 70 02           JNZ        LAB_CODE_07a4
       CODE:07a2 c2 33           CLR        26.3                                                       = ??
                             LAB_CODE_07a4                                   XREF[1]:     CODE:07a0(j)  
       CODE:07a4 12 1c 98        LCALL      FUN_CODE_1c98                                              undefined FUN_CODE_1c98()
       CODE:07a7 12 14 59        LCALL      FUN_CODE_1459                                              undefined FUN_CODE_1459()
       CODE:07aa 12 1c 10        LCALL      FUN_CODE_1c10                                              undefined FUN_CODE_1c10()
       CODE:07ad 12 13 39        LCALL      FUN_CODE_1339                                              undefined FUN_CODE_1339()
       CODE:07b0 12 20 21        LCALL      FUN_CODE_2021                                              undefined FUN_CODE_2021()
       CODE:07b3 12 13 12        LCALL      FUN_CODE_1312                                              undefined FUN_CODE_1312()
       CODE:07b6 12 1b 47        LCALL      FUN_CODE_1b47                                              undefined FUN_CODE_1b47()
       CODE:07b9 12 21 91        LCALL      FUN_CODE_2191                                              undefined FUN_CODE_2191()
       CODE:07bc 12 1f 9f        LCALL      FUN_CODE_1f9f                                              undefined FUN_CODE_1f9f()
       CODE:07bf 12 14 6e        LCALL      FUN_CODE_146e                                              undefined FUN_CODE_146e()
       CODE:07c2 12 13 b0        LCALL      FUN_CODE_13b0                                              undefined FUN_CODE_13b0()
       CODE:07c5 12 1d 44        LCALL      FUN_CODE_1d44                                              undefined FUN_CODE_1d44()
       CODE:07c8 12 11 4a        LCALL      FUN_CODE_114a                                              undefined FUN_CODE_114a()
       CODE:07cb 12 10 21        LCALL      FUN_CODE_1021                                              undefined FUN_CODE_1021()
       CODE:07ce 12 12 7a        LCALL      FUN_CODE_127a                                              undefined FUN_CODE_127a()
       CODE:07d1 12 10 d6        LCALL      FUN_CODE_10d6                                              undefined FUN_CODE_10d6()
       CODE:07d4 12 0e 58        LCALL      FUN_CODE_0e58                                              undefined FUN_CODE_0e58()
                             LAB_CODE_07d7                                   XREF[1]:     CODE:07e6(j)  
       CODE:07d7 12 19 b7        LCALL      FUN_CODE_19b7                                              undefined FUN_CODE_19b7()
       CODE:07da 12 22 1d        LCALL      FUN_CODE_221d                                              undefined FUN_CODE_221d()
       CODE:07dd 12 1d 32        LCALL      FUN_CODE_1d32                                              undefined FUN_CODE_1d32()
       CODE:07e0 12 19 73        LCALL      FUN_CODE_1973                                              undefined FUN_CODE_1973()
       CODE:07e3 12 22 93        LCALL      FUN_CODE_2293                                              undefined FUN_CODE_2293()
       CODE:07e6 50 ef           JNC        LAB_CODE_07d7
       CODE:07e8 80 8b           SJMP       LAB_CODE_0775
                             **************************************************************
                             *                          FUNCTION                          *
                             **************************************************************
                             undefined FUN_CODE_07ea()
             undefined         ACC:1          <RETURN>
                             FUN_CODE_07ea                                   XREF[1]:     FUN_CODE_0756:076b(c)  
       CODE:07ea 78 bd           MOV        R0,#0xbd
       CODE:07ec 7a 05           MOV        R2,#0x5
       CODE:07ee 12 2c 38        LCALL      FUN_CODE_2c38                                              undefined FUN_CODE_2c38()
       CODE:07f1 78 2f           MOV        R0,#0x2f
       CODE:07f3 7a 06           MOV        R2,#0x6
       CODE:07f5 12 2c 38        LCALL      FUN_CODE_2c38                                              undefined FUN_CODE_2c38()
       CODE:07f8 78 00           MOV        R0,#0x0
       CODE:07fa 7a 08           MOV        R2,#0x8
       CODE:07fc 12 2c 49        LCALL      FUN_CODE_2c49                                              undefined FUN_CODE_2c49()
       CODE:07ff 78 bf           MOV        R0,#0xbf
       CODE:0801 76 0f           MOV        @R0=>DAT_INTMEM_bf,#0xf                                    = ??
       CODE:0803 78 c1           MOV        R0,#0xc1
       CODE:0805 76 0d           MOV        @R0=>DAT_INTMEM_c1,#0xd                                    = ??
       CODE:0807 75 2f 5c        MOV        DAT_INTMEM_2f,#0x5c                                        = ??
       CODE:080a d2 00           SETB       20.0
       CODE:080c 22              RET
                             **************************************************************
                             *                          FUNCTION                          *
                             **************************************************************
                             undefined FUN_CODE_080d()
             undefined         ACC:1          <RETURN>
                             FUN_CODE_080d                                   XREF[2]:     FUN_CODE_0756:0768(c), 
                                                                                          CODE:1e03(c)  
       CODE:080d 78 c2           MOV        R0,#0xc2
       CODE:080f 7a 1f           MOV        R2,#0x1f
       CODE:0811 12 2c 38        LCALL      FUN_CODE_2c38                                              undefined FUN_CODE_2c38()
       CODE:0814 78 35           MOV        R0,#0x35
       CODE:0816 7a 33           MOV        R2,#0x33
       CODE:0818 12 2c 38        LCALL      FUN_CODE_2c38                                              undefined FUN_CODE_2c38()
       CODE:081b 78 08           MOV        R0,#0x8
       CODE:081d 7a 51           MOV        R2,#0x51
       CODE:081f 12 2c 49        LCALL      FUN_CODE_2c49                                              undefined FUN_CODE_2c49()
       CODE:0822 75 53 10        MOV        DAT_INTMEM_53,#0x10                                        = ??
       CODE:0825 75 54 fa        MOV        DAT_INTMEM_54,#0xfa                                        = ??
       CODE:0828 75 46 19        MOV        DAT_INTMEM_46,#0x19                                        = ??
       CODE:082b 75 3c 80        MOV        DAT_INTMEM_3c,#0x80                                        = ??
       CODE:082e 75 61 00        MOV        DAT_INTMEM_61,#0x0                                         = ??
       CODE:0831 d2 24           SETB       24.4                                                       = ??
       CODE:0833 d2 1e           SETB       23.6                                                       = ??
       CODE:0835 e5 2f           MOV        A,DAT_INTMEM_2f                                            = ??
       CODE:0837 54 20           ANL        A,#0x20
       CODE:0839 44 5c           ORL        A,#0x5c
       CODE:083b f5 2f           MOV        DAT_INTMEM_2f,A                                            = ??
       CODE:083d 22              RET
                             **************************************************************
                             *                          FUNCTION                          *
                             **************************************************************
                             undefined FUN_CODE_083e()
             undefined         ACC:1          <RETURN>
                             FUN_CODE_083e                                   XREF[2]:     CODE:1d16(c), CODE:2209(c)  
       CODE:083e 12 23 72        LCALL      FUN_CODE_2372                                              undefined FUN_CODE_2372()
       CODE:0841 50 03           JNC        LAB_CODE_0846
       CODE:0843 02 0a a4        LJMP       LAB_CODE_0aa4
                             LAB_CODE_0846                                   XREF[1]:     CODE:0841(j)  
       CODE:0846 f5 f0           MOV        B,A
       CODE:0848 74 00           MOV        A,#0x0
       CODE:084a 12 23 99        LCALL      FUN_CODE_2399                                              undefined FUN_CODE_2399()
       CODE:084d e5 f0           MOV        A,B
       CODE:084f 12 23 9e        LCALL      FUN_CODE_239e                                              undefined FUN_CODE_239e()
       CODE:0852 e5 f0           MOV        A,B
       CODE:0854 b4 01 02        CJNE       A,#0x1,LAB_CODE_0859
       CODE:0857 80 38           SJMP       LAB_CODE_0891
                             LAB_CODE_0859                                   XREF[1]:     CODE:0854(j)  
       CODE:0859 b4 04 02        CJNE       A,#0x4,LAB_CODE_085e
       CODE:085c 80 56           SJMP       LAB_CODE_08b4
                             LAB_CODE_085e                                   XREF[1]:     CODE:0859(j)  
       CODE:085e b4 07 03        CJNE       A,#0x7,LAB_CODE_0864
       CODE:0861 02 08 f5        LJMP       LAB_CODE_08f5
                             LAB_CODE_0864                                   XREF[1]:     CODE:085e(j)  
       CODE:0864 b4 0a 03        CJNE       A,#0xa,LAB_CODE_086a
       CODE:0867 02 09 28        LJMP       LAB_CODE_0928
                             LAB_CODE_086a                                   XREF[1]:     CODE:0864(j)  
       CODE:086a b4 0f 03        CJNE       A,#0xf,LAB_CODE_0870
       CODE:086d 02 09 33        LJMP       LAB_CODE_0933
                             LAB_CODE_0870                                   XREF[1]:     CODE:086a(j)  
       CODE:0870 b4 16 03        CJNE       A,#0x16,LAB_CODE_0876
       CODE:0873 02 09 3e        LJMP       LAB_CODE_093e
                             LAB_CODE_0876                                   XREF[1]:     CODE:0870(j)  
       CODE:0876 b4 17 03        CJNE       A,#0x17,LAB_CODE_087c
       CODE:0879 02 09 4d        LJMP       LAB_CODE_094d
                             LAB_CODE_087c                                   XREF[1]:     CODE:0876(j)  
       CODE:087c b4 11 03        CJNE       A,#0x11,LAB_CODE_0882
       CODE:087f 02 09 5f        LJMP       LAB_CODE_095f
                             LAB_CODE_0882                                   XREF[1]:     CODE:087c(j)  
       CODE:0882 b4 12 03        CJNE       A,#0x12,LAB_CODE_0888
       CODE:0885 02 0a 70        LJMP       LAB_CODE_0a70
                             LAB_CODE_0888                                   XREF[1]:     CODE:0882(j)  
       CODE:0888 b4 13 03        CJNE       A,#0x13,LAB_CODE_088e
       CODE:088b 02 0a 8f        LJMP       LAB_CODE_0a8f
                             LAB_CODE_088e                                   XREF[1]:     CODE:0888(j)  
       CODE:088e c2 34           CLR        26.4                                                       = ??
       CODE:0890 22              RET
                             LAB_CODE_0891                                   XREF[1]:     CODE:0857(j)  
       CODE:0891 75 f0 00        MOV        B,#0x0
       CODE:0894 a2 57           MOV        CY,2a.7                                                    = ??
       CODE:0896 92 f0           MOV        B.0,CY                                                     = ??
       CODE:0898 74 01           MOV        A,#0x1
       CODE:089a 12 23 99        LCALL      FUN_CODE_2399                                              undefined FUN_CODE_2399()
       CODE:089d e5 62           MOV        A,DAT_INTMEM_62                                            = ??
       CODE:089f 12 23 9e        LCALL      FUN_CODE_239e                                              undefined FUN_CODE_239e()
       CODE:08a2 74 00           MOV        A,#0x0
       CODE:08a4 12 23 9e        LCALL      FUN_CODE_239e                                              undefined FUN_CODE_239e()
       CODE:08a7 e5 3e           MOV        A,DAT_INTMEM_3e                                            = ??
       CODE:08a9 12 23 9e        LCALL      FUN_CODE_239e                                              undefined FUN_CODE_239e()
       CODE:08ac e5 f0           MOV        A,B
       CODE:08ae 12 23 9e        LCALL      FUN_CODE_239e                                              undefined FUN_CODE_239e()
       CODE:08b1 d2 13           SETB       22.3                                                       = ??
       CODE:08b3 22              RET
                             LAB_CODE_08b4                                   XREF[1]:     CODE:085c(j)  
       CODE:08b4 12 25 40        LCALL      FUN_CODE_2540                                              undefined FUN_CODE_2540()
       CODE:08b7 75 f0 00        MOV        B,#0x0
       CODE:08ba a2 07           MOV        CY,20.7                                                    = ??
       CODE:08bc 92 f0           MOV        B.0,CY                                                     = ??
       CODE:08be a2 56           MOV        CY,2a.6                                                    = ??
       CODE:08c0 92 f1           MOV        B.1,CY                                                     = ??
       CODE:08c2 74 01           MOV        A,#0x1
       CODE:08c4 12 23 99        LCALL      FUN_CODE_2399                                              undefined FUN_CODE_2399()
       CODE:08c7 ea              MOV        A,R2
       CODE:08c8 12 23 9e        LCALL      FUN_CODE_239e                                              undefined FUN_CODE_239e()
       CODE:08cb eb              MOV        A,R3
       CODE:08cc 12 23 9e        LCALL      FUN_CODE_239e                                              undefined FUN_CODE_239e()
       CODE:08cf ec              MOV        A,R4
       CODE:08d0 12 23 9e        LCALL      FUN_CODE_239e                                              undefined FUN_CODE_239e()
       CODE:08d3 ed              MOV        A,R5
       CODE:08d4 12 23 9e        LCALL      FUN_CODE_239e                                              undefined FUN_CODE_239e()
       CODE:08d7 ee              MOV        A,R6
       CODE:08d8 12 23 9e        LCALL      FUN_CODE_239e                                              undefined FUN_CODE_239e()
       CODE:08db e5 f0           MOV        A,B
       CODE:08dd 12 23 9e        LCALL      FUN_CODE_239e                                              undefined FUN_CODE_239e()
       CODE:08e0 e5 33           MOV        A,DAT_INTMEM_33                                            = ??
       CODE:08e2 12 23 9e        LCALL      FUN_CODE_239e                                              undefined FUN_CODE_239e()
       CODE:08e5 e5 32           MOV        A,DAT_INTMEM_32                                            = ??
       CODE:08e7 12 23 9e        LCALL      FUN_CODE_239e                                              undefined FUN_CODE_239e()
       CODE:08ea e5 31           MOV        A,DAT_INTMEM_31                                            = ??
       CODE:08ec 12 23 9e        LCALL      FUN_CODE_239e                                              undefined FUN_CODE_239e()
       CODE:08ef e5 30           MOV        A,DAT_INTMEM_30                                            = ??
       CODE:08f1 12 23 9e        LCALL      FUN_CODE_239e                                              undefined FUN_CODE_239e()
       CODE:08f4 22              RET
                             LAB_CODE_08f5                                   XREF[1]:     CODE:0861(j)  
       CODE:08f5 74 01           MOV        A,#0x1
       CODE:08f7 12 23 99        LCALL      FUN_CODE_2399                                              undefined FUN_CODE_2399()
       CODE:08fa e5 3f           MOV        A,DAT_INTMEM_3f                                            = ??
       CODE:08fc 12 23 9e        LCALL      FUN_CODE_239e                                              undefined FUN_CODE_239e()
       CODE:08ff e5 40           MOV        A,DAT_INTMEM_40                                            = ??
       CODE:0901 12 23 9e        LCALL      FUN_CODE_239e                                              undefined FUN_CODE_239e()
       CODE:0904 e5 41           MOV        A,DAT_INTMEM_41                                            = ??
       CODE:0906 12 23 9e        LCALL      FUN_CODE_239e                                              undefined FUN_CODE_239e()
       CODE:0909 e5 42           MOV        A,DAT_INTMEM_42                                            = ??
       CODE:090b 12 23 9e        LCALL      FUN_CODE_239e                                              undefined FUN_CODE_239e()
       CODE:090e e5 43           MOV        A,DAT_INTMEM_43                                            = ??
       CODE:0910 12 23 9e        LCALL      FUN_CODE_239e                                              undefined FUN_CODE_239e()
       CODE:0913 e5 44           MOV        A,DAT_INTMEM_44                                            = ??
       CODE:0915 12 23 9e        LCALL      FUN_CODE_239e                                              undefined FUN_CODE_239e()
       CODE:0918 e5 45           MOV        A,DAT_INTMEM_45                                            = ??
       CODE:091a 12 23 9e        LCALL      FUN_CODE_239e                                              undefined FUN_CODE_239e()
       CODE:091d e5 46           MOV        A,DAT_INTMEM_46                                            = ??
       CODE:091f 12 23 9e        LCALL      FUN_CODE_239e                                              undefined FUN_CODE_239e()
       CODE:0922 e5 56           MOV        A,DAT_INTMEM_56                                            = ??
       CODE:0924 12 23 9e        LCALL      FUN_CODE_239e                                              undefined FUN_CODE_239e()
       CODE:0927 22              RET
                             LAB_CODE_0928                                   XREF[1]:     CODE:0867(j)  
       CODE:0928 74 01           MOV        A,#0x1
       CODE:092a 12 23 99        LCALL      FUN_CODE_2399                                              undefined FUN_CODE_2399()
       CODE:092d e5 36           MOV        A,DAT_INTMEM_36                                            = ??
       CODE:092f 12 23 9e        LCALL      FUN_CODE_239e                                              undefined FUN_CODE_239e()
       CODE:0932 22              RET
                             LAB_CODE_0933                                   XREF[1]:     CODE:086d(j)  
       CODE:0933 74 01           MOV        A,#0x1
       CODE:0935 12 23 99        LCALL      FUN_CODE_2399                                              undefined FUN_CODE_2399()
       CODE:0938 e5 2f           MOV        A,DAT_INTMEM_2f                                            = ??
       CODE:093a 12 23 9e        LCALL      FUN_CODE_239e                                              undefined FUN_CODE_239e()
       CODE:093d 22              RET
                             LAB_CODE_093e                                   XREF[1]:     CODE:0873(j)  
       CODE:093e 78 bf           MOV        R0,#0xbf
       CODE:0940 86 f0           MOV        B,@R0=>DAT_INTMEM_bf                                       = ??
       CODE:0942 74 01           MOV        A,#0x1
       CODE:0944 12 23 99        LCALL      FUN_CODE_2399                                              undefined FUN_CODE_2399()
       CODE:0947 e5 f0           MOV        A,B
       CODE:0949 12 23 9e        LCALL      FUN_CODE_239e                                              undefined FUN_CODE_239e()
       CODE:094c 22              RET
                             LAB_CODE_094d                                   XREF[1]:     CODE:0879(j)  
       CODE:094d 75 f0 00        MOV        B,#0x0
       CODE:0950 a2 05           MOV        CY,20.5                                                    = ??
       CODE:0952 92 f0           MOV        B.0,CY                                                     = ??
       CODE:0954 74 01           MOV        A,#0x1
       CODE:0956 12 23 99        LCALL      FUN_CODE_2399                                              undefined FUN_CODE_2399()
       CODE:0959 e5 f0           MOV        A,B
       CODE:095b 12 23 9e        LCALL      FUN_CODE_239e                                              undefined FUN_CODE_239e()
       CODE:095e 22              RET
                             LAB_CODE_095f                                   XREF[1]:     CODE:087f(j)  
       CODE:095f d2 d5           SETB       F0                                                         = ??
       CODE:0961 e5 2f           MOV        A,DAT_INTMEM_2f                                            = ??
       CODE:0963 20 e5 0b        JB         ACC.5,LAB_CODE_0971                                        = ??
       CODE:0966 30 e6 08        JNB        ACC.6,LAB_CODE_0971                                        = ??
       CODE:0969 64 58           XRL        A,#0x58
       CODE:096b 54 5c           ANL        A,#0x5c
       CODE:096d 60 02           JZ         LAB_CODE_0971
       CODE:096f c2 d5           CLR        F0                                                         = ??
                             LAB_CODE_0971                                   XREF[3]:     CODE:0963(j), CODE:0966(j), 
                                                                                          CODE:096d(j)  
       CODE:0971 74 01           MOV        A,#0x1
       CODE:0973 12 23 7e        LCALL      FUN_CODE_237e                                              undefined FUN_CODE_237e()
       CODE:0976 12 23 83        LCALL      FUN_CODE_2383                                              undefined FUN_CODE_2383()
       CODE:0979 fa              MOV        R2,A
       CODE:097a 12 23 83        LCALL      FUN_CODE_2383                                              undefined FUN_CODE_2383()
       CODE:097d fb              MOV        R3,A
       CODE:097e 12 23 83        LCALL      FUN_CODE_2383                                              undefined FUN_CODE_2383()
       CODE:0981 fc              MOV        R4,A
       CODE:0982 12 23 83        LCALL      FUN_CODE_2383                                              undefined FUN_CODE_2383()
       CODE:0985 fd              MOV        R5,A
       CODE:0986 12 23 83        LCALL      FUN_CODE_2383                                              undefined FUN_CODE_2383()
       CODE:0989 fe              MOV        R6,A
       CODE:098a ea              MOV        A,R2
       CODE:098b 30 e0 37        JNB        ACC.0,LAB_CODE_09c5                                        = ??
       CODE:098e 30 d5 65        JNB        F0,LAB_CODE_09f6                                           = ??
       CODE:0991 75 60 fa        MOV        DAT_INTMEM_60,#0xfa                                        = ??
       CODE:0994 30 e1 10        JNB        ACC.1,LAB_CODE_09a7                                        = ??
       CODE:0997 d2 33           SETB       26.3                                                       = ??
       CODE:0999 75 60 02        MOV        DAT_INTMEM_60,#0x2                                         = ??
       CODE:099c 74 01           MOV        A,#0x1
       CODE:099e 12 23 99        LCALL      FUN_CODE_2399                                              undefined FUN_CODE_2399()
       CODE:09a1 74 00           MOV        A,#0x0
       CODE:09a3 12 23 9e        LCALL      FUN_CODE_239e                                              undefined FUN_CODE_239e()
       CODE:09a6 22              RET
                             LAB_CODE_09a7                                   XREF[1]:     CODE:0994(j)  
       CODE:09a7 30 e2 0d        JNB        ACC.2,LAB_CODE_09b7                                        = ??
       CODE:09aa c2 33           CLR        26.3                                                       = ??
       CODE:09ac 74 01           MOV        A,#0x1
       CODE:09ae 12 23 99        LCALL      FUN_CODE_2399                                              undefined FUN_CODE_2399()
       CODE:09b1 74 00           MOV        A,#0x0
       CODE:09b3 12 23 9e        LCALL      FUN_CODE_239e                                              undefined FUN_CODE_239e()
       CODE:09b6 22              RET
                             LAB_CODE_09b7                                   XREF[1]:     CODE:09a7(j)  
       CODE:09b7 20 33 0b        JB         26.3,LAB_CODE_09c5                                         = ??
       CODE:09ba 74 01           MOV        A,#0x1
       CODE:09bc 12 23 99        LCALL      FUN_CODE_2399                                              undefined FUN_CODE_2399()
       CODE:09bf 74 04           MOV        A,#0x4
       CODE:09c1 12 23 9e        LCALL      FUN_CODE_239e                                              undefined FUN_CODE_239e()
       CODE:09c4 22              RET
                             LAB_CODE_09c5                                   XREF[2]:     CODE:098b(j), CODE:09b7(j)  
       CODE:09c5 a2 e0           MOV        CY,ACC.0                                                   = ??
       CODE:09c7 92 d5           MOV        F0,CY                                                      = ??
       CODE:09c9 c4              SWAP       A
       CODE:09ca 54 0f           ANL        A,#0xf
       CODE:09cc f5 f0           MOV        B,A
       CODE:09ce eb              MOV        A,R3
       CODE:09cf c4              SWAP       A
       CODE:09d0 54 0f           ANL        A,#0xf
       CODE:09d2 25 f0           ADD        A,B
       CODE:09d4 24 f5           ADD        A,#0xf5
       CODE:09d6 40 13           JC         LAB_CODE_09eb
       CODE:09d8 eb              MOV        A,R3
       CODE:09d9 54 0f           ANL        A,#0xf
       CODE:09db 24 f2           ADD        A,#0xf2
       CODE:09dd 40 0c           JC         LAB_CODE_09eb
       CODE:09df ec              MOV        A,R4
       CODE:09e0 20 e7 1e        JB         ACC.7,LAB_CODE_0a01                                        = ??
       CODE:09e3 ed              MOV        A,R5
       CODE:09e4 20 e7 1a        JB         ACC.7,LAB_CODE_0a01                                        = ??
       CODE:09e7 ee              MOV        A,R6
       CODE:09e8 20 e7 16        JB         ACC.7,LAB_CODE_0a01                                        = ??
                             LAB_CODE_09eb                                   XREF[7]:     CODE:09d6(j), CODE:09dd(j), 
                                                                                          CODE:0a2b(j), CODE:0a2d(j), 
                                                                                          CODE:0a58(j), CODE:0a5a(j), 
                                                                                          CODE:0a68(j)  
       CODE:09eb 74 01           MOV        A,#0x1
       CODE:09ed 12 23 99        LCALL      FUN_CODE_2399                                              undefined FUN_CODE_2399()
       CODE:09f0 74 02           MOV        A,#0x2
       CODE:09f2 12 23 9e        LCALL      FUN_CODE_239e                                              undefined FUN_CODE_239e()
       CODE:09f5 22              RET
                             LAB_CODE_09f6                                   XREF[1]:     CODE:098e(j)  
       CODE:09f6 74 01           MOV        A,#0x1
       CODE:09f8 12 23 99        LCALL      FUN_CODE_2399                                              undefined FUN_CODE_2399()
       CODE:09fb 74 01           MOV        A,#0x1
       CODE:09fd 12 23 9e        LCALL      FUN_CODE_239e                                              undefined FUN_CODE_239e()
       CODE:0a00 22              RET
                             LAB_CODE_0a01                                   XREF[3]:     CODE:09e0(j), CODE:09e4(j), 
                                                                                          CODE:09e8(j)  
       CODE:0a01 ea              MOV        A,R2
       CODE:0a02 c4              SWAP       A
       CODE:0a03 54 0f           ANL        A,#0xf
       CODE:0a05 fa              MOV        R2,A
       CODE:0a06 60 28           JZ         LAB_CODE_0a30
       CODE:0a08 ec              MOV        A,R4
       CODE:0a09 20 e7 04        JB         ACC.7,LAB_CODE_0a10                                        = ??
       CODE:0a0c 7a 00           MOV        R2,#0x0
       CODE:0a0e 80 20           SJMP       LAB_CODE_0a30
                             LAB_CODE_0a10                                   XREF[1]:     CODE:0a09(j)  
       CODE:0a10 54 7f           ANL        A,#0x7f
       CODE:0a12 b4 39 18        CJNE       A,#0x39,LAB_CODE_0a2d
       CODE:0a15 74 06           MOV        A,#0x6
       CODE:0a17 12 23 7e        LCALL      FUN_CODE_237e                                              undefined FUN_CODE_237e()
       CODE:0a1a 12 23 83        LCALL      FUN_CODE_2383                                              undefined FUN_CODE_2383()
       CODE:0a1d fc              MOV        R4,A
       CODE:0a1e ec              MOV        A,R4
       CODE:0a1f 24 30           ADD        A,#0x30
       CODE:0a21 50 0a           JNC        LAB_CODE_0a2d
       CODE:0a23 ec              MOV        A,R4
       CODE:0a24 24 0a           ADD        A,#0xa
       CODE:0a26 40 05           JC         LAB_CODE_0a2d
       CODE:0a28 20 d5 05        JB         F0,LAB_CODE_0a30                                           = ??
       CODE:0a2b 80 be           SJMP       LAB_CODE_09eb
                             LAB_CODE_0a2d                                   XREF[3]:     CODE:0a12(j), CODE:0a21(j), 
                                                                                          CODE:0a26(j)  
       CODE:0a2d 20 d5 bb        JB         F0,LAB_CODE_09eb                                           = ??
                             LAB_CODE_0a30                                   XREF[3]:     CODE:0a06(j), CODE:0a0e(j), 
                                                                                          CODE:0a28(j)  
       CODE:0a30 eb              MOV        A,R3
       CODE:0a31 c4              SWAP       A
       CODE:0a32 54 0f           ANL        A,#0xf
       CODE:0a34 60 27           JZ         LAB_CODE_0a5d
       CODE:0a36 ed              MOV        A,R5
       CODE:0a37 30 e7 23        JNB        ACC.7,LAB_CODE_0a5d                                        = ??
       CODE:0a3a 54 7f           ANL        A,#0x7f
       CODE:0a3c b4 39 1b        CJNE       A,#0x39,LAB_CODE_0a5a
       CODE:0a3f 74 05           MOV        A,#0x5
       CODE:0a41 2a              ADD        A,R2
       CODE:0a42 fa              MOV        R2,A
       CODE:0a43 ea              MOV        A,R2
       CODE:0a44 12 23 7e        LCALL      FUN_CODE_237e                                              undefined FUN_CODE_237e()
       CODE:0a47 12 23 83        LCALL      FUN_CODE_2383                                              undefined FUN_CODE_2383()
       CODE:0a4a fd              MOV        R5,A
       CODE:0a4b ed              MOV        A,R5
       CODE:0a4c 24 30           ADD        A,#0x30
       CODE:0a4e 50 0a           JNC        LAB_CODE_0a5a
       CODE:0a50 ed              MOV        A,R5
       CODE:0a51 24 2f           ADD        A,#0x2f
       CODE:0a53 40 05           JC         LAB_CODE_0a5a
       CODE:0a55 20 d5 05        JB         F0,LAB_CODE_0a5d                                           = ??
       CODE:0a58 80 91           SJMP       LAB_CODE_09eb
                             LAB_CODE_0a5a                                   XREF[3]:     CODE:0a3c(j), CODE:0a4e(j), 
                                                                                          CODE:0a53(j)  
       CODE:0a5a 20 d5 8e        JB         F0,LAB_CODE_09eb                                           = ??
                             LAB_CODE_0a5d                                   XREF[3]:     CODE:0a34(j), CODE:0a37(j), 
                                                                                          CODE:0a55(j)  
       CODE:0a5d ee              MOV        A,R6
       CODE:0a5e 30 e7 0a        JNB        ACC.7,LAB_CODE_0a6b                                        = ??
       CODE:0a61 54 7f           ANL        A,#0x7f
       CODE:0a63 b4 39 02        CJNE       A,#0x39,LAB_CODE_0a68
       CODE:0a66 80 03           SJMP       LAB_CODE_0a6b
                             LAB_CODE_0a68                                   XREF[1]:     CODE:0a63(j)  
       CODE:0a68 20 d5 80        JB         F0,LAB_CODE_09eb                                           = ??
                             LAB_CODE_0a6b                                   XREF[2]:     CODE:0a5e(j), CODE:0a66(j)  
       CODE:0a6b d2 2b           SETB       25.3                                                       = ??
       CODE:0a6d d2 35           SETB       26.5                                                       = ??
       CODE:0a6f 22              RET
                             LAB_CODE_0a70                                   XREF[1]:     CODE:0885(j)  
       CODE:0a70 74 01           MOV        A,#0x1
       CODE:0a72 12 23 99        LCALL      FUN_CODE_2399                                              undefined FUN_CODE_2399()
       CODE:0a75 74 21           MOV        A,#0x21
       CODE:0a77 12 23 9e        LCALL      FUN_CODE_239e                                              undefined FUN_CODE_239e()
       CODE:0a7a 74 01           MOV        A,#0x1
       CODE:0a7c 12 23 9e        LCALL      FUN_CODE_239e                                              undefined FUN_CODE_239e()
       CODE:0a7f 74 0a           MOV        A,#0xa
       CODE:0a81 12 23 9e        LCALL      FUN_CODE_239e                                              undefined FUN_CODE_239e()
       CODE:0a84 e5 66           MOV        A,DAT_INTMEM_66                                            = ??
       CODE:0a86 12 23 9e        LCALL      FUN_CODE_239e                                              undefined FUN_CODE_239e()
       CODE:0a89 e5 67           MOV        A,DAT_INTMEM_67                                            = ??
       CODE:0a8b 12 23 9e        LCALL      FUN_CODE_239e                                              undefined FUN_CODE_239e()
       CODE:0a8e 22              RET
                             LAB_CODE_0a8f                                   XREF[1]:     CODE:088b(j)  
       CODE:0a8f 74 01           MOV        A,#0x1
       CODE:0a91 12 23 7e        LCALL      FUN_CODE_237e                                              undefined FUN_CODE_237e()
       CODE:0a94 74 01           MOV        A,#0x1
       CODE:0a96 12 23 99        LCALL      FUN_CODE_2399                                              undefined FUN_CODE_2399()
       CODE:0a99 7a 0f           MOV        R2,#0xf
                             LAB_CODE_0a9b                                   XREF[1]:     CODE:0aa1(j)  
       CODE:0a9b 12 23 83        LCALL      FUN_CODE_2383                                              undefined FUN_CODE_2383()
       CODE:0a9e 12 23 9e        LCALL      FUN_CODE_239e                                              undefined FUN_CODE_239e()
       CODE:0aa1 da f8           DJNZ       R2,LAB_CODE_0a9b
       CODE:0aa3 22              RET
                             LAB_CODE_0aa4                                   XREF[1]:     CODE:0843(j)  
       CODE:0aa4 b4 82 02        CJNE       A,#0x82,LAB_CODE_0aa9
       CODE:0aa7 80 55           SJMP       LAB_CODE_0afe
                             LAB_CODE_0aa9                                   XREF[1]:     CODE:0aa4(j)  
       CODE:0aa9 b4 85 03        CJNE       A,#0x85,LAB_CODE_0aaf
       CODE:0aac 02 0b 61        LJMP       LAB_CODE_0b61
                             LAB_CODE_0aaf                                   XREF[1]:     CODE:0aa9(j)  
       CODE:0aaf b4 9b 03        CJNE       A,#0x9b,LAB_CODE_0ab5
       CODE:0ab2 02 0b 84        LJMP       LAB_CODE_0b84
                             LAB_CODE_0ab5                                   XREF[1]:     CODE:0aaf(j)  
       CODE:0ab5 b4 88 03        CJNE       A,#0x88,LAB_CODE_0abb
       CODE:0ab8 02 0b bd        LJMP       LAB_CODE_0bbd
                             LAB_CODE_0abb                                   XREF[1]:     CODE:0ab5(j)  
       CODE:0abb b4 89 03        CJNE       A,#0x89,LAB_CODE_0ac1
       CODE:0abe 02 0b d4        LJMP       LAB_CODE_0bd4
                             LAB_CODE_0ac1                                   XREF[1]:     CODE:0abb(j)  
       CODE:0ac1 b4 94 03        CJNE       A,#0x94,LAB_CODE_0ac7
       CODE:0ac4 02 0b df        LJMP       LAB_CODE_0bdf
                             LAB_CODE_0ac7                                   XREF[1]:     CODE:0ac1(j)  
       CODE:0ac7 b4 8b 03        CJNE       A,#0x8b,LAB_CODE_0acd
       CODE:0aca 02 0b ea        LJMP       LAB_CODE_0bea
                             LAB_CODE_0acd                                   XREF[1]:     CODE:0ac7(j)  
       CODE:0acd b4 98 03        CJNE       A,#0x98,LAB_CODE_0ad3
       CODE:0ad0 02 0c 1b        LJMP       LAB_CODE_0c1b
                             LAB_CODE_0ad3                                   XREF[1]:     CODE:0acd(j)  
       CODE:0ad3 b4 8c 03        CJNE       A,#0x8c,LAB_CODE_0ad9
       CODE:0ad6 02 0c 1e        LJMP       LAB_CODE_0c1e
                             LAB_CODE_0ad9                                   XREF[1]:     CODE:0ad3(j)  
       CODE:0ad9 b4 99 03        CJNE       A,#0x99,LAB_CODE_0adf
       CODE:0adc 02 0c 43        LJMP       LAB_CODE_0c43
                             LAB_CODE_0adf                                   XREF[1]:     CODE:0ad9(j)  
       CODE:0adf b4 8d 03        CJNE       A,#0x8d,LAB_CODE_0ae5
       CODE:0ae2 02 0c 62        LJMP       LAB_CODE_0c62
                             LAB_CODE_0ae5                                   XREF[1]:     CODE:0adf(j)  
       CODE:0ae5 b4 95 03        CJNE       A,#0x95,LAB_CODE_0aeb
       CODE:0ae8 02 0c 75        LJMP       LAB_CODE_0c75
                             LAB_CODE_0aeb                                   XREF[1]:     CODE:0ae5(j)  
       CODE:0aeb b4 90 03        CJNE       A,#0x90,LAB_CODE_0af1
       CODE:0aee 02 0c 89        LJMP       LAB_CODE_0c89
                             LAB_CODE_0af1                                   XREF[1]:     CODE:0aeb(j)  
       CODE:0af1 b4 9a 03        CJNE       A,#0x9a,LAB_CODE_0af7
       CODE:0af4 02 0c a8        LJMP       LAB_CODE_0ca8
                             LAB_CODE_0af7                                   XREF[1]:     CODE:0af1(j)  
       CODE:0af7 b4 9c 03        CJNE       A,#0x9c,LAB_CODE_0afd
       CODE:0afa 02 0c e5        LJMP       LAB_CODE_0ce5
                             LAB_CODE_0afd                                   XREF[1]:     CODE:0af7(j)  
       CODE:0afd 22              RET
                             LAB_CODE_0afe                                   XREF[1]:     CODE:0aa7(j)  
       CODE:0afe 74 01           MOV        A,#0x1
       CODE:0b00 12 23 7e        LCALL      FUN_CODE_237e                                              undefined FUN_CODE_237e()
       CODE:0b03 12 23 83        LCALL      FUN_CODE_2383                                              undefined FUN_CODE_2383()
       CODE:0b06 fa              MOV        R2,A
       CODE:0b07 12 23 83        LCALL      FUN_CODE_2383                                              undefined FUN_CODE_2383()
       CODE:0b0a fb              MOV        R3,A
       CODE:0b0b 12 23 83        LCALL      FUN_CODE_2383                                              undefined FUN_CODE_2383()
       CODE:0b0e fc              MOV        R4,A
       CODE:0b0f 12 23 83        LCALL      FUN_CODE_2383                                              undefined FUN_CODE_2383()
       CODE:0b12 fd              MOV        R5,A
       CODE:0b13 ba 01 15        CJNE       R2,#0x1,LAB_CODE_0b2b
       CODE:0b16 bb 00 07        CJNE       R3,#0x0,LAB_CODE_0b20
       CODE:0b19 d2 08           SETB       21.0                                                       = ??
       CODE:0b1b 75 3d 01        MOV        DAT_INTMEM_3d,#0x1                                         = ??
       CODE:0b1e 80 3c           SJMP       LAB_CODE_0b5c
                             LAB_CODE_0b20                                   XREF[1]:     CODE:0b16(j)  
       CODE:0b20 bb 32 07        CJNE       R3,#0x32,LAB_CODE_0b2a
       CODE:0b23 d2 04           SETB       20.4                                                       = ??
       CODE:0b25 75 3d 00        MOV        DAT_INTMEM_3d,#0x0                                         = ??
       CODE:0b28 80 32           SJMP       LAB_CODE_0b5c
                             LAB_CODE_0b2a                                   XREF[1]:     CODE:0b20(j)  
       CODE:0b2a 22              RET
                             LAB_CODE_0b2b                                   XREF[1]:     CODE:0b13(j)  
       CODE:0b2b ba 04 2d        CJNE       R2,#0x4,LAB_CODE_0b5b
       CODE:0b2e bb 31 10        CJNE       R3,#0x31,LAB_CODE_0b41
       CODE:0b31 d2 14           SETB       22.4                                                       = ??
       CODE:0b33 ed              MOV        A,R5
       CODE:0b34 a2 e0           MOV        CY,ACC.0                                                   = ??
       CODE:0b36 92 15           MOV        22.5,CY                                                    = ??
       CODE:0b38 a2 e1           MOV        CY,ACC.1                                                   = ??
       CODE:0b3a 92 16           MOV        22.6,CY                                                    = ??
       CODE:0b3c 75 3d 01        MOV        DAT_INTMEM_3d,#0x1                                         = ??
       CODE:0b3f 80 1b           SJMP       LAB_CODE_0b5c
                             LAB_CODE_0b41                                   XREF[1]:     CODE:0b2e(j)  
       CODE:0b41 bb 30 07        CJNE       R3,#0x30,LAB_CODE_0b4b
       CODE:0b44 d2 03           SETB       20.3                                                       = ??
       CODE:0b46 75 3d 00        MOV        DAT_INTMEM_3d,#0x0                                         = ??
       CODE:0b49 80 11           SJMP       LAB_CODE_0b5c
                             LAB_CODE_0b4b                                   XREF[1]:     CODE:0b41(j)  
       CODE:0b4b bb 33 0c        CJNE       R3,#0x33,LAB_CODE_0b5a
       CODE:0b4e c2 14           CLR        22.4                                                       = ??
       CODE:0b50 c2 08           CLR        21.0                                                       = ??
       CODE:0b52 c2 1f           CLR        23.7                                                       = ??
       CODE:0b54 c2 0b           CLR        21.3                                                       = ??
       CODE:0b56 75 3d 00        MOV        DAT_INTMEM_3d,#0x0                                         = ??
       CODE:0b59 22              RET
                             LAB_CODE_0b5a                                   XREF[1]:     CODE:0b4b(j)  
       CODE:0b5a 22              RET
                             LAB_CODE_0b5b                                   XREF[1]:     CODE:0b2b(j)  
       CODE:0b5b 22              RET
                             LAB_CODE_0b5c                                   XREF[4]:     CODE:0b1e(j), CODE:0b28(j), 
                                                                                          CODE:0b3f(j), CODE:0b49(j)  
       CODE:0b5c 8c 63           MOV        DAT_INTMEM_63,R4                                           = ??
       CODE:0b5e c2 13           CLR        22.3                                                       = ??
       CODE:0b60 22              RET
                             LAB_CODE_0b61                                   XREF[1]:     CODE:0aac(j)  
       CODE:0b61 74 01           MOV        A,#0x1
       CODE:0b63 12 23 7e        LCALL      FUN_CODE_237e                                              undefined FUN_CODE_237e()
       CODE:0b66 12 23 83        LCALL      FUN_CODE_2383                                              undefined FUN_CODE_2383()
       CODE:0b69 fa              MOV        R2,A
       CODE:0b6a 12 23 83        LCALL      FUN_CODE_2383                                              undefined FUN_CODE_2383()
       CODE:0b6d fb              MOV        R3,A
       CODE:0b6e 12 23 83        LCALL      FUN_CODE_2383                                              undefined FUN_CODE_2383()
       CODE:0b71 fc              MOV        R4,A
       CODE:0b72 12 23 83        LCALL      FUN_CODE_2383                                              undefined FUN_CODE_2383()
       CODE:0b75 fd              MOV        R5,A
       CODE:0b76 12 23 83        LCALL      FUN_CODE_2383                                              undefined FUN_CODE_2383()
       CODE:0b79 fe              MOV        R6,A
       CODE:0b7a 12 25 4e        LCALL      FUN_CODE_254e                                              undefined FUN_CODE_254e()
       CODE:0b7d d2 07           SETB       20.7                                                       = ??
       CODE:0b7f c2 55           CLR        2a.5                                                       = ??
       CODE:0b81 d2 44           SETB       28.4                                                       = ??
       CODE:0b83 22              RET
                             LAB_CODE_0b84                                   XREF[1]:     CODE:0ab2(j)  
       CODE:0b84 74 01           MOV        A,#0x1
       CODE:0b86 12 23 7e        LCALL      FUN_CODE_237e                                              undefined FUN_CODE_237e()
       CODE:0b89 12 23 83        LCALL      FUN_CODE_2383                                              undefined FUN_CODE_2383()
       CODE:0b8c fb              MOV        R3,A
       CODE:0b8d 12 23 83        LCALL      FUN_CODE_2383                                              undefined FUN_CODE_2383()
       CODE:0b90 fc              MOV        R4,A
       CODE:0b91 12 23 83        LCALL      FUN_CODE_2383                                              undefined FUN_CODE_2383()
       CODE:0b94 fd              MOV        R5,A
       CODE:0b95 12 23 83        LCALL      FUN_CODE_2383                                              undefined FUN_CODE_2383()
       CODE:0b98 fe              MOV        R6,A
       CODE:0b99 12 23 83        LCALL      FUN_CODE_2383                                              undefined FUN_CODE_2383()
       CODE:0b9c f5 f0           MOV        B,A
       CODE:0b9e 8e 30           MOV        DAT_INTMEM_30,R6                                           = ??
       CODE:0ba0 8d 31           MOV        DAT_INTMEM_31,R5                                           = ??
       CODE:0ba2 8c 32           MOV        DAT_INTMEM_32,R4                                           = ??
       CODE:0ba4 8b 33           MOV        DAT_INTMEM_33,R3                                           = ??
       CODE:0ba6 a2 f0           MOV        CY,B.0                                                     = ??
       CODE:0ba8 92 56           MOV        2a.6,CY                                                    = ??
       CODE:0baa d2 55           SETB       2a.5                                                       = ??
       CODE:0bac ee              MOV        A,R6
       CODE:0bad 70 0b           JNZ        LAB_CODE_0bba
       CODE:0baf ed              MOV        A,R5
       CODE:0bb0 70 08           JNZ        LAB_CODE_0bba
       CODE:0bb2 ec              MOV        A,R4
       CODE:0bb3 70 05           JNZ        LAB_CODE_0bba
       CODE:0bb5 eb              MOV        A,R3
       CODE:0bb6 70 02           JNZ        LAB_CODE_0bba
       CODE:0bb8 c2 55           CLR        2a.5                                                       = ??
                             LAB_CODE_0bba                                   XREF[4]:     CODE:0bad(j), CODE:0bb0(j), 
                                                                                          CODE:0bb3(j), CODE:0bb6(j)  
       CODE:0bba d2 44           SETB       28.4                                                       = ??
       CODE:0bbc 22              RET
                             LAB_CODE_0bbd                                   XREF[1]:     CODE:0ab8(j)  
       CODE:0bbd 74 01           MOV        A,#0x1
       CODE:0bbf 12 23 7e        LCALL      FUN_CODE_237e                                              undefined FUN_CODE_237e()
       CODE:0bc2 12 23 83        LCALL      FUN_CODE_2383                                              undefined FUN_CODE_2383()
       CODE:0bc5 fa              MOV        R2,A
       CODE:0bc6 ea              MOV        A,R2
       CODE:0bc7 a2 e0           MOV        CY,ACC.0                                                   = ??
       CODE:0bc9 92 4c           MOV        29.4,CY                                                    = ??
       CODE:0bcb 30 e1 05        JNB        ACC.1,LAB_CODE_0bd3                                        = ??
       CODE:0bce d2 4b           SETB       29.3                                                       = ??
       CODE:0bd0 75 54 fa        MOV        DAT_INTMEM_54,#0xfa                                        = ??
                             LAB_CODE_0bd3                                   XREF[1]:     CODE:0bcb(j)  
       CODE:0bd3 22              RET
                             LAB_CODE_0bd4                                   XREF[1]:     CODE:0abe(j)  
       CODE:0bd4 74 01           MOV        A,#0x1
       CODE:0bd6 12 23 7e        LCALL      FUN_CODE_237e                                              undefined FUN_CODE_237e()
       CODE:0bd9 12 23 83        LCALL      FUN_CODE_2383                                              undefined FUN_CODE_2383()
       CODE:0bdc f5 57           MOV        DAT_INTMEM_57,A                                            = ??
       CODE:0bde 22              RET
                             LAB_CODE_0bdf                                   XREF[1]:     CODE:0ac4(j)  
       CODE:0bdf 74 01           MOV        A,#0x1
       CODE:0be1 12 23 7e        LCALL      FUN_CODE_237e                                              undefined FUN_CODE_237e()
       CODE:0be4 12 23 83        LCALL      FUN_CODE_2383                                              undefined FUN_CODE_2383()
       CODE:0be7 f5 58           MOV        DAT_INTMEM_58,A                                            = ??
       CODE:0be9 22              RET
                             LAB_CODE_0bea                                   XREF[1]:     CODE:0aca(j)  
       CODE:0bea 74 01           MOV        A,#0x1
       CODE:0bec 12 23 7e        LCALL      FUN_CODE_237e                                              undefined FUN_CODE_237e()
       CODE:0bef 12 23 83        LCALL      FUN_CODE_2383                                              undefined FUN_CODE_2383()
       CODE:0bf2 fa              MOV        R2,A
       CODE:0bf3 e5 36           MOV        A,DAT_INTMEM_36                                            = ??
       CODE:0bf5 ba 60 0d        CJNE       R2,#0x60,LAB_CODE_0c05
       CODE:0bf8 75 65 00        MOV        DAT_INTMEM_65,#0x0                                         = ??
       CODE:0bfb b4 60 03        CJNE       A,#0x60,LAB_CODE_0c01
       CODE:0bfe d2 3d           SETB       27.5                                                       = ??
       CODE:0c00 22              RET
                             LAB_CODE_0c01                                   XREF[1]:     CODE:0bfb(j)  
       CODE:0c01 75 37 60        MOV        DAT_INTMEM_37,#0x60                                        = ??
       CODE:0c04 22              RET
                             LAB_CODE_0c05                                   XREF[1]:     CODE:0bf5(j)  
       CODE:0c05 ba 62 0d        CJNE       R2,#0x62,LAB_CODE_0c15
       CODE:0c08 75 65 00        MOV        DAT_INTMEM_65,#0x0                                         = ??
       CODE:0c0b b4 62 03        CJNE       A,#0x62,LAB_CODE_0c11
       CODE:0c0e d2 3d           SETB       27.5                                                       = ??
       CODE:0c10 22              RET
                             LAB_CODE_0c11                                   XREF[1]:     CODE:0c0b(j)  
       CODE:0c11 75 37 62        MOV        DAT_INTMEM_37,#0x62                                        = ??
       CODE:0c14 22              RET
                             LAB_CODE_0c15                                   XREF[1]:     CODE:0c05(j)  
       CODE:0c15 ba 66 02        CJNE       R2,#0x66,LAB_CODE_0c1a
       CODE:0c18 d2 24           SETB       24.4                                                       = ??
                             LAB_CODE_0c1a                                   XREF[1]:     CODE:0c15(j)  
       CODE:0c1a 22              RET
                             LAB_CODE_0c1b                                   XREF[1]:     CODE:0ad0(j)  
       CODE:0c1b d2 28           SETB       25.0                                                       = ??
       CODE:0c1d 22              RET
                             LAB_CODE_0c1e                                   XREF[1]:     CODE:0ad6(j)  
       CODE:0c1e 85 61 f0        MOV        B,DAT_INTMEM_61                                            = ??
       CODE:0c21 74 01           MOV        A,#0x1
       CODE:0c23 12 23 7e        LCALL      FUN_CODE_237e                                              undefined FUN_CODE_237e()
       CODE:0c26 12 23 83        LCALL      FUN_CODE_2383                                              undefined FUN_CODE_2383()
       CODE:0c29 fa              MOV        R2,A
       CODE:0c2a 12 23 83        LCALL      FUN_CODE_2383                                              undefined FUN_CODE_2383()
       CODE:0c2d fb              MOV        R3,A
       CODE:0c2e ea              MOV        A,R2
       CODE:0c2f 14              DEC        A
       CODE:0c30 a2 e0           MOV        CY,ACC.0                                                   = ??
       CODE:0c32 92 f2           MOV        B.2,CY                                                     = ??
       CODE:0c34 a2 e1           MOV        CY,ACC.1                                                   = ??
       CODE:0c36 92 f3           MOV        B.3,CY                                                     = ??
       CODE:0c38 eb              MOV        A,R3
       CODE:0c39 a2 e0           MOV        CY,ACC.0                                                   = ??
       CODE:0c3b 92 f4           MOV        B.4,CY                                                     = ??
       CODE:0c3d 85 f0 61        MOV        DAT_INTMEM_61,B                                            = ??
       CODE:0c40 d2 46           SETB       28.6                                                       = ??
       CODE:0c42 22              RET
                             LAB_CODE_0c43                                   XREF[1]:     CODE:0adc(j)  
       CODE:0c43 85 61 f0        MOV        B,DAT_INTMEM_61                                            = ??
       CODE:0c46 74 01           MOV        A,#0x1
       CODE:0c48 12 23 7e        LCALL      FUN_CODE_237e                                              undefined FUN_CODE_237e()
       CODE:0c4b 12 23 83        LCALL      FUN_CODE_2383                                              undefined FUN_CODE_2383()
       CODE:0c4e fa              MOV        R2,A
       CODE:0c4f 12 23 83        LCALL      FUN_CODE_2383                                              undefined FUN_CODE_2383()
       CODE:0c52 fb              MOV        R3,A
       CODE:0c53 ea              MOV        A,R2
       CODE:0c54 a2 e0           MOV        CY,ACC.0                                                   = ??
       CODE:0c56 92 f5           MOV        B.5,CY                                                     = ??
       CODE:0c58 85 f0 61        MOV        DAT_INTMEM_61,B                                            = ??
       CODE:0c5b eb              MOV        A,R3
       CODE:0c5c 78 d6           MOV        R0,#0xd6
       CODE:0c5e f6              MOV        @R0=>DAT_INTMEM_d6,A                                       = ??
       CODE:0c5f d2 47           SETB       28.7                                                       = ??
       CODE:0c61 22              RET
                             LAB_CODE_0c62                                   XREF[1]:     CODE:0ae2(j)  
       CODE:0c62 74 01           MOV        A,#0x1
       CODE:0c64 12 23 7e        LCALL      FUN_CODE_237e                                              undefined FUN_CODE_237e()
       CODE:0c67 12 23 83        LCALL      FUN_CODE_2383                                              undefined FUN_CODE_2383()
       CODE:0c6a f5 f0           MOV        B,A
       CODE:0c6c 20 f0 03        JB         B.0,LAB_CODE_0c72                                          = ??
       CODE:0c6f c2 53           CLR        2a.3                                                       = ??
       CODE:0c71 22              RET
                             LAB_CODE_0c72                                   XREF[1]:     CODE:0c6c(j)  
       CODE:0c72 d2 53           SETB       2a.3                                                       = ??
       CODE:0c74 22              RET
                             LAB_CODE_0c75                                   XREF[1]:     CODE:0ae8(j)  
       CODE:0c75 74 01           MOV        A,#0x1
       CODE:0c77 12 23 7e        LCALL      FUN_CODE_237e                                              undefined FUN_CODE_237e()
       CODE:0c7a 12 23 83        LCALL      FUN_CODE_2383                                              undefined FUN_CODE_2383()
       CODE:0c7d f5 f0           MOV        B,A
       CODE:0c7f 53 f0 0f        ANL        B,#0xf
       CODE:0c82 78 bf           MOV        R0,#0xbf
       CODE:0c84 a6 f0           MOV        @R0=>DAT_INTMEM_bf,B                                       = ??
       CODE:0c86 d2 44           SETB       28.4                                                       = ??
       CODE:0c88 22              RET
                             LAB_CODE_0c89                                   XREF[1]:     CODE:0aee(j)  
       CODE:0c89 20 49 1b        JB         29.1,LAB_CODE_0ca7                                         = ??
       CODE:0c8c 20 3a 18        JB         27.2,LAB_CODE_0ca7                                         = ??
       CODE:0c8f 74 01           MOV        A,#0x1
       CODE:0c91 12 23 7e        LCALL      FUN_CODE_237e                                              undefined FUN_CODE_237e()
       CODE:0c94 12 23 83        LCALL      FUN_CODE_2383                                              undefined FUN_CODE_2383()
       CODE:0c97 f5 f0           MOV        B,A
       CODE:0c99 12 23 83        LCALL      FUN_CODE_2383                                              undefined FUN_CODE_2383()
       CODE:0c9c fb              MOV        R3,A
       CODE:0c9d 78 d8           MOV        R0,#0xd8
       CODE:0c9f a6 f0           MOV        @R0=>DAT_INTMEM_d8,B                                       = ??
       CODE:0ca1 eb              MOV        A,R3
       CODE:0ca2 78 d9           MOV        R0,#0xd9
       CODE:0ca4 f6              MOV        @R0=>DAT_INTMEM_d9,A                                       = ??
       CODE:0ca5 d2 49           SETB       29.1                                                       = ??
                             LAB_CODE_0ca7                                   XREF[2]:     CODE:0c89(j), CODE:0c8c(j)  
       CODE:0ca7 22              RET
                             LAB_CODE_0ca8                                   XREF[1]:     CODE:0af4(j)  
       CODE:0ca8 74 01           MOV        A,#0x1
       CODE:0caa 12 23 7e        LCALL      FUN_CODE_237e                                              undefined FUN_CODE_237e()
       CODE:0cad 12 23 83        LCALL      FUN_CODE_2383                                              undefined FUN_CODE_2383()
       CODE:0cb0 fa              MOV        R2,A
       CODE:0cb1 12 23 83        LCALL      FUN_CODE_2383                                              undefined FUN_CODE_2383()
       CODE:0cb4 fb              MOV        R3,A
       CODE:0cb5 12 23 83        LCALL      FUN_CODE_2383                                              undefined FUN_CODE_2383()
       CODE:0cb8 fc              MOV        R4,A
       CODE:0cb9 ea              MOV        A,R2
       CODE:0cba 24 f0           ADD        A,#0xf0
       CODE:0cbc 50 26           JNC        LAB_CODE_0ce4
       CODE:0cbe 8a 59           MOV        DAT_INTMEM_59,R2                                           = ??
       CODE:0cc0 8b 5b           MOV        DAT_INTMEM_5b,R3                                           = ??
       CODE:0cc2 75 5a 00        MOV        DAT_INTMEM_5a,#0x0                                         = ??
       CODE:0cc5 d2 45           SETB       28.5                                                       = ??
       CODE:0cc7 d2 32           SETB       26.2                                                       = ??
       CODE:0cc9 d2 1d           SETB       23.5                                                       = ??
       CODE:0ccb ec              MOV        A,R4
       CODE:0ccc 75 5c 04        MOV        DAT_INTMEM_5c,#0x4                                         = ??
       CODE:0ccf 20 e0 09        JB         ACC.0,LAB_CODE_0cdb                                        = ??
       CODE:0cd2 75 5c 16        MOV        DAT_INTMEM_5c,#0x16                                        = ??
       CODE:0cd5 20 e1 03        JB         ACC.1,LAB_CODE_0cdb                                        = ??
       CODE:0cd8 75 5c 0d        MOV        DAT_INTMEM_5c,#0xd                                         = ??
                             LAB_CODE_0cdb                                   XREF[2]:     CODE:0ccf(j), CODE:0cd5(j)  
       CODE:0cdb 30 13 06        JNB        22.3,LAB_CODE_0ce4                                         = ??
       CODE:0cde 78 d7           MOV        R0,#0xd7
       CODE:0ce0 a6 5c           MOV        @R0=>DAT_INTMEM_d7,DAT_INTMEM_5c                           = ??
       CODE:0ce2 d2 47           SETB       28.7                                                       = ??
                             LAB_CODE_0ce4                                   XREF[2]:     CODE:0cbc(j), CODE:0cdb(j)  
       CODE:0ce4 22              RET
                             LAB_CODE_0ce5                                   XREF[1]:     CODE:0afa(j)  
       CODE:0ce5 74 01           MOV        A,#0x1
       CODE:0ce7 12 23 7e        LCALL      FUN_CODE_237e                                              undefined FUN_CODE_237e()
       CODE:0cea 12 23 83        LCALL      FUN_CODE_2383                                              undefined FUN_CODE_2383()
       CODE:0ced fa              MOV        R2,A
       CODE:0cee 12 23 83        LCALL      FUN_CODE_2383                                              undefined FUN_CODE_2383()
       CODE:0cf1 fb              MOV        R3,A
       CODE:0cf2 8a 66           MOV        DAT_INTMEM_66,R2                                           = ??
       CODE:0cf4 8b 67           MOV        DAT_INTMEM_67,R3                                           = ??
       CODE:0cf6 22              RET
                             **************************************************************
                             *                          FUNCTION                          *
                             **************************************************************
                             undefined FUN_CODE_0cf7()
             undefined         ACC:1          <RETURN>
                             FUN_CODE_0cf7                                   XREF[1]:     CODE:1d0c(c)  
       CODE:0cf7 c3              CLR        CY
       CODE:0cf8 20 13 11        JB         22.3,LAB_CODE_0d0c                                         = ??
       CODE:0cfb c2 39           CLR        27.1                                                       = ??
       CODE:0cfd c2 3c           CLR        27.4                                                       = ??
       CODE:0cff c2 36           CLR        26.6                                                       = ??
       CODE:0d01 c2 37           CLR        26.7                                                       = ??
       CODE:0d03 c2 38           CLR        27.0                                                       = ??
       CODE:0d05 c2 3a           CLR        27.2                                                       = ??
       CODE:0d07 c2 3b           CLR        27.3                                                       = ??
       CODE:0d09 c2 3d           CLR        27.5                                                       = ??
       CODE:0d0b 22              RET
                             LAB_CODE_0d0c                                   XREF[1]:     CODE:0cf8(j)  
       CODE:0d0c 30 39 02        JNB        27.1,LAB_CODE_0d11                                         = ??
       CODE:0d0f 80 3a           SJMP       LAB_CODE_0d4b
                             LAB_CODE_0d11                                   XREF[1]:     CODE:0d0c(j)  
       CODE:0d11 30 3c 03        JNB        27.4,LAB_CODE_0d17                                         = ??
       CODE:0d14 02 0d 9e        LJMP       LAB_CODE_0d9e
                             LAB_CODE_0d17                                   XREF[1]:     CODE:0d11(j)  
       CODE:0d17 30 36 03        JNB        26.6,LAB_CODE_0d1d                                         = ??
       CODE:0d1a 02 0d ac        LJMP       LAB_CODE_0dac
                             LAB_CODE_0d1d                                   XREF[1]:     CODE:0d17(j)  
       CODE:0d1d 30 37 03        JNB        26.7,LAB_CODE_0d23                                         = ??
       CODE:0d20 02 0d c0        LJMP       LAB_CODE_0dc0
                             LAB_CODE_0d23                                   XREF[1]:     CODE:0d1d(j)  
       CODE:0d23 30 38 03        JNB        27.0,LAB_CODE_0d29                                         = ??
       CODE:0d26 02 0d cf        LJMP       LAB_CODE_0dcf
                             LAB_CODE_0d29                                   XREF[1]:     CODE:0d23(j)  
       CODE:0d29 30 3a 03        JNB        27.2,LAB_CODE_0d2f                                         = ??
       CODE:0d2c 02 0d ea        LJMP       LAB_CODE_0dea
                             LAB_CODE_0d2f                                   XREF[1]:     CODE:0d29(j)  
       CODE:0d2f 30 3b 03        JNB        27.3,LAB_CODE_0d35                                         = ??
       CODE:0d32 02 0e 0a        LJMP       LAB_CODE_0e0a
                             LAB_CODE_0d35                                   XREF[1]:     CODE:0d2f(j)  
       CODE:0d35 30 3d 03        JNB        27.5,LAB_CODE_0d3b                                         = ??
       CODE:0d38 02 0e 49        LJMP       LAB_CODE_0e49
                             LAB_CODE_0d3b                                   XREF[1]:     CODE:0d35(j)  
       CODE:0d3b 22              RET
                             LAB_CODE_0d3c                                   XREF[11]:    CODE:0d69(j), CODE:0d7a(j), 
                                                                                          CODE:0d8b(j), CODE:0d9c(j), 
                                                                                          CODE:0daa(j), CODE:0dbd(j), 
                                                                                          CODE:0dcc(j), CODE:0de7(j), 
                                                                                          CODE:0e07(j), CODE:0e46(j), 
                                                                                          CODE:0e55(j)  
       CODE:0d3c 74 00           MOV        A,#0x0
       CODE:0d3e 12 23 99        LCALL      FUN_CODE_2399                                              undefined FUN_CODE_2399()
       CODE:0d41 74 83           MOV        A,#0x83
       CODE:0d43 12 23 9e        LCALL      FUN_CODE_239e                                              undefined FUN_CODE_239e()
       CODE:0d46 12 23 a1        LCALL      FUN_CODE_23a1                                              undefined FUN_CODE_23a1()
       CODE:0d49 d3              SETB       CY
       CODE:0d4a 22              RET
                             LAB_CODE_0d4b                                   XREF[1]:     CODE:0d0f(j)  
       CODE:0d4b c2 39           CLR        27.1                                                       = ??
       CODE:0d4d 20 14 0a        JB         22.4,LAB_CODE_0d5a                                         = ??
       CODE:0d50 20 08 18        JB         21.0,LAB_CODE_0d6b                                         = ??
       CODE:0d53 20 1f 26        JB         23.7,LAB_CODE_0d7c                                         = ??
       CODE:0d56 20 0b 34        JB         21.3,LAB_CODE_0d8d                                         = ??
       CODE:0d59 22              RET
                             LAB_CODE_0d5a                                   XREF[1]:     CODE:0d4d(j)  
       CODE:0d5a 74 01           MOV        A,#0x1
       CODE:0d5c 12 23 99        LCALL      FUN_CODE_2399                                              undefined FUN_CODE_2399()
       CODE:0d5f 74 31           MOV        A,#0x31
       CODE:0d61 12 23 9e        LCALL      FUN_CODE_239e                                              undefined FUN_CODE_239e()
       CODE:0d64 74 04           MOV        A,#0x4
       CODE:0d66 12 23 9e        LCALL      FUN_CODE_239e                                              undefined FUN_CODE_239e()
       CODE:0d69 80 d1           SJMP       LAB_CODE_0d3c
                             LAB_CODE_0d6b                                   XREF[1]:     CODE:0d50(j)  
       CODE:0d6b 74 01           MOV        A,#0x1
       CODE:0d6d 12 23 99        LCALL      FUN_CODE_2399                                              undefined FUN_CODE_2399()
       CODE:0d70 74 11           MOV        A,#0x11
       CODE:0d72 12 23 9e        LCALL      FUN_CODE_239e                                              undefined FUN_CODE_239e()
       CODE:0d75 74 01           MOV        A,#0x1
       CODE:0d77 12 23 9e        LCALL      FUN_CODE_239e                                              undefined FUN_CODE_239e()
       CODE:0d7a 80 c0           SJMP       LAB_CODE_0d3c
                             LAB_CODE_0d7c                                   XREF[1]:     CODE:0d53(j)  
       CODE:0d7c 74 01           MOV        A,#0x1
       CODE:0d7e 12 23 99        LCALL      FUN_CODE_2399                                              undefined FUN_CODE_2399()
       CODE:0d81 74 20           MOV        A,#0x20
       CODE:0d83 12 23 9e        LCALL      FUN_CODE_239e                                              undefined FUN_CODE_239e()
       CODE:0d86 74 01           MOV        A,#0x1
       CODE:0d88 12 23 9e        LCALL      FUN_CODE_239e                                              undefined FUN_CODE_239e()
       CODE:0d8b 80 af           SJMP       LAB_CODE_0d3c
                             LAB_CODE_0d8d                                   XREF[1]:     CODE:0d56(j)  
       CODE:0d8d 74 01           MOV        A,#0x1
       CODE:0d8f 12 23 99        LCALL      FUN_CODE_2399                                              undefined FUN_CODE_2399()
       CODE:0d92 74 42           MOV        A,#0x42
       CODE:0d94 12 23 9e        LCALL      FUN_CODE_239e                                              undefined FUN_CODE_239e()
       CODE:0d97 74 01           MOV        A,#0x1
       CODE:0d99 12 23 9e        LCALL      FUN_CODE_239e                                              undefined FUN_CODE_239e()
       CODE:0d9c 80 9e           SJMP       LAB_CODE_0d3c
                             LAB_CODE_0d9e                                   XREF[1]:     CODE:0d14(j)  
       CODE:0d9e c2 3c           CLR        27.4                                                       = ??
       CODE:0da0 74 01           MOV        A,#0x1
       CODE:0da2 12 23 99        LCALL      FUN_CODE_2399                                              undefined FUN_CODE_2399()
       CODE:0da5 74 61           MOV        A,#0x61
       CODE:0da7 12 23 9e        LCALL      FUN_CODE_239e                                              undefined FUN_CODE_239e()
       CODE:0daa 80 90           SJMP       LAB_CODE_0d3c
                             LAB_CODE_0dac                                   XREF[1]:     CODE:0d1a(j)  
       CODE:0dac c2 36           CLR        26.6                                                       = ??
       CODE:0dae 74 01           MOV        A,#0x1
       CODE:0db0 12 23 99        LCALL      FUN_CODE_2399                                              undefined FUN_CODE_2399()
       CODE:0db3 74 40           MOV        A,#0x40
       CODE:0db5 12 23 9e        LCALL      FUN_CODE_239e                                              undefined FUN_CODE_239e()
       CODE:0db8 e5 2f           MOV        A,DAT_INTMEM_2f                                            = ??
       CODE:0dba 12 23 9e        LCALL      FUN_CODE_239e                                              undefined FUN_CODE_239e()
       CODE:0dbd 02 0d 3c        LJMP       LAB_CODE_0d3c
                             LAB_CODE_0dc0                                   XREF[1]:     CODE:0d20(j)  
       CODE:0dc0 c2 37           CLR        26.7                                                       = ??
       CODE:0dc2 74 01           MOV        A,#0x1
       CODE:0dc4 12 23 99        LCALL      FUN_CODE_2399                                              undefined FUN_CODE_2399()
       CODE:0dc7 74 13           MOV        A,#0x13
       CODE:0dc9 12 23 9e        LCALL      FUN_CODE_239e                                              undefined FUN_CODE_239e()
       CODE:0dcc 02 0d 3c        LJMP       LAB_CODE_0d3c
                             LAB_CODE_0dcf                                   XREF[1]:     CODE:0d26(j)  
       CODE:0dcf c2 38           CLR        27.0                                                       = ??
       CODE:0dd1 75 f0 00        MOV        B,#0x0
       CODE:0dd4 a2 05           MOV        CY,20.5                                                    = ??
       CODE:0dd6 92 f0           MOV        B.0,CY                                                     = ??
       CODE:0dd8 74 01           MOV        A,#0x1
       CODE:0dda 12 23 99        LCALL      FUN_CODE_2399                                              undefined FUN_CODE_2399()
       CODE:0ddd 74 14           MOV        A,#0x14
       CODE:0ddf 12 23 9e        LCALL      FUN_CODE_239e                                              undefined FUN_CODE_239e()
       CODE:0de2 e5 f0           MOV        A,B
       CODE:0de4 12 23 9e        LCALL      FUN_CODE_239e                                              undefined FUN_CODE_239e()
       CODE:0de7 02 0d 3c        LJMP       LAB_CODE_0d3c
                             LAB_CODE_0dea                                   XREF[1]:     CODE:0d2c(j)  
       CODE:0dea c2 3a           CLR        27.2                                                       = ??
       CODE:0dec 78 d8           MOV        R0,#0xd8
       CODE:0dee 86 f0           MOV        B,@R0=>DAT_INTMEM_d8                                       = ??
       CODE:0df0 78 d9           MOV        R0,#0xd9
       CODE:0df2 e6              MOV        A,@R0=>DAT_INTMEM_d9                                       = ??
       CODE:0df3 fb              MOV        R3,A
       CODE:0df4 74 01           MOV        A,#0x1
       CODE:0df6 12 23 99        LCALL      FUN_CODE_2399                                              undefined FUN_CODE_2399()
       CODE:0df9 74 44           MOV        A,#0x44
       CODE:0dfb 12 23 9e        LCALL      FUN_CODE_239e                                              undefined FUN_CODE_239e()
       CODE:0dfe e5 f0           MOV        A,B
       CODE:0e00 12 23 9e        LCALL      FUN_CODE_239e                                              undefined FUN_CODE_239e()
       CODE:0e03 eb              MOV        A,R3
       CODE:0e04 12 23 9e        LCALL      FUN_CODE_239e                                              undefined FUN_CODE_239e()
       CODE:0e07 02 0d 3c        LJMP       LAB_CODE_0d3c
                             LAB_CODE_0e0a                                   XREF[1]:     CODE:0d32(j)  
       CODE:0e0a c2 3b           CLR        27.3                                                       = ??
       CODE:0e0c 78 d2           MOV        R0,#0xd2
       CODE:0e0e e6              MOV        A,@R0=>DAT_INTMEM_d2                                       = ??
       CODE:0e0f fb              MOV        R3,A
       CODE:0e10 54 1f           ANL        A,#0x1f
       CODE:0e12 ff              MOV        R7,A
       CODE:0e13 eb              MOV        A,R3
       CODE:0e14 a2 e6           MOV        CY,ACC.6                                                   = ??
       CODE:0e16 54 80           ANL        A,#0x80
       CODE:0e18 b3              CPL        CY
       CODE:0e19 92 e0           MOV        ACC.0,CY                                                   = ??
       CODE:0e1b fb              MOV        R3,A
       CODE:0e1c 78 d3           MOV        R0,#0xd3
       CODE:0e1e e6              MOV        A,@R0=>DAT_INTMEM_d3                                       = ??
       CODE:0e1f fc              MOV        R4,A
       CODE:0e20 78 d4           MOV        R0,#0xd4
       CODE:0e22 e6              MOV        A,@R0=>DAT_INTMEM_d4                                       = ??
       CODE:0e23 fd              MOV        R5,A
       CODE:0e24 78 d5           MOV        R0,#0xd5
       CODE:0e26 e6              MOV        A,@R0=>DAT_INTMEM_d5                                       = ??
       CODE:0e27 fe              MOV        R6,A
       CODE:0e28 74 01           MOV        A,#0x1
       CODE:0e2a 12 23 99        LCALL      FUN_CODE_2399                                              undefined FUN_CODE_2399()
       CODE:0e2d 74 23           MOV        A,#0x23
       CODE:0e2f 12 23 9e        LCALL      FUN_CODE_239e                                              undefined FUN_CODE_239e()
       CODE:0e32 eb              MOV        A,R3
       CODE:0e33 12 23 9e        LCALL      FUN_CODE_239e                                              undefined FUN_CODE_239e()
       CODE:0e36 ec              MOV        A,R4
       CODE:0e37 12 23 9e        LCALL      FUN_CODE_239e                                              undefined FUN_CODE_239e()
       CODE:0e3a ed              MOV        A,R5
       CODE:0e3b 12 23 9e        LCALL      FUN_CODE_239e                                              undefined FUN_CODE_239e()
       CODE:0e3e ee              MOV        A,R6
       CODE:0e3f 12 23 9e        LCALL      FUN_CODE_239e                                              undefined FUN_CODE_239e()
       CODE:0e42 ef              MOV        A,R7
       CODE:0e43 12 23 9e        LCALL      FUN_CODE_239e                                              undefined FUN_CODE_239e()
       CODE:0e46 02 0d 3c        LJMP       LAB_CODE_0d3c
                             LAB_CODE_0e49                                   XREF[1]:     CODE:0d38(j)  
       CODE:0e49 c2 3d           CLR        27.5                                                       = ??
       CODE:0e4b 74 01           MOV        A,#0x1
       CODE:0e4d 12 23 99        LCALL      FUN_CODE_2399                                              undefined FUN_CODE_2399()
       CODE:0e50 e5 36           MOV        A,DAT_INTMEM_36                                            = ??
       CODE:0e52 12 23 9e        LCALL      FUN_CODE_239e                                              undefined FUN_CODE_239e()
       CODE:0e55 02 0d 3c        LJMP       LAB_CODE_0d3c
                             **************************************************************
                             *                          FUNCTION                          *
                             **************************************************************
                             undefined FUN_CODE_0e58()
             undefined         ACC:1          <RETURN>
                             FUN_CODE_0e58                                   XREF[1]:     FUN_CODE_0756:07d4(c)  
       CODE:0e58 20 10 05        JB         22.0,LAB_CODE_0e60                                         = ??
       CODE:0e5b 78 c6           MOV        R0,#0xc6
       CODE:0e5d 76 00           MOV        @R0=>DAT_INTMEM_c6,#0x0                                    = ??
       CODE:0e5f 22              RET
                             LAB_CODE_0e60                                   XREF[1]:     CODE:0e58(j)  
       CODE:0e60 78 c6           MOV        R0,#0xc6
       CODE:0e62 e6              MOV        A,@R0=>DAT_INTMEM_c6                                       = ??
       CODE:0e63 26              ADD        A,@R0=>DAT_INTMEM_c6                                       = ??
       CODE:0e64 26              ADD        A,@R0=>DAT_INTMEM_c6                                       = ??
       CODE:0e65 90 0e 69        MOV        DPTR,#LAB_CODE_0e69
       CODE:0e68 73              JMP        @A+DPTR
                             LAB_CODE_0e69                                   XREF[1]:     FUN_CODE_0e58:0e65(*)  
       CODE:0e69 02 0e 8a        LJMP       LAB_CODE_0e8a
       CODE:0e6c 02 0e a0        LJMP       LAB_CODE_0ea0
       CODE:0e6f 02 0e a5        LJMP       LAB_CODE_0ea5
       CODE:0e72 02 0e ac        LJMP       LAB_CODE_0eac
       CODE:0e75 02 0e ec        LJMP       LAB_CODE_0eec
       CODE:0e78 02 0e f3        LJMP       LAB_CODE_0ef3
       CODE:0e7b 02 0e fe        LJMP       LAB_CODE_0efe
       CODE:0e7e 02 0f 24        LJMP       LAB_CODE_0f24
       CODE:0e81 02 0f 3f        LJMP       LAB_CODE_0f3f
       CODE:0e84 02 0f 4a        LJMP       LAB_CODE_0f4a
       CODE:0e87 02 0f 52        LJMP       LAB_CODE_0f52
                             LAB_CODE_0e8a                                   XREF[1]:     CODE:0e69(j)  
       CODE:0e8a 20 1b 0f        JB         23.3,LAB_CODE_0e9c                                         = ??
       CODE:0e8d 20 1c 0c        JB         23.4,LAB_CODE_0e9c                                         = ??
       CODE:0e90 e5 36           MOV        A,DAT_INTMEM_36                                            = ??
       CODE:0e92 b4 63 02        CJNE       A,#0x63,LAB_CODE_0e97
       CODE:0e95 80 1d           SJMP       LAB_CODE_0eb4
                             LAB_CODE_0e97                                   XREF[1]:     CODE:0e92(j)  
       CODE:0e97 b4 64 02        CJNE       A,#0x64,LAB_CODE_0e9c
       CODE:0e9a 80 18           SJMP       LAB_CODE_0eb4
                             LAB_CODE_0e9c                                   XREF[3]:     CODE:0e8a(j), CODE:0e8d(j), 
                                                                                          CODE:0e97(j)  
       CODE:0e9c c2 23           CLR        24.3                                                       = ??
       CODE:0e9e 80 19           SJMP       LAB_CODE_0eb9
                             LAB_CODE_0ea0                                   XREF[1]:     CODE:0e6c(j)  
       CODE:0ea0 12 00 bf        LCALL      FUN_CODE_00bf                                              undefined FUN_CODE_00bf()
       CODE:0ea3 80 19           SJMP       LAB_CODE_0ebe
                             LAB_CODE_0ea5                                   XREF[1]:     CODE:0e6f(j)  
       CODE:0ea5 c2 19           CLR        23.1                                                       = ??
       CODE:0ea7 12 00 55        LCALL      FUN_CODE_0055                                              undefined FUN_CODE_0055()
       CODE:0eaa 80 17           SJMP       LAB_CODE_0ec3
                             LAB_CODE_0eac                                   XREF[1]:     CODE:0e72(j)  
       CODE:0eac 12 23 58        LCALL      FUN_CODE_2358                                              undefined FUN_CODE_2358()
       CODE:0eaf 12 23 6f        LCALL      FUN_CODE_236f                                              undefined FUN_CODE_236f()
       CODE:0eb2 80 14           SJMP       LAB_CODE_0ec8
                             LAB_CODE_0eb4                                   XREF[2]:     CODE:0e95(j), CODE:0e9a(j)  
       CODE:0eb4 78 c6           MOV        R0,#0xc6
       CODE:0eb6 76 00           MOV        @R0=>DAT_INTMEM_c6,#0x0                                    = ??
       CODE:0eb8 22              RET
                             LAB_CODE_0eb9                                   XREF[1]:     CODE:0e9e(j)  
       CODE:0eb9 78 c6           MOV        R0,#0xc6
       CODE:0ebb 76 01           MOV        @R0=>DAT_INTMEM_c6,#0x1                                    = ??
       CODE:0ebd 22              RET
                             LAB_CODE_0ebe                                   XREF[1]:     CODE:0ea3(j)  
       CODE:0ebe 78 c6           MOV        R0,#0xc6
       CODE:0ec0 76 02           MOV        @R0=>DAT_INTMEM_c6,#0x2                                    = ??
       CODE:0ec2 22              RET
                             LAB_CODE_0ec3                                   XREF[1]:     CODE:0eaa(j)  
       CODE:0ec3 78 c6           MOV        R0,#0xc6
       CODE:0ec5 76 03           MOV        @R0=>DAT_INTMEM_c6,#0x3                                    = ??
       CODE:0ec7 22              RET
                             LAB_CODE_0ec8                                   XREF[1]:     CODE:0eb2(j)  
       CODE:0ec8 78 c6           MOV        R0,#0xc6
       CODE:0eca 76 04           MOV        @R0=>DAT_INTMEM_c6,#0x4                                    = ??
       CODE:0ecc 22              RET
                             LAB_CODE_0ecd                                   XREF[1]:     CODE:0ef1(j)  
       CODE:0ecd 78 c6           MOV        R0,#0xc6
       CODE:0ecf 76 05           MOV        @R0=>DAT_INTMEM_c6,#0x5                                    = ??
       CODE:0ed1 22              RET
                             LAB_CODE_0ed2                                   XREF[1]:     CODE:0efc(j)  
       CODE:0ed2 78 c6           MOV        R0,#0xc6
       CODE:0ed4 76 06           MOV        @R0=>DAT_INTMEM_c6,#0x6                                    = ??
       CODE:0ed6 22              RET
                             LAB_CODE_0ed7                                   XREF[1]:     CODE:0f22(j)  
       CODE:0ed7 78 c6           MOV        R0,#0xc6
       CODE:0ed9 76 07           MOV        @R0=>DAT_INTMEM_c6,#0x7                                    = ??
       CODE:0edb 22              RET
                             LAB_CODE_0edc                                   XREF[1]:     CODE:0f3d(j)  
       CODE:0edc 78 c6           MOV        R0,#0xc6
       CODE:0ede 76 08           MOV        @R0=>DAT_INTMEM_c6,#0x8                                    = ??
       CODE:0ee0 22              RET
                             LAB_CODE_0ee1                                   XREF[1]:     CODE:0f46(j)  
       CODE:0ee1 78 c6           MOV        R0,#0xc6
       CODE:0ee3 76 09           MOV        @R0=>DAT_INTMEM_c6,#0x9                                    = ??
       CODE:0ee5 22              RET
                             LAB_CODE_0ee6                                   XREF[1]:     CODE:0f50(j)  
       CODE:0ee6 78 c6           MOV        R0,#0xc6
       CODE:0ee8 76 0a           MOV        @R0=>DAT_INTMEM_c6,#0xa                                    = ??
       CODE:0eea 22              RET
                             LAB_CODE_0eeb                                   XREF[8]:     CODE:0f12(j), CODE:0f1b(j), 
                                                                                          CODE:0f30(j), CODE:0f33(j), 
                                                                                          CODE:0f3f(j), CODE:0f4a(j), 
                                                                                          CODE:0f52(j), CODE:0f57(j)  
       CODE:0eeb 22              RET
                             LAB_CODE_0eec                                   XREF[1]:     CODE:0e75(j)  
       CODE:0eec c2 18           CLR        23.0                                                       = ??
       CODE:0eee 12 23 5e        LCALL      FUN_CODE_235e                                              undefined FUN_CODE_235e()
       CODE:0ef1 80 da           SJMP       LAB_CODE_0ecd
                             LAB_CODE_0ef3                                   XREF[1]:     CODE:0e78(j)  
       CODE:0ef3 12 23 52        LCALL      FUN_CODE_2352                                              undefined FUN_CODE_2352()
       CODE:0ef6 75 3d fa        MOV        DAT_INTMEM_3d,#0xfa                                        = ??
       CODE:0ef9 75 65 18        MOV        DAT_INTMEM_65,#0x18                                        = ??
       CODE:0efc 80 d4           SJMP       LAB_CODE_0ed2
                             LAB_CODE_0efe                                   XREF[1]:     CODE:0e7b(j)  
       CODE:0efe c2 1a           CLR        23.2                                                       = ??
       CODE:0f00 12 00 33        LCALL      FUN_CODE_0033                                              undefined FUN_CODE_0033()
       CODE:0f03 20 1b 18        JB         23.3,LAB_CODE_0f1e                                         = ??
       CODE:0f06 30 1c 15        JNB        23.4,LAB_CODE_0f1e                                         = ??
       CODE:0f09 c2 08           CLR        21.0                                                       = ??
       CODE:0f0b c2 1f           CLR        23.7                                                       = ??
       CODE:0f0d c2 0b           CLR        21.3                                                       = ??
       CODE:0f0f 30 4d 0c        JNB        29.5,LAB_CODE_0f1e                                         = ??
       CODE:0f12 d5 3d d6        DJNZ       DAT_INTMEM_3d,LAB_CODE_0eeb                                = ??
       CODE:0f15 20 4e 06        JB         29.6,LAB_CODE_0f1e                                         = ??
       CODE:0f18 75 3d fa        MOV        DAT_INTMEM_3d,#0xfa                                        = ??
       CODE:0f1b d5 65 cd        DJNZ       DAT_INTMEM_65,LAB_CODE_0eeb                                = ??
                             LAB_CODE_0f1e                                   XREF[4]:     CODE:0f03(j), CODE:0f06(j), 
                                                                                          CODE:0f0f(j), CODE:0f15(j)  
       CODE:0f1e c2 17           CLR        22.7                                                       = ??
       CODE:0f20 d2 2e           SETB       25.6                                                       = ??
       CODE:0f22 80 b3           SJMP       LAB_CODE_0ed7
                             LAB_CODE_0f24                                   XREF[1]:     CODE:0e7e(j)  
       CODE:0f24 12 23 41        LCALL      FUN_CODE_2341                                              undefined FUN_CODE_2341()
       CODE:0f27 20 08 0c        JB         21.0,LAB_CODE_0f36                                         = ??
       CODE:0f2a 20 1f 09        JB         23.7,LAB_CODE_0f36                                         = ??
       CODE:0f2d 20 0b 06        JB         21.3,LAB_CODE_0f36                                         = ??
       CODE:0f30 20 1b b8        JB         23.3,LAB_CODE_0eeb                                         = ??
       CODE:0f33 20 1c b5        JB         23.4,LAB_CODE_0eeb                                         = ??
                             LAB_CODE_0f36                                   XREF[3]:     CODE:0f27(j), CODE:0f2a(j), 
                                                                                          CODE:0f2d(j)  
       CODE:0f36 c2 29           CLR        25.1                                                       = ??
       CODE:0f38 c2 3e           CLR        27.6                                                       = ??
       CODE:0f3a 75 3d 19        MOV        DAT_INTMEM_3d,#0x19                                        = ??
       CODE:0f3d 80 9d           SJMP       LAB_CODE_0edc
                             LAB_CODE_0f3f                                   XREF[1]:     CODE:0e81(j)  
       CODE:0f3f d5 3d a9        DJNZ       DAT_INTMEM_3d,LAB_CODE_0eeb                                = ??
       CODE:0f42 e5 63           MOV        A,DAT_INTMEM_63                                            = ??
       CODE:0f44 f5 3d           MOV        DAT_INTMEM_3d,A                                            = ??
       CODE:0f46 70 99           JNZ        LAB_CODE_0ee1
       CODE:0f48 80 03           SJMP       LAB_CODE_0f4d
                             LAB_CODE_0f4a                                   XREF[1]:     CODE:0e84(j)  
       CODE:0f4a d5 3d 9e        DJNZ       DAT_INTMEM_3d,LAB_CODE_0eeb                                = ??
                             LAB_CODE_0f4d                                   XREF[1]:     CODE:0f48(j)  
       CODE:0f4d 30 3f 05        JNB        27.7,LAB_CODE_0f55                                         = ??
       CODE:0f50 80 94           SJMP       LAB_CODE_0ee6
                             LAB_CODE_0f52                                   XREF[1]:     CODE:0e87(j)  
       CODE:0f52 20 3f 96        JB         27.7,LAB_CODE_0eeb                                         = ??
                             LAB_CODE_0f55                                   XREF[1]:     CODE:0f4d(j)  
       CODE:0f55 c2 10           CLR        22.0                                                       = ??
       CODE:0f57 80 92           SJMP       LAB_CODE_0eeb
       CODE:0f59 78              ??         78h    x
       CODE:0f5a c3              ??         C3h
       CODE:0f5b 76              ??         76h    v
       CODE:0f5c 00              ??         00h
       CODE:0f5d 22              ??         22h    "
                             LAB_CODE_0f5e                                   XREF[2]:     CODE:0f95(j), CODE:0f9c(j)  
       CODE:0f5e 78 c3           MOV        R0,#0xc3
       CODE:0f60 76 01           MOV        @R0=>DAT_INTMEM_c3,#0x1                                    = ??
       CODE:0f62 22              RET
                             LAB_CODE_0f63                                   XREF[1]:     CODE:0fb2(j)  
       CODE:0f63 78 c3           MOV        R0,#0xc3
       CODE:0f65 76 02           MOV        @R0=>DAT_INTMEM_c3,#0x2                                    = ??
       CODE:0f67 22              RET
                             LAB_CODE_0f68                                   XREF[1]:     CODE:0fbc(j)  
       CODE:0f68 78 c3           MOV        R0,#0xc3
       CODE:0f6a 76 03           MOV        @R0=>DAT_INTMEM_c3,#0x3                                    = ??
       CODE:0f6c 22              RET
                             LAB_CODE_0f6d                                   XREF[1]:     CODE:0fd9(j)  
       CODE:0f6d 78 c3           MOV        R0,#0xc3
       CODE:0f6f 76 04           MOV        @R0=>DAT_INTMEM_c3,#0x4                                    = ??
       CODE:0f71 22              RET
                             LAB_CODE_0f72                                   XREF[1]:     CODE:0fe4(j)  
       CODE:0f72 78 c3           MOV        R0,#0xc3
       CODE:0f74 76 05           MOV        @R0=>DAT_INTMEM_c3,#0x5                                    = ??
       CODE:0f76 22              RET
                             LAB_CODE_0f77                                   XREF[1]:     CODE:0ff1(j)  
       CODE:0f77 78 c3           MOV        R0,#0xc3
       CODE:0f79 76 06           MOV        @R0=>DAT_INTMEM_c3,#0x6                                    = ??
       CODE:0f7b 22              RET
                             LAB_CODE_0f7c                                   XREF[1]:     CODE:0ff8(j)  
       CODE:0f7c 78 c3           MOV        R0,#0xc3
       CODE:0f7e 76 07           MOV        @R0=>DAT_INTMEM_c3,#0x7                                    = ??
       CODE:0f80 22              RET
                             LAB_CODE_0f81                                   XREF[1]:     CODE:0ffd(j)  
       CODE:0f81 78 c3           MOV        R0,#0xc3
       CODE:0f83 76 08           MOV        @R0=>DAT_INTMEM_c3,#0x8                                    = ??
       CODE:0f85 22              RET
                             LAB_CODE_0f86                                   XREF[1]:     CODE:1002(j)  
       CODE:0f86 78 c3           MOV        R0,#0xc3
       CODE:0f88 76 09           MOV        @R0=>DAT_INTMEM_c3,#0x9                                    = ??
       CODE:0f8a 22              RET
                             LAB_CODE_0f8b                                   XREF[1]:     CODE:0feb(j)  
       CODE:0f8b 22              RET
                             LAB_CODE_0f8c                                   XREF[1]:     CODE:1034(j)  
       CODE:0f8c 12 23 3e        LCALL      FUN_CODE_233e                                              undefined FUN_CODE_233e()
       CODE:0f8f 43 34 01        ORL        DAT_INTMEM_34,#0x1                                         = ??
       CODE:0f92 75 3d 0a        MOV        DAT_INTMEM_3d,#0xa                                         = ??
       CODE:0f95 80 c7           SJMP       LAB_CODE_0f5e
                             LAB_CODE_0f97                                   XREF[1]:     CODE:1037(j)  
       CODE:0f97 12 23 44        LCALL      FUN_CODE_2344                                              undefined FUN_CODE_2344()
       CODE:0f9a 40 14           JC         LAB_CODE_0fb0
       CODE:0f9c d5 3d bf        DJNZ       DAT_INTMEM_3d,LAB_CODE_0f5e                                = ??
       CODE:0f9f d2 1b           SETB       23.3                                                       = ??
       CODE:0fa1 75 59 01        MOV        DAT_INTMEM_59,#0x1                                         = ??
       CODE:0fa4 75 5b 01        MOV        DAT_INTMEM_5b,#0x1                                         = ??
       CODE:0fa7 75 5a 00        MOV        DAT_INTMEM_5a,#0x0                                         = ??
       CODE:0faa d2 45           SETB       28.5                                                       = ??
       CODE:0fac d2 32           SETB       26.2                                                       = ??
       CODE:0fae 80 74           SJMP       LAB_CODE_1024
                             LAB_CODE_0fb0                                   XREF[1]:     CODE:0f9a(j)  
       CODE:0fb0 d2 2d           SETB       25.5                                                       = ??
       CODE:0fb2 80 af           SJMP       LAB_CODE_0f63
                             LAB_CODE_0fb4                                   XREF[1]:     CODE:103a(j)  
       CODE:0fb4 12 23 44        LCALL      FUN_CODE_2344                                              undefined FUN_CODE_2344()
       CODE:0fb7 d2 17           SETB       22.7                                                       = ??
       CODE:0fb9 12 00 30        LCALL      FUN_CODE_0030                                              undefined FUN_CODE_0030()
       CODE:0fbc 80 aa           SJMP       LAB_CODE_0f68
                             LAB_CODE_0fbe                                   XREF[1]:     CODE:103d(j)  
       CODE:0fbe 12 00 36        LCALL      FUN_CODE_0036                                              undefined FUN_CODE_0036()
       CODE:0fc1 40 11           JC         LAB_CODE_0fd4
       CODE:0fc3 d2 1b           SETB       23.3                                                       = ??
       CODE:0fc5 75 59 03        MOV        DAT_INTMEM_59,#0x3                                         = ??
       CODE:0fc8 75 5b 03        MOV        DAT_INTMEM_5b,#0x3                                         = ??
       CODE:0fcb 75 5a 00        MOV        DAT_INTMEM_5a,#0x0                                         = ??
       CODE:0fce d2 45           SETB       28.5                                                       = ??
       CODE:0fd0 d2 32           SETB       26.2                                                       = ??
       CODE:0fd2 80 50           SJMP       LAB_CODE_1024
                             LAB_CODE_0fd4                                   XREF[1]:     CODE:0fc1(j)  
       CODE:0fd4 12 00 36        LCALL      FUN_CODE_0036                                              undefined FUN_CODE_0036()
       CODE:0fd7 d2 1a           SETB       23.2                                                       = ??
       CODE:0fd9 80 92           SJMP       LAB_CODE_0f6d
                             LAB_CODE_0fdb                                   XREF[1]:     CODE:1040(j)  
       CODE:0fdb 12 23 4f        LCALL      FUN_CODE_234f                                              undefined FUN_CODE_234f()
       CODE:0fde 12 23 5b        LCALL      FUN_CODE_235b                                              undefined FUN_CODE_235b()
       CODE:0fe1 75 3d 02        MOV        DAT_INTMEM_3d,#0x2                                         = ??
       CODE:0fe4 80 8c           SJMP       LAB_CODE_0f72
                             LAB_CODE_0fe6                                   XREF[1]:     CODE:1043(j)  
       CODE:0fe6 12 23 61        LCALL      FUN_CODE_2361                                              undefined FUN_CODE_2361()
       CODE:0fe9 d2 18           SETB       23.0                                                       = ??
       CODE:0feb d5 3d 9d        DJNZ       DAT_INTMEM_3d,LAB_CODE_0f8b                                = ??
       CODE:0fee 12 23 6c        LCALL      FUN_CODE_236c                                              undefined FUN_CODE_236c()
       CODE:0ff1 80 84           SJMP       LAB_CODE_0f77
                             LAB_CODE_0ff3                                   XREF[1]:     CODE:1046(j)  
       CODE:0ff3 12 23 55        LCALL      FUN_CODE_2355                                              undefined FUN_CODE_2355()
       CODE:0ff6 d2 23           SETB       24.3                                                       = ??
       CODE:0ff8 80 82           SJMP       LAB_CODE_0f7c
                             LAB_CODE_0ffa                                   XREF[1]:     CODE:1049(j)  
       CODE:0ffa 12 00 bc        LCALL      FUN_CODE_00bc                                              undefined FUN_CODE_00bc()
       CODE:0ffd 80 82           SJMP       LAB_CODE_0f81
                             LAB_CODE_0fff                                   XREF[1]:     CODE:104c(j)  
       CODE:0fff 12 00 52        LCALL      FUN_CODE_0052                                              undefined FUN_CODE_0052()
       CODE:1002 80 82           SJMP       LAB_CODE_0f86
                             LAB_CODE_1004                                   XREF[1]:     CODE:104f(j)  
       CODE:1004 12 00 58        LCALL      FUN_CODE_0058                                              undefined FUN_CODE_0058()
       CODE:1007 40 11           JC         LAB_CODE_101a
       CODE:1009 d2 1b           SETB       23.3                                                       = ??
       CODE:100b 75 59 02        MOV        DAT_INTMEM_59,#0x2                                         = ??
       CODE:100e 75 5b 02        MOV        DAT_INTMEM_5b,#0x2                                         = ??
       CODE:1011 75 5a 00        MOV        DAT_INTMEM_5a,#0x0                                         = ??
       CODE:1014 d2 45           SETB       28.5                                                       = ??
       CODE:1016 d2 32           SETB       26.2                                                       = ??
       CODE:1018 80 0a           SJMP       LAB_CODE_1024
                             LAB_CODE_101a                                   XREF[1]:     CODE:1007(j)  
       CODE:101a 12 00 58        LCALL      FUN_CODE_0058                                              undefined FUN_CODE_0058()
       CODE:101d d2 19           SETB       23.1                                                       = ??
       CODE:101f 80 03           SJMP       LAB_CODE_1024
                             **************************************************************
                             *                          FUNCTION                          *
                             **************************************************************
                             undefined FUN_CODE_1021()
             undefined         ACC:1          <RETURN>
                             FUN_CODE_1021                                   XREF[1]:     FUN_CODE_0756:07cb(c)  
       CODE:1021 20 0d 07        JB         21.5,LAB_CODE_102b                                         = ??
                             LAB_CODE_1024                                   XREF[4]:     CODE:0fae(j), CODE:0fd2(j), 
                                                                                          CODE:1018(j), CODE:101f(j)  
       CODE:1024 c2 0d           CLR        21.5                                                       = ??
       CODE:1026 78 c3           MOV        R0,#0xc3
       CODE:1028 76 00           MOV        @R0=>DAT_INTMEM_c3,#0x0                                    = ??
       CODE:102a 22              RET
                             LAB_CODE_102b                                   XREF[1]:     CODE:1021(j)  
       CODE:102b 78 c3           MOV        R0,#0xc3
       CODE:102d e6              MOV        A,@R0=>DAT_INTMEM_c3                                       = ??
       CODE:102e 26              ADD        A,@R0=>DAT_INTMEM_c3                                       = ??
       CODE:102f 26              ADD        A,@R0=>DAT_INTMEM_c3                                       = ??
       CODE:1030 90 10 34        MOV        DPTR,#LAB_CODE_1034
       CODE:1033 73              JMP        @A+DPTR
                             LAB_CODE_1034                                   XREF[1]:     FUN_CODE_1021:1030(*)  
       CODE:1034 02 0f 8c        LJMP       LAB_CODE_0f8c
       CODE:1037 02 0f 97        LJMP       LAB_CODE_0f97
       CODE:103a 02 0f b4        LJMP       LAB_CODE_0fb4
       CODE:103d 02 0f be        LJMP       LAB_CODE_0fbe
       CODE:1040 02 0f db        LJMP       LAB_CODE_0fdb
       CODE:1043 02 0f e6        LJMP       LAB_CODE_0fe6
       CODE:1046 02 0f f3        LJMP       LAB_CODE_0ff3
       CODE:1049 02 0f fa        LJMP       LAB_CODE_0ffa
       CODE:104c 02 0f ff        LJMP       LAB_CODE_0fff
       CODE:104f 02 10 04        LJMP       LAB_CODE_1004
       CODE:1052 78              ??         78h    x
       CODE:1053 c5              ??         C5h
       CODE:1054 76              ??         76h    v
       CODE:1055 00              ??         00h
       CODE:1056 22              ??         22h    "
                             LAB_CODE_1057                                   XREF[1]:     CODE:107b(j)  
       CODE:1057 78 c5           MOV        R0,#0xc5
       CODE:1059 76 01           MOV        @R0=>DAT_INTMEM_c5,#0x1                                    = ??
       CODE:105b 22              RET
                             LAB_CODE_105c                                   XREF[1]:     CODE:10c5(j)  
       CODE:105c 78 c5           MOV        R0,#0xc5
       CODE:105e 76 02           MOV        @R0=>DAT_INTMEM_c5,#0x2                                    = ??
       CODE:1060 22              RET
                             LAB_CODE_1061                                   XREF[2]:     CODE:10c7(j), CODE:10d4(j)  
       CODE:1061 22              RET
                             LAB_CODE_1062                                   XREF[1]:     CODE:10e7(j)  
       CODE:1062 c2 13           CLR        22.3                                                       = ??
       CODE:1064 c2 28           CLR        25.0                                                       = ??
       CODE:1066 c2 53           CLR        2a.3                                                       = ??
       CODE:1068 12 24 fd        LCALL      FUN_CODE_24fd                                              undefined FUN_CODE_24fd()
       CODE:106b 12 00 41        LCALL      FUN_CODE_0041                                              undefined FUN_CODE_0041()
       CODE:106e 12 00 69        LCALL      FUN_CODE_0069                                              undefined FUN_CODE_0069()
       CODE:1071 c2 12           CLR        22.2                                                       = ??
       CODE:1073 12 00 79        LCALL      FUN_CODE_0079                                              undefined FUN_CODE_0079()
       CODE:1076 12 00 a9        LCALL      FUN_CODE_00a9                                              undefined FUN_CODE_00a9()
       CODE:1079 c2 29           CLR        25.1                                                       = ??
       CODE:107b 80 da           SJMP       LAB_CODE_1057
                             LAB_CODE_107d                                   XREF[1]:     CODE:10ea(j)  
       CODE:107d 12 00 af        LCALL      FUN_CODE_00af                                              undefined FUN_CODE_00af()
       CODE:1080 a4              MUL        AB
       CODE:1081 a4              MUL        AB
       CODE:1082 a4              MUL        AB
       CODE:1083 a4              MUL        AB
       CODE:1084 a4              MUL        AB
       CODE:1085 a4              MUL        AB
       CODE:1086 a4              MUL        AB
       CODE:1087 a4              MUL        AB
       CODE:1088 a4              MUL        AB
       CODE:1089 a4              MUL        AB
       CODE:108a a4              MUL        AB
       CODE:108b a4              MUL        AB
       CODE:108c a4              MUL        AB
       CODE:108d a4              MUL        AB
       CODE:108e a4              MUL        AB
       CODE:108f a4              MUL        AB
       CODE:1090 a4              MUL        AB
       CODE:1091 a4              MUL        AB
       CODE:1092 a4              MUL        AB
       CODE:1093 a4              MUL        AB
       CODE:1094 a4              MUL        AB
       CODE:1095 a4              MUL        AB
       CODE:1096 a4              MUL        AB
       CODE:1097 a4              MUL        AB
       CODE:1098 a4              MUL        AB
       CODE:1099 a4              MUL        AB
       CODE:109a a4              MUL        AB
       CODE:109b a4              MUL        AB
       CODE:109c a4              MUL        AB
       CODE:109d a4              MUL        AB
       CODE:109e a4              MUL        AB
       CODE:109f a4              MUL        AB
       CODE:10a0 a4              MUL        AB
       CODE:10a1 a4              MUL        AB
       CODE:10a2 a4              MUL        AB
       CODE:10a3 a4              MUL        AB
       CODE:10a4 a4              MUL        AB
       CODE:10a5 a4              MUL        AB
       CODE:10a6 a4              MUL        AB
       CODE:10a7 a4              MUL        AB
       CODE:10a8 a4              MUL        AB
       CODE:10a9 a4              MUL        AB
       CODE:10aa a4              MUL        AB
       CODE:10ab a4              MUL        AB
       CODE:10ac a4              MUL        AB
       CODE:10ad a4              MUL        AB
       CODE:10ae a4              MUL        AB
       CODE:10af a4              MUL        AB
       CODE:10b0 a4              MUL        AB
       CODE:10b1 a4              MUL        AB
       CODE:10b2 a4              MUL        AB
       CODE:10b3 a4              MUL        AB
       CODE:10b4 a4              MUL        AB
       CODE:10b5 a4              MUL        AB
       CODE:10b6 a4              MUL        AB
       CODE:10b7 a4              MUL        AB
       CODE:10b8 a4              MUL        AB
       CODE:10b9 a4              MUL        AB
       CODE:10ba a4              MUL        AB
       CODE:10bb a4              MUL        AB
       CODE:10bc 12 00 7c        LCALL      FUN_CODE_007c                                              undefined FUN_CODE_007c()
       CODE:10bf 12 00 66        LCALL      FUN_CODE_0066                                              undefined FUN_CODE_0066()
       CODE:10c2 30 2a 05        JNB        25.2,LAB_CODE_10ca                                         = ??
       CODE:10c5 80 95           SJMP       LAB_CODE_105c
                             LAB_CODE_10c7                                   XREF[1]:     CODE:10ed(j)  
       CODE:10c7 20 2a 97        JB         25.2,LAB_CODE_1061                                         = ??
                             LAB_CODE_10ca                                   XREF[1]:     CODE:10c2(j)  
       CODE:10ca 12 00 c2        LCALL      FUN_CODE_00c2                                              undefined FUN_CODE_00c2()
       CODE:10cd 12 00 c5        LCALL      FUN_CODE_00c5                                              undefined FUN_CODE_00c5()
       CODE:10d0 d2 29           SETB       25.1                                                       = ??
       CODE:10d2 c2 0f           CLR        21.7                                                       = ??
       CODE:10d4 80 8b           SJMP       LAB_CODE_1061
                             **************************************************************
                             *                          FUNCTION                          *
                             **************************************************************
                             undefined FUN_CODE_10d6()
             undefined         ACC:1          <RETURN>
                             FUN_CODE_10d6                                   XREF[1]:     FUN_CODE_0756:07d1(c)  
       CODE:10d6 20 0f 05        JB         21.7,LAB_CODE_10de                                         = ??
       CODE:10d9 78 c5           MOV        R0,#0xc5
       CODE:10db 76 00           MOV        @R0=>DAT_INTMEM_c5,#0x0                                    = ??
       CODE:10dd 22              RET
                             LAB_CODE_10de                                   XREF[1]:     CODE:10d6(j)  
       CODE:10de 78 c5           MOV        R0,#0xc5
       CODE:10e0 e6              MOV        A,@R0=>DAT_INTMEM_c5                                       = ??
       CODE:10e1 26              ADD        A,@R0=>DAT_INTMEM_c5                                       = ??
       CODE:10e2 26              ADD        A,@R0=>DAT_INTMEM_c5                                       = ??
       CODE:10e3 90 10 e7        MOV        DPTR,#LAB_CODE_10e7
       CODE:10e6 73              JMP        @A+DPTR
                             LAB_CODE_10e7                                   XREF[1]:     FUN_CODE_10d6:10e3(*)  
       CODE:10e7 02 10 62        LJMP       LAB_CODE_1062
       CODE:10ea 02 10 7d        LJMP       LAB_CODE_107d
       CODE:10ed 02 10 c7        LJMP       LAB_CODE_10c7
       CODE:10f0 78 c2           MOV        R0,#0xc2
       CODE:10f2 76 00           MOV        @R0=>DAT_INTMEM_c2,#0x0                                    = ??
       CODE:10f4 22              RET
                             LAB_CODE_10f5                                   XREF[1]:     CODE:1126(j)  
       CODE:10f5 78 c2           MOV        R0,#0xc2
       CODE:10f7 76 01           MOV        @R0=>DAT_INTMEM_c2,#0x1                                    = ??
       CODE:10f9 22              RET
                             LAB_CODE_10fa                                   XREF[1]:     CODE:113c(j)  
       CODE:10fa 78 c2           MOV        R0,#0xc2
       CODE:10fc 76 02           MOV        @R0=>DAT_INTMEM_c2,#0x2                                    = ??
       CODE:10fe 22              RET
                             LAB_CODE_10ff                                   XREF[2]:     CODE:1146(j), CODE:1148(j)  
       CODE:10ff 78 c2           MOV        R0,#0xc2
       CODE:1101 76 03           MOV        @R0=>DAT_INTMEM_c2,#0x3                                    = ??
       CODE:1103 22              RET
                             LAB_CODE_1104                                   XREF[2]:     CODE:113e(j), CODE:1141(j)  
       CODE:1104 22              RET
                             LAB_CODE_1105                                   XREF[1]:     CODE:115b(j)  
       CODE:1105 12 23 2d        LCALL      FUN_CODE_232d                                              undefined FUN_CODE_232d()
       CODE:1108 12 22 34        LCALL      FUN_CODE_2234                                              undefined FUN_CODE_2234()
       CODE:110b 12 22 b4        LCALL      FUN_CODE_22b4                                              undefined FUN_CODE_22b4()
       CODE:110e 12 22 bc        LCALL      FUN_CODE_22bc                                              undefined FUN_CODE_22bc()
       CODE:1111 20 04 14        JB         20.4,LAB_CODE_1128                                         = ??
       CODE:1114 12 22 f9        LCALL      FUN_CODE_22f9                                              undefined FUN_CODE_22f9()
       CODE:1117 12 00 7c        LCALL      FUN_CODE_007c                                              undefined FUN_CODE_007c()
       CODE:111a 12 00 c5        LCALL      FUN_CODE_00c5                                              undefined FUN_CODE_00c5()
       CODE:111d 12 22 86        LCALL      FUN_CODE_2286                                              undefined FUN_CODE_2286()
       CODE:1120 12 23 30        LCALL      FUN_CODE_2330                                              undefined FUN_CODE_2330()
       CODE:1123 12 23 aa        LCALL      FUN_CODE_23aa                                              undefined FUN_CODE_23aa()
       CODE:1126 80 cd           SJMP       LAB_CODE_10f5
                             LAB_CODE_1128                                   XREF[1]:     CODE:1111(j)  
       CODE:1128 12 23 33        LCALL      FUN_CODE_2333                                              undefined FUN_CODE_2333()
                             LAB_CODE_112b                                   XREF[1]:     CODE:115e(j)  
       CODE:112b 12 24 0d        LCALL      FUN_CODE_240d                                              undefined FUN_CODE_240d()
       CODE:112e d2 29           SETB       25.1                                                       = ??
       CODE:1130 d2 3e           SETB       27.6                                                       = ??
       CODE:1132 d2 2c           SETB       25.4                                                       = ??
       CODE:1134 d2 42           SETB       28.2                                                       = ??
       CODE:1136 d2 48           SETB       29.0                                                       = ??
       CODE:1138 d2 43           SETB       28.3                                                       = ??
       CODE:113a d2 46           SETB       28.6                                                       = ??
       CODE:113c 80 bc           SJMP       LAB_CODE_10fa
                             LAB_CODE_113e                                   XREF[1]:     CODE:1161(j)  
       CODE:113e 20 2c c3        JB         25.4,LAB_CODE_1104                                         = ??
       CODE:1141 20 43 c0        JB         28.3,LAB_CODE_1104                                         = ??
       CODE:1144 c2 0c           CLR        21.4                                                       = ??
       CODE:1146 80 b7           SJMP       LAB_CODE_10ff
                             LAB_CODE_1148                                   XREF[1]:     CODE:1164(j)  
       CODE:1148 80 b5           SJMP       LAB_CODE_10ff
                             **************************************************************
                             *                          FUNCTION                          *
                             **************************************************************
                             undefined FUN_CODE_114a()
             undefined         ACC:1          <RETURN>
                             FUN_CODE_114a                                   XREF[1]:     FUN_CODE_0756:07c8(c)  
       CODE:114a 20 0c 05        JB         21.4,LAB_CODE_1152                                         = ??
       CODE:114d 78 c2           MOV        R0,#0xc2
       CODE:114f 76 00           MOV        @R0=>DAT_INTMEM_c2,#0x0                                    = ??
       CODE:1151 22              RET
                             LAB_CODE_1152                                   XREF[1]:     CODE:114a(j)  
       CODE:1152 78 c2           MOV        R0,#0xc2
       CODE:1154 e6              MOV        A,@R0=>DAT_INTMEM_c2                                       = ??
       CODE:1155 26              ADD        A,@R0=>DAT_INTMEM_c2                                       = ??
       CODE:1156 26              ADD        A,@R0=>DAT_INTMEM_c2                                       = ??
       CODE:1157 90 11 5b        MOV        DPTR,#LAB_CODE_115b
       CODE:115a 73              JMP        @A+DPTR
                             LAB_CODE_115b                                   XREF[1]:     FUN_CODE_114a:1157(*)  
       CODE:115b 02 11 05        LJMP       LAB_CODE_1105
       CODE:115e 02 11 2b        LJMP       LAB_CODE_112b
       CODE:1161 02 11 3e        LJMP       LAB_CODE_113e
       CODE:1164 02 11 48        LJMP       LAB_CODE_1148
                             LAB_CODE_1167                                   XREF[1]:     CODE:128b(j)  
       CODE:1167 c2 1d           CLR        23.5                                                       = ??
       CODE:1169 20 14 0a        JB         22.4,LAB_CODE_1176                                         = ??
       CODE:116c c2 28           CLR        25.0                                                       = ??
       CODE:116e 12 23 aa        LCALL      FUN_CODE_23aa                                              undefined FUN_CODE_23aa()
       CODE:1171 12 00 63        LCALL      FUN_CODE_0063                                              undefined FUN_CODE_0063()
       CODE:1174 80 5e           SJMP       LAB_CODE_11d4
                             LAB_CODE_1176                                   XREF[1]:     CODE:1169(j)  
       CODE:1176 c2 14           CLR        22.4                                                       = ??
       CODE:1178 d2 0f           SETB       21.7                                                       = ??
       CODE:117a 02 12 06        LJMP       LAB_CODE_1206
                             LAB_CODE_117d                                   XREF[1]:     CODE:128e(j)  
       CODE:117d 12 24 0d        LCALL      FUN_CODE_240d                                              undefined FUN_CODE_240d()
       CODE:1180 12 00 76        LCALL      FUN_CODE_0076                                              undefined FUN_CODE_0076()
       CODE:1183 12 00 7f        LCALL      FUN_CODE_007f                                              undefined FUN_CODE_007f()
       CODE:1186 80 51           SJMP       LAB_CODE_11d9
                             LAB_CODE_1188                                   XREF[1]:     CODE:1291(j)  
       CODE:1188 12 00 4f        LCALL      FUN_CODE_004f                                              undefined FUN_CODE_004f()
       CODE:118b 50 0f           JNC        LAB_CODE_119c
       CODE:118d 75 59 08        MOV        DAT_INTMEM_59,#0x8                                         = ??
       CODE:1190 75 5b 08        MOV        DAT_INTMEM_5b,#0x8                                         = ??
       CODE:1193 75 5a 00        MOV        DAT_INTMEM_5a,#0x0                                         = ??
       CODE:1196 d2 45           SETB       28.5                                                       = ??
       CODE:1198 d2 32           SETB       26.2                                                       = ??
       CODE:119a 80 65           SJMP       LAB_CODE_1201
                             LAB_CODE_119c                                   XREF[1]:     CODE:118b(j)  
       CODE:119c 12 00 44        LCALL      FUN_CODE_0044                                              undefined FUN_CODE_0044()
       CODE:119f 80 3d           SJMP       LAB_CODE_11de
                             LAB_CODE_11a1                                   XREF[1]:     CODE:1294(j)  
       CODE:11a1 12 00 41        LCALL      FUN_CODE_0041                                              undefined FUN_CODE_0041()
       CODE:11a4 80 3d           SJMP       LAB_CODE_11e3
                             LAB_CODE_11a6                                   XREF[1]:     CODE:1297(j)  
       CODE:11a6 12 00 44        LCALL      FUN_CODE_0044                                              undefined FUN_CODE_0044()
       CODE:11a9 80 3d           SJMP       LAB_CODE_11e8
                             LAB_CODE_11ab                                   XREF[1]:     CODE:129a(j)  
       CODE:11ab 12 00 ac        LCALL      FUN_CODE_00ac                                              undefined FUN_CODE_00ac()
       CODE:11ae 75 3d 04        MOV        DAT_INTMEM_3d,#0x4                                         = ??
       CODE:11b1 80 3a           SJMP       LAB_CODE_11ed
                             LAB_CODE_11b3                                   XREF[1]:     CODE:129d(j)  
       CODE:11b3 12 00 4f        LCALL      FUN_CODE_004f                                              undefined FUN_CODE_004f()
       CODE:11b6 40 12           JC         LAB_CODE_11ca
       CODE:11b8 d5 3d 50        DJNZ       DAT_INTMEM_3d,LAB_CODE_120b                                = ??
       CODE:11bb 75 59 08        MOV        DAT_INTMEM_59,#0x8                                         = ??
       CODE:11be 75 5b 08        MOV        DAT_INTMEM_5b,#0x8                                         = ??
       CODE:11c1 75 5a 00        MOV        DAT_INTMEM_5a,#0x0                                         = ??
       CODE:11c4 d2 45           SETB       28.5                                                       = ??
       CODE:11c6 d2 32           SETB       26.2                                                       = ??
       CODE:11c8 80 37           SJMP       LAB_CODE_1201
                             LAB_CODE_11ca                                   XREF[1]:     CODE:11b6(j)  
       CODE:11ca 75 3d 05        MOV        DAT_INTMEM_3d,#0x5                                         = ??
       CODE:11cd 80 23           SJMP       LAB_CODE_11f2
                             LAB_CODE_11cf                                   XREF[1]:     CODE:1275(j)  
       CODE:11cf 78 c4           MOV        R0,#0xc4
       CODE:11d1 76 00           MOV        @R0=>DAT_INTMEM_c4,#0x0                                    = ??
       CODE:11d3 22              RET
                             LAB_CODE_11d4                                   XREF[1]:     CODE:1174(j)  
       CODE:11d4 78 c4           MOV        R0,#0xc4
       CODE:11d6 76 01           MOV        @R0=>DAT_INTMEM_c4,#0x1                                    = ??
       CODE:11d8 22              RET
                             LAB_CODE_11d9                                   XREF[1]:     CODE:1186(j)  
       CODE:11d9 78 c4           MOV        R0,#0xc4
       CODE:11db 76 02           MOV        @R0=>DAT_INTMEM_c4,#0x2                                    = ??
       CODE:11dd 22              RET
                             LAB_CODE_11de                                   XREF[1]:     CODE:119f(j)  
       CODE:11de 78 c4           MOV        R0,#0xc4
       CODE:11e0 76 03           MOV        @R0=>DAT_INTMEM_c4,#0x3                                    = ??
       CODE:11e2 22              RET
                             LAB_CODE_11e3                                   XREF[1]:     CODE:11a4(j)  
       CODE:11e3 78 c4           MOV        R0,#0xc4
       CODE:11e5 76 04           MOV        @R0=>DAT_INTMEM_c4,#0x4                                    = ??
       CODE:11e7 22              RET
                             LAB_CODE_11e8                                   XREF[1]:     CODE:11a9(j)  
       CODE:11e8 78 c4           MOV        R0,#0xc4
       CODE:11ea 76 05           MOV        @R0=>DAT_INTMEM_c4,#0x5                                    = ??
       CODE:11ec 22              RET
                             LAB_CODE_11ed                                   XREF[1]:     CODE:11b1(j)  
       CODE:11ed 78 c4           MOV        R0,#0xc4
       CODE:11ef 76 06           MOV        @R0=>DAT_INTMEM_c4,#0x6                                    = ??
       CODE:11f1 22              RET
                             LAB_CODE_11f2                                   XREF[1]:     CODE:11cd(j)  
       CODE:11f2 78 c4           MOV        R0,#0xc4
       CODE:11f4 76 07           MOV        @R0=>DAT_INTMEM_c4,#0x7                                    = ??
       CODE:11f6 22              RET
                             LAB_CODE_11f7                                   XREF[1]:     CODE:122b(j)  
       CODE:11f7 78 c4           MOV        R0,#0xc4
       CODE:11f9 76 08           MOV        @R0=>DAT_INTMEM_c4,#0x8                                    = ??
       CODE:11fb 22              RET
                             LAB_CODE_11fc                                   XREF[1]:     CODE:1239(j)  
       CODE:11fc 78 c4           MOV        R0,#0xc4
       CODE:11fe 76 09           MOV        @R0=>DAT_INTMEM_c4,#0x9                                    = ??
       CODE:1200 22              RET
                             LAB_CODE_1201                                   XREF[6]:     CODE:119a(j), CODE:11c8(j), 
                                                                                          CODE:1221(j), CODE:1230(j), 
                                                                                          CODE:123e(j), CODE:1251(j)  
       CODE:1201 78 c4           MOV        R0,#0xc4
       CODE:1203 76 0a           MOV        @R0=>DAT_INTMEM_c4,#0xa                                    = ??
       CODE:1205 22              RET
                             LAB_CODE_1206                                   XREF[2]:     CODE:117a(j), CODE:1270(j)  
       CODE:1206 78 c4           MOV        R0,#0xc4
       CODE:1208 76 0b           MOV        @R0=>DAT_INTMEM_c4,#0xb                                    = ??
       CODE:120a 22              RET
                             LAB_CODE_120b                                   XREF[7]:     CODE:11b8(j), CODE:1211(j), 
                                                                                          CODE:1233(j), CODE:1241(j), 
                                                                                          CODE:1255(j), CODE:126c(j), 
                                                                                          CODE:1272(j)  
       CODE:120b 22              RET
                             LAB_CODE_120c                                   XREF[1]:     CODE:12a0(j)  
       CODE:120c 12 00 6f        LCALL      FUN_CODE_006f                                              undefined FUN_CODE_006f()
       CODE:120f 40 12           JC         LAB_CODE_1223
       CODE:1211 d5 3d f7        DJNZ       DAT_INTMEM_3d,LAB_CODE_120b                                = ??
       CODE:1214 75 59 09        MOV        DAT_INTMEM_59,#0x9                                         = ??
       CODE:1217 75 5b 09        MOV        DAT_INTMEM_5b,#0x9                                         = ??
       CODE:121a 75 5a 00        MOV        DAT_INTMEM_5a,#0x0                                         = ??
       CODE:121d d2 45           SETB       28.5                                                       = ??
       CODE:121f d2 32           SETB       26.2                                                       = ??
       CODE:1221 80 de           SJMP       LAB_CODE_1201
                             LAB_CODE_1223                                   XREF[1]:     CODE:120f(j)  
       CODE:1223 d2 12           SETB       22.2                                                       = ??
       CODE:1225 12 00 6c        LCALL      FUN_CODE_006c                                              undefined FUN_CODE_006c()
       CODE:1228 75 3d af        MOV        DAT_INTMEM_3d,#0xaf                                        = ??
       CODE:122b 80 ca           SJMP       LAB_CODE_11f7
                             LAB_CODE_122d                                   XREF[1]:     CODE:12a3(j)  
       CODE:122d 20 13 23        JB         22.3,LAB_CODE_1253                                         = ??
       CODE:1230 20 1d ce        JB         23.5,LAB_CODE_1201                                         = ??
       CODE:1233 d5 3d d5        DJNZ       DAT_INTMEM_3d,LAB_CODE_120b                                = ??
       CODE:1236 75 3d af        MOV        DAT_INTMEM_3d,#0xaf                                        = ??
       CODE:1239 80 c1           SJMP       LAB_CODE_11fc
                             LAB_CODE_123b                                   XREF[1]:     CODE:12a6(j)  
       CODE:123b 20 13 15        JB         22.3,LAB_CODE_1253                                         = ??
       CODE:123e 20 1d c0        JB         23.5,LAB_CODE_1201                                         = ??
       CODE:1241 d5 3d c7        DJNZ       DAT_INTMEM_3d,LAB_CODE_120b                                = ??
       CODE:1244 75 59 0a        MOV        DAT_INTMEM_59,#0xa                                         = ??
       CODE:1247 75 5b 0a        MOV        DAT_INTMEM_5b,#0xa                                         = ??
       CODE:124a 75 5a 00        MOV        DAT_INTMEM_5a,#0x0                                         = ??
       CODE:124d d2 45           SETB       28.5                                                       = ??
       CODE:124f d2 32           SETB       26.2                                                       = ??
       CODE:1251 80 ae           SJMP       LAB_CODE_1201
                             LAB_CODE_1253                                   XREF[2]:     CODE:122d(j), CODE:123b(j)  
       CODE:1253 c2 0e           CLR        21.6                                                       = ??
       CODE:1255 80 b4           SJMP       LAB_CODE_120b
                             LAB_CODE_1257                                   XREF[1]:     CODE:12a9(j)  
       CODE:1257 05 3e           INC        DAT_INTMEM_3e                                              = ??
       CODE:1259 e5 3e           MOV        A,DAT_INTMEM_3e                                            = ??
       CODE:125b b4 05 10        CJNE       A,#0x5,LAB_CODE_126e
       CODE:125e 20 1d 03        JB         23.5,LAB_CODE_1264                                         = ??
       CODE:1261 75 5c 0d        MOV        DAT_INTMEM_5c,#0xd                                         = ??
                             LAB_CODE_1264                                   XREF[1]:     CODE:125e(j)  
       CODE:1264 78 d7           MOV        R0,#0xd7
       CODE:1266 a6 5c           MOV        @R0=>DAT_INTMEM_d7,DAT_INTMEM_5c                           = ??
       CODE:1268 d2 47           SETB       28.7                                                       = ??
       CODE:126a c2 0e           CLR        21.6                                                       = ??
       CODE:126c 80 9d           SJMP       LAB_CODE_120b
                             LAB_CODE_126e                                   XREF[1]:     CODE:125b(j)  
       CODE:126e d2 0f           SETB       21.7                                                       = ??
       CODE:1270 80 94           SJMP       LAB_CODE_1206
                             LAB_CODE_1272                                   XREF[1]:     CODE:12ac(j)  
       CODE:1272 20 0f 96        JB         21.7,LAB_CODE_120b                                         = ??
       CODE:1275 02 11 cf        LJMP       LAB_CODE_11cf
       CODE:1278 80              ??         80h
       CODE:1279 91              ??         91h
                             **************************************************************
                             *                          FUNCTION                          *
                             **************************************************************
                             undefined FUN_CODE_127a()
             undefined         ACC:1          <RETURN>
                             FUN_CODE_127a                                   XREF[1]:     FUN_CODE_0756:07ce(c)  
       CODE:127a 20 0e 05        JB         21.6,LAB_CODE_1282                                         = ??
       CODE:127d 78 c4           MOV        R0,#0xc4
       CODE:127f 76 00           MOV        @R0=>DAT_INTMEM_c4,#0x0                                    = ??
       CODE:1281 22              RET
                             LAB_CODE_1282                                   XREF[1]:     CODE:127a(j)  
       CODE:1282 78 c4           MOV        R0,#0xc4
       CODE:1284 e6              MOV        A,@R0=>DAT_INTMEM_c4                                       = ??
       CODE:1285 26              ADD        A,@R0=>DAT_INTMEM_c4                                       = ??
       CODE:1286 26              ADD        A,@R0=>DAT_INTMEM_c4                                       = ??
       CODE:1287 90 12 8b        MOV        DPTR,#LAB_CODE_128b
       CODE:128a 73              JMP        @A+DPTR
                             LAB_CODE_128b                                   XREF[1]:     FUN_CODE_127a:1287(*)  
       CODE:128b 02 11 67        LJMP       LAB_CODE_1167
       CODE:128e 02 11 7d        LJMP       LAB_CODE_117d
       CODE:1291 02 11 88        LJMP       LAB_CODE_1188
       CODE:1294 02 11 a1        LJMP       LAB_CODE_11a1
       CODE:1297 02 11 a6        LJMP       LAB_CODE_11a6
       CODE:129a 02 11 ab        LJMP       LAB_CODE_11ab
       CODE:129d 02 11 b3        LJMP       LAB_CODE_11b3
       CODE:12a0 02 12 0c        LJMP       LAB_CODE_120c
       CODE:12a3 02 12 2d        LJMP       LAB_CODE_122d
       CODE:12a6 02 12 3b        LJMP       LAB_CODE_123b
       CODE:12a9 02 12 57        LJMP       LAB_CODE_1257
       CODE:12ac 02 12 72        LJMP       LAB_CODE_1272
                             LAB_CODE_12af                                   XREF[4]:     CODE:12d8(j), CODE:12e0(j), 
                                                                                          CODE:12fd(j), CODE:1310(j)  
       CODE:12af 78 c7           MOV        R0,#0xc7
       CODE:12b1 76 00           MOV        @R0=>DAT_INTMEM_c7,#0x0                                    = ??
       CODE:12b3 22              RET
                             LAB_CODE_12b4                                   XREF[1]:     CODE:12cb(j)  
       CODE:12b4 78 c7           MOV        R0,#0xc7
       CODE:12b6 76 01           MOV        @R0=>DAT_INTMEM_c7,#0x1                                    = ??
       CODE:12b8 22              RET
                             LAB_CODE_12b9                                   XREF[1]:     CODE:12f5(j)  
       CODE:12b9 78 c7           MOV        R0,#0xc7
       CODE:12bb 76 02           MOV        @R0=>DAT_INTMEM_c7,#0x2                                    = ??
       CODE:12bd 22              RET
                             LAB_CODE_12be                                   XREF[3]:     CODE:12f0(j), CODE:1302(j), 
                                                                                          CODE:1304(j)  
       CODE:12be 22              RET
                             LAB_CODE_12bf                                   XREF[1]:     CODE:131b(j)  
       CODE:12bf 75 5e 04        MOV        DAT_INTMEM_5e,#0x4                                         = ??
       CODE:12c2 12 25 1c        LCALL      FUN_CODE_251c                                              undefined FUN_CODE_251c()
       CODE:12c5 f5 5d           MOV        DAT_INTMEM_5d,A                                            = ??
       CODE:12c7 65 2f           XRL        A,DAT_INTMEM_2f                                            = ??
       CODE:12c9 54 5c           ANL        A,#0x5c
       CODE:12cb 70 e7           JNZ        LAB_CODE_12b4
       CODE:12cd e5 5d           MOV        A,DAT_INTMEM_5d                                            = ??
       CODE:12cf 64 5c           XRL        A,#0x5c
       CODE:12d1 54 5c           ANL        A,#0x5c
       CODE:12d3 70 05           JNZ        LAB_CODE_12da
                             LAB_CODE_12d5                                   XREF[1]:     CODE:12da(j)  
       CODE:12d5 12 24 fd        LCALL      FUN_CODE_24fd                                              undefined FUN_CODE_24fd()
       CODE:12d8 80 d5           SJMP       LAB_CODE_12af
                             LAB_CODE_12da                                   XREF[1]:     CODE:12d3(j)  
       CODE:12da 30 53 f8        JNB        2a.3,LAB_CODE_12d5                                         = ??
       CODE:12dd 12 24 fa        LCALL      FUN_CODE_24fa                                              undefined FUN_CODE_24fa()
       CODE:12e0 80 cd           SJMP       LAB_CODE_12af
                             LAB_CODE_12e2                                   XREF[1]:     CODE:131e(j)  
       CODE:12e2 85 5d f0        MOV        B,DAT_INTMEM_5d                                            = ??
       CODE:12e5 12 25 1c        LCALL      FUN_CODE_251c                                              undefined FUN_CODE_251c()
       CODE:12e8 f5 5d           MOV        DAT_INTMEM_5d,A                                            = ??
       CODE:12ea 65 f0           XRL        A,B
       CODE:12ec 54 5c           ANL        A,#0x5c
       CODE:12ee 70 07           JNZ        LAB_CODE_12f7
       CODE:12f0 d5 5e cb        DJNZ       DAT_INTMEM_5e,LAB_CODE_12be                                = ??
       CODE:12f3 d2 2f           SETB       25.7                                                       = ??
       CODE:12f5 80 c2           SJMP       LAB_CODE_12b9
                             LAB_CODE_12f7                                   XREF[1]:     CODE:12ee(j)  
       CODE:12f7 e5 5d           MOV        A,DAT_INTMEM_5d                                            = ??
       CODE:12f9 65 2f           XRL        A,DAT_INTMEM_2f                                            = ??
       CODE:12fb 54 5c           ANL        A,#0x5c
       CODE:12fd 60 b0           JZ         LAB_CODE_12af
       CODE:12ff 75 5e 04        MOV        DAT_INTMEM_5e,#0x4                                         = ??
       CODE:1302 80 ba           SJMP       LAB_CODE_12be
                             LAB_CODE_1304                                   XREF[1]:     CODE:1321(j)  
       CODE:1304 20 2f b7        JB         25.7,LAB_CODE_12be                                         = ??
       CODE:1307 85 5d 2f        MOV        DAT_INTMEM_2f,DAT_INTMEM_5d                                = ??
       CODE:130a d2 36           SETB       26.6                                                       = ??
       CODE:130c d2 42           SETB       28.2                                                       = ??
       CODE:130e d2 47           SETB       28.7                                                       = ??
       CODE:1310 80 9d           SJMP       LAB_CODE_12af
                             **************************************************************
                             *                          FUNCTION                          *
                             **************************************************************
                             undefined FUN_CODE_1312()
             undefined         ACC:1          <RETURN>
                             FUN_CODE_1312                                   XREF[1]:     FUN_CODE_0756:07b3(c)  
       CODE:1312 78 c7           MOV        R0,#0xc7
       CODE:1314 e6              MOV        A,@R0=>DAT_INTMEM_c7                                       = ??
       CODE:1315 26              ADD        A,@R0=>DAT_INTMEM_c7                                       = ??
       CODE:1316 26              ADD        A,@R0=>DAT_INTMEM_c7                                       = ??
       CODE:1317 90 13 1b        MOV        DPTR,#LAB_CODE_131b
       CODE:131a 73              JMP        @A+DPTR
                             LAB_CODE_131b                                   XREF[1]:     FUN_CODE_1312:1317(*)  
       CODE:131b 02 12 bf        LJMP       LAB_CODE_12bf
       CODE:131e 02 12 e2        LJMP       LAB_CODE_12e2
       CODE:1321 02 13 04        LJMP       LAB_CODE_1304
                             LAB_CODE_1324                                   XREF[2]:     CODE:1358(j), CODE:136a(j)  
       CODE:1324 78 c8           MOV        R0,#0xc8
       CODE:1326 76 00           MOV        @R0=>DAT_INTMEM_c8,#0x0                                    = ??
       CODE:1328 22              RET
                             LAB_CODE_1329                                   XREF[1]:     CODE:1353(j)  
       CODE:1329 78 c8           MOV        R0,#0xc8
       CODE:132b 76 01           MOV        @R0=>DAT_INTMEM_c8,#0x1                                    = ??
       CODE:132d 22              RET
                             LAB_CODE_132e                                   XREF[2]:     CODE:135a(j), CODE:1366(j)  
       CODE:132e 78 c8           MOV        R0,#0xc8
       CODE:1330 76 02           MOV        @R0=>DAT_INTMEM_c8,#0x2                                    = ??
       CODE:1332 22              RET
                             LAB_CODE_1333                                   XREF[1]:     CODE:135f(j)  
       CODE:1333 78 c8           MOV        R0,#0xc8
       CODE:1335 76 03           MOV        @R0=>DAT_INTMEM_c8,#0x3                                    = ??
       CODE:1337 22              RET
                             LAB_CODE_1338                                   XREF[2]:     CODE:1351(j), CODE:1361(j)  
       CODE:1338 22              RET
                             **************************************************************
                             *                          FUNCTION                          *
                             **************************************************************
                             undefined FUN_CODE_1339()
             undefined         ACC:1          <RETURN>
                             FUN_CODE_1339                                   XREF[1]:     FUN_CODE_0756:07ad(c)  
       CODE:1339 78 c8           MOV        R0,#0xc8
       CODE:133b e6              MOV        A,@R0=>DAT_INTMEM_c8                                       = ??
       CODE:133c 26              ADD        A,@R0=>DAT_INTMEM_c8                                       = ??
       CODE:133d 26              ADD        A,@R0=>DAT_INTMEM_c8                                       = ??
       CODE:133e 90 13 42        MOV        DPTR,#LAB_CODE_1342
       CODE:1341 73              JMP        @A+DPTR
                             LAB_CODE_1342                                   XREF[1]:     FUN_CODE_1339:133e(*)  
       CODE:1342 02 13 4e        LJMP       LAB_CODE_134e
       CODE:1345 02 13 55        LJMP       LAB_CODE_1355
       CODE:1348 02 13 5c        LJMP       LAB_CODE_135c
       CODE:134b 02 13 63        LJMP       LAB_CODE_1363
                             LAB_CODE_134e                                   XREF[1]:     CODE:1342(j)  
       CODE:134e 12 25 0e        LCALL      FUN_CODE_250e                                              undefined FUN_CODE_250e()
       CODE:1351 40 e5           JC         LAB_CODE_1338
       CODE:1353 80 d4           SJMP       LAB_CODE_1329
                             LAB_CODE_1355                                   XREF[1]:     CODE:1345(j)  
       CODE:1355 12 25 0e        LCALL      FUN_CODE_250e                                              undefined FUN_CODE_250e()
       CODE:1358 40 ca           JC         LAB_CODE_1324
       CODE:135a 80 d2           SJMP       LAB_CODE_132e
                             LAB_CODE_135c                                   XREF[1]:     CODE:1348(j)  
       CODE:135c 12 25 0e        LCALL      FUN_CODE_250e                                              undefined FUN_CODE_250e()
       CODE:135f 40 d2           JC         LAB_CODE_1333
       CODE:1361 80 d5           SJMP       LAB_CODE_1338
                             LAB_CODE_1363                                   XREF[1]:     CODE:134b(j)  
       CODE:1363 12 25 0e        LCALL      FUN_CODE_250e                                              undefined FUN_CODE_250e()
       CODE:1366 50 c6           JNC        LAB_CODE_132e
       CODE:1368 d2 40           SETB       28.0                                                       = ??
       CODE:136a 80 b8           SJMP       LAB_CODE_1324
                             LAB_CODE_136c                                   XREF[1]:     CODE:13ae(j)  
       CODE:136c 78 c9           MOV        R0,#0xc9
       CODE:136e 76 00           MOV        @R0=>DAT_INTMEM_c9,#0x0                                    = ??
       CODE:1370 22              RET
                             LAB_CODE_1371                                   XREF[2]:     CODE:13a9(j), CODE:13ab(j)  
       CODE:1371 78 c9           MOV        R0,#0xc9
       CODE:1373 76 01           MOV        @R0=>DAT_INTMEM_c9,#0x1                                    = ??
       CODE:1375 22              RET
       CODE:1376 22              ??         22h    "
                             LAB_CODE_1377                                   XREF[1]:     CODE:13b9(j)  
       CODE:1377 e5 3b           MOV        A,DAT_INTMEM_3b                                            = ??
       CODE:1379 55 3c           ANL        A,DAT_INTMEM_3c                                            = ??
       CODE:137b 70 05           JNZ        LAB_CODE_1382
       CODE:137d 12 00 f3        LCALL      FUN_CODE_00f3                                              undefined FUN_CODE_00f3()
       CODE:1380 80 03           SJMP       LAB_CODE_1385
                             LAB_CODE_1382                                   XREF[1]:     CODE:137b(j)  
       CODE:1382 12 00 f0        LCALL      FUN_CODE_00f0                                              undefined FUN_CODE_00f0()
                             LAB_CODE_1385                                   XREF[1]:     CODE:1380(j)  
       CODE:1385 e5 3a           MOV        A,DAT_INTMEM_3a                                            = ??
       CODE:1387 55 3c           ANL        A,DAT_INTMEM_3c                                            = ??
       CODE:1389 70 05           JNZ        LAB_CODE_1390
       CODE:138b 12 00 ef        LCALL      FUN_CODE_00ef                                              undefined FUN_CODE_00ef()
       CODE:138e 80 03           SJMP       LAB_CODE_1393
                             LAB_CODE_1390                                   XREF[1]:     CODE:1389(j)  
       CODE:1390 12 00 ee        LCALL      FUN_CODE_00ee                                              undefined FUN_CODE_00ee()
                             LAB_CODE_1393                                   XREF[1]:     CODE:138e(j)  
       CODE:1393 e5 39           MOV        A,DAT_INTMEM_39                                            = ??
       CODE:1395 55 3c           ANL        A,DAT_INTMEM_3c                                            = ??
       CODE:1397 70 05           JNZ        LAB_CODE_139e
       CODE:1399 12 00 ed        LCALL      FUN_CODE_00ed                                              undefined FUN_CODE_00ed()
       CODE:139c 80 03           SJMP       LAB_CODE_13a1
                             LAB_CODE_139e                                   XREF[1]:     CODE:1397(j)  
       CODE:139e 12 00 ec        LCALL      FUN_CODE_00ec                                              undefined FUN_CODE_00ec()
                             LAB_CODE_13a1                                   XREF[1]:     CODE:139c(j)  
       CODE:13a1 e5 3c           MOV        A,DAT_INTMEM_3c                                            = ??
       CODE:13a3 03              RR         A
       CODE:13a4 f5 3c           MOV        DAT_INTMEM_3c,A                                            = ??
       CODE:13a6 75 38 05        MOV        DAT_INTMEM_38,#0x5                                         = ??
       CODE:13a9 80 c6           SJMP       LAB_CODE_1371
                             LAB_CODE_13ab                                   XREF[1]:     CODE:13bc(j)  
       CODE:13ab d5 38 c3        DJNZ       DAT_INTMEM_38,LAB_CODE_1371                                = ??
       CODE:13ae 80 bc           SJMP       LAB_CODE_136c
                             **************************************************************
                             *                          FUNCTION                          *
                             **************************************************************
                             undefined FUN_CODE_13b0()
             undefined         ACC:1          <RETURN>
                             FUN_CODE_13b0                                   XREF[1]:     FUN_CODE_0756:07c2(c)  
       CODE:13b0 78 c9           MOV        R0,#0xc9
       CODE:13b2 e6              MOV        A,@R0=>DAT_INTMEM_c9                                       = ??
       CODE:13b3 26              ADD        A,@R0=>DAT_INTMEM_c9                                       = ??
       CODE:13b4 26              ADD        A,@R0=>DAT_INTMEM_c9                                       = ??
       CODE:13b5 90 13 b9        MOV        DPTR,#LAB_CODE_13b9
       CODE:13b8 73              JMP        @A+DPTR
                             LAB_CODE_13b9                                   XREF[1]:     FUN_CODE_13b0:13b5(*)  
       CODE:13b9 02 13 77        LJMP       LAB_CODE_1377
       CODE:13bc 02 13 ab        LJMP       LAB_CODE_13ab
                             LAB_CODE_13bf                                   XREF[1]:     CODE:1462(j)  
       CODE:13bf 12 25 3a        LCALL      FUN_CODE_253a                                              undefined FUN_CODE_253a()
       CODE:13c2 40 05           JC         LAB_CODE_13c9
       CODE:13c4 12 25 36        LCALL      FUN_CODE_2536                                              undefined FUN_CODE_2536()
       CODE:13c7 80 05           SJMP       LAB_CODE_13ce
                             LAB_CODE_13c9                                   XREF[3]:     CODE:13c2(j), CODE:13f1(j), 
                                                                                          CODE:1456(j)  
       CODE:13c9 78 ca           MOV        R0,#0xca
       CODE:13cb 76 00           MOV        @R0=>DAT_INTMEM_ca,#0x0                                    = ??
       CODE:13cd 22              RET
                             LAB_CODE_13ce                                   XREF[1]:     CODE:13c7(j)  
       CODE:13ce 78 ca           MOV        R0,#0xca
       CODE:13d0 76 01           MOV        @R0=>DAT_INTMEM_ca,#0x1                                    = ??
       CODE:13d2 22              RET
                             LAB_CODE_13d3                                   XREF[1]:     CODE:1426(j)  
       CODE:13d3 78 ca           MOV        R0,#0xca
       CODE:13d5 76 02           MOV        @R0=>DAT_INTMEM_ca,#0x2                                    = ??
       CODE:13d7 22              RET
                             LAB_CODE_13d8                                   XREF[6]:     CODE:13e0(j), CODE:13f3(j), 
                                                                                          CODE:1422(j), CODE:144d(j), 
                                                                                          CODE:144f(j), CODE:1454(j)  
       CODE:13d8 22              RET
                             LAB_CODE_13d9                                   XREF[1]:     CODE:1465(j)  
       CODE:13d9 12 25 3a        LCALL      FUN_CODE_253a                                              undefined FUN_CODE_253a()
       CODE:13dc 40 04           JC         LAB_CODE_13e2
       CODE:13de 70 15           JNZ        LAB_CODE_13f5
       CODE:13e0 80 f6           SJMP       LAB_CODE_13d8
                             LAB_CODE_13e2                                   XREF[1]:     CODE:13dc(j)  
       CODE:13e2 d2 d5           SETB       F0                                                         = ??
       CODE:13e4 c2 d1           CLR        UD                                                         = ??
       CODE:13e6 b4 df 02        CJNE       A,#0xdf,LAB_CODE_13eb
       CODE:13e9 80 06           SJMP       LAB_CODE_13f1
                             LAB_CODE_13eb                                   XREF[1]:     CODE:13e6(j)  
       CODE:13eb c2 d5           CLR        F0                                                         = ??
       CODE:13ed 92 d1           MOV        UD,CY                                                      = ??
       CODE:13ef b2 d1           CPL        UD                                                         = ??
                             LAB_CODE_13f1                                   XREF[1]:     CODE:13e9(j)  
       CODE:13f1 50 d6           JNC        LAB_CODE_13c9
       CODE:13f3 80 e3           SJMP       LAB_CODE_13d8
                             LAB_CODE_13f5                                   XREF[1]:     CODE:13de(j)  
       CODE:13f5 12 25 36        LCALL      FUN_CODE_2536                                              undefined FUN_CODE_2536()
       CODE:13f8 d2 d5           SETB       F0                                                         = ??
       CODE:13fa c2 d1           CLR        UD                                                         = ??
       CODE:13fc b4 48 02        CJNE       A,#0x48,LAB_CODE_1401
       CODE:13ff 80 06           SJMP       LAB_CODE_1407
                             LAB_CODE_1401                                   XREF[1]:     CODE:13fc(j)  
       CODE:1401 c2 d5           CLR        F0                                                         = ??
       CODE:1403 92 d1           MOV        UD,CY                                                      = ??
       CODE:1405 b2 d1           CPL        UD                                                         = ??
                             LAB_CODE_1407                                   XREF[1]:     CODE:13ff(j)  
       CODE:1407 20 d1 1e        JB         UD,LAB_CODE_1428                                           = ??
       CODE:140a d2 d5           SETB       F0                                                         = ??
       CODE:140c c2 d1           CLR        UD                                                         = ??
       CODE:140e b4 08 02        CJNE       A,#0x8,LAB_CODE_1413
       CODE:1411 80 06           SJMP       LAB_CODE_1419
                             LAB_CODE_1413                                   XREF[1]:     CODE:140e(j)  
       CODE:1413 c2 d5           CLR        F0                                                         = ??
       CODE:1415 92 d1           MOV        UD,CY                                                      = ??
       CODE:1417 b2 d1           CPL        UD                                                         = ??
                             LAB_CODE_1419                                   XREF[1]:     CODE:1411(j)  
       CODE:1419 40 0d           JC         LAB_CODE_1428
       CODE:141b e5 2f           MOV        A,DAT_INTMEM_2f                                            = ??
       CODE:141d 20 e5 04        JB         ACC.5,LAB_CODE_1424                                        = ??
       CODE:1420 d2 0a           SETB       21.2                                                       = ??
       CODE:1422 80 b4           SJMP       LAB_CODE_13d8
                             LAB_CODE_1424                                   XREF[1]:     CODE:141d(j)  
       CODE:1424 d2 30           SETB       26.0                                                       = ??
       CODE:1426 80 ab           SJMP       LAB_CODE_13d3
                             LAB_CODE_1428                                   XREF[2]:     CODE:1407(j), CODE:1419(j)  
       CODE:1428 d2 d5           SETB       F0                                                         = ??
       CODE:142a c2 d1           CLR        UD                                                         = ??
       CODE:142c b4 de 02        CJNE       A,#0xde,LAB_CODE_1431
       CODE:142f 80 06           SJMP       LAB_CODE_1437
                             LAB_CODE_1431                                   XREF[1]:     CODE:142c(j)  
       CODE:1431 c2 d5           CLR        F0                                                         = ??
       CODE:1433 92 d1           MOV        UD,CY                                                      = ??
       CODE:1435 b2 d1           CPL        UD                                                         = ??
                             LAB_CODE_1437                                   XREF[1]:     CODE:142f(j)  
       CODE:1437 20 d1 15        JB         UD,LAB_CODE_144f                                           = ??
       CODE:143a d2 d5           SETB       F0                                                         = ??
       CODE:143c c2 d1           CLR        UD                                                         = ??
       CODE:143e b4 58 02        CJNE       A,#0x58,LAB_CODE_1443
       CODE:1441 80 06           SJMP       LAB_CODE_1449
                             LAB_CODE_1443                                   XREF[1]:     CODE:143e(j)  
       CODE:1443 c2 d5           CLR        F0                                                         = ??
       CODE:1445 92 d1           MOV        UD,CY                                                      = ??
       CODE:1447 b2 d1           CPL        UD                                                         = ??
                             LAB_CODE_1449                                   XREF[1]:     CODE:1441(j)  
       CODE:1449 40 04           JC         LAB_CODE_144f
       CODE:144b d2 0b           SETB       21.3                                                       = ??
       CODE:144d 80 89           SJMP       LAB_CODE_13d8
                             LAB_CODE_144f                                   XREF[2]:     CODE:1437(j), CODE:1449(j)  
       CODE:144f 80 87           SJMP       LAB_CODE_13d8
                             LAB_CODE_1451                                   XREF[1]:     CODE:1468(j)  
       CODE:1451 30 30 02        JNB        26.0,LAB_CODE_1456                                         = ??
       CODE:1454 80 82           SJMP       LAB_CODE_13d8
                             LAB_CODE_1456                                   XREF[1]:     CODE:1451(j)  
       CODE:1456 02 13 c9        LJMP       LAB_CODE_13c9
                             **************************************************************
                             *                          FUNCTION                          *
                             **************************************************************
                             undefined FUN_CODE_1459()
             undefined         ACC:1          <RETURN>
                             FUN_CODE_1459                                   XREF[1]:     FUN_CODE_0756:07a7(c)  
       CODE:1459 78 ca           MOV        R0,#0xca
       CODE:145b e6              MOV        A,@R0=>DAT_INTMEM_ca                                       = ??
       CODE:145c 26              ADD        A,@R0=>DAT_INTMEM_ca                                       = ??
       CODE:145d 26              ADD        A,@R0=>DAT_INTMEM_ca                                       = ??
       CODE:145e 90 14 62        MOV        DPTR,#LAB_CODE_1462
       CODE:1461 73              JMP        @A+DPTR
                             LAB_CODE_1462                                   XREF[1]:     FUN_CODE_1459:145e(*)  
       CODE:1462 02 13 bf        LJMP       LAB_CODE_13bf
       CODE:1465 02 13 d9        LJMP       LAB_CODE_13d9
       CODE:1468 02 14 51        LJMP       LAB_CODE_1451
                             LAB_CODE_146b                                   XREF[1]:     CODE:147e(j)  
       CODE:146b 02 15 2e        LJMP       LAB_CODE_152e
                             **************************************************************
                             *                          FUNCTION                          *
                             **************************************************************
                             undefined FUN_CODE_146e()
             undefined         ACC:1          <RETURN>
                             FUN_CODE_146e                                   XREF[1]:     FUN_CODE_0756:07bf(c)  
       CODE:146e 20 17 0d        JB         22.7,LAB_CODE_147e                                         = ??
       CODE:1471 75 56 42        MOV        DAT_INTMEM_56,#0x42                                        = ??
       CODE:1474 75 55 0f        MOV        DAT_INTMEM_55,#0xf                                         = ??
       CODE:1477 7a 00           MOV        R2,#0x0
       CODE:1479 7b 00           MOV        R3,#0x0
       CODE:147b 02 15 60        LJMP       LAB_CODE_1560
                             LAB_CODE_147e                                   XREF[1]:     CODE:146e(j)  
       CODE:147e d5 55 ea        DJNZ       DAT_INTMEM_55,LAB_CODE_146b                                = ??
       CODE:1481 75 55 32        MOV        DAT_INTMEM_55,#0x32                                        = ??
       CODE:1484 d2 4d           SETB       29.5                                                       = ??
       CODE:1486 e5 40           MOV        A,DAT_INTMEM_40                                            = ??
       CODE:1488 24 c3           ADD        A,#0xc3
       CODE:148a 40 0e           JC         LAB_CODE_149a
       CODE:148c e5 42           MOV        A,DAT_INTMEM_42                                            = ??
       CODE:148e 24 b9           ADD        A,#0xb9
       CODE:1490 40 08           JC         LAB_CODE_149a
       CODE:1492 e5 44           MOV        A,DAT_INTMEM_44                                            = ??
       CODE:1494 24 b9           ADD        A,#0xb9
       CODE:1496 40 02           JC         LAB_CODE_149a
       CODE:1498 c2 4d           CLR        29.5                                                       = ??
                             LAB_CODE_149a                                   XREF[3]:     CODE:148a(j), CODE:1490(j), 
                                                                                          CODE:1496(j)  
       CODE:149a d2 4e           SETB       29.6                                                       = ??
       CODE:149c 7a 05           MOV        R2,#0x5
       CODE:149e 7b 05           MOV        R3,#0x5
       CODE:14a0 c3              CLR        CY
       CODE:14a1 e5 40           MOV        A,DAT_INTMEM_40                                            = ??
       CODE:14a3 95 50           SUBB       A,DAT_INTMEM_50                                            = ??
       CODE:14a5 50 18           JNC        LAB_CODE_14bf
       CODE:14a7 7a 06           MOV        R2,#0x6
       CODE:14a9 7b 06           MOV        R3,#0x6
       CODE:14ab c3              CLR        CY
       CODE:14ac e5 42           MOV        A,DAT_INTMEM_42                                            = ??
       CODE:14ae 95 51           SUBB       A,DAT_INTMEM_51                                            = ??
       CODE:14b0 50 0d           JNC        LAB_CODE_14bf
       CODE:14b2 7a 07           MOV        R2,#0x7
       CODE:14b4 7b 07           MOV        R3,#0x7
       CODE:14b6 c3              CLR        CY
       CODE:14b7 e5 44           MOV        A,DAT_INTMEM_44                                            = ??
       CODE:14b9 95 52           SUBB       A,DAT_INTMEM_52                                            = ??
       CODE:14bb 50 02           JNC        LAB_CODE_14bf
       CODE:14bd c2 4e           CLR        29.6                                                       = ??
                             LAB_CODE_14bf                                   XREF[3]:     CODE:14a5(j), CODE:14b0(j), 
                                                                                          CODE:14bb(j)  
       CODE:14bf 20 1c 6c        JB         23.4,LAB_CODE_152e                                         = ??
       CODE:14c2 30 4e 0f        JNB        29.6,LAB_CODE_14d4                                         = ??
       CODE:14c5 d2 1c           SETB       23.4                                                       = ??
       CODE:14c7 8a 59           MOV        DAT_INTMEM_59,R2                                           = ??
       CODE:14c9 8b 5b           MOV        DAT_INTMEM_5b,R3                                           = ??
       CODE:14cb 75 5a 00        MOV        DAT_INTMEM_5a,#0x0                                         = ??
       CODE:14ce d2 45           SETB       28.5                                                       = ??
       CODE:14d0 d2 32           SETB       26.2                                                       = ??
       CODE:14d2 80 5a           SJMP       LAB_CODE_152e
                             LAB_CODE_14d4                                   XREF[1]:     CODE:14c2(j)  
       CODE:14d4 12 15 69        LCALL      FUN_CODE_1569                                              undefined FUN_CODE_1569()
       CODE:14d7 e5 48           MOV        A,DAT_INTMEM_48                                            = ??
       CODE:14d9 60 53           JZ         LAB_CODE_152e
       CODE:14db e5 4a           MOV        A,DAT_INTMEM_4a                                            = ??
       CODE:14dd 60 4f           JZ         LAB_CODE_152e
       CODE:14df e5 4c           MOV        A,DAT_INTMEM_4c                                            = ??
       CODE:14e1 60 4b           JZ         LAB_CODE_152e
       CODE:14e3 78 3f           MOV        R0,#0x3f
       CODE:14e5 79 47           MOV        R1,#0x47
       CODE:14e7 aa 4d           MOV        R2,DAT_INTMEM_4d                                           = ??
       CODE:14e9 12 15 da        LCALL      FUN_CODE_15da                                              undefined FUN_CODE_15da()
       CODE:14ec 79 da           MOV        R1,#0xda
       CODE:14ee 12 16 12        LCALL      FUN_CODE_1612                                              undefined FUN_CODE_1612()
       CODE:14f1 78 41           MOV        R0,#0x41
       CODE:14f3 79 49           MOV        R1,#0x49
       CODE:14f5 aa 4e           MOV        R2,DAT_INTMEM_4e                                           = ??
       CODE:14f7 12 15 da        LCALL      FUN_CODE_15da                                              undefined FUN_CODE_15da()
       CODE:14fa 79 dc           MOV        R1,#0xdc
       CODE:14fc 12 16 12        LCALL      FUN_CODE_1612                                              undefined FUN_CODE_1612()
       CODE:14ff 78 43           MOV        R0,#0x43
       CODE:1501 79 4b           MOV        R1,#0x4b
       CODE:1503 aa 4f           MOV        R2,DAT_INTMEM_4f                                           = ??
       CODE:1505 12 15 da        LCALL      FUN_CODE_15da                                              undefined FUN_CODE_15da()
       CODE:1508 79 de           MOV        R1,#0xde
       CODE:150a 12 16 12        LCALL      FUN_CODE_1612                                              undefined FUN_CODE_1612()
       CODE:150d 78 da           MOV        R0,#0xda
       CODE:150f 79 dc           MOV        R1,#0xdc
       CODE:1511 12 16 da        LCALL      FUN_CODE_16da                                              undefined FUN_CODE_16da()
       CODE:1514 79 de           MOV        R1,#0xde
       CODE:1516 12 16 da        LCALL      FUN_CODE_16da                                              undefined FUN_CODE_16da()
       CODE:1519 79 da           MOV        R1,#0xda
       CODE:151b 12 16 f1        LCALL      FUN_CODE_16f1                                              undefined FUN_CODE_16f1()
       CODE:151e 79 dc           MOV        R1,#0xdc
       CODE:1520 12 16 f1        LCALL      FUN_CODE_16f1                                              undefined FUN_CODE_16f1()
       CODE:1523 79 de           MOV        R1,#0xde
       CODE:1525 12 16 f1        LCALL      FUN_CODE_16f1                                              undefined FUN_CODE_16f1()
       CODE:1528 08              INC        R0
       CODE:1529 e5 56           MOV        A,DAT_INTMEM_56                                            = ??
       CODE:152b 26              ADD        A,@R0=>DAT_INTMEM_db                                       = ??
       CODE:152c f5 56           MOV        DAT_INTMEM_56,A                                            = ??
                             LAB_CODE_152e                                   XREF[6]:     CODE:146b(j), CODE:14bf(j), 
                                                                                          CODE:14d2(j), CODE:14d9(j), 
                                                                                          CODE:14dd(j), CODE:14e1(j)  
       CODE:152e 7a 64           MOV        R2,#0x64
       CODE:1530 7b 64           MOV        R3,#0x64
       CODE:1532 20 4b 2b        JB         29.3,LAB_CODE_1560                                         = ??
       CODE:1535 20 1c 28        JB         23.4,LAB_CODE_1560                                         = ??
       CODE:1538 aa 56           MOV        R2,DAT_INTMEM_56                                           = ??
       CODE:153a 85 57 f0        MOV        B,DAT_INTMEM_57                                            = ??
       CODE:153d 30 f7 0c        JNB        B.7,LAB_CODE_154c                                          = ??
       CODE:1540 c2 f7           CLR        B.7                                                        = ??
       CODE:1542 aa f0           MOV        R2,B
       CODE:1544 74 9b           MOV        A,#0x9b
       CODE:1546 25 f0           ADD        A,B
       CODE:1548 50 02           JNC        LAB_CODE_154c
       CODE:154a 7a 64           MOV        R2,#0x64
                             LAB_CODE_154c                                   XREF[2]:     CODE:153d(j), CODE:1548(j)  
       CODE:154c ab 56           MOV        R3,DAT_INTMEM_56                                           = ??
       CODE:154e 85 58 f0        MOV        B,DAT_INTMEM_58                                            = ??
       CODE:1551 30 f7 0c        JNB        B.7,LAB_CODE_1560                                          = ??
       CODE:1554 c2 f7           CLR        B.7                                                        = ??
       CODE:1556 ab f0           MOV        R3,B
       CODE:1558 74 9b           MOV        A,#0x9b
       CODE:155a 25 f0           ADD        A,B
       CODE:155c 50 02           JNC        LAB_CODE_1560
       CODE:155e 7b 64           MOV        R3,#0x64
                             LAB_CODE_1560                                   XREF[5]:     CODE:147b(j), CODE:1532(j), 
                                                                                          CODE:1535(j), CODE:1551(j), 
                                                                                          CODE:155c(j)  
       CODE:1560 ea              MOV        A,R2
       CODE:1561 12 25 03        LCALL      FUN_CODE_2503                                              undefined FUN_CODE_2503()
       CODE:1564 eb              MOV        A,R3
       CODE:1565 12 25 00        LCALL      FUN_CODE_2500                                              undefined FUN_CODE_2500()
       CODE:1568 22              RET
                             **************************************************************
                             *                          FUNCTION                          *
                             **************************************************************
                             undefined FUN_CODE_1569()
             undefined         ACC:1          <RETURN>
                             FUN_CODE_1569                                   XREF[1]:     FUN_CODE_146e:14d4(c)  
       CODE:1569 e5 46           MOV        A,DAT_INTMEM_46                                            = ??
       CODE:156b 30 4c 04        JNB        29.4,LAB_CODE_1572                                         = ??
       CODE:156e 24 ea           ADD        A,#0xea
       CODE:1570 50 06           JNC        LAB_CODE_1578
                             LAB_CODE_1572                                   XREF[1]:     CODE:156b(j)  
       CODE:1572 fa              MOV        R2,A
       CODE:1573 24 df           ADD        A,#0xdf
       CODE:1575 fb              MOV        R3,A
       CODE:1576 40 04           JC         LAB_CODE_157c
                             LAB_CODE_1578                                   XREF[1]:     CODE:1570(j)  
       CODE:1578 74 2c           MOV        A,#0x2c
       CODE:157a 80 25           SJMP       LAB_CODE_15a1
                             LAB_CODE_157c                                   XREF[1]:     CODE:1576(j)  
       CODE:157c ea              MOV        A,R2
       CODE:157d 24 c8           ADD        A,#0xc8
       CODE:157f 50 04           JNC        LAB_CODE_1585
       CODE:1581 74 64           MOV        A,#0x64
       CODE:1583 80 1c           SJMP       LAB_CODE_15a1
                             LAB_CODE_1585                                   XREF[1]:     CODE:157f(j)  
       CODE:1585 90 15 a4        MOV        DPTR,#DAT_CODE_15a4                                        = 2Ch    ,
       CODE:1588 ea              MOV        A,R2
       CODE:1589 24 cc           ADD        A,#0xcc
       CODE:158b 92 d5           MOV        F0,CY                                                      = ??
       CODE:158d 50 04           JNC        LAB_CODE_1593
       CODE:158f fb              MOV        R3,A
       CODE:1590 90 15 ca        MOV        DPTR,#DAT_CODE_15ca                                        = 49h    I
                             LAB_CODE_1593                                   XREF[1]:     CODE:158d(j)  
       CODE:1593 85 45 f0        MOV        B,DAT_INTMEM_45                                            = ??
       CODE:1596 a2 f7           MOV        CY,B.7                                                     = ??
       CODE:1598 eb              MOV        A,R3
       CODE:1599 33              RLC        A
       CODE:159a 30 d5 03        JNB        F0,LAB_CODE_15a0                                           = ??
       CODE:159d a2 f6           MOV        CY,B.6                                                     = ??
       CODE:159f 33              RLC        A
                             LAB_CODE_15a0                                   XREF[1]:     CODE:159a(j)  
       CODE:15a0 93              MOVC       A,@A+DPTR=>DAT_CODE_15ca                                   = 49h    I
                             LAB_CODE_15a1                                   XREF[2]:     CODE:157a(j), CODE:1583(j)  
       CODE:15a1 f5 56           MOV        DAT_INTMEM_56,A                                            = ??
       CODE:15a3 22              RET
                             DAT_CODE_15a4                                   XREF[1]:     FUN_CODE_1569:1585(*)  
       CODE:15a4 2c              ??         2Ch    ,
       CODE:15a5 2d              ??         2Dh    -
       CODE:15a6 2d              ??         2Dh    -
       CODE:15a7 2e              ??         2Eh    .
       CODE:15a8 2f              ??         2Fh    /
       CODE:15a9 30              ??         30h    0
       CODE:15aa 31              ??         31h    1
       CODE:15ab 31              ??         31h    1
       CODE:15ac 32              ??         32h    2
       CODE:15ad 33              ??         33h    3
       CODE:15ae 33              ??         33h    3
       CODE:15af 33              ??         33h    3
       CODE:15b0 34              ??         34h    4
       CODE:15b1 34              ??         34h    4
       CODE:15b2 35              ??         35h    5
       CODE:15b3 35              ??         35h    5
       CODE:15b4 36              ??         36h    6
       CODE:15b5 37              ??         37h    7
       CODE:15b6 37              ??         37h    7
       CODE:15b7 38              ??         38h    8
       CODE:15b8 39              ??         39h    9
       CODE:15b9 39              ??         39h    9
       CODE:15ba 3a              ??         3Ah    :
       CODE:15bb 3b              ??         3Bh    ;
       CODE:15bc 3b              ??         3Bh    ;
       CODE:15bd 3c              ??         3Ch    <
       CODE:15be 3d              ??         3Dh    =
       CODE:15bf 3e              ??         3Eh    >
       CODE:15c0 3e              ??         3Eh    >
       CODE:15c1 3f              ??         3Fh    ?
       CODE:15c2 40              ??         40h    @
       CODE:15c3 41              ??         41h    A
       CODE:15c4 42              ??         42h    B
       CODE:15c5 43              ??         43h    C
       CODE:15c6 45              ??         45h    E
       CODE:15c7 46              ??         46h    F
       CODE:15c8 47              ??         47h    G
       CODE:15c9 48              ??         48h    H
                             DAT_CODE_15ca                                   XREF[2]:     FUN_CODE_1569:1590(*), 
                                                                                          FUN_CODE_1569:15a0(*)  
       CODE:15ca 49              ??         49h    I
       CODE:15cb 4a              ??         4Ah    J
       CODE:15cc 4b              ??         4Bh    K
       CODE:15cd 4c              ??         4Ch    L
       CODE:15ce 4e              ??         4Eh    N
       CODE:15cf 4f              ??         4Fh    O
       CODE:15d0 51              ??         51h    Q
       CODE:15d1 53              ??         53h    S
       CODE:15d2 55              ??         55h    U
       CODE:15d3 58              ??         58h    X
       CODE:15d4 5a              ??         5Ah    Z
       CODE:15d5 5e              ??         5Eh    ^
       CODE:15d6 61              ??         61h    a
       CODE:15d7 64              ??         64h    d
       CODE:15d8 64              ??         64h    d
       CODE:15d9 64              ??         64h    d
                             **************************************************************
                             *                          FUNCTION                          *
                             **************************************************************
                             undefined FUN_CODE_15da()
             undefined         ACC:1          <RETURN>
                             FUN_CODE_15da                                   XREF[3]:     FUN_CODE_146e:14e9(c), 
                                                                                          FUN_CODE_146e:14f7(c), 
                                                                                          FUN_CODE_146e:1505(c)  
       CODE:15da c3              CLR        CY
       CODE:15db e6              MOV        A,@R0
       CODE:15dc 87 f0           MOV        B,@R1
       CODE:15de 95 f0           SUBB       A,B
       CODE:15e0 fc              MOV        R4,A
       CODE:15e1 08              INC        R0
       CODE:15e2 09              INC        R1
       CODE:15e3 e6              MOV        A,@R0
       CODE:15e4 87 f0           MOV        B,@R1
       CODE:15e6 95 f0           SUBB       A,B
       CODE:15e8 fd              MOV        R5,A
       CODE:15e9 18              DEC        R0
       CODE:15ea a2 e7           MOV        CY,ACC.7                                                   = ??
       CODE:15ec 92 d5           MOV        F0,CY                                                      = ??
       CODE:15ee 50 0a           JNC        LAB_CODE_15fa
       CODE:15f0 ec              MOV        A,R4
       CODE:15f1 f4              CPL        A
       CODE:15f2 24 01           ADD        A,#0x1
       CODE:15f4 fc              MOV        R4,A
       CODE:15f5 ed              MOV        A,R5
       CODE:15f6 f4              CPL        A
       CODE:15f7 34 00           ADDC       A,#0x0
       CODE:15f9 fd              MOV        R5,A
                             LAB_CODE_15fa                                   XREF[1]:     CODE:15ee(j)  
       CODE:15fa e6              MOV        A,@R0
       CODE:15fb fe              MOV        R6,A
       CODE:15fc c3              CLR        CY
       CODE:15fd 08              INC        R0
       CODE:15fe e6              MOV        A,@R0
       CODE:15ff 9a              SUBB       A,R2
       CODE:1600 ff              MOV        R7,A
       CODE:1601 a2 e7           MOV        CY,ACC.7                                                   = ??
       CODE:1603 92 d1           MOV        UD,CY                                                      = ??
       CODE:1605 50 0a           JNC        LAB_CODE_1611
       CODE:1607 ee              MOV        A,R6
       CODE:1608 f4              CPL        A
       CODE:1609 24 01           ADD        A,#0x1
       CODE:160b fe              MOV        R6,A
       CODE:160c ef              MOV        A,R7
       CODE:160d f4              CPL        A
       CODE:160e 34 00           ADDC       A,#0x0
       CODE:1610 ff              MOV        R7,A
                             LAB_CODE_1611                                   XREF[1]:     CODE:1605(j)  
       CODE:1611 22              RET
                             **************************************************************
                             *                          FUNCTION                          *
                             **************************************************************
                             undefined FUN_CODE_1612()
             undefined         ACC:1          <RETURN>
                             FUN_CODE_1612                                   XREF[3]:     FUN_CODE_146e:14ee(c), 
                                                                                          FUN_CODE_146e:14fc(c), 
                                                                                          FUN_CODE_146e:150a(c)  
       CODE:1612 ef              MOV        A,R7
       CODE:1613 24 fb           ADD        A,#0xfb
       CODE:1615 20 d1 21        JB         UD,LAB_CODE_1639                                           = ??
       CODE:1618 7a 16           MOV        R2,#0x16
       CODE:161a 50 02           JNC        LAB_CODE_161e
       CODE:161c 7a 4b           MOV        R2,#0x4b
                             LAB_CODE_161e                                   XREF[1]:     CODE:161a(j)  
       CODE:161e ee              MOV        A,R6
       CODE:161f 8a f0           MOV        B,R2
       CODE:1621 a4              MUL        AB
       CODE:1622 e5 f0           MOV        A,B
       CODE:1624 27              ADD        A,@R1
       CODE:1625 f7              MOV        @R1,A
       CODE:1626 50 03           JNC        LAB_CODE_162b
       CODE:1628 09              INC        R1
       CODE:1629 07              INC        @R1
       CODE:162a 19              DEC        R1
                             LAB_CODE_162b                                   XREF[1]:     CODE:1626(j)  
       CODE:162b ef              MOV        A,R7
       CODE:162c 8a f0           MOV        B,R2
       CODE:162e a4              MUL        AB
       CODE:162f 27              ADD        A,@R1
       CODE:1630 f7              MOV        @R1,A
       CODE:1631 09              INC        R1
       CODE:1632 e5 f0           MOV        A,B
       CODE:1634 37              ADDC       A,@R1
       CODE:1635 f7              MOV        @R1,A
       CODE:1636 19              DEC        R1
       CODE:1637 80 23           SJMP       LAB_CODE_165c
                             LAB_CODE_1639                                   XREF[1]:     CODE:1615(j)  
       CODE:1639 7a 07           MOV        R2,#0x7
       CODE:163b 50 02           JNC        LAB_CODE_163f
       CODE:163d 7a 07           MOV        R2,#0x7
                             LAB_CODE_163f                                   XREF[1]:     CODE:163b(j)  
       CODE:163f ee              MOV        A,R6
       CODE:1640 8a f0           MOV        B,R2
       CODE:1642 a4              MUL        AB
       CODE:1643 c3              CLR        CY
       CODE:1644 e7              MOV        A,@R1
       CODE:1645 95 f0           SUBB       A,B
       CODE:1647 f7              MOV        @R1,A
       CODE:1648 50 03           JNC        LAB_CODE_164d
       CODE:164a 09              INC        R1
       CODE:164b 17              DEC        @R1
       CODE:164c 19              DEC        R1
                             LAB_CODE_164d                                   XREF[1]:     CODE:1648(j)  
       CODE:164d ef              MOV        A,R7
       CODE:164e 8a f0           MOV        B,R2
       CODE:1650 a4              MUL        AB
       CODE:1651 c3              CLR        CY
       CODE:1652 fe              MOV        R6,A
       CODE:1653 e7              MOV        A,@R1
       CODE:1654 9e              SUBB       A,R6
       CODE:1655 f7              MOV        @R1,A
       CODE:1656 09              INC        R1
       CODE:1657 e7              MOV        A,@R1
       CODE:1658 95 f0           SUBB       A,B
       CODE:165a f7              MOV        @R1,A
       CODE:165b 19              DEC        R1
                             LAB_CODE_165c                                   XREF[1]:     CODE:1637(j)  
       CODE:165c 30 d1 07        JNB        UD,LAB_CODE_1666                                           = ??
       CODE:165f ef              MOV        A,R7
       CODE:1660 24 eb           ADD        A,#0xeb
       CODE:1662 50 02           JNC        LAB_CODE_1666
       CODE:1664 80 4d           SJMP       LAB_CODE_16b3
                             LAB_CODE_1666                                   XREF[2]:     CODE:165c(j), CODE:1662(j)  
       CODE:1666 ed              MOV        A,R5
       CODE:1667 24 fe           ADD        A,#0xfe
       CODE:1669 50 04           JNC        LAB_CODE_166f
       CODE:166b 7d 02           MOV        R5,#0x2
       CODE:166d 7c 00           MOV        R4,#0x0
                             LAB_CODE_166f                                   XREF[1]:     CODE:1669(j)  
       CODE:166f c3              CLR        CY
       CODE:1670 ec              MOV        A,R4
       CODE:1671 33              RLC        A
       CODE:1672 fc              MOV        R4,A
       CODE:1673 ed              MOV        A,R5
       CODE:1674 33              RLC        A
       CODE:1675 fd              MOV        R5,A
       CODE:1676 7a c8           MOV        R2,#0xc8
       CODE:1678 20 d5 1b        JB         F0,LAB_CODE_1696                                           = ??
       CODE:167b ec              MOV        A,R4
       CODE:167c 8a f0           MOV        B,R2
       CODE:167e a4              MUL        AB
       CODE:167f e5 f0           MOV        A,B
       CODE:1681 27              ADD        A,@R1
       CODE:1682 f7              MOV        @R1,A
       CODE:1683 50 03           JNC        LAB_CODE_1688
       CODE:1685 09              INC        R1
       CODE:1686 07              INC        @R1
       CODE:1687 19              DEC        R1
                             LAB_CODE_1688                                   XREF[1]:     CODE:1683(j)  
       CODE:1688 ed              MOV        A,R5
       CODE:1689 8a f0           MOV        B,R2
       CODE:168b a4              MUL        AB
       CODE:168c 27              ADD        A,@R1
       CODE:168d f7              MOV        @R1,A
       CODE:168e 09              INC        R1
       CODE:168f e5 f0           MOV        A,B
       CODE:1691 37              ADDC       A,@R1
       CODE:1692 f7              MOV        @R1,A
       CODE:1693 19              DEC        R1
       CODE:1694 80 1d           SJMP       LAB_CODE_16b3
                             LAB_CODE_1696                                   XREF[1]:     CODE:1678(j)  
       CODE:1696 ec              MOV        A,R4
       CODE:1697 8a f0           MOV        B,R2
       CODE:1699 a4              MUL        AB
       CODE:169a c3              CLR        CY
       CODE:169b e7              MOV        A,@R1
       CODE:169c 95 f0           SUBB       A,B
       CODE:169e f7              MOV        @R1,A
       CODE:169f 50 03           JNC        LAB_CODE_16a4
       CODE:16a1 09              INC        R1
       CODE:16a2 17              DEC        @R1
       CODE:16a3 19              DEC        R1
                             LAB_CODE_16a4                                   XREF[1]:     CODE:169f(j)  
       CODE:16a4 ed              MOV        A,R5
       CODE:16a5 8a f0           MOV        B,R2
       CODE:16a7 a4              MUL        AB
       CODE:16a8 c3              CLR        CY
       CODE:16a9 fe              MOV        R6,A
       CODE:16aa e7              MOV        A,@R1
       CODE:16ab 9e              SUBB       A,R6
       CODE:16ac f7              MOV        @R1,A
       CODE:16ad 09              INC        R1
       CODE:16ae e7              MOV        A,@R1
       CODE:16af 95 f0           SUBB       A,B
       CODE:16b1 f7              MOV        @R1,A
       CODE:16b2 19              DEC        R1
                             LAB_CODE_16b3                                   XREF[2]:     CODE:1664(j), CODE:1694(j)  
       CODE:16b3 09              INC        R1
       CODE:16b4 e7              MOV        A,@R1
       CODE:16b5 25 56           ADD        A,DAT_INTMEM_56                                            = ??
       CODE:16b7 fc              MOV        R4,A
       CODE:16b8 20 d2 15        JB         OV,LAB_CODE_16d0                                           = ??
       CODE:16bb 20 e7 0b        JB         ACC.7,LAB_CODE_16c9                                        = ??
       CODE:16be ec              MOV        A,R4
       CODE:16bf 24 9c           ADD        A,#0x9c
       CODE:16c1 40 0d           JC         LAB_CODE_16d0
       CODE:16c3 ec              MOV        A,R4
       CODE:16c4 24 d4           ADD        A,#0xd4
       CODE:16c6 50 01           JNC        LAB_CODE_16c9
       CODE:16c8 22              RET
                             LAB_CODE_16c9                                   XREF[2]:     CODE:16bb(j), CODE:16c6(j)  
       CODE:16c9 c3              CLR        CY
       CODE:16ca 74 2c           MOV        A,#0x2c
       CODE:16cc 95 56           SUBB       A,DAT_INTMEM_56                                            = ??
       CODE:16ce 80 05           SJMP       LAB_CODE_16d5
                             LAB_CODE_16d0                                   XREF[2]:     CODE:16b8(j), CODE:16c1(j)  
       CODE:16d0 c3              CLR        CY
       CODE:16d1 74 64           MOV        A,#0x64
       CODE:16d3 95 56           SUBB       A,DAT_INTMEM_56                                            = ??
                             LAB_CODE_16d5                                   XREF[1]:     CODE:16ce(j)  
       CODE:16d5 f7              MOV        @R1,A
       CODE:16d6 19              DEC        R1
       CODE:16d7 77 00           MOV        @R1,#0x0
       CODE:16d9 22              RET
                             **************************************************************
                             *                          FUNCTION                          *
                             **************************************************************
                             undefined FUN_CODE_16da()
             undefined         ACC:1          <RETURN>
                             FUN_CODE_16da                                   XREF[2]:     FUN_CODE_146e:1511(c), 
                                                                                          FUN_CODE_146e:1516(c)  
       CODE:16da c3              CLR        CY
       CODE:16db e6              MOV        A,@R0
       CODE:16dc 97              SUBB       A,@R1
       CODE:16dd 08              INC        R0
       CODE:16de 09              INC        R1
       CODE:16df e6              MOV        A,@R0
       CODE:16e0 97              SUBB       A,@R1
       CODE:16e1 20 d2 05        JB         OV,LAB_CODE_16e9                                           = ??
       CODE:16e4 30 e7 08        JNB        ACC.7,LAB_CODE_16ef                                        = ??
       CODE:16e7 80 04           SJMP       LAB_CODE_16ed
                             LAB_CODE_16e9                                   XREF[1]:     CODE:16e1(j)  
       CODE:16e9 e7              MOV        A,@R1
       CODE:16ea 20 e7 02        JB         ACC.7,LAB_CODE_16ef                                        = ??
                             LAB_CODE_16ed                                   XREF[1]:     CODE:16e7(j)  
       CODE:16ed e9              MOV        A,R1
       CODE:16ee f8              MOV        R0,A
                             LAB_CODE_16ef                                   XREF[2]:     CODE:16e4(j), CODE:16ea(j)  
       CODE:16ef 18              DEC        R0
       CODE:16f0 22              RET
                             **************************************************************
                             *                          FUNCTION                          *
                             **************************************************************
                             undefined FUN_CODE_16f1()
             undefined         ACC:1          <RETURN>
                             FUN_CODE_16f1                                   XREF[3]:     FUN_CODE_146e:151b(c), 
                                                                                          FUN_CODE_146e:1520(c), 
                                                                                          FUN_CODE_146e:1525(c)  
       CODE:16f1 c3              CLR        CY
       CODE:16f2 e6              MOV        A,@R0
       CODE:16f3 97              SUBB       A,@R1
       CODE:16f4 08              INC        R0
       CODE:16f5 09              INC        R1
       CODE:16f6 e6              MOV        A,@R0
       CODE:16f7 97              SUBB       A,@R1
       CODE:16f8 24 ff           ADD        A,#0xff
       CODE:16fa 40 02           JC         LAB_CODE_16fe
       CODE:16fc 18              DEC        R0
       CODE:16fd 22              RET
                             LAB_CODE_16fe                                   XREF[1]:     CODE:16fa(j)  
       CODE:16fe e6              MOV        A,@R0
       CODE:16ff 24 ff           ADD        A,#0xff
       CODE:1701 f7              MOV        @R1,A
       CODE:1702 18              DEC        R0
       CODE:1703 19              DEC        R1
       CODE:1704 e6              MOV        A,@R0
       CODE:1705 f7              MOV        @R1,A
       CODE:1706 22              RET
                             LAB_CODE_1707                                   XREF[1]:     CODE:17b1(j)  
       CODE:1707 74 00           MOV        A,#0x0
       CODE:1709 12 29 71        LCALL      FUN_CODE_2971                                              undefined FUN_CODE_2971()
       CODE:170c c2 41           CLR        28.1                                                       = ??
       CODE:170e 02 18 d9        LJMP       LAB_CODE_18d9
                             LAB_CODE_1711                                   XREF[1]:     CODE:17bc(j)  
       CODE:1711 74 10           MOV        A,#0x10
       CODE:1713 a2 05           MOV        CY,20.5                                                    = ??
       CODE:1715 92 e0           MOV        ACC.0,CY                                                   = ??
       CODE:1717 d2 e1           SETB       ACC.1                                                      = ??
       CODE:1719 12 29 71        LCALL      FUN_CODE_2971                                              undefined FUN_CODE_2971()
       CODE:171c c2 42           CLR        28.2                                                       = ??
       CODE:171e 02 18 d9        LJMP       LAB_CODE_18d9
                             LAB_CODE_1721                                   XREF[1]:     CODE:17c7(j)  
       CODE:1721 85 61 f0        MOV        B,DAT_INTMEM_61                                            = ??
       CODE:1724 c3              CLR        CY
       CODE:1725 78 d7           MOV        R0,#0xd7
       CODE:1727 e6              MOV        A,@R0=>DAT_INTMEM_d7                                       = ??
       CODE:1728 70 05           JNZ        LAB_CODE_172f
       CODE:172a 20 f5 02        JB         B.5,LAB_CODE_172f                                          = ??
       CODE:172d a2 f4           MOV        CY,B.4                                                     = ??
                             LAB_CODE_172f                                   XREF[2]:     CODE:1728(j), CODE:172a(j)  
       CODE:172f 74 80           MOV        A,#0x80
       CODE:1731 30 f7 1f        JNB        B.7,LAB_CODE_1753                                          = ??
       CODE:1734 92 e0           MOV        ACC.0,CY                                                   = ??
       CODE:1736 c2 f4           CLR        B.4                                                        = ??
       CODE:1738 85 f0 61        MOV        DAT_INTMEM_61,B                                            = ??
       CODE:173b 20 f2 0d        JB         B.2,LAB_CODE_174b                                          = ??
       CODE:173e 20 f3 0a        JB         B.3,LAB_CODE_174b                                          = ??
       CODE:1741 a2 f0           MOV        CY,B.0                                                     = ??
       CODE:1743 92 e2           MOV        ACC.2,CY                                                   = ??
       CODE:1745 a2 f1           MOV        CY,B.1                                                     = ??
       CODE:1747 92 e3           MOV        ACC.3,CY                                                   = ??
       CODE:1749 80 08           SJMP       LAB_CODE_1753
                             LAB_CODE_174b                                   XREF[2]:     CODE:173b(j), CODE:173e(j)  
       CODE:174b a2 f2           MOV        CY,B.2                                                     = ??
       CODE:174d 92 e2           MOV        ACC.2,CY                                                   = ??
       CODE:174f a2 f3           MOV        CY,B.3                                                     = ??
       CODE:1751 92 e3           MOV        ACC.3,CY                                                   = ??
                             LAB_CODE_1753                                   XREF[2]:     CODE:1731(j), CODE:1749(j)  
       CODE:1753 12 29 71        LCALL      FUN_CODE_2971                                              undefined FUN_CODE_2971()
       CODE:1756 c2 46           CLR        28.6                                                       = ??
       CODE:1758 02 18 d9        LJMP       LAB_CODE_18d9
                             LAB_CODE_175b                                   XREF[1]:     CODE:17c2(j)  
       CODE:175b 74 08           MOV        A,#0x8
       CODE:175d a2 03           MOV        CY,20.3                                                    = ??
       CODE:175f b3              CPL        CY
       CODE:1760 72 15           ORL        CY,22.5                                                    = ??
       CODE:1762 92 e0           MOV        ACC.0,CY                                                   = ??
       CODE:1764 12 29 71        LCALL      FUN_CODE_2971                                              undefined FUN_CODE_2971()
       CODE:1767 c2 48           CLR        29.0                                                       = ??
       CODE:1769 c2 15           CLR        22.5                                                       = ??
       CODE:176b 02 18 d9        LJMP       LAB_CODE_18d9
                             LAB_CODE_176e                                   XREF[1]:     CODE:17b7(j)  
       CODE:176e 74 40           MOV        A,#0x40
       CODE:1770 12 29 71        LCALL      FUN_CODE_2971                                              undefined FUN_CODE_2971()
       CODE:1773 02 18 f2        LJMP       LAB_CODE_18f2
                             LAB_CODE_1776                                   XREF[1]:     CODE:17dc(j)  
       CODE:1776 74 20           MOV        A,#0x20
       CODE:1778 78 bf           MOV        R0,#0xbf
       CODE:177a 86 f0           MOV        B,@R0=>DAT_INTMEM_bf                                       = ??
       CODE:177c c3              CLR        CY
       CODE:177d 30 55 03        JNB        2a.5,LAB_CODE_1783                                         = ??
       CODE:1780 a2 56           MOV        CY,2a.6                                                    = ??
       CODE:1782 b3              CPL        CY
                             LAB_CODE_1783                                   XREF[1]:     CODE:177d(j)  
       CODE:1783 92 f7           MOV        B.7,CY                                                     = ??
       CODE:1785 12 29 71        LCALL      FUN_CODE_2971                                              undefined FUN_CODE_2971()
       CODE:1788 c2 44           CLR        28.4                                                       = ??
       CODE:178a 02 18 d9        LJMP       LAB_CODE_18d9
                             LAB_CODE_178d                                   XREF[1]:     CODE:17e0(j)  
       CODE:178d 7a 10           MOV        R2,#0x10
       CODE:178f 74 01           MOV        A,#0x1
                             LAB_CODE_1791                                   XREF[1]:     CODE:1798(j)  
       CODE:1791 1a              DEC        R2
       CODE:1792 03              RR         A
       CODE:1793 85 34 f0        MOV        B,DAT_INTMEM_34                                            = ??
       CODE:1796 52 f0           ANL        B,A
       CODE:1798 b5 f0 f6        CJNE       A,B,LAB_CODE_1791
       CODE:179b f5 5f           MOV        DAT_INTMEM_5f,A                                            = ??
       CODE:179d f4              CPL        A
       CODE:179e 52 34           ANL        DAT_INTMEM_34,A                                            = ??
       CODE:17a0 74 40           MOV        A,#0x40
       CODE:17a2 2a              ADD        A,R2
       CODE:17a3 12 29 71        LCALL      FUN_CODE_2971                                              undefined FUN_CODE_2971()
       CODE:17a6 02 18 f7        LJMP       LAB_CODE_18f7
                             LAB_CODE_17a9                                   XREF[1]:     CODE:199f(j)  
       CODE:17a9 d2 3f           SETB       27.7                                                       = ??
       CODE:17ab 30 3e 39        JNB        27.6,LAB_CODE_17e7                                         = ??
       CODE:17ae 30 41 03        JNB        28.1,LAB_CODE_17b4                                         = ??
       CODE:17b1 02 17 07        LJMP       LAB_CODE_1707
                             LAB_CODE_17b4                                   XREF[1]:     CODE:17ae(j)  
       CODE:17b4 30 43 02        JNB        28.3,LAB_CODE_17b9                                         = ??
       CODE:17b7 80 b5           SJMP       LAB_CODE_176e
                             LAB_CODE_17b9                                   XREF[1]:     CODE:17b4(j)  
       CODE:17b9 30 42 03        JNB        28.2,LAB_CODE_17bf                                         = ??
       CODE:17bc 02 17 11        LJMP       LAB_CODE_1711
                             LAB_CODE_17bf                                   XREF[1]:     CODE:17b9(j)  
       CODE:17bf 30 48 02        JNB        29.0,LAB_CODE_17c4                                         = ??
       CODE:17c2 80 97           SJMP       LAB_CODE_175b
                             LAB_CODE_17c4                                   XREF[1]:     CODE:17bf(j)  
       CODE:17c4 30 46 03        JNB        28.6,LAB_CODE_17ca                                         = ??
       CODE:17c7 02 17 21        LJMP       LAB_CODE_1721
                             LAB_CODE_17ca                                   XREF[1]:     CODE:17c4(j)  
       CODE:17ca 30 45 02        JNB        28.5,LAB_CODE_17cf                                         = ??
       CODE:17cd 80 1d           SJMP       LAB_CODE_17ec
                             LAB_CODE_17cf                                   XREF[1]:     CODE:17ca(j)  
       CODE:17cf 30 47 02        JNB        28.7,LAB_CODE_17d4                                         = ??
       CODE:17d2 80 6d           SJMP       LAB_CODE_1841
                             LAB_CODE_17d4                                   XREF[1]:     CODE:17cf(j)  
       CODE:17d4 30 40 02        JNB        28.0,LAB_CODE_17d9                                         = ??
       CODE:17d7 80 2e           SJMP       LAB_CODE_1807
                             LAB_CODE_17d9                                   XREF[1]:     CODE:17d4(j)  
       CODE:17d9 30 44 02        JNB        28.4,LAB_CODE_17de                                         = ??
       CODE:17dc 80 98           SJMP       LAB_CODE_1776
                             LAB_CODE_17de                                   XREF[1]:     CODE:17d9(j)  
       CODE:17de e5 34           MOV        A,DAT_INTMEM_34                                            = ??
       CODE:17e0 70 ab           JNZ        LAB_CODE_178d
       CODE:17e2 30 49 02        JNB        29.1,LAB_CODE_17e7                                         = ??
       CODE:17e5 80 39           SJMP       LAB_CODE_1820
                             LAB_CODE_17e7                                   XREF[2]:     CODE:17ab(j), CODE:17e2(j)  
       CODE:17e7 c2 3f           CLR        27.7                                                       = ??
       CODE:17e9 02 18 fc        LJMP       LAB_CODE_18fc
                             LAB_CODE_17ec                                   XREF[1]:     CODE:17cd(j)  
       CODE:17ec c2 45           CLR        28.5                                                       = ??
       CODE:17ee e5 5b           MOV        A,DAT_INTMEM_5b                                            = ??
       CODE:17f0 f5 5f           MOV        DAT_INTMEM_5f,A                                            = ??
       CODE:17f2 24 c8           ADD        A,#0xc8
       CODE:17f4 40 0e           JC         LAB_CODE_1804
       CODE:17f6 e5 5f           MOV        A,DAT_INTMEM_5f                                            = ??
       CODE:17f8 75 f0 08        MOV        B,#0x8
       CODE:17fb 84              DIV        AB
       CODE:17fc 24 41           ADD        A,#0x41
       CODE:17fe 12 29 71        LCALL      FUN_CODE_2971                                              undefined FUN_CODE_2971()
       CODE:1801 02 18 de        LJMP       LAB_CODE_18de
                             LAB_CODE_1804                                   XREF[4]:     CODE:17f4(j), CODE:180b(j), 
                                                                                          CODE:180e(j), CODE:1814(j)  
       CODE:1804 02 18 fc        LJMP       LAB_CODE_18fc
                             LAB_CODE_1807                                   XREF[1]:     CODE:17d7(j)  
       CODE:1807 c2 40           CLR        28.0                                                       = ??
       CODE:1809 e5 61           MOV        A,DAT_INTMEM_61                                            = ??
       CODE:180b 30 e7 f6        JNB        ACC.7,LAB_CODE_1804                                        = ??
       CODE:180e 20 e5 f3        JB         ACC.5,LAB_CODE_1804                                        = ??
       CODE:1811 78 d7           MOV        R0,#0xd7
       CODE:1813 e6              MOV        A,@R0=>DAT_INTMEM_d7                                       = ??
       CODE:1814 70 ee           JNZ        LAB_CODE_1804
       CODE:1816 d2 37           SETB       26.7                                                       = ??
       CODE:1818 74 04           MOV        A,#0x4
       CODE:181a 12 29 71        LCALL      FUN_CODE_2971                                              undefined FUN_CODE_2971()
       CODE:181d 02 18 d9        LJMP       LAB_CODE_18d9
                             LAB_CODE_1820                                   XREF[1]:     CODE:17e5(j)  
       CODE:1820 78 d9           MOV        R0,#0xd9
       CODE:1822 86 f0           MOV        B,@R0=>DAT_INTMEM_d9                                       = ??
       CODE:1824 78 d8           MOV        R0,#0xd8
       CODE:1826 e6              MOV        A,@R0=>DAT_INTMEM_d8                                       = ??
       CODE:1827 20 e7 08        JB         ACC.7,LAB_CODE_1832                                        = ??
       CODE:182a 54 0f           ANL        A,#0xf
       CODE:182c 60 0e           JZ         LAB_CODE_183c
       CODE:182e 24 20           ADD        A,#0x20
       CODE:1830 80 04           SJMP       LAB_CODE_1836
                             LAB_CODE_1832                                   XREF[1]:     CODE:1827(j)  
       CODE:1832 54 0f           ANL        A,#0xf
       CODE:1834 24 40           ADD        A,#0x40
                             LAB_CODE_1836                                   XREF[1]:     CODE:1830(j)  
       CODE:1836 12 29 71        LCALL      FUN_CODE_2971                                              undefined FUN_CODE_2971()
       CODE:1839 02 18 ed        LJMP       LAB_CODE_18ed
                             LAB_CODE_183c                                   XREF[1]:     CODE:182c(j)  
       CODE:183c d2 d5           SETB       F0                                                         = ??
       CODE:183e 02 19 1a        LJMP       LAB_CODE_191a
                             LAB_CODE_1841                                   XREF[1]:     CODE:17d2(j)  
       CODE:1841 74 80           MOV        A,#0x80
       CODE:1843 85 61 f0        MOV        B,DAT_INTMEM_61                                            = ??
       CODE:1846 30 f7 39        JNB        B.7,LAB_CODE_1882                                          = ??
       CODE:1849 78 d7           MOV        R0,#0xd7
       CODE:184b e6              MOV        A,@R0=>DAT_INTMEM_d7                                       = ??
       CODE:184c 70 0a           JNZ        LAB_CODE_1858
       CODE:184e 85 61 f0        MOV        B,DAT_INTMEM_61                                            = ??
       CODE:1851 20 f5 35        JB         B.5,LAB_CODE_1889                                          = ??
       CODE:1854 74 90           MOV        A,#0x90
       CODE:1856 80 2a           SJMP       LAB_CODE_1882
                             LAB_CODE_1858                                   XREF[1]:     CODE:184c(j)  
       CODE:1858 aa 5a           MOV        R2,DAT_INTMEM_5a                                           = ??
       CODE:185a ba 00 04        CJNE       R2,#0x0,LAB_CODE_1861
                             LAB_CODE_185d                                   XREF[4]:     CODE:186e(j), CODE:1872(j), 
                                                                                          CODE:187c(j), CODE:1880(j)  
       CODE:185d 44 c0           ORL        A,#0xc0
       CODE:185f 80 21           SJMP       LAB_CODE_1882
                             LAB_CODE_1861                                   XREF[1]:     CODE:185a(j)  
       CODE:1861 e5 59           MOV        A,DAT_INTMEM_59                                            = ??
       CODE:1863 5a              ANL        A,R2
       CODE:1864 70 0e           JNZ        LAB_CODE_1874
       CODE:1866 ea              MOV        A,R2
       CODE:1867 23              RL         A
       CODE:1868 55 59           ANL        A,DAT_INTMEM_59                                            = ??
       CODE:186a 70 04           JNZ        LAB_CODE_1870
       CODE:186c 74 11           MOV        A,#0x11
       CODE:186e 80 ed           SJMP       LAB_CODE_185d
                             LAB_CODE_1870                                   XREF[1]:     CODE:186a(j)  
       CODE:1870 74 18           MOV        A,#0x18
       CODE:1872 80 e9           SJMP       LAB_CODE_185d
                             LAB_CODE_1874                                   XREF[1]:     CODE:1864(j)  
       CODE:1874 ea              MOV        A,R2
       CODE:1875 23              RL         A
       CODE:1876 55 59           ANL        A,DAT_INTMEM_59                                            = ??
       CODE:1878 70 04           JNZ        LAB_CODE_187e
       CODE:187a 74 12           MOV        A,#0x12
       CODE:187c 80 df           SJMP       LAB_CODE_185d
                             LAB_CODE_187e                                   XREF[1]:     CODE:1878(j)  
       CODE:187e 74 1f           MOV        A,#0x1f
       CODE:1880 80 db           SJMP       LAB_CODE_185d
                             LAB_CODE_1882                                   XREF[3]:     CODE:1846(j), CODE:1856(j), 
                                                                                          CODE:185f(j)  
       CODE:1882 12 29 71        LCALL      FUN_CODE_2971                                              undefined FUN_CODE_2971()
       CODE:1885 c2 47           CLR        28.7                                                       = ??
       CODE:1887 80 50           SJMP       LAB_CODE_18d9
                             LAB_CODE_1889                                   XREF[1]:     CODE:1851(j)  
       CODE:1889 74 90           MOV        A,#0x90
       CODE:188b 12 29 71        LCALL      FUN_CODE_2971                                              undefined FUN_CODE_2971()
       CODE:188e c2 47           CLR        28.7                                                       = ??
       CODE:1890 80 51           SJMP       LAB_CODE_18e3
                             LAB_CODE_1892                                   XREF[1]:     CODE:19a2(j)  
       CODE:1892 12 29 9a        LCALL      FUN_CODE_299a                                              undefined FUN_CODE_299a()
       CODE:1895 50 65           JNC        LAB_CODE_18fc
       CODE:1897 80 3b           SJMP       LAB_CODE_18d4
                             LAB_CODE_1899                                   XREF[1]:     CODE:19a5(j)  
       CODE:1899 12 29 9a        LCALL      FUN_CODE_299a                                              undefined FUN_CODE_299a()
       CODE:189c 50 5e           JNC        LAB_CODE_18fc
       CODE:189e 20 d5 33        JB         F0,LAB_CODE_18d4                                           = ??
       CODE:18a1 fa              MOV        R2,A
       CODE:18a2 e5 5f           MOV        A,DAT_INTMEM_5f                                            = ??
       CODE:18a4 75 f0 08        MOV        B,#0x8
       CODE:18a7 84              DIV        AB
       CODE:18a8 24 21           ADD        A,#0x21
       CODE:18aa fb              MOV        R3,A
       CODE:18ab 74 01           MOV        A,#0x1
       CODE:18ad 05 f0           INC        B
                             LAB_CODE_18af                                   XREF[1]:     CODE:18b5(j)  
       CODE:18af d5 f0 02        DJNZ       B,LAB_CODE_18b4
       CODE:18b2 80 03           SJMP       LAB_CODE_18b7
                             LAB_CODE_18b4                                   XREF[1]:     CODE:18af(j)  
       CODE:18b4 23              RL         A
       CODE:18b5 80 f8           SJMP       LAB_CODE_18af
                             LAB_CODE_18b7                                   XREF[1]:     CODE:18b2(j)  
       CODE:18b7 4a              ORL        A,R2
       CODE:18b8 f5 f0           MOV        B,A
       CODE:18ba eb              MOV        A,R3
       CODE:18bb 12 29 71        LCALL      FUN_CODE_2971                                              undefined FUN_CODE_2971()
       CODE:18be 80 19           SJMP       LAB_CODE_18d9
                             LAB_CODE_18c0                                   XREF[1]:     CODE:19a8(j)  
       CODE:18c0 12 29 9a        LCALL      FUN_CODE_299a                                              undefined FUN_CODE_299a()
       CODE:18c3 50 37           JNC        LAB_CODE_18fc
       CODE:18c5 20 d5 0c        JB         F0,LAB_CODE_18d4                                           = ??
       CODE:18c8 78 d6           MOV        R0,#0xd6
       CODE:18ca e6              MOV        A,@R0=>DAT_INTMEM_d6                                       = ??
       CODE:18cb 54 0f           ANL        A,#0xf
       CODE:18cd 44 b0           ORL        A,#0xb0
       CODE:18cf 12 29 71        LCALL      FUN_CODE_2971                                              undefined FUN_CODE_2971()
       CODE:18d2 80 14           SJMP       LAB_CODE_18e8
                             LAB_CODE_18d4                                   XREF[9]:     CODE:1897(j), CODE:189e(j), 
                                                                                          CODE:18c5(j), CODE:1902(j), 
                                                                                          CODE:1928(j), CODE:1931(j), 
                                                                                          CODE:193d(j), CODE:1944(j), 
                                                                                          CODE:194f(j)  
       CODE:18d4 78 cc           MOV        R0,#0xcc
       CODE:18d6 76 00           MOV        @R0=>DAT_INTMEM_cc,#0x0                                    = ??
       CODE:18d8 22              RET
                             LAB_CODE_18d9                                   XREF[10]:    CODE:170e(j), CODE:171e(j), 
                                                                                          CODE:1758(j), CODE:176b(j), 
                                                                                          CODE:178a(j), CODE:181d(j), 
                                                                                          CODE:1887(j), CODE:18be(j), 
                                                                                          CODE:1910(j), CODE:1970(j)  
       CODE:18d9 78 cc           MOV        R0,#0xcc
       CODE:18db 76 01           MOV        @R0=>DAT_INTMEM_cc,#0x1                                    = ??
       CODE:18dd 22              RET
                             LAB_CODE_18de                                   XREF[1]:     CODE:1801(j)  
       CODE:18de 78 cc           MOV        R0,#0xcc
       CODE:18e0 76 02           MOV        @R0=>DAT_INTMEM_cc,#0x2                                    = ??
       CODE:18e2 22              RET
                             LAB_CODE_18e3                                   XREF[1]:     CODE:1890(j)  
       CODE:18e3 78 cc           MOV        R0,#0xcc
       CODE:18e5 76 03           MOV        @R0=>DAT_INTMEM_cc,#0x3                                    = ??
       CODE:18e7 22              RET
                             LAB_CODE_18e8                                   XREF[1]:     CODE:18d2(j)  
       CODE:18e8 78 cc           MOV        R0,#0xcc
       CODE:18ea 76 04           MOV        @R0=>DAT_INTMEM_cc,#0x4                                    = ??
       CODE:18ec 22              RET
                             LAB_CODE_18ed                                   XREF[1]:     CODE:1839(j)  
       CODE:18ed 78 cc           MOV        R0,#0xcc
       CODE:18ef 76 05           MOV        @R0=>DAT_INTMEM_cc,#0x5                                    = ??
       CODE:18f1 22              RET
                             LAB_CODE_18f2                                   XREF[1]:     CODE:1773(j)  
       CODE:18f2 78 cc           MOV        R0,#0xcc
       CODE:18f4 76 06           MOV        @R0=>DAT_INTMEM_cc,#0x6                                    = ??
       CODE:18f6 22              RET
                             LAB_CODE_18f7                                   XREF[1]:     CODE:17a6(j)  
       CODE:18f7 78 cc           MOV        R0,#0xcc
       CODE:18f9 76 07           MOV        @R0=>DAT_INTMEM_cc,#0x7                                    = ??
       CODE:18fb 22              RET
                             LAB_CODE_18fc                                   XREF[9]:     CODE:17e9(j), CODE:1804(j), 
                                                                                          CODE:1895(j), CODE:189c(j), 
                                                                                          CODE:18c3(j), CODE:1900(j), 
                                                                                          CODE:1915(j), CODE:192d(j), 
                                                                                          CODE:1942(j)  
       CODE:18fc 22              RET
                             LAB_CODE_18fd                                   XREF[1]:     CODE:19ab(j)  
       CODE:18fd 12 29 9a        LCALL      FUN_CODE_299a                                              undefined FUN_CODE_299a()
       CODE:1900 50 fa           JNC        LAB_CODE_18fc
       CODE:1902 20 d5 cf        JB         F0,LAB_CODE_18d4                                           = ??
       CODE:1905 78 d6           MOV        R0,#0xd6
       CODE:1907 e6              MOV        A,@R0=>DAT_INTMEM_d6                                       = ??
       CODE:1908 c4              SWAP       A
       CODE:1909 54 0f           ANL        A,#0xf
       CODE:190b 44 a0           ORL        A,#0xa0
       CODE:190d 12 29 71        LCALL      FUN_CODE_2971                                              undefined FUN_CODE_2971()
       CODE:1910 80 c7           SJMP       LAB_CODE_18d9
                             LAB_CODE_1912                                   XREF[1]:     CODE:19ae(j)  
       CODE:1912 12 29 9a        LCALL      FUN_CODE_299a                                              undefined FUN_CODE_299a()
       CODE:1915 50 e5           JNC        LAB_CODE_18fc
       CODE:1917 78 d9           MOV        R0,#0xd9
       CODE:1919 f6              MOV        @R0=>DAT_INTMEM_d9,A                                       = ??
                             LAB_CODE_191a                                   XREF[1]:     CODE:183e(j)  
       CODE:191a 78 d8           MOV        R0,#0xd8
       CODE:191c e6              MOV        A,@R0=>DAT_INTMEM_d8                                       = ??
       CODE:191d a2 d5           MOV        CY,F0                                                      = ??
       CODE:191f 92 e6           MOV        ACC.6,CY                                                   = ??
       CODE:1921 78 d8           MOV        R0,#0xd8
       CODE:1923 f6              MOV        @R0=>DAT_INTMEM_d8,A                                       = ??
       CODE:1924 d2 3a           SETB       27.2                                                       = ??
       CODE:1926 c2 49           CLR        29.1                                                       = ??
       CODE:1928 80 aa           SJMP       LAB_CODE_18d4
                             LAB_CODE_192a                                   XREF[1]:     CODE:19b1(j)  
       CODE:192a 12 29 9a        LCALL      FUN_CODE_299a                                              undefined FUN_CODE_299a()
       CODE:192d 50 cd           JNC        LAB_CODE_18fc
       CODE:192f c2 43           CLR        28.3                                                       = ??
       CODE:1931 20 d5 a0        JB         F0,LAB_CODE_18d4                                           = ??
       CODE:1934 a2 e7           MOV        CY,ACC.7                                                   = ??
       CODE:1936 92 55           MOV        2a.5,CY                                                    = ??
       CODE:1938 54 0f           ANL        A,#0xf
       CODE:193a 78 bf           MOV        R0,#0xbf
       CODE:193c f6              MOV        @R0=>DAT_INTMEM_bf,A                                       = ??
       CODE:193d 80 95           SJMP       LAB_CODE_18d4
                             LAB_CODE_193f                                   XREF[1]:     CODE:19b4(j)  
       CODE:193f 12 29 9a        LCALL      FUN_CODE_299a                                              undefined FUN_CODE_299a()
       CODE:1942 50 b8           JNC        LAB_CODE_18fc
       CODE:1944 20 d5 8d        JB         F0,LAB_CODE_18d4                                           = ??
       CODE:1947 aa 5f           MOV        R2,DAT_INTMEM_5f                                           = ??
       CODE:1949 ba 02 05        CJNE       R2,#0x2,LAB_CODE_1951
       CODE:194c b4 ff 02        CJNE       A,#0xff,LAB_CODE_1951
       CODE:194f 80 83           SJMP       LAB_CODE_18d4
                             LAB_CODE_1951                                   XREF[2]:     CODE:1949(j), CODE:194c(j)  
       CODE:1951 24 01           ADD        A,#0x1
       CODE:1953 f5 f0           MOV        B,A
       CODE:1955 50 0b           JNC        LAB_CODE_1962
       CODE:1957 74 6d           MOV        A,#0x6d
       CODE:1959 55 5f           ANL        A,DAT_INTMEM_5f                                            = ??
       CODE:195b 60 05           JZ         LAB_CODE_1962
       CODE:195d e5 5f           MOV        A,DAT_INTMEM_5f                                            = ??
       CODE:195f 23              RL         A
       CODE:1960 42 34           ORL        DAT_INTMEM_34,A                                            = ??
                             LAB_CODE_1962                                   XREF[2]:     CODE:1955(j), CODE:195b(j)  
       CODE:1962 7a 10           MOV        R2,#0x10
       CODE:1964 e5 5f           MOV        A,DAT_INTMEM_5f                                            = ??
                             LAB_CODE_1966                                   XREF[1]:     CODE:1968(j)  
       CODE:1966 1a              DEC        R2
       CODE:1967 33              RLC        A
       CODE:1968 50 fc           JNC        LAB_CODE_1966
       CODE:196a 74 20           MOV        A,#0x20
       CODE:196c 2a              ADD        A,R2
       CODE:196d 12 29 71        LCALL      FUN_CODE_2971                                              undefined FUN_CODE_2971()
       CODE:1970 02 18 d9        LJMP       LAB_CODE_18d9
                             **************************************************************
                             *                          FUNCTION                          *
                             **************************************************************
                             undefined FUN_CODE_1973()
             undefined         ACC:1          <RETURN>
                             FUN_CODE_1973                                   XREF[1]:     FUN_CODE_0756:07e0(c)  
       CODE:1973 12 29 67        LCALL      FUN_CODE_2967                                              undefined FUN_CODE_2967()
       CODE:1976 40 1e           JC         LAB_CODE_1996
       CODE:1978 60 1c           JZ         LAB_CODE_1996
       CODE:197a 20 e7 09        JB         ACC.7,LAB_CODE_1986                                        = ??
       CODE:197d 20 e6 06        JB         ACC.6,LAB_CODE_1986                                        = ??
       CODE:1980 20 e5 07        JB         ACC.5,LAB_CODE_198a                                        = ??
       CODE:1983 20 e4 08        JB         ACC.4,LAB_CODE_198e                                        = ??
                             LAB_CODE_1986                                   XREF[2]:     CODE:197a(j), CODE:197d(j)  
       CODE:1986 d2 41           SETB       28.1                                                       = ??
       CODE:1988 80 0c           SJMP       LAB_CODE_1996
                             LAB_CODE_198a                                   XREF[1]:     CODE:1980(j)  
       CODE:198a d2 4a           SETB       29.2                                                       = ??
       CODE:198c 80 08           SJMP       LAB_CODE_1996
                             LAB_CODE_198e                                   XREF[1]:     CODE:1983(j)  
       CODE:198e a2 e0           MOV        CY,ACC.0                                                   = ??
       CODE:1990 92 46           MOV        28.6,CY                                                    = ??
       CODE:1992 a2 e1           MOV        CY,ACC.1                                                   = ??
       CODE:1994 92 42           MOV        28.2,CY                                                    = ??
                             LAB_CODE_1996                                   XREF[4]:     CODE:1976(j), CODE:1978(j), 
                                                                                          CODE:1988(j), CODE:198c(j)  
       CODE:1996 78 cc           MOV        R0,#0xcc
       CODE:1998 e6              MOV        A,@R0=>DAT_INTMEM_cc                                       = ??
       CODE:1999 26              ADD        A,@R0=>DAT_INTMEM_cc                                       = ??
       CODE:199a 26              ADD        A,@R0=>DAT_INTMEM_cc                                       = ??
       CODE:199b 90 19 9f        MOV        DPTR,#LAB_CODE_199f
       CODE:199e 73              JMP        @A+DPTR
                             LAB_CODE_199f                                   XREF[1]:     FUN_CODE_1973:199b(*)  
       CODE:199f 02 17 a9        LJMP       LAB_CODE_17a9
       CODE:19a2 02 18 92        LJMP       LAB_CODE_1892
       CODE:19a5 02 18 99        LJMP       LAB_CODE_1899
       CODE:19a8 02 18 c0        LJMP       LAB_CODE_18c0
       CODE:19ab 02 18 fd        LJMP       LAB_CODE_18fd
       CODE:19ae 02 19 12        LJMP       LAB_CODE_1912
       CODE:19b1 02 19 2a        LJMP       LAB_CODE_192a
       CODE:19b4 02 19 3f        LJMP       LAB_CODE_193f
                             **************************************************************
                             *                          FUNCTION                          *
                             **************************************************************
                             undefined FUN_CODE_19b7()
             undefined         ACC:1          <RETURN>
                             FUN_CODE_19b7                                   XREF[1]:     FUN_CODE_0756:07d7(c)  
       CODE:19b7 78 cd           MOV        R0,#0xcd
       CODE:19b9 e6              MOV        A,@R0=>DAT_INTMEM_cd                                       = ??
       CODE:19ba 26              ADD        A,@R0=>DAT_INTMEM_cd                                       = ??
       CODE:19bb 26              ADD        A,@R0=>DAT_INTMEM_cd                                       = ??
       CODE:19bc 90 19 c0        MOV        DPTR,#LAB_CODE_19c0
       CODE:19bf 73              JMP        @A+DPTR
                             LAB_CODE_19c0                                   XREF[1]:     FUN_CODE_19b7:19bc(*)  
       CODE:19c0 02 19 db        LJMP       LAB_CODE_19db
       CODE:19c3 02 1a 64        LJMP       LAB_CODE_1a64
       CODE:19c6 02 1a 86        LJMP       LAB_CODE_1a86
       CODE:19c9 02 1a a1        LJMP       LAB_CODE_1aa1
       CODE:19cc 02 1a ad        LJMP       LAB_CODE_1aad
       CODE:19cf 02 1a f9        LJMP       LAB_CODE_1af9
       CODE:19d2 02 1b 13        LJMP       LAB_CODE_1b13
       CODE:19d5 02 1a e4        LJMP       LAB_CODE_1ae4
       CODE:19d8 02 1a f0        LJMP       LAB_CODE_1af0
                             LAB_CODE_19db                                   XREF[1]:     CODE:19c0(j)  
       CODE:19db d2 2a           SETB       25.2                                                       = ??
       CODE:19dd 20 29 02        JB         25.1,LAB_CODE_19e2                                         = ??
       CODE:19e0 80 7d           SJMP       LAB_CODE_1a5f
                             LAB_CODE_19e2                                   XREF[1]:     CODE:19dd(j)  
       CODE:19e2 30 2b 0b        JNB        25.3,LAB_CODE_19f0                                         = ??
       CODE:19e5 12 25 5c        LCALL      FUN_CODE_255c                                              undefined FUN_CODE_255c()
       CODE:19e8 20 d5 03        JB         F0,LAB_CODE_19ee                                           = ??
       CODE:19eb 02 1a bb        LJMP       LAB_CODE_1abb
                             LAB_CODE_19ee                                   XREF[1]:     CODE:19e8(j)  
       CODE:19ee 80 79           SJMP       LAB_CODE_1a69
                             LAB_CODE_19f0                                   XREF[1]:     CODE:19e2(j)  
       CODE:19f0 30 2c 0c        JNB        25.4,LAB_CODE_19ff                                         = ??
       CODE:19f3 12 25 64        LCALL      FUN_CODE_2564                                              undefined FUN_CODE_2564()
       CODE:19f6 20 d5 03        JB         F0,LAB_CODE_19fc                                           = ??
       CODE:19f9 02 1a c0        LJMP       LAB_CODE_1ac0
                             LAB_CODE_19fc                                   XREF[1]:     CODE:19f6(j)  
       CODE:19fc 02 1a 8b        LJMP       LAB_CODE_1a8b
                             LAB_CODE_19ff                                   XREF[1]:     CODE:19f0(j)  
       CODE:19ff 30 2d 0c        JNB        25.5,LAB_CODE_1a0e                                         = ??
       CODE:1a02 12 25 69        LCALL      FUN_CODE_2569                                              undefined FUN_CODE_2569()
       CODE:1a05 20 d5 03        JB         F0,LAB_CODE_1a0b                                           = ??
       CODE:1a08 02 1a c5        LJMP       LAB_CODE_1ac5
                             LAB_CODE_1a0b                                   XREF[1]:     CODE:1a05(j)  
       CODE:1a0b 02 1a a6        LJMP       LAB_CODE_1aa6
                             LAB_CODE_1a0e                                   XREF[1]:     CODE:19ff(j)  
       CODE:1a0e 30 2e 0c        JNB        25.6,LAB_CODE_1a1d                                         = ??
       CODE:1a11 12 25 6e        LCALL      FUN_CODE_256e                                              undefined FUN_CODE_256e()
       CODE:1a14 20 d5 03        JB         F0,LAB_CODE_1a1a                                           = ??
       CODE:1a17 02 1a ca        LJMP       LAB_CODE_1aca
                             LAB_CODE_1a1a                                   XREF[1]:     CODE:1a14(j)  
       CODE:1a1a 02 1a b2        LJMP       LAB_CODE_1ab2
                             LAB_CODE_1a1d                                   XREF[1]:     CODE:1a0e(j)  
       CODE:1a1d 20 33 1e        JB         26.3,LAB_CODE_1a3e                                         = ??
       CODE:1a20 30 2f 0c        JNB        25.7,LAB_CODE_1a2f                                         = ??
       CODE:1a23 12 25 73        LCALL      FUN_CODE_2573                                              undefined FUN_CODE_2573()
       CODE:1a26 20 d5 03        JB         F0,LAB_CODE_1a2c                                           = ??
       CODE:1a29 02 1a cf        LJMP       LAB_CODE_1acf
                             LAB_CODE_1a2c                                   XREF[1]:     CODE:1a26(j)  
       CODE:1a2c 02 1a fe        LJMP       LAB_CODE_1afe
                             LAB_CODE_1a2f                                   XREF[1]:     CODE:1a20(j)  
       CODE:1a2f 30 30 0c        JNB        26.0,LAB_CODE_1a3e                                         = ??
       CODE:1a32 12 25 78        LCALL      FUN_CODE_2578                                              undefined FUN_CODE_2578()
       CODE:1a35 20 d5 03        JB         F0,LAB_CODE_1a3b                                           = ??
       CODE:1a38 02 1a d4        LJMP       LAB_CODE_1ad4
                             LAB_CODE_1a3b                                   XREF[1]:     CODE:1a35(j)  
       CODE:1a3b 02 1b 18        LJMP       LAB_CODE_1b18
                             LAB_CODE_1a3e                                   XREF[2]:     CODE:1a1d(j), CODE:1a2f(j)  
       CODE:1a3e 30 31 0c        JNB        26.1,LAB_CODE_1a4d                                         = ??
       CODE:1a41 12 25 7d        LCALL      FUN_CODE_257d                                              undefined FUN_CODE_257d()
       CODE:1a44 20 d5 03        JB         F0,LAB_CODE_1a4a                                           = ??
       CODE:1a47 02 1a d9        LJMP       LAB_CODE_1ad9
                             LAB_CODE_1a4a                                   XREF[1]:     CODE:1a44(j)  
       CODE:1a4a 02 1a e9        LJMP       LAB_CODE_1ae9
                             LAB_CODE_1a4d                                   XREF[1]:     CODE:1a3e(j)  
       CODE:1a4d 20 33 0f        JB         26.3,LAB_CODE_1a5f                                         = ??
       CODE:1a50 30 32 0c        JNB        26.2,LAB_CODE_1a5f                                         = ??
       CODE:1a53 12 25 82        LCALL      FUN_CODE_2582                                              undefined FUN_CODE_2582()
       CODE:1a56 20 d5 03        JB         F0,LAB_CODE_1a5c                                           = ??
       CODE:1a59 02 1a de        LJMP       LAB_CODE_1ade
                             LAB_CODE_1a5c                                   XREF[1]:     CODE:1a56(j)  
       CODE:1a5c 02 1a f5        LJMP       LAB_CODE_1af5
                             LAB_CODE_1a5f                                   XREF[3]:     CODE:19e0(j), CODE:1a4d(j), 
                                                                                          CODE:1a50(j)  
       CODE:1a5f c2 2a           CLR        25.2                                                       = ??
       CODE:1a61 02 1a e3        LJMP       LAB_CODE_1ae3
                             LAB_CODE_1a64                                   XREF[1]:     CODE:19c3(j)  
       CODE:1a64 12 25 8f        LCALL      FUN_CODE_258f                                              undefined FUN_CODE_258f()
       CODE:1a67 50 7a           JNC        LAB_CODE_1ae3
                             LAB_CODE_1a69                                   XREF[1]:     CODE:19ee(j)  
       CODE:1a69 c2 2b           CLR        25.3                                                       = ??
       CODE:1a6b c2 35           CLR        26.5                                                       = ??
       CODE:1a6d 74 01           MOV        A,#0x1
       CODE:1a6f 12 23 99        LCALL      FUN_CODE_2399                                              undefined FUN_CODE_2399()
       CODE:1a72 74 03           MOV        A,#0x3
       CODE:1a74 12 23 9e        LCALL      FUN_CODE_239e                                              undefined FUN_CODE_239e()
       CODE:1a77 20 d5 3c        JB         F0,LAB_CODE_1ab6                                           = ??
       CODE:1a7a 74 01           MOV        A,#0x1
       CODE:1a7c 12 23 99        LCALL      FUN_CODE_2399                                              undefined FUN_CODE_2399()
       CODE:1a7f 74 00           MOV        A,#0x0
       CODE:1a81 12 23 9e        LCALL      FUN_CODE_239e                                              undefined FUN_CODE_239e()
       CODE:1a84 80 30           SJMP       LAB_CODE_1ab6
                             LAB_CODE_1a86                                   XREF[1]:     CODE:19c6(j)  
       CODE:1a86 12 25 8f        LCALL      FUN_CODE_258f                                              undefined FUN_CODE_258f()
       CODE:1a89 50 58           JNC        LAB_CODE_1ae3
                             LAB_CODE_1a8b                                   XREF[1]:     CODE:19fc(j)  
       CODE:1a8b c2 2c           CLR        25.4                                                       = ??
       CODE:1a8d 30 d5 26        JNB        F0,LAB_CODE_1ab6                                           = ??
                             LAB_CODE_1a90                                   XREF[2]:     CODE:1aab(j), CODE:1aee(j)  
       CODE:1a90 d2 1b           SETB       23.3                                                       = ??
       CODE:1a92 75 59 04        MOV        DAT_INTMEM_59,#0x4                                         = ??
       CODE:1a95 75 5b 04        MOV        DAT_INTMEM_5b,#0x4                                         = ??
       CODE:1a98 75 5a 00        MOV        DAT_INTMEM_5a,#0x0                                         = ??
       CODE:1a9b d2 45           SETB       28.5                                                       = ??
       CODE:1a9d d2 32           SETB       26.2                                                       = ??
       CODE:1a9f 80 15           SJMP       LAB_CODE_1ab6
                             LAB_CODE_1aa1                                   XREF[1]:     CODE:19c9(j)  
       CODE:1aa1 12 25 8f        LCALL      FUN_CODE_258f                                              undefined FUN_CODE_258f()
       CODE:1aa4 50 3d           JNC        LAB_CODE_1ae3
                             LAB_CODE_1aa6                                   XREF[1]:     CODE:1a0b(j)  
       CODE:1aa6 c2 2d           CLR        25.5                                                       = ??
       CODE:1aa8 30 d5 0b        JNB        F0,LAB_CODE_1ab6                                           = ??
       CODE:1aab 80 e3           SJMP       LAB_CODE_1a90
                             LAB_CODE_1aad                                   XREF[1]:     CODE:19cc(j)  
       CODE:1aad 12 25 8f        LCALL      FUN_CODE_258f                                              undefined FUN_CODE_258f()
       CODE:1ab0 50 31           JNC        LAB_CODE_1ae3
                             LAB_CODE_1ab2                                   XREF[1]:     CODE:1a1a(j)  
       CODE:1ab2 c2 2e           CLR        25.6                                                       = ??
       CODE:1ab4 80 00           SJMP       LAB_CODE_1ab6
                             LAB_CODE_1ab6                                   XREF[13]:    CODE:1a77(j), CODE:1a84(j), 
                                                                                          CODE:1a8d(j), CODE:1a9f(j), 
                                                                                          CODE:1aa8(j), CODE:1ab4(j), 
                                                                                          CODE:1aeb(j), CODE:1af7(j), 
                                                                                          CODE:1b00(j), CODE:1b11(j), 
                                                                                          CODE:1b1f(j), CODE:1b30(j), 
                                                                                          CODE:1b44(j)  
       CODE:1ab6 78 cd           MOV        R0,#0xcd
       CODE:1ab8 76 00           MOV        @R0=>DAT_INTMEM_cd,#0x0                                    = ??
       CODE:1aba 22              RET
                             LAB_CODE_1abb                                   XREF[1]:     CODE:19eb(j)  
       CODE:1abb 78 cd           MOV        R0,#0xcd
       CODE:1abd 76 01           MOV        @R0=>DAT_INTMEM_cd,#0x1                                    = ??
       CODE:1abf 22              RET
                             LAB_CODE_1ac0                                   XREF[1]:     CODE:19f9(j)  
       CODE:1ac0 78 cd           MOV        R0,#0xcd
       CODE:1ac2 76 02           MOV        @R0=>DAT_INTMEM_cd,#0x2                                    = ??
       CODE:1ac4 22              RET
                             LAB_CODE_1ac5                                   XREF[1]:     CODE:1a08(j)  
       CODE:1ac5 78 cd           MOV        R0,#0xcd
       CODE:1ac7 76 03           MOV        @R0=>DAT_INTMEM_cd,#0x3                                    = ??
       CODE:1ac9 22              RET
                             LAB_CODE_1aca                                   XREF[1]:     CODE:1a17(j)  
       CODE:1aca 78 cd           MOV        R0,#0xcd
       CODE:1acc 76 04           MOV        @R0=>DAT_INTMEM_cd,#0x4                                    = ??
       CODE:1ace 22              RET
                             LAB_CODE_1acf                                   XREF[1]:     CODE:1a29(j)  
       CODE:1acf 78 cd           MOV        R0,#0xcd
       CODE:1ad1 76 05           MOV        @R0=>DAT_INTMEM_cd,#0x5                                    = ??
       CODE:1ad3 22              RET
                             LAB_CODE_1ad4                                   XREF[1]:     CODE:1a38(j)  
       CODE:1ad4 78 cd           MOV        R0,#0xcd
       CODE:1ad6 76 06           MOV        @R0=>DAT_INTMEM_cd,#0x6                                    = ??
       CODE:1ad8 22              RET
                             LAB_CODE_1ad9                                   XREF[1]:     CODE:1a47(j)  
       CODE:1ad9 78 cd           MOV        R0,#0xcd
       CODE:1adb 76 07           MOV        @R0=>DAT_INTMEM_cd,#0x7                                    = ??
       CODE:1add 22              RET
                             LAB_CODE_1ade                                   XREF[1]:     CODE:1a59(j)  
       CODE:1ade 78 cd           MOV        R0,#0xcd
       CODE:1ae0 76 08           MOV        @R0=>DAT_INTMEM_cd,#0x8                                    = ??
       CODE:1ae2 22              RET
                             LAB_CODE_1ae3                                   XREF[9]:     CODE:1a61(j), CODE:1a67(j), 
                                                                                          CODE:1a89(j), CODE:1aa4(j), 
                                                                                          CODE:1ab0(j), CODE:1ae7(j), 
                                                                                          CODE:1af3(j), CODE:1afc(j), 
                                                                                          CODE:1b16(j)  
       CODE:1ae3 22              RET
                             LAB_CODE_1ae4                                   XREF[1]:     CODE:19d5(j)  
       CODE:1ae4 12 25 8f        LCALL      FUN_CODE_258f                                              undefined FUN_CODE_258f()
       CODE:1ae7 50 fa           JNC        LAB_CODE_1ae3
                             LAB_CODE_1ae9                                   XREF[1]:     CODE:1a4a(j)  
       CODE:1ae9 c2 31           CLR        26.1                                                       = ??
       CODE:1aeb 30 d5 c8        JNB        F0,LAB_CODE_1ab6                                           = ??
       CODE:1aee 80 a0           SJMP       LAB_CODE_1a90
                             LAB_CODE_1af0                                   XREF[1]:     CODE:19d8(j)  
       CODE:1af0 12 25 8f        LCALL      FUN_CODE_258f                                              undefined FUN_CODE_258f()
       CODE:1af3 50 ee           JNC        LAB_CODE_1ae3
                             LAB_CODE_1af5                                   XREF[1]:     CODE:1a5c(j)  
       CODE:1af5 c2 32           CLR        26.2                                                       = ??
       CODE:1af7 80 bd           SJMP       LAB_CODE_1ab6
                             LAB_CODE_1af9                                   XREF[1]:     CODE:19cf(j)  
       CODE:1af9 12 25 8f        LCALL      FUN_CODE_258f                                              undefined FUN_CODE_258f()
       CODE:1afc 50 e5           JNC        LAB_CODE_1ae3
                             LAB_CODE_1afe                                   XREF[1]:     CODE:1a2c(j)  
       CODE:1afe c2 2f           CLR        25.7                                                       = ??
       CODE:1b00 20 d5 b3        JB         F0,LAB_CODE_1ab6                                           = ??
       CODE:1b03 53 5d 5c        ANL        DAT_INTMEM_5d,#0x5c                                        = ??
       CODE:1b06 78 e0           MOV        R0,#0xe0
       CODE:1b08 e6              MOV        A,@R0=>DAT_INTMEM_e0                                       = ??
       CODE:1b09 54 03           ANL        A,#0x3
       CODE:1b0b 45 5d           ORL        A,DAT_INTMEM_5d                                            = ??
       CODE:1b0d d2 e5           SETB       ACC.5                                                      = ??
       CODE:1b0f f5 5d           MOV        DAT_INTMEM_5d,A                                            = ??
       CODE:1b11 80 a3           SJMP       LAB_CODE_1ab6
                             LAB_CODE_1b13                                   XREF[1]:     CODE:19d2(j)  
       CODE:1b13 12 25 8f        LCALL      FUN_CODE_258f                                              undefined FUN_CODE_258f()
       CODE:1b16 50 cb           JNC        LAB_CODE_1ae3
                             LAB_CODE_1b18                                   XREF[1]:     CODE:1a3b(j)  
       CODE:1b18 c2 30           CLR        26.0                                                       = ??
       CODE:1b1a 30 d5 04        JNB        F0,LAB_CODE_1b21                                           = ??
       CODE:1b1d d2 0a           SETB       21.2                                                       = ??
       CODE:1b1f 80 95           SJMP       LAB_CODE_1ab6
                             LAB_CODE_1b21                                   XREF[1]:     CODE:1b1a(j)  
       CODE:1b21 78 e0           MOV        R0,#0xe0
       CODE:1b23 e6              MOV        A,@R0=>DAT_INTMEM_e0                                       = ??
       CODE:1b24 30 54 0b        JNB        2a.4,LAB_CODE_1b32                                         = ??
       CODE:1b27 78 d3           MOV        R0,#0xd3
       CODE:1b29 f6              MOV        @R0=>DAT_INTMEM_d3,A                                       = ??
       CODE:1b2a 78 d2           MOV        R0,#0xd2
       CODE:1b2c 76 07           MOV        @R0=>DAT_INTMEM_d2,#0x7                                    = ??
       CODE:1b2e d2 3b           SETB       27.3                                                       = ??
       CODE:1b30 80 84           SJMP       LAB_CODE_1ab6
                             LAB_CODE_1b32                                   XREF[1]:     CODE:1b24(j)  
       CODE:1b32 a2 14           MOV        CY,22.4                                                    = ??
       CODE:1b34 72 e0           ORL        CY,ACC.0                                                   = ??
       CODE:1b36 92 14           MOV        22.4,CY                                                    = ??
       CODE:1b38 a2 0a           MOV        CY,21.2                                                    = ??
       CODE:1b3a 72 e2           ORL        CY,ACC.2                                                   = ??
       CODE:1b3c 92 0a           MOV        21.2,CY                                                    = ??
       CODE:1b3e a2 0b           MOV        CY,21.3                                                    = ??
       CODE:1b40 72 e3           ORL        CY,ACC.3                                                   = ??
       CODE:1b42 92 0b           MOV        21.3,CY                                                    = ??
       CODE:1b44 02 1a b6        LJMP       LAB_CODE_1ab6
                             **************************************************************
                             *                          FUNCTION                          *
                             **************************************************************
                             undefined FUN_CODE_1b47()
             undefined         ACC:1          <RETURN>
                             FUN_CODE_1b47                                   XREF[1]:     FUN_CODE_0756:07b6(c)  
       CODE:1b47 78 c1           MOV        R0,#0xc1
       CODE:1b49 e6              MOV        A,@R0=>DAT_INTMEM_c1                                       = ??
       CODE:1b4a 60 03           JZ         LAB_CODE_1b4f
       CODE:1b4c 78 c1           MOV        R0,#0xc1
       CODE:1b4e 16              DEC        @R0=>DAT_INTMEM_c1                                         = ??
                             LAB_CODE_1b4f                                   XREF[1]:     CODE:1b4a(j)  
       CODE:1b4f 12 2a 20        LCALL      FUN_CODE_2a20                                              undefined FUN_CODE_2a20()
       CODE:1b52 70 01           JNZ        LAB_CODE_1b55
       CODE:1b54 22              RET
                             LAB_CODE_1b55                                   XREF[1]:     CODE:1b52(j)  
       CODE:1b55 85 2f f0        MOV        B,DAT_INTMEM_2f                                            = ??
       CODE:1b58 30 f5 01        JNB        B.5,LAB_CODE_1b5c                                          = ??
       CODE:1b5b 22              RET
                             LAB_CODE_1b5c                                   XREF[1]:     CODE:1b58(j)  
       CODE:1b5c 20 e6 24        JB         ACC.6,LAB_CODE_1b83                                        = ??
       CODE:1b5f b4 07 1b        CJNE       A,#0x7,LAB_CODE_1b7d
       CODE:1b62 c2 d5           CLR        F0                                                         = ??
       CODE:1b64 78 c0           MOV        R0,#0xc0
       CODE:1b66 e6              MOV        A,@R0=>DAT_INTMEM_c0                                       = ??
       CODE:1b67 78 c0           MOV        R0,#0xc0
       CODE:1b69 a6 f0           MOV        @R0=>DAT_INTMEM_c0,B                                       = ??
       CODE:1b6b b5 f0 07        CJNE       A,B,LAB_CODE_1b75
       CODE:1b6e 78 c1           MOV        R0,#0xc1
       CODE:1b70 e6              MOV        A,@R0=>DAT_INTMEM_c1                                       = ??
       CODE:1b71 60 02           JZ         LAB_CODE_1b75
       CODE:1b73 d2 d5           SETB       F0                                                         = ??
                             LAB_CODE_1b75                                   XREF[2]:     CODE:1b6b(j), CODE:1b71(j)  
       CODE:1b75 74 07           MOV        A,#0x7
       CODE:1b77 78 c1           MOV        R0,#0xc1
       CODE:1b79 76 0d           MOV        @R0=>DAT_INTMEM_c1,#0xd                                    = ??
       CODE:1b7b 80 1e           SJMP       LAB_CODE_1b9b
                             LAB_CODE_1b7d                                   XREF[1]:     CODE:1b5f(j)  
       CODE:1b7d 78 c0           MOV        R0,#0xc0
       CODE:1b7f 76 00           MOV        @R0=>DAT_INTMEM_c0,#0x0                                    = ??
       CODE:1b81 80 5b           SJMP       LAB_CODE_1bde
                             LAB_CODE_1b83                                   XREF[1]:     CODE:1b5c(j)  
       CODE:1b83 30 00 07        JNB        20.0,LAB_CODE_1b8d
       CODE:1b86 c2 00           CLR        20.0
       CODE:1b88 a2 e7           MOV        CY,ACC.7                                                   = ??
       CODE:1b8a b3              CPL        CY
       CODE:1b8b 92 01           MOV        20.1,CY                                                    = ??
                             LAB_CODE_1b8d                                   XREF[1]:     CODE:1b83(j)  
       CODE:1b8d a2 01           MOV        CY,20.1                                                    = ??
       CODE:1b8f 92 d5           MOV        F0,CY                                                      = ??
       CODE:1b91 20 e7 02        JB         ACC.7,LAB_CODE_1b96                                        = ??
       CODE:1b94 b2 d5           CPL        F0                                                         = ??
                             LAB_CODE_1b96                                   XREF[1]:     CODE:1b91(j)  
       CODE:1b96 20 d5 02        JB         F0,LAB_CODE_1b9b                                           = ??
       CODE:1b99 b2 01           CPL        20.1                                                       = ??
                             LAB_CODE_1b9b                                   XREF[2]:     CODE:1b7b(j), CODE:1b96(j)  
       CODE:1b9b 30 02 03        JNB        20.2,LAB_CODE_1ba1                                         = ??
       CODE:1b9e 20 d5 54        JB         F0,LAB_CODE_1bf5                                           = ??
                             LAB_CODE_1ba1                                   XREF[1]:     CODE:1b9b(j)  
       CODE:1ba1 c2 02           CLR        20.2                                                       = ??
       CODE:1ba3 ba 0c 06        CJNE       R2,#0xc,LAB_CODE_1bac
       CODE:1ba6 20 d5 4c        JB         F0,LAB_CODE_1bf5                                           = ??
       CODE:1ba9 d2 1f           SETB       23.7                                                       = ??
       CODE:1bab 22              RET
                             LAB_CODE_1bac                                   XREF[1]:     CODE:1ba3(j)  
       CODE:1bac ba 28 06        CJNE       R2,#0x28,LAB_CODE_1bb5
       CODE:1baf 20 d5 43        JB         F0,LAB_CODE_1bf5                                           = ??
       CODE:1bb2 d2 22           SETB       24.2                                                       = ??
       CODE:1bb4 22              RET
                             LAB_CODE_1bb5                                   XREF[1]:     CODE:1bac(j)  
       CODE:1bb5 20 1e 0b        JB         23.6,LAB_CODE_1bc3                                         = ??
       CODE:1bb8 ba 29 06        CJNE       R2,#0x29,LAB_CODE_1bc1
       CODE:1bbb 20 d5 37        JB         F0,LAB_CODE_1bf5                                           = ??
       CODE:1bbe d2 1f           SETB       23.7                                                       = ??
       CODE:1bc0 22              RET
                             LAB_CODE_1bc1                                   XREF[1]:     CODE:1bb8(j)  
       CODE:1bc1 80 1b           SJMP       LAB_CODE_1bde
                             LAB_CODE_1bc3                                   XREF[1]:     CODE:1bb5(j)  
       CODE:1bc3 ba 0d 06        CJNE       R2,#0xd,LAB_CODE_1bcc
       CODE:1bc6 20 d5 2c        JB         F0,LAB_CODE_1bf5                                           = ??
       CODE:1bc9 d2 21           SETB       24.1                                                       = ??
       CODE:1bcb 22              RET
                             LAB_CODE_1bcc                                   XREF[1]:     CODE:1bc3(j)  
       CODE:1bcc ba 64 06        CJNE       R2,#0x64,LAB_CODE_1bd5
       CODE:1bcf 20 d5 23        JB         F0,LAB_CODE_1bf5                                           = ??
       CODE:1bd2 d2 20           SETB       24.0                                                       = ??
       CODE:1bd4 22              RET
                             LAB_CODE_1bd5                                   XREF[1]:     CODE:1bcc(j)  
       CODE:1bd5 ba 2a 06        CJNE       R2,#0x2a,LAB_CODE_1bde
       CODE:1bd8 20 d5 1a        JB         F0,LAB_CODE_1bf5                                           = ??
       CODE:1bdb d2 1f           SETB       23.7                                                       = ??
       CODE:1bdd 22              RET
                             LAB_CODE_1bde                                   XREF[3]:     CODE:1b81(j), CODE:1bc1(j), 
                                                                                          CODE:1bd5(j)  
       CODE:1bde 8a f0           MOV        B,R2
       CODE:1be0 78 d3           MOV        R0,#0xd3
       CODE:1be2 a6 f0           MOV        @R0=>DAT_INTMEM_d3,B                                       = ??
       CODE:1be4 8b f0           MOV        B,R3
       CODE:1be6 78 d4           MOV        R0,#0xd4
       CODE:1be8 a6 f0           MOV        @R0=>DAT_INTMEM_d4,B                                       = ??
       CODE:1bea 8c f0           MOV        B,R4
       CODE:1bec 78 d5           MOV        R0,#0xd5
       CODE:1bee a6 f0           MOV        @R0=>DAT_INTMEM_d5,B                                       = ??
       CODE:1bf0 78 d2           MOV        R0,#0xd2
       CODE:1bf2 f6              MOV        @R0=>DAT_INTMEM_d2,A                                       = ??
       CODE:1bf3 d2 3b           SETB       27.3                                                       = ??
                             LAB_CODE_1bf5                                   XREF[7]:     CODE:1b9e(j), CODE:1ba6(j), 
                                                                                          CODE:1baf(j), CODE:1bbb(j), 
                                                                                          CODE:1bc6(j), CODE:1bcf(j), 
                                                                                          CODE:1bd8(j)  
       CODE:1bf5 22              RET
                             LAB_CODE_1bf6                                   XREF[7]:     CODE:1c37(j), CODE:1c3c(j), 
                                                                                          CODE:1c5f(j), CODE:1c80(j), 
                                                                                          CODE:1c8a(j), CODE:1c90(j), 
                                                                                          CODE:1c95(j)  
       CODE:1bf6 78 ce           MOV        R0,#0xce
       CODE:1bf8 76 00           MOV        @R0=>DAT_INTMEM_ce,#0x0                                    = ??
       CODE:1bfa 22              RET
                             LAB_CODE_1bfb                                   XREF[1]:     CODE:1c32(j)  
       CODE:1bfb 78 ce           MOV        R0,#0xce
       CODE:1bfd 76 01           MOV        @R0=>DAT_INTMEM_ce,#0x1                                    = ??
       CODE:1bff 22              RET
                             LAB_CODE_1c00                                   XREF[5]:     CODE:1c3e(j), CODE:1c56(j), 
                                                                                          CODE:1c5b(j), CODE:1c64(j), 
                                                                                          CODE:1c69(j)  
       CODE:1c00 78 ce           MOV        R0,#0xce
       CODE:1c02 76 02           MOV        @R0=>DAT_INTMEM_ce,#0x2                                    = ??
       CODE:1c04 22              RET
                             LAB_CODE_1c05                                   XREF[1]:     CODE:1c4e(j)  
       CODE:1c05 78 ce           MOV        R0,#0xce
       CODE:1c07 76 03           MOV        @R0=>DAT_INTMEM_ce,#0x3                                    = ??
       CODE:1c09 22              RET
                             LAB_CODE_1c0a                                   XREF[1]:     CODE:1c51(j)  
       CODE:1c0a 78 ce           MOV        R0,#0xce
       CODE:1c0c 76 04           MOV        @R0=>DAT_INTMEM_ce,#0x4                                    = ??
       CODE:1c0e 22              RET
                             LAB_CODE_1c0f                                   XREF[3]:     CODE:1c2b(j), CODE:1c30(j), 
                                                                                          CODE:1c4b(j)  
       CODE:1c0f 22              RET
                             **************************************************************
                             *                          FUNCTION                          *
                             **************************************************************
                             undefined FUN_CODE_1c10()
             undefined         ACC:1          <RETURN>
                             FUN_CODE_1c10                                   XREF[1]:     FUN_CODE_0756:07aa(c)  
       CODE:1c10 78 ce           MOV        R0,#0xce
       CODE:1c12 e6              MOV        A,@R0=>DAT_INTMEM_ce                                       = ??
       CODE:1c13 26              ADD        A,@R0=>DAT_INTMEM_ce                                       = ??
       CODE:1c14 26              ADD        A,@R0=>DAT_INTMEM_ce                                       = ??
       CODE:1c15 90 1c 19        MOV        DPTR,#LAB_CODE_1c19
       CODE:1c18 73              JMP        @A+DPTR
                             LAB_CODE_1c19                                   XREF[1]:     FUN_CODE_1c10:1c15(*)  
       CODE:1c19 02 1c 28        LJMP       LAB_CODE_1c28
       CODE:1c1c 02 1c 34        LJMP       LAB_CODE_1c34
       CODE:1c1f 02 1c 40        LJMP       LAB_CODE_1c40
       CODE:1c22 02 1c 53        LJMP       LAB_CODE_1c53
       CODE:1c25 02 1c 61        LJMP       LAB_CODE_1c61
                             LAB_CODE_1c28                                   XREF[1]:     CODE:1c19(j)  
       CODE:1c28 12 25 06        LCALL      FUN_CODE_2506                                              undefined FUN_CODE_2506()
       CODE:1c2b 40 e2           JC         LAB_CODE_1c0f
       CODE:1c2d 12 25 0a        LCALL      FUN_CODE_250a                                              undefined FUN_CODE_250a()
       CODE:1c30 40 dd           JC         LAB_CODE_1c0f
       CODE:1c32 80 c7           SJMP       LAB_CODE_1bfb
                             LAB_CODE_1c34                                   XREF[1]:     CODE:1c1c(j)  
       CODE:1c34 12 25 06        LCALL      FUN_CODE_2506                                              undefined FUN_CODE_2506()
       CODE:1c37 40 bd           JC         LAB_CODE_1bf6
       CODE:1c39 12 25 0a        LCALL      FUN_CODE_250a                                              undefined FUN_CODE_250a()
       CODE:1c3c 40 b8           JC         LAB_CODE_1bf6
       CODE:1c3e 80 c0           SJMP       LAB_CODE_1c00
                             LAB_CODE_1c40                                   XREF[1]:     CODE:1c1f(j)  
       CODE:1c40 e4              CLR        A
       CODE:1c41 12 25 06        LCALL      FUN_CODE_2506                                              undefined FUN_CODE_2506()
       CODE:1c44 92 e0           MOV        ACC.0,CY                                                   = ??
       CODE:1c46 12 25 0a        LCALL      FUN_CODE_250a                                              undefined FUN_CODE_250a()
       CODE:1c49 92 e1           MOV        ACC.1,CY                                                   = ??
       CODE:1c4b 30 d0 c1        JNB        P,LAB_CODE_1c0f                                            = ??
       CODE:1c4e 20 e0 b4        JB         ACC.0,LAB_CODE_1c05                                        = ??
       CODE:1c51 80 b7           SJMP       LAB_CODE_1c0a
                             LAB_CODE_1c53                                   XREF[1]:     CODE:1c22(j)  
       CODE:1c53 12 25 0a        LCALL      FUN_CODE_250a                                              undefined FUN_CODE_250a()
       CODE:1c56 40 a8           JC         LAB_CODE_1c00
       CODE:1c58 12 25 06        LCALL      FUN_CODE_2506                                              undefined FUN_CODE_2506()
       CODE:1c5b 50 a3           JNC        LAB_CODE_1c00
       CODE:1c5d d2 08           SETB       21.0                                                       = ??
       CODE:1c5f 80 95           SJMP       LAB_CODE_1bf6
                             LAB_CODE_1c61                                   XREF[1]:     CODE:1c25(j)  
       CODE:1c61 12 25 06        LCALL      FUN_CODE_2506                                              undefined FUN_CODE_2506()
       CODE:1c64 40 9a           JC         LAB_CODE_1c00
       CODE:1c66 12 25 0a        LCALL      FUN_CODE_250a                                              undefined FUN_CODE_250a()
       CODE:1c69 50 95           JNC        LAB_CODE_1c00
       CODE:1c6b 78 d7           MOV        R0,#0xd7
       CODE:1c6d e6              MOV        A,@R0=>DAT_INTMEM_d7                                       = ??
       CODE:1c6e 60 23           JZ         LAB_CODE_1c93
       CODE:1c70 12 25 0e        LCALL      FUN_CODE_250e                                              undefined FUN_CODE_250e()
       CODE:1c73 50 1e           JNC        LAB_CODE_1c93
       CODE:1c75 d2 47           SETB       28.7                                                       = ??
       CODE:1c77 d2 32           SETB       26.2                                                       = ??
       CODE:1c79 e5 5a           MOV        A,DAT_INTMEM_5a                                            = ??
       CODE:1c7b 70 06           JNZ        LAB_CODE_1c83
       CODE:1c7d 75 5a 40        MOV        DAT_INTMEM_5a,#0x40                                        = ??
       CODE:1c80 02 1b f6        LJMP       LAB_CODE_1bf6
                             LAB_CODE_1c83                                   XREF[1]:     CODE:1c7b(j)  
       CODE:1c83 20 e0 07        JB         ACC.0,LAB_CODE_1c8d                                        = ??
       CODE:1c86 03              RR         A
       CODE:1c87 03              RR         A
       CODE:1c88 f5 5a           MOV        DAT_INTMEM_5a,A                                            = ??
       CODE:1c8a 02 1b f6        LJMP       LAB_CODE_1bf6
                             LAB_CODE_1c8d                                   XREF[1]:     CODE:1c83(j)  
       CODE:1c8d 75 5a 00        MOV        DAT_INTMEM_5a,#0x0                                         = ??
       CODE:1c90 02 1b f6        LJMP       LAB_CODE_1bf6
                             LAB_CODE_1c93                                   XREF[2]:     CODE:1c6e(j), CODE:1c73(j)  
       CODE:1c93 d2 09           SETB       21.1                                                       = ??
       CODE:1c95 02 1b f6        LJMP       LAB_CODE_1bf6
                             **************************************************************
                             *                          FUNCTION                          *
                             **************************************************************
                             undefined FUN_CODE_1c98()
             undefined         ACC:1          <RETURN>
                             FUN_CODE_1c98                                   XREF[1]:     FUN_CODE_0756:07a4(c)  
       CODE:1c98 30 17 05        JNB        22.7,LAB_CODE_1ca0                                         = ??
       CODE:1c9b 12 23 44        LCALL      FUN_CODE_2344                                              undefined FUN_CODE_2344()
       CODE:1c9e 50 19           JNC        LAB_CODE_1cb9
                             LAB_CODE_1ca0                                   XREF[1]:     CODE:1c98(j)  
       CODE:1ca0 30 18 05        JNB        23.0,LAB_CODE_1ca8                                         = ??
       CODE:1ca3 12 23 61        LCALL      FUN_CODE_2361                                              undefined FUN_CODE_2361()
       CODE:1ca6 50 21           JNC        LAB_CODE_1cc9
                             LAB_CODE_1ca8                                   XREF[1]:     CODE:1ca0(j)  
       CODE:1ca8 30 19 05        JNB        23.1,LAB_CODE_1cb0                                         = ??
       CODE:1cab 12 00 58        LCALL      FUN_CODE_0058                                              undefined FUN_CODE_0058()
       CODE:1cae 50 29           JNC        LAB_CODE_1cd9
                             LAB_CODE_1cb0                                   XREF[1]:     CODE:1ca8(j)  
       CODE:1cb0 30 1a 05        JNB        23.2,LAB_CODE_1cb8                                         = ??
       CODE:1cb3 12 00 36        LCALL      FUN_CODE_0036                                              undefined FUN_CODE_0036()
       CODE:1cb6 50 31           JNC        LAB_CODE_1ce9
                             LAB_CODE_1cb8                                   XREF[1]:     CODE:1cb0(j)  
       CODE:1cb8 22              RET
                             LAB_CODE_1cb9                                   XREF[1]:     CODE:1c9e(j)  
       CODE:1cb9 d2 1b           SETB       23.3                                                       = ??
       CODE:1cbb 75 59 01        MOV        DAT_INTMEM_59,#0x1                                         = ??
       CODE:1cbe 75 5b 01        MOV        DAT_INTMEM_5b,#0x1                                         = ??
       CODE:1cc1 75 5a 00        MOV        DAT_INTMEM_5a,#0x0                                         = ??
       CODE:1cc4 d2 45           SETB       28.5                                                       = ??
       CODE:1cc6 d2 32           SETB       26.2                                                       = ??
       CODE:1cc8 22              RET
                             LAB_CODE_1cc9                                   XREF[1]:     CODE:1ca6(j)  
       CODE:1cc9 d2 1b           SETB       23.3                                                       = ??
       CODE:1ccb 75 59 0d        MOV        DAT_INTMEM_59,#0xd                                         = ??
       CODE:1cce 75 5b 0d        MOV        DAT_INTMEM_5b,#0xd                                         = ??
       CODE:1cd1 75 5a 00        MOV        DAT_INTMEM_5a,#0x0                                         = ??
       CODE:1cd4 d2 45           SETB       28.5                                                       = ??
       CODE:1cd6 d2 32           SETB       26.2                                                       = ??
       CODE:1cd8 22              RET
                             LAB_CODE_1cd9                                   XREF[1]:     CODE:1cae(j)  
       CODE:1cd9 d2 1b           SETB       23.3                                                       = ??
       CODE:1cdb 75 59 02        MOV        DAT_INTMEM_59,#0x2                                         = ??
       CODE:1cde 75 5b 02        MOV        DAT_INTMEM_5b,#0x2                                         = ??
       CODE:1ce1 75 5a 00        MOV        DAT_INTMEM_5a,#0x0                                         = ??
       CODE:1ce4 d2 45           SETB       28.5                                                       = ??
       CODE:1ce6 d2 32           SETB       26.2                                                       = ??
       CODE:1ce8 22              RET
                             LAB_CODE_1ce9                                   XREF[1]:     CODE:1cb6(j)  
       CODE:1ce9 d2 1b           SETB       23.3                                                       = ??
       CODE:1ceb 75 59 03        MOV        DAT_INTMEM_59,#0x3                                         = ??
       CODE:1cee 75 5b 03        MOV        DAT_INTMEM_5b,#0x3                                         = ??
       CODE:1cf1 75 5a 00        MOV        DAT_INTMEM_5a,#0x0                                         = ??
       CODE:1cf4 d2 45           SETB       28.5                                                       = ??
       CODE:1cf6 d2 32           SETB       26.2                                                       = ??
       CODE:1cf8 22              RET
                             LAB_CODE_1cf9                                   XREF[3]:     CODE:1d11(j), CODE:1d19(j), 
                                                                                          CODE:1d30(j)  
       CODE:1cf9 78 cf           MOV        R0,#0xcf
       CODE:1cfb 76 00           MOV        @R0=>DAT_INTMEM_cf,#0x0                                    = ??
       CODE:1cfd 22              RET
                             LAB_CODE_1cfe                                   XREF[2]:     CODE:1d1c(j), CODE:1d21(j)  
       CODE:1cfe 78 cf           MOV        R0,#0xcf
       CODE:1d00 76 01           MOV        @R0=>DAT_INTMEM_cf,#0x1                                    = ??
       CODE:1d02 22              RET
                             LAB_CODE_1d03                                   XREF[3]:     CODE:1d0f(j), CODE:1d29(j), 
                                                                                          CODE:1d2e(j)  
       CODE:1d03 78 cf           MOV        R0,#0xcf
       CODE:1d05 76 02           MOV        @R0=>DAT_INTMEM_cf,#0x2                                    = ??
       CODE:1d07 22              RET
       CODE:1d08 22              ??         22h    "
                             LAB_CODE_1d09                                   XREF[1]:     CODE:1d3b(j)  
       CODE:1d09 12 23 8a        LCALL      FUN_CODE_238a                                              undefined FUN_CODE_238a()
       CODE:1d0c 12 0c f7        LCALL      FUN_CODE_0cf7                                              undefined FUN_CODE_0cf7()
       CODE:1d0f 40 f2           JC         LAB_CODE_1d03
       CODE:1d11 30 34 e5        JNB        26.4,LAB_CODE_1cf9                                         = ??
       CODE:1d14 c2 35           CLR        26.5                                                       = ??
       CODE:1d16 12 08 3e        LCALL      FUN_CODE_083e                                              undefined FUN_CODE_083e()
       CODE:1d19 30 34 dd        JNB        26.4,LAB_CODE_1cf9                                         = ??
       CODE:1d1c 20 35 df        JB         26.5,LAB_CODE_1cfe                                         = ??
       CODE:1d1f 80 03           SJMP       LAB_CODE_1d24
                             LAB_CODE_1d21                                   XREF[1]:     CODE:1d3e(j)  
       CODE:1d21 20 35 da        JB         26.5,LAB_CODE_1cfe                                         = ??
                             LAB_CODE_1d24                                   XREF[1]:     CODE:1d1f(j)  
       CODE:1d24 12 23 a1        LCALL      FUN_CODE_23a1                                              undefined FUN_CODE_23a1()
       CODE:1d27 c2 34           CLR        26.4                                                       = ??
       CODE:1d29 80 d8           SJMP       LAB_CODE_1d03
                             LAB_CODE_1d2b                                   XREF[1]:     CODE:1d41(j)  
       CODE:1d2b 12 23 a5        LCALL      FUN_CODE_23a5                                              undefined FUN_CODE_23a5()
       CODE:1d2e 50 d3           JNC        LAB_CODE_1d03
       CODE:1d30 80 c7           SJMP       LAB_CODE_1cf9
                             **************************************************************
                             *                          FUNCTION                          *
                             **************************************************************
                             undefined FUN_CODE_1d32()
             undefined         ACC:1          <RETURN>
                             FUN_CODE_1d32                                   XREF[1]:     FUN_CODE_0756:07dd(c)  
       CODE:1d32 78 cf           MOV        R0,#0xcf
       CODE:1d34 e6              MOV        A,@R0=>DAT_INTMEM_cf                                       = ??
       CODE:1d35 26              ADD        A,@R0=>DAT_INTMEM_cf                                       = ??
       CODE:1d36 26              ADD        A,@R0=>DAT_INTMEM_cf                                       = ??
       CODE:1d37 90 1d 3b        MOV        DPTR,#LAB_CODE_1d3b
       CODE:1d3a 73              JMP        @A+DPTR
                             LAB_CODE_1d3b                                   XREF[1]:     FUN_CODE_1d32:1d37(*)  
       CODE:1d3b 02 1d 09        LJMP       LAB_CODE_1d09
       CODE:1d3e 02 1d 21        LJMP       LAB_CODE_1d21
       CODE:1d41 02 1d 2b        LJMP       LAB_CODE_1d2b
                             **************************************************************
                             *                          FUNCTION                          *
                             **************************************************************
                             undefined FUN_CODE_1d44()
             undefined         ACC:1          <RETURN>
                             FUN_CODE_1d44                                   XREF[1]:     FUN_CODE_0756:07c5(c)  
       CODE:1d44 12 22 aa        LCALL      FUN_CODE_22aa                                              undefined FUN_CODE_22aa()
       CODE:1d47 78 bd           MOV        R0,#0xbd
       CODE:1d49 e6              MOV        A,@R0=>DAT_INTMEM_bd                                       = ??
       CODE:1d4a 26              ADD        A,@R0=>DAT_INTMEM_bd                                       = ??
       CODE:1d4b 26              ADD        A,@R0=>DAT_INTMEM_bd                                       = ??
       CODE:1d4c 90 1d 50        MOV        DPTR,#LAB_CODE_1d50
       CODE:1d4f 73              JMP        @A+DPTR
                             LAB_CODE_1d50                                   XREF[1]:     FUN_CODE_1d44:1d4c(*)  
       CODE:1d50 02 1e 0b        LJMP       LAB_CODE_1e0b
       CODE:1d53 02 1d 65        LJMP       LAB_CODE_1d65
       CODE:1d56 02 1e ad        LJMP       LAB_CODE_1ead
       CODE:1d59 02 1e 10        LJMP       LAB_CODE_1e10
       CODE:1d5c 02 1e c0        LJMP       LAB_CODE_1ec0
       CODE:1d5f 02 1f 7a        LJMP       LAB_CODE_1f7a
       CODE:1d62 02 1e 00        LJMP       LAB_CODE_1e00
                             LAB_CODE_1d65                                   XREF[1]:     CODE:1d53(j)  
       CODE:1d65 75 3b 80        MOV        DAT_INTMEM_3b,#0x80                                        = ??
       CODE:1d68 d2 1e           SETB       23.6                                                       = ??
       CODE:1d6a 75 37 62        MOV        DAT_INTMEM_37,#0x62                                        = ??
       CODE:1d6d 20 03 28        JB         20.3,LAB_CODE_1d98                                         = ??
       CODE:1d70 20 09 2a        JB         21.1,LAB_CODE_1d9d                                         = ??
       CODE:1d73 20 22 2f        JB         24.2,LAB_CODE_1da5                                         = ??
       CODE:1d76 20 08 34        JB         21.0,LAB_CODE_1dad                                         = ??
       CODE:1d79 20 1f 36        JB         23.7,LAB_CODE_1db2                                         = ??
       CODE:1d7c 20 20 38        JB         24.0,LAB_CODE_1db7                                         = ??
       CODE:1d7f 20 21 3a        JB         24.1,LAB_CODE_1dbc                                         = ??
       CODE:1d82 20 0a 3c        JB         21.2,LAB_CODE_1dc1                                         = ??
       CODE:1d85 20 4a 3e        JB         29.2,LAB_CODE_1dc6                                         = ??
       CODE:1d88 12 2c 10        LCALL      FUN_CODE_2c10                                              undefined FUN_CODE_2c10()
       CODE:1d8b 70 3e           JNZ        LAB_CODE_1dcb
       CODE:1d8d 20 56 05        JB         2a.6,LAB_CODE_1d95                                         = ??
       CODE:1d90 12 2c 13        LCALL      FUN_CODE_2c13                                              undefined FUN_CODE_2c13()
       CODE:1d93 40 3a           JC         LAB_CODE_1dcf
                             LAB_CODE_1d95                                   XREF[1]:     CODE:1d8d(j)  
       CODE:1d95 02 1e ac        LJMP       LAB_CODE_1eac
                             LAB_CODE_1d98                                   XREF[1]:     CODE:1d6d(j)  
       CODE:1d98 75 62 30        MOV        DAT_INTMEM_62,#0x30                                        = ??
       CODE:1d9b 80 3b           SJMP       LAB_CODE_1dd8
                             LAB_CODE_1d9d                                   XREF[1]:     CODE:1d70(j)  
       CODE:1d9d 75 37 60        MOV        DAT_INTMEM_37,#0x60                                        = ??
       CODE:1da0 75 62 12        MOV        DAT_INTMEM_62,#0x12                                        = ??
       CODE:1da3 80 33           SJMP       LAB_CODE_1dd8
                             LAB_CODE_1da5                                   XREF[1]:     CODE:1d73(j)  
       CODE:1da5 75 37 60        MOV        DAT_INTMEM_37,#0x60                                        = ??
       CODE:1da8 75 62 21        MOV        DAT_INTMEM_62,#0x21                                        = ??
       CODE:1dab 80 2b           SJMP       LAB_CODE_1dd8
                             LAB_CODE_1dad                                   XREF[1]:     CODE:1d76(j)  
       CODE:1dad 75 62 11        MOV        DAT_INTMEM_62,#0x11                                        = ??
       CODE:1db0 80 26           SJMP       LAB_CODE_1dd8
                             LAB_CODE_1db2                                   XREF[1]:     CODE:1d79(j)  
       CODE:1db2 75 62 20        MOV        DAT_INTMEM_62,#0x20                                        = ??
       CODE:1db5 80 21           SJMP       LAB_CODE_1dd8
                             LAB_CODE_1db7                                   XREF[1]:     CODE:1d7c(j)  
       CODE:1db7 75 62 22        MOV        DAT_INTMEM_62,#0x22                                        = ??
       CODE:1dba 80 1c           SJMP       LAB_CODE_1dd8
                             LAB_CODE_1dbc                                   XREF[1]:     CODE:1d7f(j)  
       CODE:1dbc 75 62 24        MOV        DAT_INTMEM_62,#0x24                                        = ??
       CODE:1dbf 80 17           SJMP       LAB_CODE_1dd8
                             LAB_CODE_1dc1                                   XREF[1]:     CODE:1d82(j)  
       CODE:1dc1 75 62 41        MOV        DAT_INTMEM_62,#0x41                                        = ??
       CODE:1dc4 80 12           SJMP       LAB_CODE_1dd8
                             LAB_CODE_1dc6                                   XREF[1]:     CODE:1d85(j)  
       CODE:1dc6 75 62 55        MOV        DAT_INTMEM_62,#0x55                                        = ??
       CODE:1dc9 80 0d           SJMP       LAB_CODE_1dd8
                             LAB_CODE_1dcb                                   XREF[1]:     CODE:1d8b(j)  
       CODE:1dcb f5 62           MOV        DAT_INTMEM_62,A                                            = ??
       CODE:1dcd 80 09           SJMP       LAB_CODE_1dd8
                             LAB_CODE_1dcf                                   XREF[1]:     CODE:1d93(j)  
       CODE:1dcf c2 55           CLR        2a.5                                                       = ??
       CODE:1dd1 d2 44           SETB       28.4                                                       = ??
       CODE:1dd3 75 62 15        MOV        DAT_INTMEM_62,#0x15                                        = ??
       CODE:1dd6 c2 24           CLR        24.4                                                       = ??
                             LAB_CODE_1dd8                                   XREF[10]:    CODE:1d9b(j), CODE:1da3(j), 
                                                                                          CODE:1dab(j), CODE:1db0(j), 
                                                                                          CODE:1db5(j), CODE:1dba(j), 
                                                                                          CODE:1dbf(j), CODE:1dc4(j), 
                                                                                          CODE:1dc9(j), CODE:1dcd(j)  
       CODE:1dd8 c2 03           CLR        20.3                                                       = ??
       CODE:1dda c2 09           CLR        21.1                                                       = ??
       CODE:1ddc c2 22           CLR        24.2                                                       = ??
       CODE:1dde c2 08           CLR        21.0                                                       = ??
       CODE:1de0 c2 1f           CLR        23.7                                                       = ??
       CODE:1de2 c2 20           CLR        24.0                                                       = ??
       CODE:1de4 c2 0a           CLR        21.2                                                       = ??
       CODE:1de6 c2 0b           CLR        21.3                                                       = ??
       CODE:1de8 c2 4a           CLR        29.2                                                       = ??
       CODE:1dea c2 1e           CLR        23.6                                                       = ??
       CODE:1dec d2 02           SETB       20.2                                                       = ??
       CODE:1dee 75 61 81        MOV        DAT_INTMEM_61,#0x81                                        = ??
       CODE:1df1 d2 46           SETB       28.6                                                       = ??
       CODE:1df3 d2 47           SETB       28.7                                                       = ??
       CODE:1df5 20 1b 05        JB         23.3,LAB_CODE_1dfd                                         = ??
       CODE:1df8 d2 0d           SETB       21.5                                                       = ??
       CODE:1dfa 02 1e 93        LJMP       LAB_CODE_1e93
                             LAB_CODE_1dfd                                   XREF[1]:     CODE:1df5(j)  
       CODE:1dfd 02 1f 88        LJMP       LAB_CODE_1f88
                             LAB_CODE_1e00                                   XREF[1]:     CODE:1d62(j)  
       CODE:1e00 20 10 2b        JB         22.0,LAB_CODE_1e2e                                         = ??
       CODE:1e03 12 08 0d        LCALL      FUN_CODE_080d                                              undefined FUN_CODE_080d()
       CODE:1e06 d2 0c           SETB       21.4                                                       = ??
       CODE:1e08 02 1e 89        LJMP       LAB_CODE_1e89
                             LAB_CODE_1e0b                                   XREF[1]:     CODE:1d50(j)  
       CODE:1e0b 20 0c 20        JB         21.4,LAB_CODE_1e2e                                         = ??
       CODE:1e0e 80 7e           SJMP       LAB_CODE_1e8e
                             LAB_CODE_1e10                                   XREF[1]:     CODE:1d59(j)  
       CODE:1e10 75 3b aa        MOV        DAT_INTMEM_3b,#0xaa                                        = ??
       CODE:1e13 75 3a 00        MOV        DAT_INTMEM_3a,#0x0                                         = ??
       CODE:1e16 20 1b 6d        JB         23.3,LAB_CODE_1e86                                         = ??
       CODE:1e19 20 1c 6a        JB         23.4,LAB_CODE_1e86                                         = ??
       CODE:1e1c 30 0e 50        JNB        21.6,LAB_CODE_1e6f                                         = ??
       CODE:1e1f 20 09 0e        JB         21.1,LAB_CODE_1e30                                         = ??
       CODE:1e22 20 22 25        JB         24.2,LAB_CODE_1e4a                                         = ??
       CODE:1e25 20 12 06        JB         22.2,LAB_CODE_1e2e                                         = ??
       CODE:1e28 20 08 39        JB         21.0,LAB_CODE_1e64                                         = ??
       CODE:1e2b 20 1f 36        JB         23.7,LAB_CODE_1e64                                         = ??
                             LAB_CODE_1e2e                                   XREF[3]:     CODE:1e00(j), CODE:1e0b(j), 
                                                                                          CODE:1e25(j)  
       CODE:1e2e 80 7c           SJMP       LAB_CODE_1eac
                             LAB_CODE_1e30                                   XREF[1]:     CODE:1e1f(j)  
       CODE:1e30 c2 09           CLR        21.1                                                       = ??
       CODE:1e32 e5 37           MOV        A,DAT_INTMEM_37                                            = ??
       CODE:1e34 75 37 60        MOV        DAT_INTMEM_37,#0x60                                        = ??
       CODE:1e37 b4 60 05        CJNE       A,#0x60,LAB_CODE_1e3f
       CODE:1e3a 75 37 62        MOV        DAT_INTMEM_37,#0x62                                        = ??
       CODE:1e3d 80 09           SJMP       LAB_CODE_1e48
                             LAB_CODE_1e3f                                   XREF[1]:     CODE:1e37(j)  
       CODE:1e3f b4 65 06        CJNE       A,#0x65,LAB_CODE_1e48
       CODE:1e42 20 27 03        JB         24.7,LAB_CODE_1e48                                         = ??
       CODE:1e45 75 37 62        MOV        DAT_INTMEM_37,#0x62                                        = ??
                             LAB_CODE_1e48                                   XREF[3]:     CODE:1e3d(j), CODE:1e3f(j), 
                                                                                          CODE:1e42(j)  
       CODE:1e48 80 62           SJMP       LAB_CODE_1eac
                             LAB_CODE_1e4a                                   XREF[1]:     CODE:1e22(j)  
       CODE:1e4a c2 22           CLR        24.2                                                       = ??
       CODE:1e4c e5 37           MOV        A,DAT_INTMEM_37                                            = ??
       CODE:1e4e 75 37 60        MOV        DAT_INTMEM_37,#0x60                                        = ??
       CODE:1e51 b4 60 05        CJNE       A,#0x60,LAB_CODE_1e59
       CODE:1e54 75 37 62        MOV        DAT_INTMEM_37,#0x62                                        = ??
       CODE:1e57 80 09           SJMP       LAB_CODE_1e62
                             LAB_CODE_1e59                                   XREF[1]:     CODE:1e51(j)  
       CODE:1e59 b4 65 06        CJNE       A,#0x65,LAB_CODE_1e62
       CODE:1e5c 20 27 03        JB         24.7,LAB_CODE_1e62                                         = ??
       CODE:1e5f 75 37 62        MOV        DAT_INTMEM_37,#0x62                                        = ??
                             LAB_CODE_1e62                                   XREF[3]:     CODE:1e57(j), CODE:1e59(j), 
                                                                                          CODE:1e5c(j)  
       CODE:1e62 80 48           SJMP       LAB_CODE_1eac
                             LAB_CODE_1e64                                   XREF[2]:     CODE:1e28(j), CODE:1e2b(j)  
       CODE:1e64 c2 0d           CLR        21.5                                                       = ??
       CODE:1e66 c2 10           CLR        22.0                                                       = ??
       CODE:1e68 c2 0e           CLR        21.6                                                       = ??
       CODE:1e6a c2 0f           CLR        21.7                                                       = ??
       CODE:1e6c 02 1f 3a        LJMP       LAB_CODE_1f3a
                             LAB_CODE_1e6f                                   XREF[1]:     CODE:1e1c(j)  
       CODE:1e6f 90 1e 80        MOV        DPTR,#0x1e80
       CODE:1e72 e5 3e           MOV        A,DAT_INTMEM_3e                                            = ??
       CODE:1e74 93              MOVC       A,@A+DPTR=>DAT_CODE_1e80
       CODE:1e75 f5 3a           MOV        DAT_INTMEM_3a,A                                            = ??
       CODE:1e77 d2 36           SETB       26.6                                                       = ??
       CODE:1e79 d2 3d           SETB       27.5                                                       = ??
       CODE:1e7b 75 3d 00        MOV        DAT_INTMEM_3d,#0x0                                         = ??
       CODE:1e7e 80 1d           SJMP       LAB_CODE_1e9d
                             DAT_CODE_1e80                                   XREF[1]:     CODE:1e74(*)  
       CODE:1e80 00              ??         00h
       CODE:1e81 80              ??         80h
       CODE:1e82 a0              ??         A0h
       CODE:1e83 a8              ??         A8h
       CODE:1e84 aa              ??         AAh
       CODE:1e85 ff              ??         FFh
                             LAB_CODE_1e86                                   XREF[6]:     CODE:1e16(j), CODE:1e19(j), 
                                                                                          CODE:1eb0(j), CODE:1eb3(j), 
                                                                                          CODE:1ec3(j), CODE:1ec6(j)  
       CODE:1e86 02 1f 88        LJMP       LAB_CODE_1f88
                             LAB_CODE_1e89                                   XREF[1]:     CODE:1e08(j)  
       CODE:1e89 78 bd           MOV        R0,#0xbd
       CODE:1e8b 76 00           MOV        @R0=>DAT_INTMEM_bd,#0x0                                    = ??
       CODE:1e8d 22              RET
                             LAB_CODE_1e8e                                   XREF[1]:     CODE:1e0e(j)  
       CODE:1e8e 78 bd           MOV        R0,#0xbd
       CODE:1e90 76 01           MOV        @R0=>DAT_INTMEM_bd,#0x1                                    = ??
       CODE:1e92 22              RET
                             LAB_CODE_1e93                                   XREF[1]:     CODE:1dfa(j)  
       CODE:1e93 78 bd           MOV        R0,#0xbd
       CODE:1e95 76 02           MOV        @R0=>DAT_INTMEM_bd,#0x2                                    = ??
       CODE:1e97 22              RET
                             LAB_CODE_1e98                                   XREF[2]:     CODE:1ebe(j), CODE:1f77(j)  
       CODE:1e98 78 bd           MOV        R0,#0xbd
       CODE:1e9a 76 03           MOV        @R0=>DAT_INTMEM_bd,#0x3                                    = ??
       CODE:1e9c 22              RET
                             LAB_CODE_1e9d                                   XREF[7]:     CODE:1e7e(j), CODE:1ef1(j), 
                                                                                          CODE:1ef3(j), CODE:1f00(j), 
                                                                                          CODE:1f02(j), CODE:1f1a(j), 
                                                                                          CODE:1f32(j)  
       CODE:1e9d 78 bd           MOV        R0,#0xbd
       CODE:1e9f 76 04           MOV        @R0=>DAT_INTMEM_bd,#0x4                                    = ??
       CODE:1ea1 22              RET
                             LAB_CODE_1ea2                                   XREF[1]:     CODE:1f46(j)  
       CODE:1ea2 78 bd           MOV        R0,#0xbd
       CODE:1ea4 76 05           MOV        @R0=>DAT_INTMEM_bd,#0x5                                    = ??
       CODE:1ea6 22              RET
                             LAB_CODE_1ea7                                   XREF[1]:     CODE:1f82(j)  
       CODE:1ea7 78 bd           MOV        R0,#0xbd
       CODE:1ea9 76 06           MOV        @R0=>DAT_INTMEM_bd,#0x6                                    = ??
       CODE:1eab 22              RET
                             LAB_CODE_1eac                                   XREF[6]:     CODE:1d95(j), CODE:1e2e(j), 
                                                                                          CODE:1e48(j), CODE:1e62(j), 
                                                                                          CODE:1eb6(j), CODE:1f85(j)  
       CODE:1eac 22              RET
                             LAB_CODE_1ead                                   XREF[1]:     CODE:1d56(j)  
       CODE:1ead 75 3b aa        MOV        DAT_INTMEM_3b,#0xaa                                        = ??
       CODE:1eb0 20 1b d3        JB         23.3,LAB_CODE_1e86                                         = ??
       CODE:1eb3 20 1c d0        JB         23.4,LAB_CODE_1e86                                         = ??
       CODE:1eb6 20 0d f3        JB         21.5,LAB_CODE_1eac                                         = ??
       CODE:1eb9 d2 0e           SETB       21.6                                                       = ??
       CODE:1ebb 75 3e 00        MOV        DAT_INTMEM_3e,#0x0                                         = ??
       CODE:1ebe 80 d8           SJMP       LAB_CODE_1e98
                             LAB_CODE_1ec0                                   XREF[1]:     CODE:1d5c(j)  
       CODE:1ec0 75 3b fe        MOV        DAT_INTMEM_3b,#0xfe                                        = ??
       CODE:1ec3 20 1b c0        JB         23.3,LAB_CODE_1e86                                         = ??
       CODE:1ec6 20 1c bd        JB         23.4,LAB_CODE_1e86                                         = ??
       CODE:1ec9 e5 3d           MOV        A,DAT_INTMEM_3d                                            = ??
       CODE:1ecb 70 26           JNZ        LAB_CODE_1ef3
       CODE:1ecd 20 04 6a        JB         20.4,LAB_CODE_1f3a                                         = ??
       CODE:1ed0 20 03 67        JB         20.3,LAB_CODE_1f3a                                         = ??
       CODE:1ed3 20 14 22        JB         22.4,LAB_CODE_1ef8                                         = ??
       CODE:1ed6 20 08 1f        JB         21.0,LAB_CODE_1ef8                                         = ??
       CODE:1ed9 20 1f 1c        JB         23.7,LAB_CODE_1ef8                                         = ??
       CODE:1edc 20 0b 19        JB         21.3,LAB_CODE_1ef8                                         = ??
       CODE:1edf 30 56 05        JNB        2a.6,LAB_CODE_1ee7                                         = ??
       CODE:1ee2 12 2c 13        LCALL      FUN_CODE_2c13                                              undefined FUN_CODE_2c13()
       CODE:1ee5 40 62           JC         LAB_CODE_1f49
                             LAB_CODE_1ee7                                   XREF[1]:     CODE:1edf(j)  
       CODE:1ee7 e5 65           MOV        A,DAT_INTMEM_65                                            = ??
       CODE:1ee9 70 17           JNZ        LAB_CODE_1f02
       CODE:1eeb 20 09 19        JB         21.1,LAB_CODE_1f07                                         = ??
       CODE:1eee 20 22 1a        JB         24.2,LAB_CODE_1f0b                                         = ??
       CODE:1ef1 80 aa           SJMP       LAB_CODE_1e9d
                             LAB_CODE_1ef3                                   XREF[1]:     CODE:1ecb(j)  
       CODE:1ef3 d5 3d a7        DJNZ       DAT_INTMEM_3d,LAB_CODE_1e9d                                = ??
       CODE:1ef6 80 3d           SJMP       LAB_CODE_1f35
                             LAB_CODE_1ef8                                   XREF[4]:     CODE:1ed3(j), CODE:1ed6(j), 
                                                                                          CODE:1ed9(j), CODE:1edc(j)  
       CODE:1ef8 30 13 3a        JNB        22.3,LAB_CODE_1f35                                         = ??
       CODE:1efb d2 39           SETB       27.1                                                       = ??
       CODE:1efd 75 3d 0d        MOV        DAT_INTMEM_3d,#0xd                                         = ??
       CODE:1f00 80 9b           SJMP       LAB_CODE_1e9d
                             LAB_CODE_1f02                                   XREF[1]:     CODE:1ee9(j)  
       CODE:1f02 d5 65 98        DJNZ       DAT_INTMEM_65,LAB_CODE_1e9d                                = ??
       CODE:1f05 80 15           SJMP       LAB_CODE_1f1c
                             LAB_CODE_1f07                                   XREF[1]:     CODE:1eeb(j)  
       CODE:1f07 c2 09           CLR        21.1                                                       = ??
       CODE:1f09 80 02           SJMP       LAB_CODE_1f0d
                             LAB_CODE_1f0b                                   XREF[1]:     CODE:1eee(j)  
       CODE:1f0b c2 22           CLR        24.2                                                       = ??
                             LAB_CODE_1f0d                                   XREF[1]:     CODE:1f09(j)  
       CODE:1f0d 30 13 0c        JNB        22.3,LAB_CODE_1f1c                                         = ??
       CODE:1f10 e5 36           MOV        A,DAT_INTMEM_36                                            = ??
       CODE:1f12 b4 62 07        CJNE       A,#0x62,LAB_CODE_1f1c
       CODE:1f15 d2 3c           SETB       27.4                                                       = ??
       CODE:1f17 75 65 02        MOV        DAT_INTMEM_65,#0x2                                         = ??
       CODE:1f1a 80 81           SJMP       LAB_CODE_1e9d
                             LAB_CODE_1f1c                                   XREF[3]:     CODE:1f05(j), CODE:1f0d(j), 
                                                                                          CODE:1f12(j)  
       CODE:1f1c e5 37           MOV        A,DAT_INTMEM_37                                            = ??
       CODE:1f1e 75 37 60        MOV        DAT_INTMEM_37,#0x60                                        = ??
       CODE:1f21 b4 60 05        CJNE       A,#0x60,LAB_CODE_1f29
       CODE:1f24 75 37 62        MOV        DAT_INTMEM_37,#0x62                                        = ??
       CODE:1f27 80 09           SJMP       LAB_CODE_1f32
                             LAB_CODE_1f29                                   XREF[1]:     CODE:1f21(j)  
       CODE:1f29 b4 65 06        CJNE       A,#0x65,LAB_CODE_1f32
       CODE:1f2c 20 27 03        JB         24.7,LAB_CODE_1f32                                         = ??
       CODE:1f2f 75 37 62        MOV        DAT_INTMEM_37,#0x62                                        = ??
                             LAB_CODE_1f32                                   XREF[3]:     CODE:1f27(j), CODE:1f29(j), 
                                                                                          CODE:1f2c(j)  
       CODE:1f32 02 1e 9d        LJMP       LAB_CODE_1e9d
                             LAB_CODE_1f35                                   XREF[2]:     CODE:1ef6(j), CODE:1ef8(j)  
       CODE:1f35 20 14 20        JB         22.4,LAB_CODE_1f58                                         = ??
       CODE:1f38 80 00           SJMP       LAB_CODE_1f3a
                             LAB_CODE_1f3a                                   XREF[4]:     CODE:1e6c(j), CODE:1ecd(j), 
                                                                                          CODE:1ed0(j), CODE:1f38(j)  
       CODE:1f3a 75 61 00        MOV        DAT_INTMEM_61,#0x0                                         = ??
       CODE:1f3d d2 46           SETB       28.6                                                       = ??
       CODE:1f3f 75 37 62        MOV        DAT_INTMEM_37,#0x62                                        = ??
                             LAB_CODE_1f42                                   XREF[1]:     CODE:1f9d(j)  
       CODE:1f42 d2 02           SETB       20.2                                                       = ??
       CODE:1f44 d2 0f           SETB       21.7                                                       = ??
       CODE:1f46 02 1e a2        LJMP       LAB_CODE_1ea2
                             LAB_CODE_1f49                                   XREF[1]:     CODE:1ee5(j)  
       CODE:1f49 c2 55           CLR        2a.5                                                       = ??
       CODE:1f4b 75 66 00        MOV        DAT_INTMEM_66,#0x0                                         = ??
       CODE:1f4e 75 67 00        MOV        DAT_INTMEM_67,#0x0                                         = ??
       CODE:1f51 75 62 16        MOV        DAT_INTMEM_62,#0x16                                        = ??
       CODE:1f54 d2 14           SETB       22.4                                                       = ??
       CODE:1f56 80 03           SJMP       LAB_CODE_1f5b
                             LAB_CODE_1f58                                   XREF[1]:     CODE:1f35(j)  
       CODE:1f58 75 62 31        MOV        DAT_INTMEM_62,#0x31                                        = ??
                             LAB_CODE_1f5b                                   XREF[1]:     CODE:1f56(j)  
       CODE:1f5b c2 4c           CLR        29.4                                                       = ??
       CODE:1f5d 20 16 03        JB         22.6,LAB_CODE_1f63                                         = ??
       CODE:1f60 53 61 c3        ANL        DAT_INTMEM_61,#0xc3                                        = ??
                             LAB_CODE_1f63                                   XREF[1]:     CODE:1f5d(j)  
       CODE:1f63 c2 16           CLR        22.6                                                       = ??
       CODE:1f65 78 d7           MOV        R0,#0xd7
       CODE:1f67 76 00           MOV        @R0=>DAT_INTMEM_d7,#0x0                                    = ??
       CODE:1f69 d2 46           SETB       28.6                                                       = ??
       CODE:1f6b d2 47           SETB       28.7                                                       = ??
       CODE:1f6d 30 15 02        JNB        22.5,LAB_CODE_1f72                                         = ??
       CODE:1f70 d2 48           SETB       29.0                                                       = ??
                             LAB_CODE_1f72                                   XREF[1]:     CODE:1f6d(j)  
       CODE:1f72 d2 0e           SETB       21.6                                                       = ??
       CODE:1f74 75 3e 00        MOV        DAT_INTMEM_3e,#0x0                                         = ??
       CODE:1f77 02 1e 98        LJMP       LAB_CODE_1e98
                             LAB_CODE_1f7a                                   XREF[1]:     CODE:1d5f(j)  
       CODE:1f7a 75 3b aa        MOV        DAT_INTMEM_3b,#0xaa                                        = ??
       CODE:1f7d 20 0f 05        JB         21.7,LAB_CODE_1f85                                         = ??
       CODE:1f80 d2 10           SETB       22.0                                                       = ??
       CODE:1f82 02 1e a7        LJMP       LAB_CODE_1ea7
                             LAB_CODE_1f85                                   XREF[1]:     CODE:1f7d(j)  
       CODE:1f85 02 1e ac        LJMP       LAB_CODE_1eac
                             LAB_CODE_1f88                                   XREF[2]:     CODE:1dfd(j), CODE:1e86(j)  
       CODE:1f88 c2 0d           CLR        21.5                                                       = ??
       CODE:1f8a c2 10           CLR        22.0                                                       = ??
       CODE:1f8c c2 0e           CLR        21.6                                                       = ??
       CODE:1f8e c2 0f           CLR        21.7                                                       = ??
       CODE:1f90 78 d7           MOV        R0,#0xd7
       CODE:1f92 76 0d           MOV        @R0=>DAT_INTMEM_d7,#0xd                                    = ??
       CODE:1f94 20 1b 04        JB         23.3,LAB_CODE_1f9b                                         = ??
       CODE:1f97 78 d7           MOV        R0,#0xd7
       CODE:1f99 76 0a           MOV        @R0=>DAT_INTMEM_d7,#0xa                                    = ??
                             LAB_CODE_1f9b                                   XREF[1]:     CODE:1f94(j)  
       CODE:1f9b d2 47           SETB       28.7                                                       = ??
       CODE:1f9d 80 a3           SJMP       LAB_CODE_1f42
                             **************************************************************
                             *                          FUNCTION                          *
                             **************************************************************
                             undefined FUN_CODE_1f9f()
             undefined         ACC:1          <RETURN>
                             FUN_CODE_1f9f                                   XREF[1]:     FUN_CODE_0756:07bc(c)  
       CODE:1f9f 30 17 17        JNB        22.7,LAB_CODE_1fb9                                         = ??
       CODE:1fa2 20 4b 08        JB         29.3,LAB_CODE_1fad                                         = ??
       CODE:1fa5 d5 53 05        DJNZ       DAT_INTMEM_53,LAB_CODE_1fad                                = ??
       CODE:1fa8 75 53 10        MOV        DAT_INTMEM_53,#0x10                                        = ??
       CODE:1fab d2 31           SETB       26.1                                                       = ??
                             LAB_CODE_1fad                                   XREF[2]:     CODE:1fa2(j), CODE:1fa5(j)  
       CODE:1fad 30 4f 15        JNB        29.7,LAB_CODE_1fc5                                         = ??
       CODE:1fb0 30 50 12        JNB        2a.0,LAB_CODE_1fc5                                         = ??
       CODE:1fb3 30 51 0f        JNB        2a.1,LAB_CODE_1fc5                                         = ??
       CODE:1fb6 30 52 0c        JNB        2a.2,LAB_CODE_1fc5                                         = ??
                             LAB_CODE_1fb9                                   XREF[1]:     CODE:1f9f(j)  
       CODE:1fb9 c2 4f           CLR        29.7                                                       = ??
       CODE:1fbb c2 50           CLR        2a.0                                                       = ??
       CODE:1fbd c2 51           CLR        2a.1                                                       = ??
       CODE:1fbf c2 52           CLR        2a.2                                                       = ??
       CODE:1fc1 75 54 fa        MOV        DAT_INTMEM_54,#0xfa                                        = ??
                             LAB_CODE_1fc4                                   XREF[1]:     CODE:1fc5(j)  
       CODE:1fc4 22              RET
                             LAB_CODE_1fc5                                   XREF[4]:     CODE:1fad(j), CODE:1fb0(j), 
                                                                                          CODE:1fb3(j), CODE:1fb6(j)  
       CODE:1fc5 d5 54 fc        DJNZ       DAT_INTMEM_54,LAB_CODE_1fc4                                = ??
       CODE:1fc8 d2 1b           SETB       23.3                                                       = ??
       CODE:1fca 75 59 0c        MOV        DAT_INTMEM_59,#0xc                                         = ??
       CODE:1fcd 75 5b 0c        MOV        DAT_INTMEM_5b,#0xc                                         = ??
       CODE:1fd0 75 5a 00        MOV        DAT_INTMEM_5a,#0x0                                         = ??
       CODE:1fd3 d2 45           SETB       28.5                                                       = ??
       CODE:1fd5 d2 32           SETB       26.2                                                       = ??
       CODE:1fd7 22              RET
                             LAB_CODE_1fd8                                   XREF[3]:     CODE:1ff3(j), 
                                                                                          FUN_CODE_1ff7:1ffa(j), 
                                                                                          FUN_CODE_2011:201f(j)  
       CODE:1fd8 78 be           MOV        R0,#0xbe
       CODE:1fda 76 00           MOV        @R0=>DAT_INTMEM_be,#0x0                                    = ??
       CODE:1fdc 22              RET
                             **************************************************************
                             *                          FUNCTION                          *
                             **************************************************************
                             undefined FUN_CODE_1fdd()
             undefined         ACC:1          <RETURN>
                             FUN_CODE_1fdd                                   XREF[2]:     FUN_CODE_1fed:1ff5(c), 
                                                                                          FUN_CODE_1ff7:1ffc(j)  
       CODE:1fdd 78 be           MOV        R0,#0xbe
       CODE:1fdf 76 01           MOV        @R0=>DAT_INTMEM_be,#0x1                                    = ??
       CODE:1fe1 22              RET
                             **************************************************************
                             *                          FUNCTION                          *
                             **************************************************************
                             undefined FUN_CODE_1fe2()
             undefined         ACC:1          <RETURN>
                             FUN_CODE_1fe2                                   XREF[3]:     FUN_CODE_1ff7:2005(c), 
                                                                                          FUN_CODE_2007:200d(j), 
                                                                                          FUN_CODE_2011:2014(j)  
       CODE:1fe2 78 be           MOV        R0,#0xbe
       CODE:1fe4 76 02           MOV        @R0=>DAT_INTMEM_be,#0x2                                    = ??
       CODE:1fe6 22              RET
                             **************************************************************
                             *                          FUNCTION                          *
                             **************************************************************
                             undefined FUN_CODE_1fe7()
             undefined         ACC:1          <RETURN>
                             FUN_CODE_1fe7                                   XREF[2]:     FUN_CODE_2007:200f(c), 
                                                                                          FUN_CODE_2011:2016(j)  
       CODE:1fe7 78 be           MOV        R0,#0xbe
       CODE:1fe9 76 03           MOV        @R0=>DAT_INTMEM_be,#0x3                                    = ??
       CODE:1feb 22              RET
       CODE:1fec 22              ??         22h    "
                             **************************************************************
                             *                          FUNCTION                          *
                             **************************************************************
                             undefined FUN_CODE_1fed()
             undefined         ACC:1          <RETURN>
                             FUN_CODE_1fed                                   XREF[1]:     CODE:202a(c)  
       CODE:1fed 75 64 04        MOV        DAT_INTMEM_64,#0x4                                         = ??
       CODE:1ff0 12 25 12        LCALL      FUN_CODE_2512                                              undefined FUN_CODE_2512()
       CODE:1ff3 50 e3           JNC        LAB_CODE_1fd8
       CODE:1ff5 80 e6           SJMP       FUN_CODE_1fdd                                              undefined FUN_CODE_1fdd()
                             -- Flow Override: CALL_RETURN (CALL_TERMINATOR)
                             **************************************************************
                             *                          FUNCTION                          *
                             **************************************************************
                             undefined FUN_CODE_1ff7()
             undefined         ACC:1          <RETURN>
                             FUN_CODE_1ff7                                   XREF[1]:     CODE:202d(c)  
       CODE:1ff7 12 25 12        LCALL      FUN_CODE_2512                                              undefined FUN_CODE_2512()
       CODE:1ffa 50 dc           JNC        LAB_CODE_1fd8
       CODE:1ffc d5 64 de        DJNZ       DAT_INTMEM_64,FUN_CODE_1fdd                                = ??
       CODE:1fff d2 05           SETB       20.5                                                       = ??
       CODE:2001 d2 38           SETB       27.0                                                       = ??
       CODE:2003 d2 42           SETB       28.2                                                       = ??
       CODE:2005 80 db           SJMP       FUN_CODE_1fe2                                              undefined FUN_CODE_1fe2()
                             -- Flow Override: CALL_RETURN (CALL_TERMINATOR)
                             **************************************************************
                             *                          FUNCTION                          *
                             **************************************************************
                             undefined FUN_CODE_2007()
             undefined         ACC:1          <RETURN>
                             FUN_CODE_2007                                   XREF[1]:     CODE:2030(c)  
       CODE:2007 75 64 19        MOV        DAT_INTMEM_64,#0x19                                        = ??
       CODE:200a 12 25 12        LCALL      FUN_CODE_2512                                              undefined FUN_CODE_2512()
       CODE:200d 40 d3           JC         FUN_CODE_1fe2
       CODE:200f 80 d6           SJMP       FUN_CODE_1fe7                                              undefined FUN_CODE_1fe7()
                             -- Flow Override: CALL_RETURN (CALL_TERMINATOR)
                             **************************************************************
                             *                          FUNCTION                          *
                             **************************************************************
                             undefined FUN_CODE_2011()
             undefined         ACC:1          <RETURN>
                             FUN_CODE_2011                                   XREF[1]:     CODE:2033(c)  
       CODE:2011 12 25 12        LCALL      FUN_CODE_2512                                              undefined FUN_CODE_2512()
       CODE:2014 40 cc           JC         FUN_CODE_1fe2
       CODE:2016 d5 64 ce        DJNZ       DAT_INTMEM_64,FUN_CODE_1fe7                                = ??
       CODE:2019 c2 05           CLR        20.5                                                       = ??
       CODE:201b d2 38           SETB       27.0                                                       = ??
       CODE:201d d2 42           SETB       28.2                                                       = ??
       CODE:201f 80 b7           SJMP       LAB_CODE_1fd8
                             **************************************************************
                             *                          FUNCTION                          *
                             **************************************************************
                             undefined FUN_CODE_2021()
             undefined         ACC:1          <RETURN>
                             FUN_CODE_2021                                   XREF[1]:     FUN_CODE_0756:07b0(c)  
       CODE:2021 78 be           MOV        R0,#0xbe
       CODE:2023 e6              MOV        A,@R0=>DAT_INTMEM_be                                       = ??
       CODE:2024 26              ADD        A,@R0=>DAT_INTMEM_be                                       = ??
       CODE:2025 26              ADD        A,@R0=>DAT_INTMEM_be                                       = ??
       CODE:2026 90 20 2a        MOV        DPTR,#LAB_CODE_202a
       CODE:2029 73              JMP        @A+DPTR
                             LAB_CODE_202a                                   XREF[1]:     FUN_CODE_2021:2026(*)  
       CODE:202a 02 1f ed        LJMP       FUN_CODE_1fed                                              undefined FUN_CODE_1fed()
                             -- Flow Override: CALL_RETURN (CALL_TERMINATOR)
       CODE:202d 02 1f f7        LJMP       FUN_CODE_1ff7                                              undefined FUN_CODE_1ff7()
                             -- Flow Override: CALL_RETURN (CALL_TERMINATOR)
       CODE:2030 02 20 07        LJMP       FUN_CODE_2007                                              undefined FUN_CODE_2007()
                             -- Flow Override: CALL_RETURN (CALL_TERMINATOR)
       CODE:2033 02 20 11        LJMP       FUN_CODE_2011                                              undefined FUN_CODE_2011()
                             -- Flow Override: CALL_RETURN (CALL_TERMINATOR)
                             **************************************************************
                             *                          FUNCTION                          *
                             **************************************************************
                             undefined FUN_CODE_2036()
             undefined         ACC:1          <RETURN>
                             FUN_CODE_2036                                   XREF[1]:     CODE:21bd(c)  
       CODE:2036 30 24 10        JNB        24.4,LAB_CODE_2049                                         = ??
       CODE:2039 c2 24           CLR        24.4                                                       = ??
       CODE:203b e5 36           MOV        A,DAT_INTMEM_36                                            = ??
       CODE:203d b4 62 09        CJNE       A,#0x62,LAB_CODE_2049
       CODE:2040 75 35 04        MOV        DAT_INTMEM_35,#0x4                                         = ??
       CODE:2043 12 00 d6        LCALL      FUN_CODE_00d6                                              undefined FUN_CODE_00d6()
       CODE:2046 02 20 d6        LJMP       FUN_CODE_20d6                                              undefined FUN_CODE_20d6()
                             -- Flow Override: CALL_RETURN (CALL_TERMINATOR)
                             LAB_CODE_2049                                   XREF[2]:     CODE:2036(j), CODE:203d(j)  
       CODE:2049 e5 37           MOV        A,DAT_INTMEM_37                                            = ??
       CODE:204b b4 65 03        CJNE       A,#0x65,LAB_CODE_2051
       CODE:204e 02 20 d1        LJMP       FUN_CODE_20d1                                              undefined FUN_CODE_20d1()
                             -- Flow Override: CALL_RETURN (CALL_TERMINATOR)
                             LAB_CODE_2051                                   XREF[1]:     CODE:204b(j)  
       CODE:2051 b5 36 1a        CJNE       A,DAT_INTMEM_36,LAB_CODE_206e                              = ??
       CODE:2054 12 00 c8        LCALL      FUN_CODE_00c8                                              undefined FUN_CODE_00c8()
       CODE:2057 40 78           JC         FUN_CODE_20d1
       CODE:2059 e5 36           MOV        A,DAT_INTMEM_36                                            = ??
       CODE:205b b4 62 0d        CJNE       A,#0x62,LAB_CODE_206b
       CODE:205e 75 36 65        MOV        DAT_INTMEM_36,#0x65                                        = ??
       CODE:2061 12 21 d2        LCALL      FUN_CODE_21d2                                              undefined FUN_CODE_21d2()
       CODE:2064 75 37 65        MOV        DAT_INTMEM_37,#0x65                                        = ??
       CODE:2067 d2 27           SETB       24.7                                                       = ??
       CODE:2069 80 66           SJMP       FUN_CODE_20d1                                              undefined FUN_CODE_20d1()
                             -- Flow Override: CALL_RETURN (CALL_TERMINATOR)
                             LAB_CODE_206b                                   XREF[1]:     CODE:205b(j)  
       CODE:206b 75 37 62        MOV        DAT_INTMEM_37,#0x62                                        = ??
                             LAB_CODE_206e                                   XREF[1]:     CODE:2051(j)  
       CODE:206e c2 25           CLR        24.5                                                       = ??
       CODE:2070 e5 36           MOV        A,DAT_INTMEM_36                                            = ??
       CODE:2072 b4 62 02        CJNE       A,#0x62,LAB_CODE_2077
       CODE:2075 d2 25           SETB       24.5                                                       = ??
                             LAB_CODE_2077                                   XREF[1]:     CODE:2072(j)  
       CODE:2077 75 35 04        MOV        DAT_INTMEM_35,#0x4                                         = ??
       CODE:207a 12 00 d6        LCALL      FUN_CODE_00d6                                              undefined FUN_CODE_00d6()
       CODE:207d e5 37           MOV        A,DAT_INTMEM_37                                            = ??
       CODE:207f b4 62 08        CJNE       A,#0x62,LAB_CODE_208a
       CODE:2082 75 36 64        MOV        DAT_INTMEM_36,#0x64                                        = ??
       CODE:2085 12 21 d2        LCALL      FUN_CODE_21d2                                              undefined FUN_CODE_21d2()
       CODE:2088 80 51           SJMP       FUN_CODE_20db                                              undefined FUN_CODE_20db()
                             -- Flow Override: CALL_RETURN (CALL_TERMINATOR)
                             LAB_CODE_208a                                   XREF[1]:     CODE:207f(j)  
       CODE:208a 75 36 63        MOV        DAT_INTMEM_36,#0x63                                        = ??
       CODE:208d 12 21 d2        LCALL      FUN_CODE_21d2                                              undefined FUN_CODE_21d2()
       CODE:2090 80 49           SJMP       FUN_CODE_20db                                              undefined FUN_CODE_20db()
                             -- Flow Override: CALL_RETURN (CALL_TERMINATOR)
                             **************************************************************
                             *                          FUNCTION                          *
                             **************************************************************
                             undefined FUN_CODE_2092()
             undefined         ACC:1          <RETURN>
                             FUN_CODE_2092                                   XREF[1]:     CODE:21b4(c)  
       CODE:2092 d5 35 2d        DJNZ       DAT_INTMEM_35,LAB_CODE_20c2                                = ??
       CODE:2095 12 00 c8        LCALL      FUN_CODE_00c8                                              undefined FUN_CODE_00c8()
       CODE:2098 50 05           JNC        LAB_CODE_209f
       CODE:209a 75 36 62        MOV        DAT_INTMEM_36,#0x62                                        = ??
       CODE:209d 80 32           SJMP       FUN_CODE_20d1                                              undefined FUN_CODE_20d1()
                             -- Flow Override: CALL_RETURN (CALL_TERMINATOR)
                             LAB_CODE_209f                                   XREF[1]:     CODE:2098(j)  
       CODE:209f 75 35 02        MOV        DAT_INTMEM_35,#0x2                                         = ??
       CODE:20a2 12 00 d6        LCALL      FUN_CODE_00d6                                              undefined FUN_CODE_00d6()
       CODE:20a5 80 20           SJMP       FUN_CODE_20c7                                              undefined FUN_CODE_20c7()
                             -- Flow Override: CALL_RETURN (CALL_TERMINATOR)
                             **************************************************************
                             *                          FUNCTION                          *
                             **************************************************************
                             undefined FUN_CODE_20a7()
             undefined         ACC:1          <RETURN>
                             FUN_CODE_20a7                                   XREF[1]:     CODE:21b7(c)  
       CODE:20a7 d5 35 45        DJNZ       DAT_INTMEM_35,LAB_CODE_20ef                                = ??
       CODE:20aa 12 00 c8        LCALL      FUN_CODE_00c8                                              undefined FUN_CODE_00c8()
       CODE:20ad 40 0b           JC         LAB_CODE_20ba
       CODE:20af 12 00 d6        LCALL      FUN_CODE_00d6                                              undefined FUN_CODE_00d6()
       CODE:20b2 75 36 65        MOV        DAT_INTMEM_36,#0x65                                        = ??
       CODE:20b5 75 35 05        MOV        DAT_INTMEM_35,#0x5                                         = ??
       CODE:20b8 80 12           SJMP       FUN_CODE_20cc                                              undefined FUN_CODE_20cc()
                             -- Flow Override: CALL_RETURN (CALL_TERMINATOR)
                             LAB_CODE_20ba                                   XREF[1]:     CODE:20ad(j)  
       CODE:20ba 75 36 60        MOV        DAT_INTMEM_36,#0x60                                        = ??
       CODE:20bd 75 35 03        MOV        DAT_INTMEM_35,#0x3                                         = ??
       CODE:20c0 80 0a           SJMP       FUN_CODE_20cc                                              undefined FUN_CODE_20cc()
                             -- Flow Override: CALL_RETURN (CALL_TERMINATOR)
                             LAB_CODE_20c2                                   XREF[1]:     CODE:2092(j)  
       CODE:20c2 78 d0           MOV        R0,#0xd0
       CODE:20c4 76 00           MOV        @R0=>DAT_INTMEM_d0,#0x0                                    = ??
       CODE:20c6 22              RET
                             **************************************************************
                             *                          FUNCTION                          *
                             **************************************************************
                             undefined FUN_CODE_20c7()
             undefined         ACC:1          <RETURN>
                             FUN_CODE_20c7                                   XREF[1]:     FUN_CODE_2092:20a5(c)  
       CODE:20c7 78 d0           MOV        R0,#0xd0
       CODE:20c9 76 01           MOV        @R0=>DAT_INTMEM_d0,#0x1                                    = ??
       CODE:20cb 22              RET
                             **************************************************************
                             *                          FUNCTION                          *
                             **************************************************************
                             undefined FUN_CODE_20cc()
             undefined         ACC:1          <RETURN>
                             FUN_CODE_20cc                                   XREF[3]:     FUN_CODE_20a7:20b8(c), 
                                                                                          FUN_CODE_20a7:20c0(c), 
                                                                                          CODE:20fe(c)  
       CODE:20cc 78 d0           MOV        R0,#0xd0
       CODE:20ce 76 02           MOV        @R0=>DAT_INTMEM_d0,#0x2                                    = ??
       CODE:20d0 22              RET
                             **************************************************************
                             *                          FUNCTION                          *
                             **************************************************************
                             undefined FUN_CODE_20d1()
             undefined         ACC:1          <RETURN>
                             FUN_CODE_20d1                                   XREF[9]:     FUN_CODE_2036:204e(c), 
                                                                                          FUN_CODE_2036:2057(j), 
                                                                                          FUN_CODE_2036:2069(c), 
                                                                                          FUN_CODE_2092:209d(c), 
                                                                                          FUN_CODE_20f0:20f3(c), 
                                                                                          CODE:213a(c), CODE:2153(c), 
                                                                                          CODE:2173(c), CODE:2183(c)  
       CODE:20d1 78 d0           MOV        R0,#0xd0
       CODE:20d3 76 03           MOV        @R0=>DAT_INTMEM_d0,#0x3                                    = ??
       CODE:20d5 22              RET
                             **************************************************************
                             *                          FUNCTION                          *
                             **************************************************************
                             undefined FUN_CODE_20d6()
             undefined         ACC:1          <RETURN>
                             FUN_CODE_20d6                                   XREF[1]:     FUN_CODE_2036:2046(c)  
       CODE:20d6 78 d0           MOV        R0,#0xd0
       CODE:20d8 76 04           MOV        @R0=>DAT_INTMEM_d0,#0x4                                    = ??
       CODE:20da 22              RET
                             **************************************************************
                             *                          FUNCTION                          *
                             **************************************************************
                             undefined FUN_CODE_20db()
             undefined         ACC:1          <RETURN>
                             FUN_CODE_20db                                   XREF[2]:     FUN_CODE_2036:2088(c), 
                                                                                          FUN_CODE_2036:2090(c)  
       CODE:20db 78 d0           MOV        R0,#0xd0
       CODE:20dd 76 05           MOV        @R0=>DAT_INTMEM_d0,#0x5                                    = ??
       CODE:20df 22              RET
                             LAB_CODE_20e0                                   XREF[2]:     CODE:210e(j), CODE:2113(j)  
       CODE:20e0 78 d0           MOV        R0,#0xd0
       CODE:20e2 76 06           MOV        @R0=>DAT_INTMEM_d0,#0x6                                    = ??
       CODE:20e4 22              RET
                             LAB_CODE_20e5                                   XREF[1]:     CODE:2123(j)  
       CODE:20e5 78 d0           MOV        R0,#0xd0
       CODE:20e7 76 07           MOV        @R0=>DAT_INTMEM_d0,#0x7                                    = ??
       CODE:20e9 22              RET
                             LAB_CODE_20ea                                   XREF[1]:     CODE:2126(j)  
       CODE:20ea 78 d0           MOV        R0,#0xd0
       CODE:20ec 76 08           MOV        @R0=>DAT_INTMEM_d0,#0x8                                    = ??
       CODE:20ee 22              RET
                             LAB_CODE_20ef                                   XREF[8]:     CODE:20a7(j), 
                                                                                          FUN_CODE_20f0:20f0(j), 
                                                                                          CODE:20f5(j), CODE:2100(j), 
                                                                                          CODE:2115(j), CODE:213c(j), 
                                                                                          CODE:2147(j), CODE:21cf(j)  
       CODE:20ef 22              RET
                             **************************************************************
                             *                          FUNCTION                          *
                             **************************************************************
                             undefined FUN_CODE_20f0()
             undefined         ACC:1          <RETURN>
                             FUN_CODE_20f0                                   XREF[1]:     CODE:21ba(c)  
       CODE:20f0 d5 35 fc        DJNZ       DAT_INTMEM_35,LAB_CODE_20ef                                = ??
       CODE:20f3 80 dc           SJMP       FUN_CODE_20d1                                              undefined FUN_CODE_20d1()
                             -- Flow Override: CALL_RETURN (CALL_TERMINATOR)
                             LAB_CODE_20f5                                   XREF[1]:     CODE:21c0(j)  
       CODE:20f5 d5 35 f7        DJNZ       DAT_INTMEM_35,LAB_CODE_20ef                                = ??
       CODE:20f8 12 00 d3        LCALL      FUN_CODE_00d3                                              undefined FUN_CODE_00d3()
       CODE:20fb 75 35 03        MOV        DAT_INTMEM_35,#0x3                                         = ??
       CODE:20fe 80 cc           SJMP       FUN_CODE_20cc                                              undefined FUN_CODE_20cc()
                             -- Flow Override: CALL_RETURN (CALL_TERMINATOR)
                             LAB_CODE_2100                                   XREF[1]:     CODE:21c3(j)  
       CODE:2100 d5 35 ec        DJNZ       DAT_INTMEM_35,LAB_CODE_20ef                                = ??
       CODE:2103 75 35 03        MOV        DAT_INTMEM_35,#0x3                                         = ??
       CODE:2106 e5 36           MOV        A,DAT_INTMEM_36                                            = ??
       CODE:2108 b4 64 05        CJNE       A,#0x64,LAB_CODE_2110
       CODE:210b 12 00 d3        LCALL      FUN_CODE_00d3                                              undefined FUN_CODE_00d3()
       CODE:210e 80 d0           SJMP       LAB_CODE_20e0
                             LAB_CODE_2110                                   XREF[1]:     CODE:2108(j)  
       CODE:2110 12 00 d0        LCALL      FUN_CODE_00d0                                              undefined FUN_CODE_00d0()
       CODE:2113 80 cb           SJMP       LAB_CODE_20e0
                             LAB_CODE_2115                                   XREF[1]:     CODE:21c6(j)  
       CODE:2115 d5 35 d7        DJNZ       DAT_INTMEM_35,LAB_CODE_20ef                                = ??
       CODE:2118 75 35 fa        MOV        DAT_INTMEM_35,#0xfa                                        = ??
       CODE:211b 20 25 03        JB         24.5,LAB_CODE_2121                                         = ??
       CODE:211e 75 35 7d        MOV        DAT_INTMEM_35,#0x7d                                        = ??
                             LAB_CODE_2121                                   XREF[1]:     CODE:211b(j)  
       CODE:2121 e5 36           MOV        A,DAT_INTMEM_36                                            = ??
       CODE:2123 b4 64 bf        CJNE       A,#0x64,LAB_CODE_20e5
       CODE:2126 80 c2           SJMP       LAB_CODE_20ea
                             LAB_CODE_2128                                   XREF[1]:     CODE:21c9(j)  
       CODE:2128 e5 37           MOV        A,DAT_INTMEM_37                                            = ??
       CODE:212a b4 60 0b        CJNE       A,#0x60,LAB_CODE_2138
       CODE:212d 12 00 c8        LCALL      FUN_CODE_00c8                                              undefined FUN_CODE_00c8()
       CODE:2130 50 0a           JNC        LAB_CODE_213c
       CODE:2132 75 36 60        MOV        DAT_INTMEM_36,#0x60                                        = ??
       CODE:2135 12 21 d2        LCALL      FUN_CODE_21d2                                              undefined FUN_CODE_21d2()
                             LAB_CODE_2138                                   XREF[2]:     CODE:212a(j), CODE:215f(j)  
       CODE:2138 c2 26           CLR        24.6                                                       = ??
       CODE:213a 80 95           SJMP       FUN_CODE_20d1                                              undefined FUN_CODE_20d1()
                             -- Flow Override: CALL_RETURN (CALL_TERMINATOR)
                             LAB_CODE_213c                                   XREF[1]:     CODE:2130(j)  
       CODE:213c d5 35 b0        DJNZ       DAT_INTMEM_35,LAB_CODE_20ef                                = ??
       CODE:213f 30 25 07        JNB        24.5,LAB_CODE_2149                                         = ??
       CODE:2142 c2 25           CLR        24.5                                                       = ??
       CODE:2144 75 35 7d        MOV        DAT_INTMEM_35,#0x7d                                        = ??
       CODE:2147 80 a6           SJMP       LAB_CODE_20ef
                             LAB_CODE_2149                                   XREF[1]:     CODE:213f(j)  
       CODE:2149 20 26 0a        JB         24.6,LAB_CODE_2156                                         = ??
       CODE:214c 75 37 62        MOV        DAT_INTMEM_37,#0x62                                        = ??
       CODE:214f d2 27           SETB       24.7                                                       = ??
       CODE:2151 d2 26           SETB       24.6                                                       = ??
       CODE:2153 02 20 d1        LJMP       FUN_CODE_20d1                                              undefined FUN_CODE_20d1()
                             -- Flow Override: CALL_RETURN (CALL_TERMINATOR)
                             LAB_CODE_2156                                   XREF[1]:     CODE:2149(j)  
       CODE:2156 75 36 65        MOV        DAT_INTMEM_36,#0x65                                        = ??
       CODE:2159 12 21 d2        LCALL      FUN_CODE_21d2                                              undefined FUN_CODE_21d2()
       CODE:215c 75 37 65        MOV        DAT_INTMEM_37,#0x65                                        = ??
       CODE:215f 80 d7           SJMP       LAB_CODE_2138
                             LAB_CODE_2161                                   XREF[1]:     CODE:21cc(j)  
       CODE:2161 e5 37           MOV        A,DAT_INTMEM_37                                            = ??
       CODE:2163 b4 62 0b        CJNE       A,#0x62,LAB_CODE_2171
       CODE:2166 12 00 c8        LCALL      FUN_CODE_00c8                                              undefined FUN_CODE_00c8()
       CODE:2169 50 0b           JNC        LAB_CODE_2176
       CODE:216b 75 36 62        MOV        DAT_INTMEM_36,#0x62                                        = ??
       CODE:216e 12 21 d2        LCALL      FUN_CODE_21d2                                              undefined FUN_CODE_21d2()
                             LAB_CODE_2171                                   XREF[2]:     CODE:2163(j), CODE:218f(j)  
       CODE:2171 c2 26           CLR        24.6                                                       = ??
       CODE:2173 02 20 d1        LJMP       FUN_CODE_20d1                                              undefined FUN_CODE_20d1()
                             -- Flow Override: CALL_RETURN (CALL_TERMINATOR)
                             LAB_CODE_2176                                   XREF[1]:     CODE:2169(j)  
       CODE:2176 d5 35 56        DJNZ       DAT_INTMEM_35,LAB_CODE_21cf                                = ??
       CODE:2179 20 26 0a        JB         24.6,LAB_CODE_2186                                         = ??
       CODE:217c 75 37 60        MOV        DAT_INTMEM_37,#0x60                                        = ??
       CODE:217f c2 27           CLR        24.7                                                       = ??
       CODE:2181 d2 26           SETB       24.6                                                       = ??
       CODE:2183 02 20 d1        LJMP       FUN_CODE_20d1                                              undefined FUN_CODE_20d1()
                             -- Flow Override: CALL_RETURN (CALL_TERMINATOR)
                             LAB_CODE_2186                                   XREF[1]:     CODE:2179(j)  
       CODE:2186 75 36 65        MOV        DAT_INTMEM_36,#0x65                                        = ??
       CODE:2189 12 21 d2        LCALL      FUN_CODE_21d2                                              undefined FUN_CODE_21d2()
       CODE:218c 75 37 65        MOV        DAT_INTMEM_37,#0x65                                        = ??
       CODE:218f 80 e0           SJMP       LAB_CODE_2171
                             **************************************************************
                             *                          FUNCTION                          *
                             **************************************************************
                             undefined FUN_CODE_2191()
             undefined         ACC:1          <RETURN>
                             FUN_CODE_2191                                   XREF[1]:     FUN_CODE_0756:07b9(c)  
       CODE:2191 20 23 08        JB         24.3,LAB_CODE_219c                                         = ??
       CODE:2194 75 35 12        MOV        DAT_INTMEM_35,#0x12                                        = ??
       CODE:2197 78 d0           MOV        R0,#0xd0
       CODE:2199 76 00           MOV        @R0=>DAT_INTMEM_d0,#0x0                                    = ??
       CODE:219b 22              RET
                             LAB_CODE_219c                                   XREF[1]:     CODE:2191(j)  
       CODE:219c e5 36           MOV        A,DAT_INTMEM_36                                            = ??
       CODE:219e 64 62           XRL        A,#0x62
       CODE:21a0 60 09           JZ         LAB_CODE_21ab
       CODE:21a2 75 65 00        MOV        DAT_INTMEM_65,#0x0                                         = ??
       CODE:21a5 a2 14           MOV        CY,22.4                                                    = ??
       CODE:21a7 72 28           ORL        CY,25.0                                                    = ??
       CODE:21a9 92 14           MOV        22.4,CY                                                    = ??
                             LAB_CODE_21ab                                   XREF[1]:     CODE:21a0(j)  
       CODE:21ab 78 d0           MOV        R0,#0xd0
       CODE:21ad e6              MOV        A,@R0=>DAT_INTMEM_d0                                       = ??
       CODE:21ae 26              ADD        A,@R0=>DAT_INTMEM_d0                                       = ??
       CODE:21af 26              ADD        A,@R0=>DAT_INTMEM_d0                                       = ??
       CODE:21b0 90 21 b4        MOV        DPTR,#LAB_CODE_21b4
       CODE:21b3 73              JMP        @A+DPTR
                             LAB_CODE_21b4                                   XREF[1]:     FUN_CODE_2191:21b0(*)  
       CODE:21b4 02 20 92        LJMP       FUN_CODE_2092                                              undefined FUN_CODE_2092()
                             -- Flow Override: CALL_RETURN (CALL_TERMINATOR)
       CODE:21b7 02 20 a7        LJMP       FUN_CODE_20a7                                              undefined FUN_CODE_20a7()
                             -- Flow Override: CALL_RETURN (CALL_TERMINATOR)
       CODE:21ba 02 20 f0        LJMP       FUN_CODE_20f0                                              undefined FUN_CODE_20f0()
                             -- Flow Override: CALL_RETURN (CALL_TERMINATOR)
       CODE:21bd 02 20 36        LJMP       FUN_CODE_2036                                              undefined FUN_CODE_2036()
                             -- Flow Override: CALL_RETURN (CALL_TERMINATOR)
       CODE:21c0 02 20 f5        LJMP       LAB_CODE_20f5
       CODE:21c3 02 21 00        LJMP       LAB_CODE_2100
       CODE:21c6 02 21 15        LJMP       LAB_CODE_2115
       CODE:21c9 02 21 28        LJMP       LAB_CODE_2128
       CODE:21cc 02 21 61        LJMP       LAB_CODE_2161
                             LAB_CODE_21cf                                   XREF[1]:     CODE:2176(j)  
       CODE:21cf 02 20 ef        LJMP       LAB_CODE_20ef
                             **************************************************************
                             *                          FUNCTION                          *
                             **************************************************************
                             undefined FUN_CODE_21d2()
             undefined         ACC:1          <RETURN>
                             FUN_CODE_21d2                                   XREF[7]:     FUN_CODE_2036:2061(c), 
                                                                                          FUN_CODE_2036:2085(c), 
                                                                                          FUN_CODE_2036:208d(c), 
                                                                                          CODE:2135(c), CODE:2159(c), 
                                                                                          CODE:216e(c), CODE:2189(c)  
       CODE:21d2 d2 3d           SETB       27.5                                                       = ??
       CODE:21d4 e5 36           MOV        A,DAT_INTMEM_36                                            = ??
       CODE:21d6 b4 60 02        CJNE       A,#0x60,LAB_CODE_21db
       CODE:21d9 80 03           SJMP       LAB_CODE_21de
                             LAB_CODE_21db                                   XREF[1]:     CODE:21d6(j)  
       CODE:21db b4 62 0b        CJNE       A,#0x62,LAB_CODE_21e9
                             LAB_CODE_21de                                   XREF[1]:     CODE:21d9(j)  
       CODE:21de e5 61           MOV        A,DAT_INTMEM_61                                            = ??
       CODE:21e0 d2 e0           SETB       ACC.0                                                      = ??
       CODE:21e2 c2 e1           CLR        ACC.1                                                      = ??
       CODE:21e4 f5 61           MOV        DAT_INTMEM_61,A                                            = ??
       CODE:21e6 d2 46           SETB       28.6                                                       = ??
       CODE:21e8 22              RET
                             LAB_CODE_21e9                                   XREF[1]:     CODE:21db(j)  
       CODE:21e9 e5 61           MOV        A,DAT_INTMEM_61                                            = ??
       CODE:21eb d2 e0           SETB       ACC.0                                                      = ??
       CODE:21ed d2 e1           SETB       ACC.1                                                      = ??
       CODE:21ef f5 61           MOV        DAT_INTMEM_61,A                                            = ??
       CODE:21f1 d2 46           SETB       28.6                                                       = ??
       CODE:21f3 22              RET
                             LAB_CODE_21f4                                   XREF[3]:     CODE:2202(j), CODE:220f(j), 
                                                                                          CODE:221b(j)  
       CODE:21f4 78 d1           MOV        R0,#0xd1
       CODE:21f6 76 00           MOV        @R0=>DAT_INTMEM_d1,#0x0                                    = ??
       CODE:21f8 22              RET
                             LAB_CODE_21f9                                   XREF[2]:     CODE:2213(j), CODE:2215(j)  
       CODE:21f9 78 d1           MOV        R0,#0xd1
       CODE:21fb 76 01           MOV        @R0=>DAT_INTMEM_d1,#0x1                                    = ??
       CODE:21fd 22              RET
       CODE:21fe 22              RET
                             LAB_CODE_21ff                                   XREF[1]:     CODE:2226(j)  
       CODE:21ff 12 00 f6        LCALL      FUN_CODE_00f6                                              undefined FUN_CODE_00f6()
       CODE:2202 50 f0           JNC        LAB_CODE_21f4
       CODE:2204 12 23 72        LCALL      FUN_CODE_2372                                              undefined FUN_CODE_2372()
       CODE:2207 50 08           JNC        LAB_CODE_2211
       CODE:2209 12 08 3e        LCALL      FUN_CODE_083e                                              undefined FUN_CODE_083e()
       CODE:220c 12 23 86        LCALL      FUN_CODE_2386                                              undefined FUN_CODE_2386()
       CODE:220f 80 e3           SJMP       LAB_CODE_21f4
                             LAB_CODE_2211                                   XREF[1]:     CODE:2207(j)  
       CODE:2211 d2 34           SETB       26.4                                                       = ??
       CODE:2213 80 e4           SJMP       LAB_CODE_21f9
                             LAB_CODE_2215                                   XREF[1]:     CODE:2229(j)  
       CODE:2215 20 34 e1        JB         26.4,LAB_CODE_21f9                                         = ??
       CODE:2218 12 23 86        LCALL      FUN_CODE_2386                                              undefined FUN_CODE_2386()
       CODE:221b 80 d7           SJMP       LAB_CODE_21f4
                             **************************************************************
                             *                          FUNCTION                          *
                             **************************************************************
                             undefined FUN_CODE_221d()
             undefined         ACC:1          <RETURN>
                             FUN_CODE_221d                                   XREF[1]:     FUN_CODE_0756:07da(c)  
       CODE:221d 78 d1           MOV        R0,#0xd1
       CODE:221f e6              MOV        A,@R0=>DAT_INTMEM_d1                                       = ??
       CODE:2220 26              ADD        A,@R0=>DAT_INTMEM_d1                                       = ??
       CODE:2221 26              ADD        A,@R0=>DAT_INTMEM_d1                                       = ??
       CODE:2222 90 22 26        MOV        DPTR,#LAB_CODE_2226
       CODE:2225 73              JMP        @A+DPTR
                             LAB_CODE_2226                                   XREF[1]:     FUN_CODE_221d:2222(*)  
       CODE:2226 02 21 ff        LJMP       LAB_CODE_21ff
       CODE:2229 02 22 15        LJMP       LAB_CODE_2215
                             **************************************************************
                             *                          FUNCTION                          *
                             **************************************************************
                             undefined FUN_CODE_222c()
             undefined         ACC:1          <RETURN>
                             FUN_CODE_222c                                   XREF[2]:     FUN_CODE_0756:0759(c), 
                                                                                          FUN_CODE_0756:0778(c)  
       CODE:222c c2 d3           CLR        RS0                                                        = ??
       CODE:222e c2 d4           CLR        RS1                                                        = ??
       CODE:2230 53 8f f9        ANL        FADDR,#0xf9                                                = ??
       CODE:2233 22              RET
                             **************************************************************
                             *                          FUNCTION                          *
                             **************************************************************
                             undefined FUN_CODE_2234()
             undefined         ACC:1          <RETURN>
                             FUN_CODE_2234                                   XREF[2]:     FUN_CODE_0756:075f(c), 
                                                                                          CODE:1108(c)  
       CODE:2234 75 bf 01        MOV        DAT_SFR_bf,#0x1                                            = ??
       CODE:2237 75 bc ff        MOV        DAT_SFR_bc,#0xff                                           = ??
       CODE:223a 75 bd ff        MOV        DAT_SFR_bd,#0xff                                           = ??
       CODE:223d 75 be ff        MOV        SPH,#0xff                                                  = ??
       CODE:2240 75 b9 00        MOV        SADEN,#0x0                                                 = ??
       CODE:2243 75 ba 00        MOV        DAT_SFR_ba,#0x0                                            = ??
       CODE:2246 75 bb 00        MOV        DAT_SFR_bb,#0x0                                            = ??
       CODE:2249 75 a8 00        MOV        IE,#0x0                                                    = ??
       CODE:224c 75 b8 00        MOV        IP,#0x0                                                    = ??
       CODE:224f 75 c1 00        MOV        FIFLG1,#0x0                                                = ??
       CODE:2252 75 c2 00        MOV        DAT_SFR_c2,#0x0                                            = ??
       CODE:2255 75 c3 1f        MOV        DAT_SFR_c3,#0x1f                                           = ??
       CODE:2258 75 c4 00        MOV        DAT_SFR_c4,#0x0                                            = ??
       CODE:225b 75 c5 c9        MOV        DAT_SFR_c5,#0xc9                                           = ??
       CODE:225e 75 c6 d5        MOV        DAT_SFR_c6,#0xd5                                           = ??
       CODE:2261 75 c7 d9        MOV        EPCONFIG,#0xd9                                             = ??
       CODE:2264 75 c9 ce        MOV        T2MOD,#0xce                                                = ??
       CODE:2267 75 ca d4        MOV        RCAP2L,#0xd4                                               = ??
       CODE:226a 75 cb ff        MOV        RCAP2H,#0xff                                               = ??
       CODE:226d 75 cc ff        MOV        TL2,#0xff                                                  = ??
       CODE:2270 75 cd ff        MOV        TH2,#0xff                                                  = ??
       CODE:2273 75 ce ff        MOV        DAT_SFR_ce,#0xff                                           = ??
       CODE:2276 75 cf ff        MOV        HPCON,#0xff                                                = ??
       CODE:2279 75 d1 ff        MOV        PSW1,#0xff                                                 = ??
       CODE:227c 75 d2 ff        MOV        SOFL,#0xff                                                 = ??
       CODE:227f 75 d3 ff        MOV        DAT_SFR_d3,#0xff                                           = ??
       CODE:2282 75 d4 ff        MOV        HPINDEX,#0xff                                              = ??
       CODE:2285 22              RET
                             **************************************************************
                             *                          FUNCTION                          *
                             **************************************************************
                             undefined FUN_CODE_2286()
             undefined         ACC:1          <RETURN>
                             FUN_CODE_2286                                   XREF[2]:     FUN_CODE_0756:0762(c), 
                                                                                          CODE:111d(c)  
       CODE:2286 75 76 00        MOV        DAT_INTMEM_76,#0x0                                         = ??
       CODE:2289 53 bc 7f        ANL        DAT_SFR_bc,#0x7f                                           = ??
       CODE:228c 53 bf fe        ANL        DAT_SFR_bf,#0xfe                                           = ??
       CODE:228f 22              RET
       CODE:2290 e5              ??         E5h
       CODE:2291 76              ??         76h    v
       CODE:2292 22              ??         22h    "
                             **************************************************************
                             *                          FUNCTION                          *
                             **************************************************************
                             undefined FUN_CODE_2293()
             undefined         ACC:1          <RETURN>
                             FUN_CODE_2293                                   XREF[1]:     FUN_CODE_0756:07e3(c)  
       CODE:2293 e5 76           MOV        A,DAT_INTMEM_76                                            = ??
       CODE:2295 24 eb           ADD        A,#0xeb
       CODE:2297 40 02           JC         LAB_CODE_229b
       CODE:2299 c3              CLR        CY
       CODE:229a 22              RET
                             LAB_CODE_229b                                   XREF[1]:     CODE:2297(j)  
       CODE:229b 43 bf 01        ORL        DAT_SFR_bf,#0x1                                            = ??
       CODE:229e e5 76           MOV        A,DAT_INTMEM_76                                            = ??
       CODE:22a0 c3              CLR        CY
       CODE:22a1 94 14           SUBB       A,#0x14
       CODE:22a3 f5 76           MOV        DAT_INTMEM_76,A                                            = ??
       CODE:22a5 d3              SETB       CY
       CODE:22a6 53 bf fe        ANL        DAT_SFR_bf,#0xfe                                           = ??
       CODE:22a9 22              RET
                             **************************************************************
                             *                          FUNCTION                          *
                             **************************************************************
                             undefined FUN_CODE_22aa()
             undefined         ACC:1          <RETURN>
                             FUN_CODE_22aa                                   XREF[2]:     FUN_CODE_0756:0765(c), 
                                                                                          FUN_CODE_1d44:1d44(c)  
       CODE:22aa 75 fe 00        MOV        CCAP4H,#0x0                                                = ??
       CODE:22ad 75 ff 00        MOV        DAT_SFR_ff,#0x0
       CODE:22b0 75 fe 00        MOV        CCAP4H,#0x0                                                = ??
       CODE:22b3 22              RET
                             **************************************************************
                             *                          FUNCTION                          *
                             **************************************************************
                             undefined FUN_CODE_22b4()
             undefined         ACC:1          <RETURN>
                             FUN_CODE_22b4                                   XREF[1]:     CODE:110b(c)  
       CODE:22b4 43 a5 01        ORL        DAT_SFR_a5,#0x1                                            = ??
       CODE:22b7 a2 c0           MOV        CY,FIFLG.0                                                 = ??
       CODE:22b9 92 11           MOV        22.1,CY                                                    = ??
       CODE:22bb 22              RET
                             **************************************************************
                             *                          FUNCTION                          *
                             **************************************************************
                             undefined FUN_CODE_22bc()
             undefined         ACC:1          <RETURN>
                             FUN_CODE_22bc                                   XREF[1]:     CODE:110e(c)  
       CODE:22bc 43 a2 80        ORL        FIE,#0x80                                                  = ??
       CODE:22bf 43 a3 47        ORL        FIE1,#0x47                                                 = ??
       CODE:22c2 43 a4 b0        ORL        DAT_SFR_a4,#0xb0                                           = ??
       CODE:22c5 43 a5 f6        ORL        DAT_SFR_a5,#0xf6                                           = ??
       CODE:22c8 43 a6 6f        ORL        WDTRST,#0x6f                                               = ??
       CODE:22cb 75 9d 0c        MOV        DAT_SFR_9d,#0xc                                            = ??
       CODE:22ce 75 9e 00        MOV        DAT_SFR_9e,#0x0                                            = ??
       CODE:22d1 75 9f 04        MOV        DAT_SFR_9f,#0x4                                            = ??
       CODE:22d4 75 a1 00        MOV        HIE,#0x0                                                   = ??
       CODE:22d7 75 a7 00        MOV        WCON,#0x0                                                  = ??
       CODE:22da 75 80 00        MOV        P0,#0x0                                                    = ??
       CODE:22dd 75 90 10        MOV        P1,#0x10                                                   = ??
       CODE:22e0 75 a0 04        MOV        P2,#0x4                                                    = ??
       CODE:22e3 75 c0 00        MOV        FIFLG,#0x0                                                 = ??
       CODE:22e6 75 c8 10        MOV        T2CON,#0x10                                                = ??
       CODE:22e9 75 a2 80        MOV        FIE,#0x80                                                  = ??
       CODE:22ec 75 a3 47        MOV        FIE1,#0x47                                                 = ??
       CODE:22ef 75 a4 b0        MOV        DAT_SFR_a4,#0xb0                                           = ??
       CODE:22f2 75 a5 f6        MOV        DAT_SFR_a5,#0xf6                                           = ??
       CODE:22f5 75 a6 6f        MOV        WDTRST,#0x6f                                               = ??
       CODE:22f8 22              RET
                             **************************************************************
                             *                          FUNCTION                          *
                             **************************************************************
                             undefined FUN_CODE_22f9()
             undefined         ACC:1          <RETURN>
                             FUN_CODE_22f9                                   XREF[1]:     CODE:1114(c)  
       CODE:22f9 c2 60           CLR        2c.0                                                       = ??
       CODE:22fb 12 04 96        LCALL      FUN_CODE_0496                                              undefined FUN_CODE_0496()
       CODE:22fe 12 02 ad        LCALL      FUN_CODE_02ad                                              undefined FUN_CODE_02ad()
       CODE:2301 c2 62           CLR        2c.2                                                       = ??
       CODE:2303 c2 61           CLR        2c.1                                                       = ??
       CODE:2305 75 68 00        MOV        DAT_INTMEM_68,#0x0                                         = ??
       CODE:2308 75 96 00        MOV        DAT_SFR_96,#0x0                                            = ??
       CODE:230b 75 92 64        MOV        DAT_SFR_92,#0x64                                           = ??
       CODE:230e 75 94 64        MOV        DAT_SFR_94,#0x64                                           = ??
       CODE:2311 75 88 00        MOV        TCON,#0x0                                                  = ??
       CODE:2314 75 98 00        MOV        SCON,#0x0                                                  = ??
       CODE:2317 75 95 88        MOV        DAT_SFR_95,#0x88                                           = ??
       CODE:231a c2 69           CLR        2d.1                                                       = ??
       CODE:231c c2 6a           CLR        2d.2                                                       = ??
       CODE:231e c2 6b           CLR        2d.3                                                       = ??
       CODE:2320 75 1f 00        MOV        BANK3_R7,#0x0                                              = ??
       CODE:2323 75 e8 00        MOV        HIFLG,#0x0                                                 = ??
       CODE:2326 43 c2 40        ORL        DAT_SFR_c2,#0x40                                           = ??
       CODE:2329 43 87 80        ORL        PCON,#0x80                                                 = ??
       CODE:232c 22              RET
                             **************************************************************
                             *                          FUNCTION                          *
                             **************************************************************
                             undefined FUN_CODE_232d()
             undefined         ACC:1          <RETURN>
                             FUN_CODE_232d                                   XREF[2]:     FUN_CODE_0756:075c(c), 
                                                                                          CODE:1105(c)  
       CODE:232d c2 59           CLR        2b.1                                                       = ??
       CODE:232f 22              RET
                             **************************************************************
                             *                          FUNCTION                          *
                             **************************************************************
                             undefined FUN_CODE_2330()
             undefined         ACC:1          <RETURN>
                             FUN_CODE_2330                                   XREF[1]:     CODE:1120(c)  
       CODE:2330 d2 59           SETB       2b.1                                                       = ??
       CODE:2332 22              RET
                             **************************************************************
                             *                          FUNCTION                          *
                             **************************************************************
                             undefined FUN_CODE_2333()
             undefined         ACC:1          <RETURN>
                             FUN_CODE_2333                                   XREF[2]:     thunk_FUN_CODE_2333:0137(T), 
                                                                                          thunk_FUN_CODE_2333:0137(j), 
                                                                                          CODE:1128(c)  
       CODE:2333 43 bf 01        ORL        DAT_SFR_bf,#0x1                                            = ??
       CODE:2336 75 ff 00        MOV        DAT_SFR_ff,#0x0
       CODE:2339 75 fe ff        MOV        CCAP4H,#0xff                                               = ??
                             LAB_CODE_233c                                   XREF[1]:     CODE:233c(j)  
       CODE:233c 80 fe           SJMP       LAB_CODE_233c
                             **************************************************************
                             *                          FUNCTION                          *
                             **************************************************************
                             undefined FUN_CODE_233e()
             undefined         ACC:1          <RETURN>
                             FUN_CODE_233e                                   XREF[1]:     CODE:0f8c(c)  
       CODE:233e d2 a1           SETB       P2.1                                                       = ??
       CODE:2340 22              RET
                             **************************************************************
                             *                          FUNCTION                          *
                             **************************************************************
                             undefined FUN_CODE_2341()
             undefined         ACC:1          <RETURN>
                             FUN_CODE_2341                                   XREF[1]:     CODE:0f24(c)  
       CODE:2341 c2 a1           CLR        P2.1                                                       = ??
       CODE:2343 22              RET
                             **************************************************************
                             *                          FUNCTION                          *
                             **************************************************************
                             undefined FUN_CODE_2344()
             undefined         ACC:1          <RETURN>
                             FUN_CODE_2344                                   XREF[3]:     CODE:0f97(c), CODE:0fb4(c), 
                                                                                          FUN_CODE_1c98:1c9b(c)  
       CODE:2344 a2 a5           MOV        CY,P2.5                                                    = ??
       CODE:2346 20 17 03        JB         22.7,LAB_CODE_234c                                         = ??
       CODE:2349 c2 a9           CLR        ET0                                                        = ??
       CODE:234b 22              RET
                             LAB_CODE_234c                                   XREF[1]:     CODE:2346(j)  
       CODE:234c b0 a9           ANL        CY,/ET0                                                    = ??
       CODE:234e 22              RET
                             **************************************************************
                             *                          FUNCTION                          *
                             **************************************************************
                             undefined FUN_CODE_234f()
             undefined         ACC:1          <RETURN>
                             FUN_CODE_234f                                   XREF[1]:     CODE:0fdb(c)  
       CODE:234f d2 95           SETB       P1.5                                                       = ??
       CODE:2351 22              RET
                             **************************************************************
                             *                          FUNCTION                          *
                             **************************************************************
                             undefined FUN_CODE_2352()
             undefined         ACC:1          <RETURN>
                             FUN_CODE_2352                                   XREF[1]:     CODE:0ef3(c)  
       CODE:2352 c2 95           CLR        P1.5                                                       = ??
       CODE:2354 22              RET
                             **************************************************************
                             *                          FUNCTION                          *
                             **************************************************************
                             undefined FUN_CODE_2355()
             undefined         ACC:1          <RETURN>
                             FUN_CODE_2355                                   XREF[1]:     CODE:0ff3(c)  
       CODE:2355 c2 94           CLR        P1.4                                                       = ??
       CODE:2357 22              RET
                             **************************************************************
                             *                          FUNCTION                          *
                             **************************************************************
                             undefined FUN_CODE_2358()
             undefined         ACC:1          <RETURN>
                             FUN_CODE_2358                                   XREF[1]:     CODE:0eac(c)  
       CODE:2358 d2 94           SETB       P1.4                                                       = ??
       CODE:235a 22              RET
                             **************************************************************
                             *                          FUNCTION                          *
                             **************************************************************
                             undefined FUN_CODE_235b()
             undefined         ACC:1          <RETURN>
                             FUN_CODE_235b                                   XREF[1]:     CODE:0fde(c)  
       CODE:235b d2 93           SETB       P1.3                                                       = ??
       CODE:235d 22              RET
                             **************************************************************
                             *                          FUNCTION                          *
                             **************************************************************
                             undefined FUN_CODE_235e()
             undefined         ACC:1          <RETURN>
                             FUN_CODE_235e                                   XREF[1]:     CODE:0eee(c)  
       CODE:235e c2 93           CLR        P1.3                                                       = ??
       CODE:2360 22              RET
                             **************************************************************
                             *                          FUNCTION                          *
                             **************************************************************
                             undefined FUN_CODE_2361()
             undefined         ACC:1          <RETURN>
                             FUN_CODE_2361                                   XREF[2]:     CODE:0fe6(c), 
                                                                                          FUN_CODE_1c98:1ca3(c)  
       CODE:2361 a2 c1           MOV        CY,FIFLG.1                                                 = ??
       CODE:2363 20 18 03        JB         23.0,LAB_CODE_2369                                         = ??
       CODE:2366 c2 aa           CLR        EX1                                                        = ??
       CODE:2368 22              RET
                             LAB_CODE_2369                                   XREF[1]:     CODE:2363(j)  
       CODE:2369 b0 aa           ANL        CY,/EX1                                                    = ??
       CODE:236b 22              RET
                             **************************************************************
                             *                          FUNCTION                          *
                             **************************************************************
                             undefined FUN_CODE_236c()
             undefined         ACC:1          <RETURN>
                             FUN_CODE_236c                                   XREF[1]:     CODE:0fee(c)  
       CODE:236c d2 a6           SETB       P2.6                                                       = ??
       CODE:236e 22              RET
                             **************************************************************
                             *                          FUNCTION                          *
                             **************************************************************
                             undefined FUN_CODE_236f()
             undefined         ACC:1          <RETURN>
                             FUN_CODE_236f                                   XREF[1]:     CODE:0eaf(c)  
       CODE:236f c2 a6           CLR        P2.6                                                       = ??
       CODE:2371 22              RET
                             **************************************************************
                             *                          FUNCTION                          *
                             **************************************************************
                             undefined FUN_CODE_2372()
             undefined         ACC:1          <RETURN>
                             FUN_CODE_2372                                   XREF[2]:     FUN_CODE_083e:083e(c), 
                                                                                          CODE:2204(c)  
       CODE:2372 75 e0 00        MOV        A,#0x0
       CODE:2375 d2 e4           SETB       ACC.4                                                      = ??
       CODE:2377 f5 e2           MOV        RXSTAT,A                                                   = ??
       CODE:2379 e5 e1           MOV        A,EPCON                                                    = ??
       CODE:237b a2 e7           MOV        CY,ACC.7                                                   = ??
       CODE:237d 22              RET
                             **************************************************************
                             *                          FUNCTION                          *
                             **************************************************************
                             undefined FUN_CODE_237e()
             undefined         ACC:1          <RETURN>
                             FUN_CODE_237e                                   XREF[19]:    FUN_CODE_083e:0973(c), 
                                                                                          FUN_CODE_083e:0a17(c), 
                                                                                          FUN_CODE_083e:0a44(c), 
                                                                                          FUN_CODE_083e:0a91(c), 
                                                                                          FUN_CODE_083e:0b00(c), 
                                                                                          FUN_CODE_083e:0b63(c), 
                                                                                          FUN_CODE_083e:0b86(c), 
                                                                                          FUN_CODE_083e:0bbf(c), 
                                                                                          FUN_CODE_083e:0bd6(c), 
                                                                                          FUN_CODE_083e:0be1(c), 
                                                                                          FUN_CODE_083e:0bec(c), 
                                                                                          FUN_CODE_083e:0c23(c), 
                                                                                          FUN_CODE_083e:0c48(c), 
                                                                                          FUN_CODE_083e:0c64(c), 
                                                                                          FUN_CODE_083e:0c77(c), 
                                                                                          FUN_CODE_083e:0c91(c), 
                                                                                          FUN_CODE_083e:0caa(c), 
                                                                                          FUN_CODE_083e:0ce7(c), 
                                                                                          CODE:27fb(c)  
       CODE:237e d2 e4           SETB       ACC.4                                                      = ??
       CODE:2380 f5 e2           MOV        RXSTAT,A                                                   = ??
       CODE:2382 22              RET
                             **************************************************************
                             *                          FUNCTION                          *
                             **************************************************************
                             undefined FUN_CODE_2383()
             undefined         ACC:1          <RETURN>
                             FUN_CODE_2383                                   XREF[44]:    FUN_CODE_083e:0976(c), 
                                                                                          FUN_CODE_083e:097a(c), 
                                                                                          FUN_CODE_083e:097e(c), 
                                                                                          FUN_CODE_083e:0982(c), 
                                                                                          FUN_CODE_083e:0986(c), 
                                                                                          FUN_CODE_083e:0a1a(c), 
                                                                                          FUN_CODE_083e:0a47(c), 
                                                                                          FUN_CODE_083e:0a9b(c), 
                                                                                          FUN_CODE_083e:0b03(c), 
                                                                                          FUN_CODE_083e:0b07(c), 
                                                                                          FUN_CODE_083e:0b0b(c), 
                                                                                          FUN_CODE_083e:0b0f(c), 
                                                                                          FUN_CODE_083e:0b66(c), 
                                                                                          FUN_CODE_083e:0b6a(c), 
                                                                                          FUN_CODE_083e:0b6e(c), 
                                                                                          FUN_CODE_083e:0b72(c), 
                                                                                          FUN_CODE_083e:0b76(c), 
                                                                                          FUN_CODE_083e:0b89(c), 
                                                                                          FUN_CODE_083e:0b8d(c), 
                                                                                          FUN_CODE_083e:0b91(c), [more]
       CODE:2383 e5 e1           MOV        A,EPCON                                                    = ??
       CODE:2385 22              RET
                             **************************************************************
                             *                          FUNCTION                          *
                             **************************************************************
                             undefined FUN_CODE_2386()
             undefined         ACC:1          <RETURN>
                             FUN_CODE_2386                                   XREF[2]:     CODE:220c(c), CODE:2218(c)  
       CODE:2386 75 e2 00        MOV        RXSTAT,#0x0                                                = ??
       CODE:2389 22              RET
                             **************************************************************
                             *                          FUNCTION                          *
                             **************************************************************
                             undefined FUN_CODE_238a()
             undefined         ACC:1          <RETURN>
                             FUN_CODE_238a                                   XREF[1]:     CODE:1d09(c)  
       CODE:238a e4              CLR        A
       CODE:238b d2 e4           SETB       ACC.4                                                      = ??
       CODE:238d f5 d6           MOV        DAT_SFR_d6,A                                               = ??
       CODE:238f 7a 10           MOV        R2,#0x10
                             LAB_CODE_2391                                   XREF[1]:     CODE:2396(j)  
       CODE:2391 75 d5 00        MOV        HPSC,#0x0                                                  = ??
       CODE:2394 e5 d6           MOV        A,DAT_SFR_d6                                               = ??
       CODE:2396 da f9           DJNZ       R2,LAB_CODE_2391
       CODE:2398 22              RET
                             **************************************************************
                             *                          FUNCTION                          *
                             **************************************************************
                             undefined FUN_CODE_2399()
             undefined         ACC:1          <RETURN>
                             FUN_CODE_2399                                   XREF[30]:    FUN_CODE_083e:084a(c), 
                                                                                          FUN_CODE_083e:089a(c), 
                                                                                          FUN_CODE_083e:08c4(c), 
                                                                                          FUN_CODE_083e:08f7(c), 
                                                                                          FUN_CODE_083e:092a(c), 
                                                                                          FUN_CODE_083e:0935(c), 
                                                                                          FUN_CODE_083e:0944(c), 
                                                                                          FUN_CODE_083e:0956(c), 
                                                                                          FUN_CODE_083e:099e(c), 
                                                                                          FUN_CODE_083e:09ae(c), 
                                                                                          FUN_CODE_083e:09bc(c), 
                                                                                          FUN_CODE_083e:09ed(c), 
                                                                                          FUN_CODE_083e:09f8(c), 
                                                                                          FUN_CODE_083e:0a72(c), 
                                                                                          FUN_CODE_083e:0a96(c), 
                                                                                          FUN_CODE_0cf7:0d3e(c), 
                                                                                          FUN_CODE_0cf7:0d5c(c), 
                                                                                          FUN_CODE_0cf7:0d6d(c), 
                                                                                          FUN_CODE_0cf7:0d7e(c), 
                                                                                          CODE:1a6f(c), [more]
       CODE:2399 d2 e4           SETB       ACC.4                                                      = ??
       CODE:239b f5 d6           MOV        DAT_SFR_d6,A                                               = ??
       CODE:239d 22              RET
                             **************************************************************
                             *                          FUNCTION                          *
                             **************************************************************
                             undefined FUN_CODE_239e()
             undefined         ACC:1          <RETURN>
                             FUN_CODE_239e                                   XREF[66]:    FUN_CODE_083e:084f(c), 
                                                                                          FUN_CODE_083e:089f(c), 
                                                                                          FUN_CODE_083e:08a4(c), 
                                                                                          FUN_CODE_083e:08a9(c), 
                                                                                          FUN_CODE_083e:08ae(c), 
                                                                                          FUN_CODE_083e:08c8(c), 
                                                                                          FUN_CODE_083e:08cc(c), 
                                                                                          FUN_CODE_083e:08d0(c), 
                                                                                          FUN_CODE_083e:08d4(c), 
                                                                                          FUN_CODE_083e:08d8(c), 
                                                                                          FUN_CODE_083e:08dd(c), 
                                                                                          FUN_CODE_083e:08e2(c), 
                                                                                          FUN_CODE_083e:08e7(c), 
                                                                                          FUN_CODE_083e:08ec(c), 
                                                                                          FUN_CODE_083e:08f1(c), 
                                                                                          FUN_CODE_083e:08fc(c), 
                                                                                          FUN_CODE_083e:0901(c), 
                                                                                          FUN_CODE_083e:0906(c), 
                                                                                          FUN_CODE_083e:090b(c), 
                                                                                          CODE:1a74(c), [more]
       CODE:239e f5 d5           MOV        HPSC,A                                                     = ??
       CODE:23a0 22              RET
                             **************************************************************
                             *                          FUNCTION                          *
                             **************************************************************
                             undefined FUN_CODE_23a1()
             undefined         ACC:1          <RETURN>
                             FUN_CODE_23a1                                   XREF[2]:     FUN_CODE_0cf7:0d46(c), 
                                                                                          CODE:1d24(c)  
       CODE:23a1 75 d6 00        MOV        DAT_SFR_d6,#0x0                                            = ??
       CODE:23a4 22              RET
                             **************************************************************
                             *                          FUNCTION                          *
                             **************************************************************
                             undefined FUN_CODE_23a5()
             undefined         ACC:1          <RETURN>
                             FUN_CODE_23a5                                   XREF[1]:     CODE:1d2b(c)  
       CODE:23a5 e5 d6           MOV        A,DAT_SFR_d6                                               = ??
       CODE:23a7 a2 e4           MOV        CY,ACC.4                                                   = ??
       CODE:23a9 22              RET
                             **************************************************************
                             *                          FUNCTION                          *
                             **************************************************************
                             undefined FUN_CODE_23aa()
             undefined         ACC:1          <RETURN>
                             FUN_CODE_23aa                                   XREF[2]:     CODE:1123(c), CODE:116e(c)  
       CODE:23aa 90 23 ce        MOV        DPTR,#DAT_CODE_23ce                                        = 57h    W
       CODE:23ad 12 2c 44        LCALL      FUN_CODE_2c44                                              undefined FUN_CODE_2c44()
       CODE:23b0 e5 e3           MOV        A,RXDAT                                                    = ??
       CODE:23b2 c4              SWAP       A
       CODE:23b3 54 03           ANL        A,#0x3
       CODE:23b5 75 f0 03        MOV        B,#0x3
       CODE:23b8 a4              MUL        AB
       CODE:23b9 fa              MOV        R2,A
       CODE:23ba 90 24 01        MOV        DPTR,#DAT_CODE_2401
       CODE:23bd 93              MOVC       A,@A+DPTR=>DAT_CODE_2401
       CODE:23be f5 ed           MOV        CCAP3L,A                                                   = ??
       CODE:23c0 0a              INC        R2
       CODE:23c1 ea              MOV        A,R2
       CODE:23c2 93              MOVC       A,@A+DPTR=>DAT_CODE_2401
       CODE:23c3 f5 ec           MOV        CCAP2L,A                                                   = ??
       CODE:23c5 0a              INC        R2
       CODE:23c6 ea              MOV        A,R2
       CODE:23c7 93              MOVC       A,@A+DPTR=>DAT_CODE_2401
       CODE:23c8 f5 eb           MOV        CCAP1L,A                                                   = ??
       CODE:23ca 75 f5 02        MOV        TXFLG,#0x2                                                 = ??
       CODE:23cd 22              RET
                             DAT_CODE_23ce                                   XREF[1]:     FUN_CODE_23aa:23aa(*)  
       CODE:23ce 57              ??         57h    W
       CODE:23cf e4              ??         E4h
       CODE:23d0 58              ??         58h    X
       CODE:23d1 e4              ??         E4h
       CODE:23d2 e3              ??         E3h
       CODE:23d3 57              ??         57h    W
       CODE:23d4 e4              ??         E4h
       CODE:23d5 2a              ??         2Ah    *
       CODE:23d6 e5              ??         E5h
       CODE:23d7 be              ??         BEh
       CODE:23d8 e6              ??         E6h
       CODE:23d9 8a              ??         8Ah
       CODE:23da e7              ??         E7h
       CODE:23db 4b              ??         4Bh    K
       CODE:23dc e8              ??         E8h
       CODE:23dd f1              ??         F1h
       CODE:23de e9              ??         E9h
       CODE:23df 74              ??         74h    t
       CODE:23e0 ea              ??         EAh
       CODE:23e1 b9              ??         B9h
       CODE:23e2 eb              ??         EBh
       CODE:23e3 4b              ??         4Bh    K
       CODE:23e4 ec              ??         ECh
       CODE:23e5 f1              ??         F1h
       CODE:23e6 ed              ??         EDh
       CODE:23e7 74              ??         74h    t
       CODE:23e8 ee              ??         EEh
       CODE:23e9 b9              ??         B9h
       CODE:23ea ef              ??         EFh
       CODE:23eb 4a              ??         4Ah    J
       CODE:23ec f0              ??         F0h
       CODE:23ed b4              ??         B4h
       CODE:23ee f1              ??         F1h
       CODE:23ef 75              ??         75h    u
       CODE:23f0 f2              ??         F2h
       CODE:23f1 6a              ??         6Ah    j
       CODE:23f2 e2              ??         E2h
       CODE:23f3 03              ??         03h
       CODE:23f4 4d              ??         4Dh    M
       CODE:23f5 50              ??         50h    P
       CODE:23f6 4e              ??         4Eh    N
       CODE:23f7 61              ??         61h    a
       CODE:23f8 4f              ??         4Fh    O
       CODE:23f9 64              ??         64h    d
       CODE:23fa 50              ??         50h    P
       CODE:23fb 64              ??         64h    d
       CODE:23fc 51              ??         51h    Q
       CODE:23fd 6e              ??         6Eh    n
       CODE:23fe 52              ??         52h    R
       CODE:23ff 75              ??         75h    u
       CODE:2400 00              ??         00h
                             DAT_CODE_2401                                   XREF[4]:     FUN_CODE_23aa:23ba(*), 
                                                                                          FUN_CODE_23aa:23bd(*), 
                                                                                          FUN_CODE_23aa:23c2(*), 
                                                                                          FUN_CODE_23aa:23c7(*)  
       CODE:2401 00              ??         00h
       CODE:2402 7b              ??         7Bh    {
       CODE:2403 e0              ??         E0h
       CODE:2404 00              ??         00h
       CODE:2405 f7              ??         F7h
       CODE:2406 c0              ??         C0h
       CODE:2407 01              ??         01h
       CODE:2408 ef              ??         EFh
       CODE:2409 c0              ??         C0h
       CODE:240a 03              ??         03h
       CODE:240b df              ??         DFh
       CODE:240c c0              ??         C0h
                             **************************************************************
                             *                          FUNCTION                          *
                             **************************************************************
                             undefined FUN_CODE_240d()
             undefined         ACC:1          <RETURN>
                             FUN_CODE_240d                                   XREF[2]:     CODE:112b(c), CODE:117d(c)  
       CODE:240d c2 57           CLR        2a.7                                                       = ??
       CODE:240f e5 ee           MOV        A,CCAP4L                                                   = ??
       CODE:2411 20 e0 04        JB         ACC.0,LAB_CODE_2418                                        = ??
       CODE:2414 54 b0           ANL        A,#0xb0
       CODE:2416 60 06           JZ         LAB_CODE_241e
                             LAB_CODE_2418                                   XREF[3]:     CODE:2411(j), CODE:2429(j), 
                                                                                          CODE:246f(j)  
       CODE:2418 20 11 02        JB         22.1,LAB_CODE_241d                                         = ??
       CODE:241b d2 57           SETB       2a.7                                                       = ??
                             LAB_CODE_241d                                   XREF[1]:     CODE:2418(j)  
       CODE:241d 22              RET
                             LAB_CODE_241e                                   XREF[1]:     CODE:2416(j)  
       CODE:241e 75 eb 00        MOV        CCAP1L,#0x0                                                = ??
       CODE:2421 75 ea 0c        MOV        CCAP0L,#0xc                                                = ??
       CODE:2424 75 f5 00        MOV        TXFLG,#0x0                                                 = ??
       CODE:2427 e5 f3           MOV        A,TXDAT                                                    = ??
       CODE:2429 b4 04 ec        CJNE       A,#0x4,LAB_CODE_2418
       CODE:242c 75 ea 00        MOV        CCAP0L,#0x0                                                = ??
       CODE:242f 75 f5 00        MOV        TXFLG,#0x0                                                 = ??
       CODE:2432 aa f1           MOV        R2,EPINDEX                                                 = ??
       CODE:2434 ab f2           MOV        R3,TXSTAT                                                  = ??
       CODE:2436 7c 3f           MOV        R4,#0x3f
       CODE:2438 75 ea 10        MOV        CCAP0L,#0x10                                               = ??
                             LAB_CODE_243b                                   XREF[1]:     CODE:2465(j)  
       CODE:243b 75 f5 00        MOV        TXFLG,#0x0                                                 = ??
       CODE:243e 75 f0 00        MOV        B,#0x0
       CODE:2441 ea              MOV        A,R2
       CODE:2442 25 f1           ADD        A,EPINDEX                                                  = ??
       CODE:2444 92 f0           MOV        B.0,CY                                                     = ??
       CODE:2446 25 f2           ADD        A,TXSTAT                                                   = ??
       CODE:2448 92 f1           MOV        B.1,CY                                                     = ??
       CODE:244a 25 f3           ADD        A,TXDAT                                                    = ??
       CODE:244c 92 f2           MOV        B.2,CY                                                     = ??
       CODE:244e 25 f4           ADD        A,TXCON                                                    = ??
       CODE:2450 92 f3           MOV        B.3,CY                                                     = ??
       CODE:2452 fa              MOV        R2,A
       CODE:2453 eb              MOV        A,R3
       CODE:2454 a2 f0           MOV        CY,B.0                                                     = ??
       CODE:2456 34 00           ADDC       A,#0x0
       CODE:2458 a2 f1           MOV        CY,B.1                                                     = ??
       CODE:245a 34 00           ADDC       A,#0x0
       CODE:245c a2 f2           MOV        CY,B.2                                                     = ??
       CODE:245e 34 00           ADDC       A,#0x0
       CODE:2460 a2 f3           MOV        CY,B.3                                                     = ??
       CODE:2462 34 00           ADDC       A,#0x0
       CODE:2464 fb              MOV        R3,A
       CODE:2465 dc d4           DJNZ       R4,LAB_CODE_243b
       CODE:2467 ea              MOV        A,R2
       CODE:2468 24 01           ADD        A,#0x1
       CODE:246a fa              MOV        R2,A
       CODE:246b eb              MOV        A,R3
       CODE:246c 34 00           ADDC       A,#0x0
       CODE:246e 4a              ORL        A,R2
       CODE:246f 70 a7           JNZ        LAB_CODE_2418
       CODE:2471 75 eb 00        MOV        CCAP1L,#0x0                                                = ??
       CODE:2474 75 ea 14        MOV        CCAP0L,#0x14                                               = ??
       CODE:2477 75 f5 00        MOV        TXFLG,#0x0                                                 = ??
       CODE:247a e5 f1           MOV        A,EPINDEX                                                  = ??
       CODE:247c 20 e1 7a        JB         ACC.1,LAB_CODE_24f9                                        = ??
       CODE:247f 75 ea 10        MOV        CCAP0L,#0x10                                               = ??
       CODE:2482 75 f5 00        MOV        TXFLG,#0x0                                                 = ??
       CODE:2485 85 f2 57        MOV        DAT_INTMEM_57,TXSTAT                                       = ??
       CODE:2488 85 f3 58        MOV        DAT_INTMEM_58,TXDAT                                        = ??
       CODE:248b 75 ea 18        MOV        CCAP0L,#0x18                                               = ??
       CODE:248e 75 f5 00        MOV        TXFLG,#0x0                                                 = ??
       CODE:2491 78 e3           MOV        R0,#0xe3
       CODE:2493 a6 f2           MOV        @R0=>DAT_INTMEM_e3,TXSTAT                                  = ??
       CODE:2495 08              INC        R0
       CODE:2496 a6 f1           MOV        @R0=>DAT_INTMEM_e4,EPINDEX                                 = ??
       CODE:2498 08              INC        R0
       CODE:2499 a6 f4           MOV        @R0=>DAT_INTMEM_e5,TXCON                                   = ??
       CODE:249b 08              INC        R0
       CODE:249c a6 f3           MOV        @R0=>DAT_INTMEM_e6,TXDAT                                   = ??
       CODE:249e 75 ea 1c        MOV        CCAP0L,#0x1c                                               = ??
       CODE:24a1 75 f5 00        MOV        TXFLG,#0x0                                                 = ??
       CODE:24a4 78 e7           MOV        R0,#0xe7
       CODE:24a6 a6 f2           MOV        @R0=>DAT_INTMEM_e7,TXSTAT                                  = ??
       CODE:24a8 08              INC        R0
       CODE:24a9 a6 f1           MOV        @R0=>DAT_INTMEM_e8,EPINDEX                                 = ??
       CODE:24ab 08              INC        R0
       CODE:24ac a6 f4           MOV        @R0=>DAT_INTMEM_e9,TXCON                                   = ??
       CODE:24ae 08              INC        R0
       CODE:24af a6 f3           MOV        @R0=>DAT_INTMEM_ea,TXDAT                                   = ??
       CODE:24b1 75 ea 20        MOV        CCAP0L,#0x20                                               = ??
       CODE:24b4 75 f5 00        MOV        TXFLG,#0x0                                                 = ??
       CODE:24b7 78 eb           MOV        R0,#0xeb
       CODE:24b9 a6 f2           MOV        @R0=>DAT_INTMEM_eb,TXSTAT                                  = ??
       CODE:24bb 08              INC        R0
       CODE:24bc a6 f1           MOV        @R0=>DAT_INTMEM_ec,EPINDEX                                 = ??
       CODE:24be 08              INC        R0
       CODE:24bf a6 f4           MOV        @R0=>DAT_INTMEM_ed,TXCON                                   = ??
       CODE:24c1 08              INC        R0
       CODE:24c2 a6 f3           MOV        @R0=>DAT_INTMEM_ee,TXDAT                                   = ??
       CODE:24c4 75 ea 24        MOV        CCAP0L,#0x24                                               = ??
       CODE:24c7 75 f5 00        MOV        TXFLG,#0x0                                                 = ??
       CODE:24ca 78 ef           MOV        R0,#0xef
       CODE:24cc a6 f2           MOV        @R0=>DAT_INTMEM_ef,TXSTAT                                  = ??
       CODE:24ce 08              INC        R0
       CODE:24cf a6 f1           MOV        @R0=>DAT_INTMEM_f0,EPINDEX                                 = ??
       CODE:24d1 08              INC        R0
       CODE:24d2 a6 f4           MOV        @R0=>DAT_INTMEM_f1,TXCON                                   = ??
       CODE:24d4 08              INC        R0
       CODE:24d5 a6 f3           MOV        @R0=>DAT_INTMEM_f2,TXDAT                                   = ??
       CODE:24d7 75 ea 28        MOV        CCAP0L,#0x28                                               = ??
       CODE:24da 75 f5 00        MOV        TXFLG,#0x0                                                 = ??
       CODE:24dd 78 e2           MOV        R0,#0xe2
       CODE:24df a6 f1           MOV        @R0=>DAT_INTMEM_e2,EPINDEX                                 = ??
       CODE:24e1 85 f2 4d        MOV        DAT_INTMEM_4d,TXSTAT                                       = ??
       CODE:24e4 85 f3 4e        MOV        DAT_INTMEM_4e,TXDAT                                        = ??
       CODE:24e7 85 f4 4f        MOV        DAT_INTMEM_4f,TXCON                                        = ??
       CODE:24ea 75 ea 2c        MOV        CCAP0L,#0x2c                                               = ??
       CODE:24ed 75 f5 00        MOV        TXFLG,#0x0                                                 = ??
       CODE:24f0 85 f1 50        MOV        DAT_INTMEM_50,EPINDEX                                      = ??
       CODE:24f3 85 f2 51        MOV        DAT_INTMEM_51,TXSTAT                                       = ??
       CODE:24f6 85 f3 52        MOV        DAT_INTMEM_52,TXDAT                                        = ??
                             LAB_CODE_24f9                                   XREF[1]:     CODE:247c(j)  
       CODE:24f9 22              RET
                             **************************************************************
                             *                          FUNCTION                          *
                             **************************************************************
                             undefined FUN_CODE_24fa()
             undefined         ACC:1          <RETURN>
                             FUN_CODE_24fa                                   XREF[1]:     CODE:12dd(c)  
       CODE:24fa c2 cc           CLR        TCLK                                                       = ??
       CODE:24fc 22              RET
                             **************************************************************
                             *                          FUNCTION                          *
                             **************************************************************
                             undefined FUN_CODE_24fd()
             undefined         ACC:1          <RETURN>
                             FUN_CODE_24fd                                   XREF[2]:     CODE:1068(c), CODE:12d5(c)  
       CODE:24fd d2 cc           SETB       TCLK                                                       = ??
       CODE:24ff 22              RET
                             **************************************************************
                             *                          FUNCTION                          *
                             **************************************************************
                             undefined FUN_CODE_2500()
             undefined         ACC:1          <RETURN>
                             FUN_CODE_2500                                   XREF[1]:     FUN_CODE_146e:1565(c)  
       CODE:2500 f5 91           MOV        DAT_SFR_91,A                                               = ??
       CODE:2502 22              RET
                             **************************************************************
                             *                          FUNCTION                          *
                             **************************************************************
                             undefined FUN_CODE_2503()
             undefined         ACC:1          <RETURN>
                             FUN_CODE_2503                                   XREF[1]:     FUN_CODE_146e:1561(c)  
       CODE:2503 f5 93           MOV        DPX,A                                                      = ??
       CODE:2505 22              RET
                             **************************************************************
                             *                          FUNCTION                          *
                             **************************************************************
                             undefined FUN_CODE_2506()
             undefined         ACC:1          <RETURN>
                             FUN_CODE_2506                                   XREF[5]:     CODE:1c28(c), CODE:1c34(c), 
                                                                                          CODE:1c41(c), CODE:1c58(c), 
                                                                                          CODE:1c61(c)  
       CODE:2506 a2 a7           MOV        CY,P2.7                                                    = ??
       CODE:2508 b3              CPL        CY
       CODE:2509 22              RET
                             **************************************************************
                             *                          FUNCTION                          *
                             **************************************************************
                             undefined FUN_CODE_250a()
             undefined         ACC:1          <RETURN>
                             FUN_CODE_250a                                   XREF[5]:     CODE:1c2d(c), CODE:1c39(c), 
                                                                                          CODE:1c46(c), CODE:1c53(c), 
                                                                                          CODE:1c66(c)  
       CODE:250a a2 90           MOV        CY,P1.0                                                    = ??
       CODE:250c b3              CPL        CY
       CODE:250d 22              RET
                             **************************************************************
                             *                          FUNCTION                          *
                             **************************************************************
                             undefined FUN_CODE_250e()
             undefined         ACC:1          <RETURN>
                             FUN_CODE_250e                                   XREF[5]:     CODE:134e(c), CODE:1355(c), 
                                                                                          CODE:135c(c), CODE:1363(c), 
                                                                                          CODE:1c70(c)  
       CODE:250e a2 92           MOV        CY,P1.2                                                    = ??
       CODE:2510 b3              CPL        CY
       CODE:2511 22              RET
                             **************************************************************
                             *                          FUNCTION                          *
                             **************************************************************
                             undefined FUN_CODE_2512()
             undefined         ACC:1          <RETURN>
                             FUN_CODE_2512                                   XREF[4]:     FUN_CODE_1fed:1ff0(c), 
                                                                                          FUN_CODE_1ff7:1ff7(c), 
                                                                                          FUN_CODE_2007:200a(c), 
                                                                                          FUN_CODE_2011:2011(c)  
       CODE:2512 a2 a8           MOV        CY,EX0                                                     = ??
       CODE:2514 c2 a8           CLR        EX0                                                        = ??
       CODE:2516 40 03           JC         LAB_CODE_251b
       CODE:2518 a2 91           MOV        CY,P1.1                                                    = ??
       CODE:251a b3              CPL        CY
                             LAB_CODE_251b                                   XREF[1]:     CODE:2516(j)  
       CODE:251b 22              RET
                             **************************************************************
                             *                          FUNCTION                          *
                             **************************************************************
                             undefined FUN_CODE_251c()
             undefined         ACC:1          <RETURN>
                             FUN_CODE_251c                                   XREF[2]:     CODE:12c2(c), CODE:12e5(c)  
       CODE:251c e4              CLR        A
       CODE:251d a2 c2           MOV        CY,FIFLG.2                                                 = ??
       CODE:251f 92 e6           MOV        ACC.6,CY                                                   = ??
       CODE:2521 a2 c7           MOV        CY,FIFLG.7                                                 = ??
       CODE:2523 92 e4           MOV        ACC.4,CY                                                   = ??
       CODE:2525 a2 c6           MOV        CY,FIFLG.6                                                 = ??
       CODE:2527 92 e3           MOV        ACC.3,CY                                                   = ??
       CODE:2529 a2 c5           MOV        CY,FIFLG.5                                                 = ??
       CODE:252b 92 e2           MOV        ACC.2,CY                                                   = ??
       CODE:252d a2 c4           MOV        CY,FIFLG.4                                                 = ??
       CODE:252f 92 e1           MOV        ACC.1,CY                                                   = ??
       CODE:2531 a2 cb           MOV        CY,EXEN2                                                   = ??
       CODE:2533 92 e0           MOV        ACC.0,CY                                                   = ??
       CODE:2535 22              RET
                             **************************************************************
                             *                          FUNCTION                          *
                             **************************************************************
                             undefined FUN_CODE_2536()
             undefined         ACC:1          <RETURN>
                             FUN_CODE_2536                                   XREF[2]:     CODE:13c4(c), CODE:13f5(c)  
       CODE:2536 75 77 00        MOV        DAT_INTMEM_77,#0x0                                         = ??
       CODE:2539 22              RET
                             **************************************************************
                             *                          FUNCTION                          *
                             **************************************************************
                             undefined FUN_CODE_253a()
             undefined         ACC:1          <RETURN>
                             FUN_CODE_253a                                   XREF[3]:     FUN_CODE_0756:0770(c), 
                                                                                          CODE:13bf(c), CODE:13d9(c)  
       CODE:253a e5 77           MOV        A,DAT_INTMEM_77                                            = ??
       CODE:253c a2 cd           MOV        CY,RCLK                                                    = ??
       CODE:253e b3              CPL        CY
       CODE:253f 22              RET
                             **************************************************************
                             *                          FUNCTION                          *
                             **************************************************************
                             undefined FUN_CODE_2540()
             undefined         ACC:1          <RETURN>
                             FUN_CODE_2540                                   XREF[3]:     FUN_CODE_0756:0780(c), 
                                                                                          FUN_CODE_083e:08b4(c), 
                                                                                          FUN_CODE_2c13:2c13(c)  
       CODE:2540 43 af 01        ORL        DAT_SFR_af,#0x1                                            = ??
       CODE:2543 ae ae           MOV        R6,HSTAT                                                   = ??
       CODE:2545 ad ad           MOV        R5,DAT_SFR_ad                                              = ??
       CODE:2547 ac ac           MOV        R4,DAT_SFR_ac                                              = ??
       CODE:2549 ab ab           MOV        R3,DAT_SFR_ab                                              = ??
       CODE:254b aa aa           MOV        R2,DAT_SFR_aa                                              = ??
       CODE:254d 22              RET
                             **************************************************************
                             *                          FUNCTION                          *
                             **************************************************************
                             undefined FUN_CODE_254e()
             undefined         ACC:1          <RETURN>
                             FUN_CODE_254e                                   XREF[1]:     FUN_CODE_083e:0b7a(c)  
       CODE:254e 8e ae           MOV        HSTAT,R6                                                   = ??
       CODE:2550 8d ad           MOV        DAT_SFR_ad,R5                                              = ??
       CODE:2552 8c ac           MOV        DAT_SFR_ac,R4                                              = ??
       CODE:2554 8b ab           MOV        DAT_SFR_ab,R3                                              = ??
       CODE:2556 8a aa           MOV        DAT_SFR_aa,R2                                              = ??
       CODE:2558 43 af 02        ORL        DAT_SFR_af,#0x2                                            = ??
       CODE:255b 22              RET
                             **************************************************************
                             *                          FUNCTION                          *
                             **************************************************************
                             undefined FUN_CODE_255c()
             undefined         ACC:1          <RETURN>
                             FUN_CODE_255c                                   XREF[1]:     CODE:19e5(c)  
       CODE:255c 75 78 00        MOV        DAT_INTMEM_78,#0x0                                         = ??
       CODE:255f 75 7a 01        MOV        DAT_INTMEM_7a,#0x1                                         = ??
       CODE:2562 80 26           SJMP       LAB_CODE_258a
                             **************************************************************
                             *                          FUNCTION                          *
                             **************************************************************
                             undefined FUN_CODE_2564()
             undefined         ACC:1          <RETURN>
                             FUN_CODE_2564                                   XREF[1]:     CODE:19f3(c)  
       CODE:2564 75 78 03        MOV        DAT_INTMEM_78,#0x3                                         = ??
       CODE:2567 80 1e           SJMP       FUN_CODE_2587                                              undefined FUN_CODE_2587()
                             -- Flow Override: CALL_RETURN (CALL_TERMINATOR)
                             **************************************************************
                             *                          FUNCTION                          *
                             **************************************************************
                             undefined FUN_CODE_2569()
             undefined         ACC:1          <RETURN>
                             FUN_CODE_2569                                   XREF[1]:     CODE:1a02(c)  
       CODE:2569 75 78 34        MOV        DAT_INTMEM_78,#0x34                                        = ??
       CODE:256c 80 19           SJMP       FUN_CODE_2587                                              undefined FUN_CODE_2587()
                             -- Flow Override: CALL_RETURN (CALL_TERMINATOR)
                             **************************************************************
                             *                          FUNCTION                          *
                             **************************************************************
                             undefined FUN_CODE_256e()
             undefined         ACC:1          <RETURN>
                             FUN_CODE_256e                                   XREF[1]:     CODE:1a11(c)  
       CODE:256e 75 78 42        MOV        DAT_INTMEM_78,#0x42                                        = ??
       CODE:2571 80 14           SJMP       FUN_CODE_2587                                              undefined FUN_CODE_2587()
                             -- Flow Override: CALL_RETURN (CALL_TERMINATOR)
                             **************************************************************
                             *                          FUNCTION                          *
                             **************************************************************
                             undefined FUN_CODE_2573()
             undefined         ACC:1          <RETURN>
                             FUN_CODE_2573                                   XREF[1]:     CODE:1a23(c)  
       CODE:2573 75 78 50        MOV        DAT_INTMEM_78,#0x50                                        = ??
       CODE:2576 80 0f           SJMP       FUN_CODE_2587                                              undefined FUN_CODE_2587()
                             -- Flow Override: CALL_RETURN (CALL_TERMINATOR)
                             **************************************************************
                             *                          FUNCTION                          *
                             **************************************************************
                             undefined FUN_CODE_2578()
             undefined         ACC:1          <RETURN>
                             FUN_CODE_2578                                   XREF[1]:     CODE:1a32(c)  
       CODE:2578 75 78 52        MOV        DAT_INTMEM_78,#0x52                                        = ??
       CODE:257b 80 0a           SJMP       FUN_CODE_2587                                              undefined FUN_CODE_2587()
                             -- Flow Override: CALL_RETURN (CALL_TERMINATOR)
                             **************************************************************
                             *                          FUNCTION                          *
                             **************************************************************
                             undefined FUN_CODE_257d()
             undefined         ACC:1          <RETURN>
                             FUN_CODE_257d                                   XREF[1]:     CODE:1a41(c)  
       CODE:257d 75 78 82        MOV        DAT_INTMEM_78,#0x82                                        = ??
       CODE:2580 80 05           SJMP       FUN_CODE_2587                                              undefined FUN_CODE_2587()
                             -- Flow Override: CALL_RETURN (CALL_TERMINATOR)
                             **************************************************************
                             *                          FUNCTION                          *
                             **************************************************************
                             undefined FUN_CODE_2582()
             undefined         ACC:1          <RETURN>
                             FUN_CODE_2582                                   XREF[1]:     CODE:1a53(c)  
       CODE:2582 75 78 8d        MOV        DAT_INTMEM_78,#0x8d                                        = ??
       CODE:2585 80 00           SJMP       FUN_CODE_2587                                              undefined FUN_CODE_2587()
                             -- Flow Override: CALL_RETURN (CALL_TERMINATOR)
                             **************************************************************
                             *                          FUNCTION                          *
                             **************************************************************
                             undefined FUN_CODE_2587()
             undefined         ACC:1          <RETURN>
                             FUN_CODE_2587                                   XREF[7]:     FUN_CODE_2564:2567(c), 
                                                                                          FUN_CODE_2569:256c(c), 
                                                                                          FUN_CODE_256e:2571(c), 
                                                                                          FUN_CODE_2573:2576(c), 
                                                                                          FUN_CODE_2578:257b(c), 
                                                                                          FUN_CODE_257d:2580(c), 
                                                                                          FUN_CODE_2582:2585(c)  
       CODE:2587 75 7a 03        MOV        DAT_INTMEM_7a,#0x3                                         = ??
                             LAB_CODE_258a                                   XREF[1]:     FUN_CODE_255c:2562(j)  
       CODE:258a 85 78 79        MOV        DAT_INTMEM_79,DAT_INTMEM_78                                = ??
       CODE:258d 80 35           SJMP       FUN_CODE_25c4                                              undefined FUN_CODE_25c4()
                             -- Flow Override: CALL_RETURN (CALL_TERMINATOR)
                             **************************************************************
                             *                          FUNCTION                          *
                             **************************************************************
                             undefined FUN_CODE_258f()
             undefined         ACC:1          <RETURN>
                             FUN_CODE_258f                                   XREF[8]:     CODE:1a64(c), CODE:1a86(c), 
                                                                                          CODE:1aa1(c), CODE:1aad(c), 
                                                                                          CODE:1ae4(c), CODE:1af0(c), 
                                                                                          CODE:1af9(c), CODE:1b13(c)  
       CODE:258f 30 5e 02        JNB        2b.6,LAB_CODE_2594                                         = ??
       CODE:2592 80 2c           SJMP       LAB_CODE_25c0
                             LAB_CODE_2594                                   XREF[1]:     CODE:258f(j)  
       CODE:2594 30 da 09        JNB        CCF.2,LAB_CODE_25a0                                        = ??
       CODE:2597 12 29 24        LCALL      FUN_CODE_2924                                              undefined FUN_CODE_2924()
       CODE:259a 30 da 03        JNB        CCF.2,LAB_CODE_25a0                                        = ??
       CODE:259d 12 29 24        LCALL      FUN_CODE_2924                                              undefined FUN_CODE_2924()
                             LAB_CODE_25a0                                   XREF[2]:     CODE:2594(j), CODE:259a(j)  
       CODE:25a0 30 5f 21        JNB        2b.7,FUN_CODE_25c4                                         = ??
                             LAB_CODE_25a3                                   XREF[4]:     CODE:25db(j), CODE:26d8(j), 
                                                                                          CODE:27c2(j), CODE:27dd(j)  
       CODE:25a3 d5 7a 07        DJNZ       DAT_INTMEM_7a,LAB_CODE_25ad                                = ??
       CODE:25a6 d2 d5           SETB       F0                                                         = ??
                             LAB_CODE_25a8                                   XREF[1]:     CODE:25f0(j)  
       CODE:25a8 12 02 ad        LCALL      FUN_CODE_02ad                                              undefined FUN_CODE_02ad()
       CODE:25ab d3              SETB       CY
       CODE:25ac 22              RET
                             LAB_CODE_25ad                                   XREF[1]:     CODE:25a3(j)  
       CODE:25ad 85 78 79        MOV        DAT_INTMEM_79,DAT_INTMEM_78                                = ??
       CODE:25b0 c2 5f           CLR        2b.7                                                       = ??
       CODE:25b2 80 0c           SJMP       LAB_CODE_25c0
                             **************************************************************
                             *                          FUNCTION                          *
                             **************************************************************
                             undefined FUN_CODE_25b4()
             undefined         ACC:1          <RETURN>
                             FUN_CODE_25b4                                   XREF[8]:     CODE:263b(c), CODE:265e(c), 
                                                                                          CODE:2691(c), CODE:26ba(c), 
                                                                                          CODE:2702(c), CODE:27b5(c), 
                                                                                          CODE:27f6(c), CODE:283e(c)  
       CODE:25b4 d2 5f           SETB       2b.7                                                       = ??
       CODE:25b6 d2 5e           SETB       2b.6                                                       = ??
       CODE:25b8 75 10 00        MOV        BANK2_R0,#0x0                                              = ??
       CODE:25bb d2 d9           SETB       CCF.1                                                      = ??
       CODE:25bd 53 bc f7        ANL        DAT_SFR_bc,#0xf7                                           = ??
                             LAB_CODE_25c0                                   XREF[2]:     FUN_CODE_258f:2592(j), 
                                                                                          FUN_CODE_258f:25b2(j)  
       CODE:25c0 c2 d5           CLR        F0                                                         = ??
       CODE:25c2 c3              CLR        CY
       CODE:25c3 22              RET
                             **************************************************************
                             *                          FUNCTION                          *
                             **************************************************************
                             undefined FUN_CODE_25c4()
             undefined         ACC:1          <RETURN>
                             FUN_CODE_25c4                                   XREF[12]:    FUN_CODE_2587:258d(c), 
                                                                                          FUN_CODE_258f:25a0(j), 
                                                                                          CODE:25ec(c), CODE:25f4(c), 
                                                                                          CODE:268e(c), CODE:26d2(c), 
                                                                                          CODE:274f(c), CODE:2778(c), 
                                                                                          CODE:279b(c), CODE:27bf(c), 
                                                                                          CODE:27da(c), CODE:27ed(c)  
       CODE:25c4 90 28 6f        MOV        DPTR,#DAT_CODE_286f
       CODE:25c7 e5 79           MOV        A,DAT_INTMEM_79                                            = ??
       CODE:25c9 93              MOVC       A,@A+DPTR=>DAT_CODE_286f
       CODE:25ca 90 28 41        MOV        DPTR,#LAB_CODE_2841
       CODE:25cd 73              JMP        @A+DPTR
                             LAB_CODE_25ce                                   XREF[1]:     CODE:2841(j)  
       CODE:25ce 12 02 ad        LCALL      FUN_CODE_02ad                                              undefined FUN_CODE_02ad()
       CODE:25d1 12 29 34        LCALL      FUN_CODE_2934                                              undefined FUN_CODE_2934()
       CODE:25d4 50 07           JNC        LAB_CODE_25dd
       CODE:25d6 12 29 4e        LCALL      FUN_CODE_294e                                              undefined FUN_CODE_294e()
       CODE:25d9 50 02           JNC        LAB_CODE_25dd
       CODE:25db 80 c6           SJMP       LAB_CODE_25a3
                             LAB_CODE_25dd                                   XREF[2]:     CODE:25d4(j), CODE:25d9(j)  
       CODE:25dd c2 c9           CLR        CT2                                                        = ??
       CODE:25df 12 29 24        LCALL      FUN_CODE_2924                                              undefined FUN_CODE_2924()
       CODE:25e2 d2 c9           SETB       CT2                                                        = ??
       CODE:25e4 12 29 24        LCALL      FUN_CODE_2924                                              undefined FUN_CODE_2924()
       CODE:25e7 12 29 38        LCALL      FUN_CODE_2938                                              undefined FUN_CODE_2938()
       CODE:25ea 05 79           INC        DAT_INTMEM_79                                              = ??
       CODE:25ec 80 d6           SJMP       FUN_CODE_25c4                                              undefined FUN_CODE_25c4()
                             -- Flow Override: CALL_RETURN (CALL_TERMINATOR)
                             LAB_CODE_25ee                                   XREF[1]:     CODE:2844(j)  
       CODE:25ee c2 d5           CLR        F0                                                         = ??
       CODE:25f0 80 b6           SJMP       LAB_CODE_25a8
                             LAB_CODE_25f2                                   XREF[1]:     CODE:2847(j)  
       CODE:25f2 05 79           INC        DAT_INTMEM_79                                              = ??
       CODE:25f4 80 ce           SJMP       FUN_CODE_25c4                                              undefined FUN_CODE_25c4()
                             -- Flow Override: CALL_RETURN (CALL_TERMINATOR)
                             LAB_CODE_25f6                                   XREF[1]:     CODE:284c(j)  
       CODE:25f6 d2 5b           SETB       2b.3                                                       = ??
       CODE:25f8 75 11 e0        MOV        BANK2_R1,#0xe0                                             = ??
       CODE:25fb 75 12 06        MOV        BANK2_R2,#0x6                                              = ??
       CODE:25fe c2 5c           CLR        2b.4                                                       = ??
       CODE:2600 c2 5d           CLR        2b.5                                                       = ??
       CODE:2602 90 28 6f        MOV        DPTR,#0x286f
       CODE:2605 05 79           INC        DAT_INTMEM_79                                              = ??
       CODE:2607 e5 79           MOV        A,DAT_INTMEM_79                                            = ??
       CODE:2609 93              MOVC       A,@A+DPTR=>DAT_CODE_286f
       CODE:260a f5 1a           MOV        BANK3_R2,A                                                 = ??
       CODE:260c 75 19 04        MOV        BANK3_R1,#0x4                                              = ??
       CODE:260f 05 79           INC        DAT_INTMEM_79                                              = ??
       CODE:2611 e5 79           MOV        A,DAT_INTMEM_79                                            = ??
       CODE:2613 93              MOVC       A,@A+DPTR=>DAT_CODE_286f
       CODE:2614 f5 15           MOV        BANK2_R5,A                                                 = ??
       CODE:2616 05 79           INC        DAT_INTMEM_79                                              = ??
       CODE:2618 e5 79           MOV        A,DAT_INTMEM_79                                            = ??
       CODE:261a 93              MOVC       A,@A+DPTR=>DAT_CODE_286f
       CODE:261b f5 16           MOV        BANK2_R6,A                                                 = ??
       CODE:261d 05 79           INC        DAT_INTMEM_79                                              = ??
       CODE:261f e5 79           MOV        A,DAT_INTMEM_79                                            = ??
       CODE:2621 93              MOVC       A,@A+DPTR=>DAT_CODE_286f
       CODE:2622 f5 17           MOV        BANK2_R7,A                                                 = ??
       CODE:2624 e5 1a           MOV        A,BANK3_R2                                                 = ??
       CODE:2626 b4 db 07        CJNE       A,#0xdb,LAB_CODE_2630
       CODE:2629 78 e2           MOV        R0,#0xe2
       CODE:262b e6              MOV        A,@R0=>DAT_INTMEM_e2                                       = ??
       CODE:262c f5 18           MOV        BANK3_R0,A                                                 = ??
       CODE:262e 80 07           SJMP       LAB_CODE_2637
                             LAB_CODE_2630                                   XREF[1]:     CODE:2626(j)  
       CODE:2630 05 79           INC        DAT_INTMEM_79                                              = ??
       CODE:2632 e5 79           MOV        A,DAT_INTMEM_79                                            = ??
       CODE:2634 93              MOVC       A,@A+DPTR=>DAT_CODE_286f
       CODE:2635 f5 18           MOV        BANK3_R0,A                                                 = ??
                             LAB_CODE_2637                                   XREF[1]:     CODE:262e(j)  
       CODE:2637 c2 5a           CLR        2b.2                                                       = ??
       CODE:2639 05 79           INC        DAT_INTMEM_79                                              = ??
       CODE:263b 02 25 b4        LJMP       FUN_CODE_25b4                                              undefined FUN_CODE_25b4()
                             -- Flow Override: CALL_RETURN (CALL_TERMINATOR)
                             LAB_CODE_263e                                   XREF[1]:     CODE:284f(j)  
       CODE:263e d2 5b           SETB       2b.3                                                       = ??
       CODE:2640 75 11 e0        MOV        BANK2_R1,#0xe0                                             = ??
       CODE:2643 75 12 01        MOV        BANK2_R2,#0x1                                              = ??
       CODE:2646 c2 5c           CLR        2b.4                                                       = ??
       CODE:2648 d2 5d           SETB       2b.5                                                       = ??
       CODE:264a 75 13 e1        MOV        BANK2_R3,#0xe1                                             = ??
       CODE:264d 75 14 05        MOV        BANK2_R4,#0x5                                              = ??
       CODE:2650 90 28 6f        MOV        DPTR,#0x286f
       CODE:2653 05 79           INC        DAT_INTMEM_79                                              = ??
       CODE:2655 e5 79           MOV        A,DAT_INTMEM_79                                            = ??
       CODE:2657 93              MOVC       A,@A+DPTR=>DAT_CODE_286f
       CODE:2658 f5 15           MOV        BANK2_R5,A                                                 = ??
       CODE:265a c2 5a           CLR        2b.2                                                       = ??
       CODE:265c 05 79           INC        DAT_INTMEM_79                                              = ??
       CODE:265e 02 25 b4        LJMP       FUN_CODE_25b4                                              undefined FUN_CODE_25b4()
                             -- Flow Override: CALL_RETURN (CALL_TERMINATOR)
                             LAB_CODE_2661                                   XREF[1]:     CODE:2852(j)  
       CODE:2661 d2 5b           SETB       2b.3                                                       = ??
       CODE:2663 75 11 72        MOV        BANK2_R1,#0x72                                             = ??
       CODE:2666 c2 5c           CLR        2b.4                                                       = ??
       CODE:2668 c2 5d           CLR        2b.5                                                       = ??
       CODE:266a 90 28 6f        MOV        DPTR,#0x286f
       CODE:266d 05 79           INC        DAT_INTMEM_79                                              = ??
       CODE:266f e5 79           MOV        A,DAT_INTMEM_79                                            = ??
       CODE:2671 93              MOVC       A,@A+DPTR=>DAT_CODE_286f
       CODE:2672 f5 12           MOV        BANK2_R2,A                                                 = ??
       CODE:2674 24 15           ADD        A,#0x15
       CODE:2676 f8              MOV        R0,A
                             LAB_CODE_2677                                   XREF[1]:     CODE:267e(j)  
       CODE:2677 18              DEC        R0
       CODE:2678 05 79           INC        DAT_INTMEM_79                                              = ??
       CODE:267a e5 79           MOV        A,DAT_INTMEM_79                                            = ??
       CODE:267c 93              MOVC       A,@A+DPTR=>DAT_CODE_286f
       CODE:267d f6              MOV        @R0,A
       CODE:267e b8 15 f6        CJNE       R0,#0x15,LAB_CODE_2677
       CODE:2681 05 79           INC        DAT_INTMEM_79                                              = ??
       CODE:2683 e5 79           MOV        A,DAT_INTMEM_79                                            = ??
       CODE:2685 93              MOVC       A,@A+DPTR=>DAT_CODE_286f
       CODE:2686 d2 75           SETB       2e.5                                                       = ??
       CODE:2688 c2 5a           CLR        2b.2                                                       = ??
       CODE:268a 05 79           INC        DAT_INTMEM_79                                              = ??
       CODE:268c 70 03           JNZ        LAB_CODE_2691
       CODE:268e 02 25 c4        LJMP       FUN_CODE_25c4                                              undefined FUN_CODE_25c4()
                             -- Flow Override: CALL_RETURN (CALL_TERMINATOR)
                             LAB_CODE_2691                                   XREF[1]:     CODE:268c(j)  
       CODE:2691 02 25 b4        LJMP       FUN_CODE_25b4                                              undefined FUN_CODE_25b4()
                             -- Flow Override: CALL_RETURN (CALL_TERMINATOR)
                             LAB_CODE_2694                                   XREF[1]:     CODE:2855(j)  
       CODE:2694 d2 5b           SETB       2b.3                                                       = ??
       CODE:2696 75 11 72        MOV        BANK2_R1,#0x72                                             = ??
       CODE:2699 75 12 01        MOV        BANK2_R2,#0x1                                              = ??
       CODE:269c c2 5c           CLR        2b.4                                                       = ??
       CODE:269e d2 5d           SETB       2b.5                                                       = ??
       CODE:26a0 75 13 73        MOV        BANK2_R3,#0x73                                             = ??
       CODE:26a3 90 28 6f        MOV        DPTR,#0x286f
       CODE:26a6 05 79           INC        DAT_INTMEM_79                                              = ??
       CODE:26a8 e5 79           MOV        A,DAT_INTMEM_79                                            = ??
       CODE:26aa 93              MOVC       A,@A+DPTR=>DAT_CODE_286f
       CODE:26ab f5 14           MOV        BANK2_R4,A                                                 = ??
       CODE:26ad 05 79           INC        DAT_INTMEM_79                                              = ??
       CODE:26af e5 79           MOV        A,DAT_INTMEM_79                                            = ??
       CODE:26b1 93              MOVC       A,@A+DPTR=>DAT_CODE_286f
       CODE:26b2 f5 15           MOV        BANK2_R5,A                                                 = ??
       CODE:26b4 d2 75           SETB       2e.5                                                       = ??
       CODE:26b6 c2 5a           CLR        2b.2                                                       = ??
       CODE:26b8 05 79           INC        DAT_INTMEM_79                                              = ??
       CODE:26ba 02 25 b4        LJMP       FUN_CODE_25b4                                              undefined FUN_CODE_25b4()
                             -- Flow Override: CALL_RETURN (CALL_TERMINATOR)
                             LAB_CODE_26bd                                   XREF[1]:     CODE:2858(j)  
       CODE:26bd 20 75 1b        JB         2e.5,LAB_CODE_26db                                         = ??
       CODE:26c0 e5 15           MOV        A,BANK2_R5                                                 = ??
       CODE:26c2 54 10           ANL        A,#0x10
       CODE:26c4 70 0f           JNZ        LAB_CODE_26d5
       CODE:26c6 75 98 00        MOV        SCON,#0x0                                                  = ??
       CODE:26c9 e5 15           MOV        A,BANK2_R5                                                 = ??
       CODE:26cb 54 fb           ANL        A,#0xfb
       CODE:26cd b4 00 08        CJNE       A,#0x0,LAB_CODE_26d8
       CODE:26d0 05 79           INC        DAT_INTMEM_79                                              = ??
       CODE:26d2 02 25 c4        LJMP       FUN_CODE_25c4                                              undefined FUN_CODE_25c4()
                             -- Flow Override: CALL_RETURN (CALL_TERMINATOR)
                             LAB_CODE_26d5                                   XREF[1]:     CODE:26c4(j)  
       CODE:26d5 30 9f 11        JNB        SM0,LAB_CODE_26e9                                          = ??
                             LAB_CODE_26d8                                   XREF[1]:     CODE:26cd(j)  
       CODE:26d8 02 25 a3        LJMP       LAB_CODE_25a3
                             LAB_CODE_26db                                   XREF[1]:     CODE:26bd(j)  
       CODE:26db 75 98 00        MOV        SCON,#0x0                                                  = ??
       CODE:26de 75 95 88        MOV        DAT_SFR_95,#0x88                                           = ??
       CODE:26e1 75 9b 4f        MOV        DAT_SFR_9b,#0x4f                                           = ??
       CODE:26e4 75 9c ff        MOV        DAT_SFR_9c,#0xff                                           = ??
       CODE:26e7 d2 9a           SETB       RB8                                                        = ??
                             LAB_CODE_26e9                                   XREF[1]:     CODE:26d5(j)  
       CODE:26e9 c2 75           CLR        2e.5                                                       = ??
       CODE:26eb d2 5b           SETB       2b.3                                                       = ??
       CODE:26ed 75 11 72        MOV        BANK2_R1,#0x72                                             = ??
       CODE:26f0 75 12 01        MOV        BANK2_R2,#0x1                                              = ??
       CODE:26f3 75 15 f2        MOV        BANK2_R5,#0xf2                                             = ??
       CODE:26f6 c2 5c           CLR        2b.4                                                       = ??
       CODE:26f8 d2 5d           SETB       2b.5                                                       = ??
       CODE:26fa 75 13 73        MOV        BANK2_R3,#0x73                                             = ??
       CODE:26fd 75 14 01        MOV        BANK2_R4,#0x1                                              = ??
       CODE:2700 c2 5a           CLR        2b.2                                                       = ??
       CODE:2702 02 25 b4        LJMP       FUN_CODE_25b4                                              undefined FUN_CODE_25b4()
                             -- Flow Override: CALL_RETURN (CALL_TERMINATOR)
                             LAB_CODE_2705                                   XREF[1]:     CODE:285b(j)  
       CODE:2705 e5 18           MOV        A,BANK3_R0                                                 = ??
       CODE:2707 45 17           ORL        A,BANK2_R7                                                 = ??
       CODE:2709 60 1e           JZ         LAB_CODE_2729
       CODE:270b d2 51           SETB       2a.1                                                       = ??
       CODE:270d 85 44 4c        MOV        DAT_INTMEM_4c,DAT_INTMEM_44                                = ??
       CODE:2710 85 43 4b        MOV        DAT_INTMEM_4b,DAT_INTMEM_43                                = ??
       CODE:2713 78 18           MOV        R0,#0x18
       CODE:2715 79 ee           MOV        R1,#0xee
       CODE:2717 c2 d5           CLR        F0                                                         = ??
       CODE:2719 12 29 b7        LCALL      FUN_CODE_29b7                                              undefined FUN_CODE_29b7()
       CODE:271c 78 18           MOV        R0,#0x18
       CODE:271e 79 ec           MOV        R1,#0xec
       CODE:2720 12 29 d1        LCALL      FUN_CODE_29d1                                              undefined FUN_CODE_29d1()
       CODE:2723 85 17 44        MOV        DAT_INTMEM_44,BANK2_R7                                     = ??
       CODE:2726 85 18 43        MOV        DAT_INTMEM_43,BANK3_R0                                     = ??
                             LAB_CODE_2729                                   XREF[1]:     CODE:2709(j)  
       CODE:2729 e5 16           MOV        A,BANK2_R6                                                 = ??
       CODE:272b 45 15           ORL        A,BANK2_R5                                                 = ??
       CODE:272d 60 1e           JZ         LAB_CODE_274d
       CODE:272f d2 50           SETB       2a.0                                                       = ??
       CODE:2731 85 42 4a        MOV        DAT_INTMEM_4a,DAT_INTMEM_42                                = ??
       CODE:2734 85 41 49        MOV        DAT_INTMEM_49,DAT_INTMEM_41                                = ??
       CODE:2737 78 16           MOV        R0,#0x16
       CODE:2739 79 ea           MOV        R1,#0xea
       CODE:273b c2 d5           CLR        F0                                                         = ??
       CODE:273d 12 29 b7        LCALL      FUN_CODE_29b7                                              undefined FUN_CODE_29b7()
       CODE:2740 78 16           MOV        R0,#0x16
       CODE:2742 79 e8           MOV        R1,#0xe8
       CODE:2744 12 29 d1        LCALL      FUN_CODE_29d1                                              undefined FUN_CODE_29d1()
       CODE:2747 85 15 42        MOV        DAT_INTMEM_42,BANK2_R5                                     = ??
       CODE:274a 85 16 41        MOV        DAT_INTMEM_41,BANK2_R6                                     = ??
                             LAB_CODE_274d                                   XREF[1]:     CODE:272d(j)  
       CODE:274d 05 79           INC        DAT_INTMEM_79                                              = ??
       CODE:274f 02 25 c4        LJMP       FUN_CODE_25c4                                              undefined FUN_CODE_25c4()
                             -- Flow Override: CALL_RETURN (CALL_TERMINATOR)
                             LAB_CODE_2752                                   XREF[1]:     CODE:285e(j)  
       CODE:2752 e5 18           MOV        A,BANK3_R0                                                 = ??
       CODE:2754 45 17           ORL        A,BANK2_R7                                                 = ??
       CODE:2756 60 1e           JZ         LAB_CODE_2776
       CODE:2758 d2 4f           SETB       29.7                                                       = ??
       CODE:275a 85 40 48        MOV        DAT_INTMEM_48,DAT_INTMEM_40                                = ??
       CODE:275d 85 3f 47        MOV        DAT_INTMEM_47,DAT_INTMEM_3f                                = ??
       CODE:2760 78 18           MOV        R0,#0x18
       CODE:2762 79 e6           MOV        R1,#0xe6
       CODE:2764 d2 d5           SETB       F0                                                         = ??
       CODE:2766 12 29 b7        LCALL      FUN_CODE_29b7                                              undefined FUN_CODE_29b7()
       CODE:2769 78 18           MOV        R0,#0x18
       CODE:276b 79 e4           MOV        R1,#0xe4
       CODE:276d 12 29 d1        LCALL      FUN_CODE_29d1                                              undefined FUN_CODE_29d1()
       CODE:2770 85 17 40        MOV        DAT_INTMEM_40,BANK2_R7                                     = ??
       CODE:2773 85 18 3f        MOV        DAT_INTMEM_3f,BANK3_R0                                     = ??
                             LAB_CODE_2776                                   XREF[1]:     CODE:2756(j)  
       CODE:2776 05 79           INC        DAT_INTMEM_79                                              = ??
       CODE:2778 02 25 c4        LJMP       FUN_CODE_25c4                                              undefined FUN_CODE_25c4()
                             -- Flow Override: CALL_RETURN (CALL_TERMINATOR)
                             LAB_CODE_277b                                   XREF[1]:     CODE:2861(j)  
       CODE:277b e5 18           MOV        A,BANK3_R0                                                 = ??
       CODE:277d 45 17           ORL        A,BANK2_R7                                                 = ??
       CODE:277f 60 18           JZ         LAB_CODE_2799
       CODE:2781 d2 52           SETB       2a.2                                                       = ??
       CODE:2783 78 18           MOV        R0,#0x18
       CODE:2785 79 f2           MOV        R1,#0xf2
       CODE:2787 c2 d5           CLR        F0                                                         = ??
       CODE:2789 12 29 b7        LCALL      FUN_CODE_29b7                                              undefined FUN_CODE_29b7()
       CODE:278c 78 18           MOV        R0,#0x18
       CODE:278e 79 f0           MOV        R1,#0xf0
       CODE:2790 12 29 d1        LCALL      FUN_CODE_29d1                                              undefined FUN_CODE_29d1()
       CODE:2793 85 17 46        MOV        DAT_INTMEM_46,BANK2_R7                                     = ??
       CODE:2796 85 18 45        MOV        DAT_INTMEM_45,BANK3_R0                                     = ??
                             LAB_CODE_2799                                   XREF[1]:     CODE:277f(j)  
       CODE:2799 05 79           INC        DAT_INTMEM_79                                              = ??
       CODE:279b 02 25 c4        LJMP       FUN_CODE_25c4                                              undefined FUN_CODE_25c4()
                             -- Flow Override: CALL_RETURN (CALL_TERMINATOR)
                             LAB_CODE_279e                                   XREF[1]:     CODE:2864(j)  
       CODE:279e e5 78           MOV        A,DAT_INTMEM_78                                            = ??
       CODE:27a0 b4 50 05        CJNE       A,#0x50,LAB_CODE_27a8
       CODE:27a3 75 15 00        MOV        BANK2_R5,#0x0                                              = ??
       CODE:27a6 80 0b           SJMP       LAB_CODE_27b3
                             LAB_CODE_27a8                                   XREF[1]:     CODE:27a0(j)  
       CODE:27a8 b4 51 05        CJNE       A,#0x51,LAB_CODE_27b0
       CODE:27ab 75 15 02        MOV        BANK2_R5,#0x2                                              = ??
       CODE:27ae 80 03           SJMP       LAB_CODE_27b3
                             LAB_CODE_27b0                                   XREF[1]:     CODE:27a8(j)  
       CODE:27b0 75 15 01        MOV        BANK2_R5,#0x1                                              = ??
                             LAB_CODE_27b3                                   XREF[2]:     CODE:27a6(j), CODE:27ae(j)  
       CODE:27b3 05 79           INC        DAT_INTMEM_79                                              = ??
       CODE:27b5 02 25 b4        LJMP       FUN_CODE_25b4                                              undefined FUN_CODE_25b4()
                             -- Flow Override: CALL_RETURN (CALL_TERMINATOR)
                             LAB_CODE_27b8                                   XREF[1]:     CODE:2867(j)  
       CODE:27b8 e5 15           MOV        A,BANK2_R5                                                 = ??
       CODE:27ba b4 05 05        CJNE       A,#0x5,LAB_CODE_27c2
       CODE:27bd 05 79           INC        DAT_INTMEM_79                                              = ??
       CODE:27bf 02 25 c4        LJMP       FUN_CODE_25c4                                              undefined FUN_CODE_25c4()
                             -- Flow Override: CALL_RETURN (CALL_TERMINATOR)
                             LAB_CODE_27c2                                   XREF[1]:     CODE:27ba(j)  
       CODE:27c2 02 25 a3        LJMP       LAB_CODE_25a3
                             LAB_CODE_27c5                                   XREF[1]:     CODE:286a(j)  
       CODE:27c5 e5 78           MOV        A,DAT_INTMEM_78                                            = ??
       CODE:27c7 b4 50 16        CJNE       A,#0x50,LAB_CODE_27e0
       CODE:27ca e5 18           MOV        A,BANK3_R0                                                 = ??
       CODE:27cc b4 ca 0e        CJNE       A,#0xca,LAB_CODE_27dd
       CODE:27cf e5 17           MOV        A,BANK2_R7                                                 = ??
       CODE:27d1 b4 8d 09        CJNE       A,#0x8d,LAB_CODE_27dd
       CODE:27d4 75 78 51        MOV        DAT_INTMEM_78,#0x51                                        = ??
       CODE:27d7 85 78 79        MOV        DAT_INTMEM_79,DAT_INTMEM_78                                = ??
       CODE:27da 02 25 c4        LJMP       FUN_CODE_25c4                                              undefined FUN_CODE_25c4()
                             -- Flow Override: CALL_RETURN (CALL_TERMINATOR)
                             LAB_CODE_27dd                                   XREF[2]:     CODE:27cc(j), CODE:27d1(j)  
       CODE:27dd 02 25 a3        LJMP       LAB_CODE_25a3
                             LAB_CODE_27e0                                   XREF[1]:     CODE:27c7(j)  
       CODE:27e0 e5 18           MOV        A,BANK3_R0                                                 = ??
       CODE:27e2 78 e0           MOV        R0,#0xe0
       CODE:27e4 f6              MOV        @R0=>DAT_INTMEM_e0,A                                       = ??
       CODE:27e5 e5 17           MOV        A,BANK2_R7                                                 = ??
       CODE:27e7 a2 e0           MOV        CY,ACC.0                                                   = ??
       CODE:27e9 92 54           MOV        2a.4,CY                                                    = ??
       CODE:27eb 05 79           INC        DAT_INTMEM_79                                              = ??
       CODE:27ed 02 25 c4        LJMP       FUN_CODE_25c4                                              undefined FUN_CODE_25c4()
                             -- Flow Override: CALL_RETURN (CALL_TERMINATOR)
                             LAB_CODE_27f0                                   XREF[1]:     CODE:286d(j)  
       CODE:27f0 e5 59           MOV        A,DAT_INTMEM_59                                            = ??
       CODE:27f2 f5 15           MOV        BANK2_R5,A                                                 = ??
       CODE:27f4 05 79           INC        DAT_INTMEM_79                                              = ??
       CODE:27f6 02 25 b4        LJMP       FUN_CODE_25b4                                              undefined FUN_CODE_25b4()
                             -- Flow Override: CALL_RETURN (CALL_TERMINATOR)
                             LAB_CODE_27f9                                   XREF[1]:     CODE:284a(j)  
       CODE:27f9 74 01           MOV        A,#0x1
       CODE:27fb 12 23 7e        LCALL      FUN_CODE_237e                                              undefined FUN_CODE_237e()
       CODE:27fe 12 23 83        LCALL      FUN_CODE_2383                                              undefined FUN_CODE_2383()
       CODE:2801 c4              SWAP       A
       CODE:2802 54 0f           ANL        A,#0xf
       CODE:2804 f5 12           MOV        BANK2_R2,A                                                 = ??
       CODE:2806 12 23 83        LCALL      FUN_CODE_2383                                              undefined FUN_CODE_2383()
       CODE:2809 f5 14           MOV        BANK2_R4,A                                                 = ??
       CODE:280b 53 14 0f        ANL        BANK2_R4,#0xf                                              = ??
       CODE:280e c4              SWAP       A
       CODE:280f f5 16           MOV        BANK2_R6,A                                                 = ??
       CODE:2811 53 16 0f        ANL        BANK2_R6,#0xf                                              = ??
       CODE:2814 12 23 83        LCALL      FUN_CODE_2383                                              undefined FUN_CODE_2383()
       CODE:2817 a2 e7           MOV        CY,ACC.7                                                   = ??
       CODE:2819 92 5b           MOV        2b.3,CY                                                    = ??
       CODE:281b c3              CLR        CY
       CODE:281c 33              RLC        A
       CODE:281d f5 11           MOV        BANK2_R1,A                                                 = ??
       CODE:281f 12 23 83        LCALL      FUN_CODE_2383                                              undefined FUN_CODE_2383()
       CODE:2822 a2 e7           MOV        CY,ACC.7                                                   = ??
       CODE:2824 92 5c           MOV        2b.4,CY                                                    = ??
       CODE:2826 c3              CLR        CY
       CODE:2827 33              RLC        A
       CODE:2828 f5 15           MOV        BANK2_R5,A                                                 = ??
       CODE:282a 12 23 83        LCALL      FUN_CODE_2383                                              undefined FUN_CODE_2383()
       CODE:282d a2 e7           MOV        CY,ACC.7                                                   = ??
       CODE:282f 92 5d           MOV        2b.5,CY                                                    = ??
       CODE:2831 d3              SETB       CY
       CODE:2832 33              RLC        A
       CODE:2833 f5 13           MOV        BANK2_R3,A                                                 = ??
       CODE:2835 74 03           MOV        A,#0x3
       CODE:2837 12 23 99        LCALL      FUN_CODE_2399                                              undefined FUN_CODE_2399()
       CODE:283a d2 5a           SETB       2b.2                                                       = ??
       CODE:283c 05 79           INC        DAT_INTMEM_79                                              = ??
       CODE:283e 02 25 b4        LJMP       FUN_CODE_25b4                                              undefined FUN_CODE_25b4()
                             -- Flow Override: CALL_RETURN (CALL_TERMINATOR)
                             LAB_CODE_2841                                   XREF[1]:     FUN_CODE_25c4:25ca(*)  
       CODE:2841 02 25 ce        LJMP       LAB_CODE_25ce
       CODE:2844 02 25 ee        LJMP       LAB_CODE_25ee
       CODE:2847 02 25 f2        LJMP       LAB_CODE_25f2
       CODE:284a 80 ad           SJMP       LAB_CODE_27f9
       CODE:284c 02 25 f6        LJMP       LAB_CODE_25f6
       CODE:284f 02 26 3e        LJMP       LAB_CODE_263e
       CODE:2852 02 26 61        LJMP       LAB_CODE_2661
       CODE:2855 02 26 94        LJMP       LAB_CODE_2694
       CODE:2858 02 26 bd        LJMP       LAB_CODE_26bd
       CODE:285b 02 27 05        LJMP       LAB_CODE_2705
       CODE:285e 02 27 52        LJMP       LAB_CODE_2752
       CODE:2861 02 27 7b        LJMP       LAB_CODE_277b
       CODE:2864 02 27 9e        LJMP       LAB_CODE_279e
       CODE:2867 02 27 b8        LJMP       LAB_CODE_27b8
       CODE:286a 02 27 c5        LJMP       LAB_CODE_27c5
       CODE:286d 80 81           SJMP       LAB_CODE_27f0
                             DAT_CODE_286f                                   XREF[13]:    FUN_CODE_25c4:25c4(*), 
                                                                                          FUN_CODE_25c4:25c9(*), 
                                                                                          CODE:2609(*), CODE:2613(*), 
                                                                                          CODE:261a(*), CODE:2621(*), 
                                                                                          CODE:2634(*), CODE:2657(*), 
                                                                                          CODE:2671(*), CODE:267c(*), 
                                                                                          CODE:2685(*), CODE:26aa(*), 
                                                                                          CODE:26b1(*)  
       CODE:286f 00              ??         00h
       CODE:2870 09              ??         09h
       CODE:2871 03              ??         03h
       CODE:2872 00              ??         00h
       CODE:2873 0b              ??         0Bh
       CODE:2874 e4              ??         E4h
       CODE:2875 00              ??         00h
       CODE:2876 00              ??         00h
       CODE:2877 00              ??         00h
       CODE:2878 1b              ??         1Bh
       CODE:2879 0b              ??         0Bh
       CODE:287a e3              ??         E3h
       CODE:287b 0f              ??         0Fh
       CODE:287c ff              ??         FFh
       CODE:287d ff              ??         FFh
       CODE:287e ff              ??         FFh
       CODE:287f 0b              ??         0Bh
       CODE:2880 db              ??         DBh
       CODE:2881 00              ??         00h
       CODE:2882 00              ??         00h
       CODE:2883 00              ??         00h
       CODE:2884 0b              ??         0Bh
       CODE:2885 d5              ??         D5h
       CODE:2886 00              ??         00h
       CODE:2887 00              ??         00h
       CODE:2888 00              ??         00h
       CODE:2889 00              ??         00h
       CODE:288a 0b              ??         0Bh
       CODE:288b d9              ??         D9h
       CODE:288c 00              ??         00h
       CODE:288d 00              ??         00h
       CODE:288e 00              ??         00h
       CODE:288f 08              ??         08h
       CODE:2890 0b              ??         0Bh
       CODE:2891 d4              ??         D4h
       CODE:2892 09              ??         09h
       CODE:2893 90              ??         90h
       CODE:2894 e0              ??         E0h
       CODE:2895 0e              ??         0Eh
       CODE:2896 0b              ??         0Bh
       CODE:2897 ce              ??         CEh
       CODE:2898 08              ??         08h
       CODE:2899 e8              ??         E8h
       CODE:289a 40              ??         40h    @
       CODE:289b 14              ??         14h
       CODE:289c 0b              ??         0Bh
       CODE:289d dc              ??         DCh
       CODE:289e 00              ??         00h
       CODE:289f 00              ??         00h
       CODE:28a0 42              ??         42h    B
       CODE:28a1 aa              ??         AAh
       CODE:28a2 03              ??         03h
       CODE:28a3 00              ??         00h
       CODE:28a4 0b              ??         0Bh
       CODE:28a5 d9              ??         D9h
       CODE:28a6 00              ??         00h
       CODE:28a7 00              ??         00h
       CODE:28a8 00              ??         00h
       CODE:28a9 20              ??         20h     
       CODE:28aa 0b              ??         0Bh
       CODE:28ab e3              ??         E3h
       CODE:28ac 84              ??         84h
       CODE:28ad 36              ??         36h    6
       CODE:28ae f6              ??         F6h
       CODE:28af 66              ??         66h    f
       CODE:28b0 03              ??         03h
       CODE:28b1 00              ??         00h
       CODE:28b2 0b              ??         0Bh
       CODE:28b3 e3              ??         E3h
       CODE:28b4 0f              ??         0Fh
       CODE:28b5 ff              ??         FFh
       CODE:28b6 ff              ??         FFh
       CODE:28b7 ff              ??         FFh
       CODE:28b8 0b              ??         0Bh
       CODE:28b9 d9              ??         D9h
       CODE:28ba 00              ??         00h
       CODE:28bb 00              ??         00h
       CODE:28bc 00              ??         00h
       CODE:28bd 08              ??         08h
       CODE:28be 03              ??         03h
       CODE:28bf 06              ??         06h
       CODE:28c0 06              ??         06h
       CODE:28c1 00              ??         00h
       CODE:28c2 11              ??         11h
       CODE:28c3 02              ??         02h
       CODE:28c4 f3              ??         F3h
       CODE:28c5 0f              ??         0Fh
       CODE:28c6 01              ??         01h
       CODE:28c7 11              ??         11h
       CODE:28c8 02              ??         02h
       CODE:28c9 f3              ??         F3h
       CODE:28ca 0a              ??         0Ah
       CODE:28cb 01              ??         01h
       CODE:28cc 11              ??         11h
       CODE:28cd 02              ??         02h
       CODE:28ce ec              ??         ECh
       CODE:28cf 90              ??         90h
       CODE:28d0 01              ??         01h
       CODE:28d1 11              ??         11h
       CODE:28d2 05              ??         05h
       CODE:28d3 ec              ??         ECh
       CODE:28d4 00              ??         00h
       CODE:28d5 90              ??         90h
       CODE:28d6 00              ??         00h
       CODE:28d7 00              ??         00h
       CODE:28d8 00              ??         00h
       CODE:28d9 23              ??         23h    #
       CODE:28da 11              ??         11h
       CODE:28db 05              ??         05h
       CODE:28dc f0              ??         F0h
       CODE:28dd 05              ??         05h
       CODE:28de 00              ??         00h
       CODE:28df 00              ??         00h
       CODE:28e0 09              ??         09h
       CODE:28e1 01              ??         01h
       CODE:28e2 11              ??         11h
       CODE:28e3 02              ??         02h
       CODE:28e4 f3              ??         F3h
       CODE:28e5 02              ??         02h
       CODE:28e6 01              ??         01h
       CODE:28e7 17              ??         17h
       CODE:28e8 14              ??         14h
       CODE:28e9 01              ??         01h
       CODE:28ea f5              ??         F5h
       CODE:28eb 26              ??         26h    &
       CODE:28ec 14              ??         14h
       CODE:28ed 05              ??         05h
       CODE:28ee f4              ??         F4h
       CODE:28ef 29              ??         29h    )
       CODE:28f0 03              ??         03h
       CODE:28f1 00              ??         00h
       CODE:28f2 0e              ??         0Eh
       CODE:28f3 e0              ??         E0h
       CODE:28f4 1a              ??         1Ah
       CODE:28f5 0e              ??         0Eh
       CODE:28f6 e1              ??         E1h
       CODE:28f7 1d              ??         1Dh
       CODE:28f8 0e              ??         0Eh
       CODE:28f9 e2              ??         E2h
       CODE:28fa 20              ??         20h     
       CODE:28fb 03              ??         03h
       CODE:28fc 00              ??         00h
       CODE:28fd 11              ??         11h
       CODE:28fe 02              ??         02h
       CODE:28ff f3              ??         F3h
       CODE:2900 0f              ??         0Fh
       CODE:2901 01              ??         01h
       CODE:2902 11              ??         11h
       CODE:2903 02              ??         02h
       CODE:2904 f3              ??         F3h
       CODE:2905 0a              ??         0Ah
       CODE:2906 01              ??         01h
       CODE:2907 11              ??         11h
       CODE:2908 02              ??         02h
       CODE:2909 ec              ??         ECh
       CODE:290a 90              ??         90h
       CODE:290b 01              ??         01h
       CODE:290c 11              ??         11h
       CODE:290d 05              ??         05h
       CODE:290e ec              ??         ECh
       CODE:290f 00              ??         00h
       CODE:2910 60              ??         60h    `
       CODE:2911 00              ??         00h
       CODE:2912 00              ??         00h
       CODE:2913 00              ??         00h
       CODE:2914 2c              ??         2Ch    ,
       CODE:2915 11              ??         11h
       CODE:2916 05              ??         05h
       CODE:2917 f0              ??         F0h
       CODE:2918 00              ??         00h
       CODE:2919 00              ??         00h
       CODE:291a 00              ??         00h
       CODE:291b 09              ??         09h
       CODE:291c 01              ??         01h
       CODE:291d 11              ??         11h
       CODE:291e 02              ??         02h
       CODE:291f f3              ??         F3h
       CODE:2920 06              ??         06h
       CODE:2921 01              ??         01h
       CODE:2922 17              ??         17h
       CODE:2923 03              ??         03h
                             **************************************************************
                             *                          FUNCTION                          *
                             **************************************************************
                             undefined FUN_CODE_2924()
             undefined         ACC:1          <RETURN>
                             FUN_CODE_2924                                   XREF[6]:     FUN_CODE_258f:2597(c), 
                                                                                          FUN_CODE_258f:259d(c), 
                                                                                          CODE:25df(c), CODE:25e4(c), 
                                                                                          FUN_CODE_294e:2953(c), 
                                                                                          FUN_CODE_294e:2958(c)  
       CODE:2924 f2              MOVX       @R0,A
       CODE:2925 f2              MOVX       @R0,A
       CODE:2926 f2              MOVX       @R0,A
       CODE:2927 f2              MOVX       @R0,A
       CODE:2928 f2              MOVX       @R0,A
       CODE:2929 f2              MOVX       @R0,A
       CODE:292a f2              MOVX       @R0,A
       CODE:292b f2              MOVX       @R0,A
       CODE:292c f2              MOVX       @R0,A
       CODE:292d f2              MOVX       @R0,A
       CODE:292e f2              MOVX       @R0,A
       CODE:292f f2              MOVX       @R0,A
       CODE:2930 f2              MOVX       @R0,A
       CODE:2931 f2              MOVX       @R0,A
       CODE:2932 f2              MOVX       @R0,A
       CODE:2933 22              RET
                             **************************************************************
                             *                          FUNCTION                          *
                             **************************************************************
                             undefined FUN_CODE_2934()
             undefined         ACC:1          <RETURN>
                             FUN_CODE_2934                                   XREF[2]:     CODE:25d1(c), 
                                                                                          FUN_CODE_294e:295b(c)  
       CODE:2934 a2 c9           MOV        CY,CT2                                                     = ??
       CODE:2936 b3              CPL        CY
       CODE:2937 22              RET
                             **************************************************************
                             *                          FUNCTION                          *
                             **************************************************************
                             undefined FUN_CODE_2938()
             undefined         ACC:1          <RETURN>
                             FUN_CODE_2938                                   XREF[1]:     CODE:25e7(c)  
       CODE:2938 75 db 00        MOV        CCAPM1,#0x0                                                = ??
       CODE:293b 75 dc 00        MOV        CCAPM2,#0x0                                                = ??
       CODE:293e 75 dd e1        MOV        CCAPM3,#0xe1                                               = ??
       CODE:2941 75 de 83        MOV        CCAPM4,#0x83                                               = ??
       CODE:2944 75 d8 b0        MOV        CCON,#0xb0                                                 = ??
       CODE:2947 75 88 00        MOV        TCON,#0x0                                                  = ??
       CODE:294a 75 95 88        MOV        DAT_SFR_95,#0x88                                           = ??
       CODE:294d 22              RET
                             **************************************************************
                             *                          FUNCTION                          *
                             **************************************************************
                             undefined FUN_CODE_294e()
             undefined         ACC:1          <RETURN>
                             FUN_CODE_294e                                   XREF[1]:     CODE:25d6(c)  
       CODE:294e 75 15 09        MOV        BANK2_R5,#0x9                                              = ??
                             LAB_CODE_2951                                   XREF[1]:     CODE:2962(j)  
       CODE:2951 c2 c8           CLR        CPRL2                                                      = ??
       CODE:2953 12 29 24        LCALL      FUN_CODE_2924                                              undefined FUN_CODE_2924()
       CODE:2956 d2 c8           SETB       CPRL2                                                      = ??
       CODE:2958 12 29 24        LCALL      FUN_CODE_2924                                              undefined FUN_CODE_2924()
       CODE:295b 12 29 34        LCALL      FUN_CODE_2934                                              undefined FUN_CODE_2934()
       CODE:295e 40 02           JC         LAB_CODE_2962
       CODE:2960 c3              CLR        CY
       CODE:2961 22              RET
                             LAB_CODE_2962                                   XREF[1]:     CODE:295e(j)  
       CODE:2962 d5 15 ec        DJNZ       BANK2_R5,LAB_CODE_2951                                     = ??
       CODE:2965 d3              SETB       CY
       CODE:2966 22              RET
                             **************************************************************
                             *                          FUNCTION                          *
                             **************************************************************
                             undefined FUN_CODE_2967()
             undefined         ACC:1          <RETURN>
                             FUN_CODE_2967                                   XREF[1]:     FUN_CODE_1973:1973(c)  
       CODE:2967 c3              CLR        CY
       CODE:2968 e4              CLR        A
       CODE:2969 30 61 04        JNB        2c.1,LAB_CODE_2970                                         = ??
       CODE:296c e5 6b           MOV        A,DAT_INTMEM_6b                                            = ??
       CODE:296e c2 61           CLR        2c.1                                                       = ??
                             LAB_CODE_2970                                   XREF[1]:     CODE:2969(j)  
       CODE:2970 22              RET
                             **************************************************************
                             *                          FUNCTION                          *
                             **************************************************************
                             undefined FUN_CODE_2971()
             undefined         ACC:1          <RETURN>
                             FUN_CODE_2971                                   XREF[16]:    CODE:1709(c), CODE:1719(c), 
                                                                                          CODE:1753(c), CODE:1764(c), 
                                                                                          CODE:1770(c), CODE:1785(c), 
                                                                                          CODE:17a3(c), CODE:17fe(c), 
                                                                                          CODE:181a(c), CODE:1836(c), 
                                                                                          CODE:1882(c), CODE:188b(c), 
                                                                                          CODE:18bb(c), CODE:18cf(c), 
                                                                                          CODE:190d(c), CODE:196d(c)  
       CODE:2971 f5 6c           MOV        DAT_INTMEM_6c,A                                            = ??
       CODE:2973 85 f0 6d        MOV        DAT_INTMEM_6d,B                                            = ??
       CODE:2976 78 e1           MOV        R0,#0xe1
       CODE:2978 f6              MOV        @R0=>DAT_INTMEM_e1,A                                       = ??
       CODE:2979 75 7c 03        MOV        DAT_INTMEM_7c,#0x3                                         = ??
       CODE:297c 75 6e 00        MOV        DAT_INTMEM_6e,#0x0                                         = ??
                             LAB_CODE_297f                                   XREF[1]:     FUN_CODE_299a:29b5(j)  
       CODE:297f c2 64           CLR        2c.4                                                       = ??
       CODE:2981 c2 65           CLR        2c.5                                                       = ??
       CODE:2983 d2 63           SETB       2c.3                                                       = ??
       CODE:2985 e5 6c           MOV        A,DAT_INTMEM_6c                                            = ??
       CODE:2987 20 e7 06        JB         ACC.7,LAB_CODE_2990                                        = ??
       CODE:298a 20 e6 06        JB         ACC.6,LAB_CODE_2993                                        = ??
       CODE:298d 20 e5 05        JB         ACC.5,LAB_CODE_2995                                        = ??
                             LAB_CODE_2990                                   XREF[1]:     CODE:2987(j)  
       CODE:2990 d2 62           SETB       2c.2                                                       = ??
       CODE:2992 22              RET
                             LAB_CODE_2993                                   XREF[1]:     CODE:298a(j)  
       CODE:2993 d2 65           SETB       2c.5                                                       = ??
                             LAB_CODE_2995                                   XREF[1]:     CODE:298d(j)  
       CODE:2995 d2 64           SETB       2c.4                                                       = ??
       CODE:2997 d2 62           SETB       2c.2                                                       = ??
       CODE:2999 22              RET
                             **************************************************************
                             *                          FUNCTION                          *
                             **************************************************************
                             undefined FUN_CODE_299a()
             undefined         ACC:1          <RETURN>
                             FUN_CODE_299a                                   XREF[7]:     CODE:1892(c), CODE:1899(c), 
                                                                                          CODE:18c0(c), CODE:18fd(c), 
                                                                                          CODE:1912(c), CODE:192a(c), 
                                                                                          CODE:193f(c)  
       CODE:299a c3              CLR        CY
       CODE:299b 20 62 08        JB         2c.2,LAB_CODE_29a6                                         = ??
       CODE:299e 20 63 06        JB         2c.3,LAB_CODE_29a7                                         = ??
       CODE:29a1 d3              SETB       CY
       CODE:29a2 c2 d5           CLR        F0                                                         = ??
       CODE:29a4 e5 6d           MOV        A,DAT_INTMEM_6d                                            = ??
                             LAB_CODE_29a6                                   XREF[1]:     CODE:299b(j)  
       CODE:29a6 22              RET
                             LAB_CODE_29a7                                   XREF[1]:     CODE:299e(j)  
       CODE:29a7 d5 7c 04        DJNZ       DAT_INTMEM_7c,LAB_CODE_29ae                                = ??
       CODE:29aa d3              SETB       CY
       CODE:29ab d2 d5           SETB       F0                                                         = ??
       CODE:29ad 22              RET
                             LAB_CODE_29ae                                   XREF[1]:     CODE:29a7(j)  
       CODE:29ae 78 e1           MOV        R0,#0xe1
       CODE:29b0 86 6c           MOV        DAT_INTMEM_6c,@R0=>DAT_INTMEM_e1                           = ??
       CODE:29b2 75 6e 14        MOV        DAT_INTMEM_6e,#0x14                                        = ??
       CODE:29b5 80 c8           SJMP       LAB_CODE_297f
                             **************************************************************
                             *                          FUNCTION                          *
                             **************************************************************
                             undefined FUN_CODE_29b7()
             undefined         ACC:1          <RETURN>
                             FUN_CODE_29b7                                   XREF[4]:     CODE:2719(c), CODE:273d(c), 
                                                                                          CODE:2766(c), CODE:2789(c)  
       CODE:29b7 c3              CLR        CY
       CODE:29b8 e6              MOV        A,@R0
       CODE:29b9 97              SUBB       A,@R1
       CODE:29ba 30 d5 01        JNB        F0,LAB_CODE_29be                                           = ??
       CODE:29bd f4              CPL        A
                             LAB_CODE_29be                                   XREF[1]:     CODE:29ba(j)  
       CODE:29be f6              MOV        @R0,A
       CODE:29bf 18              DEC        R0
       CODE:29c0 19              DEC        R1
       CODE:29c1 e6              MOV        A,@R0
       CODE:29c2 97              SUBB       A,@R1
       CODE:29c3 30 d5 02        JNB        F0,LAB_CODE_29c8                                           = ??
       CODE:29c6 f4              CPL        A
       CODE:29c7 b3              CPL        CY
                             LAB_CODE_29c8                                   XREF[1]:     CODE:29c3(j)  
       CODE:29c8 f6              MOV        @R0,A
       CODE:29c9 50 05           JNC        LAB_CODE_29d0
       CODE:29cb 76 00           MOV        @R0,#0x0
       CODE:29cd 08              INC        R0
       CODE:29ce 76 00           MOV        @R0,#0x0
                             LAB_CODE_29d0                                   XREF[1]:     CODE:29c9(j)  
       CODE:29d0 22              RET
                             **************************************************************
                             *                          FUNCTION                          *
                             **************************************************************
                             undefined FUN_CODE_29d1()
             undefined         ACC:1          <RETURN>
                             FUN_CODE_29d1                                   XREF[4]:     CODE:2720(c), CODE:2744(c), 
                                                                                          CODE:276d(c), CODE:2790(c)  
       CODE:29d1 e6              MOV        A,@R0
       CODE:29d2 87 f0           MOV        B,@R1
       CODE:29d4 a4              MUL        AB
       CODE:29d5 aa f0           MOV        R2,B
       CODE:29d7 18              DEC        R0
       CODE:29d8 e6              MOV        A,@R0
       CODE:29d9 87 f0           MOV        B,@R1
       CODE:29db a4              MUL        AB
       CODE:29dc 2a              ADD        A,R2
       CODE:29dd fa              MOV        R2,A
       CODE:29de e5 f0           MOV        A,B
       CODE:29e0 34 00           ADDC       A,#0x0
       CODE:29e2 fb              MOV        R3,A
       CODE:29e3 08              INC        R0
       CODE:29e4 19              DEC        R1
       CODE:29e5 e6              MOV        A,@R0
       CODE:29e6 87 f0           MOV        B,@R1
       CODE:29e8 a4              MUL        AB
       CODE:29e9 2a              ADD        A,R2
       CODE:29ea fa              MOV        R2,A
       CODE:29eb e5 f0           MOV        A,B
       CODE:29ed 3b              ADDC       A,R3
       CODE:29ee fb              MOV        R3,A
       CODE:29ef 74 00           MOV        A,#0x0
       CODE:29f1 34 00           ADDC       A,#0x0
       CODE:29f3 fc              MOV        R4,A
       CODE:29f4 18              DEC        R0
       CODE:29f5 e6              MOV        A,@R0
       CODE:29f6 87 f0           MOV        B,@R1
       CODE:29f8 a4              MUL        AB
       CODE:29f9 2b              ADD        A,R3
       CODE:29fa fb              MOV        R3,A
       CODE:29fb e5 f0           MOV        A,B
       CODE:29fd 3c              ADDC       A,R4
       CODE:29fe fc              MOV        R4,A
       CODE:29ff 7d 03           MOV        R5,#0x3
                             LAB_CODE_2a01                                   XREF[1]:     CODE:2a0c(j)  
       CODE:2a01 ea              MOV        A,R2
       CODE:2a02 33              RLC        A
       CODE:2a03 fa              MOV        R2,A
       CODE:2a04 eb              MOV        A,R3
       CODE:2a05 33              RLC        A
       CODE:2a06 fb              MOV        R3,A
       CODE:2a07 ec              MOV        A,R4
       CODE:2a08 33              RLC        A
       CODE:2a09 fc              MOV        R4,A
       CODE:2a0a 40 0e           JC         LAB_CODE_2a1a
       CODE:2a0c dd f3           DJNZ       R5,LAB_CODE_2a01
       CODE:2a0e ec              MOV        A,R4
       CODE:2a0f 70 04           JNZ        LAB_CODE_2a15
       CODE:2a11 74 01           MOV        A,#0x1
       CODE:2a13 7b 00           MOV        R3,#0x0
                             LAB_CODE_2a15                                   XREF[2]:     CODE:2a0f(j), CODE:2a1e(j)  
       CODE:2a15 f6              MOV        @R0,A
       CODE:2a16 08              INC        R0
       CODE:2a17 eb              MOV        A,R3
       CODE:2a18 f6              MOV        @R0,A
       CODE:2a19 22              RET
                             LAB_CODE_2a1a                                   XREF[1]:     CODE:2a0a(j)  
       CODE:2a1a 74 ff           MOV        A,#0xff
       CODE:2a1c 7b ff           MOV        R3,#0xff
       CODE:2a1e 80 f5           SJMP       LAB_CODE_2a15
                             **************************************************************
                             *                          FUNCTION                          *
                             **************************************************************
                             undefined FUN_CODE_2a20()
             undefined         ACC:1          <RETURN>
                             FUN_CODE_2a20                                   XREF[1]:     FUN_CODE_1b47:1b4f(c)  
       CODE:2a20 30 60 1d        JNB        2c.0,LAB_CODE_2a40                                         = ??
       CODE:2a23 e5 70           MOV        A,DAT_INTMEM_70                                            = ??
       CODE:2a25 70 1b           JNZ        LAB_CODE_2a42
       CODE:2a27 e5 71           MOV        A,DAT_INTMEM_71                                            = ??
       CODE:2a29 a2 e3           MOV        CY,ACC.3                                                   = ??
       CODE:2a2b 92 d5           MOV        F0,CY                                                      = ??
       CODE:2a2d 12 2b f7        LCALL      FUN_CODE_2bf7                                              undefined FUN_CODE_2bf7()
       CODE:2a30 50 0c           JNC        LAB_CODE_2a3e
       CODE:2a32 e4              CLR        A
       CODE:2a33 d2 e6           SETB       ACC.6                                                      = ??
       CODE:2a35 a2 d5           MOV        CY,F0                                                      = ??
       CODE:2a37 92 e7           MOV        ACC.7,CY                                                   = ??
       CODE:2a39 aa 72           MOV        R2,DAT_INTMEM_72                                           = ??
                             LAB_CODE_2a3b                                   XREF[3]:     CODE:2a53(j), CODE:2a87(j), 
                                                                                          CODE:2a9b(j)  
       CODE:2a3b c2 60           CLR        2c.0                                                       = ??
       CODE:2a3d 22              RET
                             LAB_CODE_2a3e                                   XREF[7]:     CODE:2a30(j), CODE:2a48(j), 
                                                                                          CODE:2a4d(j), CODE:2a5b(j), 
                                                                                          CODE:2a60(j), CODE:2a8c(j), 
                                                                                          CODE:2a91(j)  
       CODE:2a3e c2 60           CLR        2c.0                                                       = ??
                             LAB_CODE_2a40                                   XREF[1]:     CODE:2a20(j)  
       CODE:2a40 e4              CLR        A
       CODE:2a41 22              RET
                             LAB_CODE_2a42                                   XREF[1]:     CODE:2a25(j)  
       CODE:2a42 b4 07 10        CJNE       A,#0x7,LAB_CODE_2a55
       CODE:2a45 12 2a 9d        LCALL      FUN_CODE_2a9d                                              undefined FUN_CODE_2a9d()
       CODE:2a48 70 f4           JNZ        LAB_CODE_2a3e
       CODE:2a4a 12 2b f3        LCALL      FUN_CODE_2bf3                                              undefined FUN_CODE_2bf3()
       CODE:2a4d 50 ef           JNC        LAB_CODE_2a3e
       CODE:2a4f e5 70           MOV        A,DAT_INTMEM_70                                            = ??
       CODE:2a51 aa 74           MOV        R2,DAT_INTMEM_74                                           = ??
       CODE:2a53 80 e6           SJMP       LAB_CODE_2a3b
                             LAB_CODE_2a55                                   XREF[1]:     CODE:2a42(j)  
       CODE:2a55 b4 01 31        CJNE       A,#0x1,LAB_CODE_2a89
       CODE:2a58 12 2a e0        LCALL      FUN_CODE_2ae0                                              undefined FUN_CODE_2ae0()
       CODE:2a5b 70 e1           JNZ        LAB_CODE_2a3e
       CODE:2a5d 12 2b f3        LCALL      FUN_CODE_2bf3                                              undefined FUN_CODE_2bf3()
       CODE:2a60 50 dc           JNC        LAB_CODE_2a3e
       CODE:2a62 e5 74           MOV        A,DAT_INTMEM_74                                            = ??
       CODE:2a64 33              RLC        A
       CODE:2a65 f5 74           MOV        DAT_INTMEM_74,A                                            = ??
       CODE:2a67 e5 73           MOV        A,DAT_INTMEM_73                                            = ??
       CODE:2a69 33              RLC        A
       CODE:2a6a f5 73           MOV        DAT_INTMEM_73,A                                            = ??
       CODE:2a6c e5 72           MOV        A,DAT_INTMEM_72                                            = ??
       CODE:2a6e 33              RLC        A
       CODE:2a6f f5 72           MOV        DAT_INTMEM_72,A                                            = ??
       CODE:2a71 e5 74           MOV        A,DAT_INTMEM_74                                            = ??
       CODE:2a73 23              RL         A
       CODE:2a74 23              RL         A
       CODE:2a75 54 03           ANL        A,#0x3
       CODE:2a77 fc              MOV        R4,A
       CODE:2a78 e5 73           MOV        A,DAT_INTMEM_73                                            = ??
       CODE:2a7a a2 e7           MOV        CY,ACC.7                                                   = ??
       CODE:2a7c c2 e7           CLR        ACC.7                                                      = ??
       CODE:2a7e fb              MOV        R3,A
       CODE:2a7f e5 72           MOV        A,DAT_INTMEM_72                                            = ??
       CODE:2a81 33              RLC        A
       CODE:2a82 c2 e7           CLR        ACC.7                                                      = ??
       CODE:2a84 fa              MOV        R2,A
       CODE:2a85 e5 70           MOV        A,DAT_INTMEM_70                                            = ??
       CODE:2a87 80 b2           SJMP       LAB_CODE_2a3b
                             LAB_CODE_2a89                                   XREF[1]:     CODE:2a55(j)  
       CODE:2a89 12 2b 5a        LCALL      FUN_CODE_2b5a                                              undefined FUN_CODE_2b5a()
       CODE:2a8c 70 b0           JNZ        LAB_CODE_2a3e
       CODE:2a8e 12 2b f3        LCALL      FUN_CODE_2bf3                                              undefined FUN_CODE_2bf3()
       CODE:2a91 50 ab           JNC        LAB_CODE_2a3e
       CODE:2a93 e5 70           MOV        A,DAT_INTMEM_70                                            = ??
       CODE:2a95 aa 72           MOV        R2,DAT_INTMEM_72                                           = ??
       CODE:2a97 ab 73           MOV        R3,DAT_INTMEM_73                                           = ??
       CODE:2a99 ac 74           MOV        R4,DAT_INTMEM_74                                           = ??
       CODE:2a9b 80 9e           SJMP       LAB_CODE_2a3b
                             **************************************************************
                             *                          FUNCTION                          *
                             **************************************************************
                             undefined FUN_CODE_2a9d()
             undefined         ACC:1          <RETURN>
                             FUN_CODE_2a9d                                   XREF[1]:     FUN_CODE_2a20:2a45(c)  
       CODE:2a9d e4              CLR        A
       CODE:2a9e 85 71 f0        MOV        B,DAT_INTMEM_71                                            = ??
       CODE:2aa1 30 f7 02        JNB        B.7,LAB_CODE_2aa6                                          = ??
       CODE:2aa4 64 0f           XRL        A,#0xf
                             LAB_CODE_2aa6                                   XREF[1]:     CODE:2aa1(j)  
       CODE:2aa6 30 f6 02        JNB        B.6,LAB_CODE_2aab                                          = ??
       CODE:2aa9 64 0e           XRL        A,#0xe
                             LAB_CODE_2aab                                   XREF[1]:     CODE:2aa6(j)  
       CODE:2aab 30 f5 02        JNB        B.5,LAB_CODE_2ab0                                          = ??
       CODE:2aae 64 0d           XRL        A,#0xd
                             LAB_CODE_2ab0                                   XREF[1]:     CODE:2aab(j)  
       CODE:2ab0 85 74 f0        MOV        B,DAT_INTMEM_74                                            = ??
       CODE:2ab3 30 f7 02        JNB        B.7,LAB_CODE_2ab8                                          = ??
       CODE:2ab6 64 0c           XRL        A,#0xc
                             LAB_CODE_2ab8                                   XREF[1]:     CODE:2ab3(j)  
       CODE:2ab8 30 f6 02        JNB        B.6,LAB_CODE_2abd                                          = ??
       CODE:2abb 64 0b           XRL        A,#0xb
                             LAB_CODE_2abd                                   XREF[1]:     CODE:2ab8(j)  
       CODE:2abd 30 f5 02        JNB        B.5,LAB_CODE_2ac2                                          = ??
       CODE:2ac0 64 0a           XRL        A,#0xa
                             LAB_CODE_2ac2                                   XREF[1]:     CODE:2abd(j)  
       CODE:2ac2 30 f4 02        JNB        B.4,LAB_CODE_2ac7                                          = ??
       CODE:2ac5 64 09           XRL        A,#0x9
                             LAB_CODE_2ac7                                   XREF[1]:     CODE:2ac2(j)  
       CODE:2ac7 30 f3 02        JNB        B.3,LAB_CODE_2acc                                          = ??
       CODE:2aca 64 07           XRL        A,#0x7
                             LAB_CODE_2acc                                   XREF[1]:     CODE:2ac7(j)  
       CODE:2acc 30 f2 02        JNB        B.2,LAB_CODE_2ad1                                          = ??
       CODE:2acf 64 06           XRL        A,#0x6
                             LAB_CODE_2ad1                                   XREF[1]:     CODE:2acc(j)  
       CODE:2ad1 30 f1 02        JNB        B.1,LAB_CODE_2ad6                                          = ??
       CODE:2ad4 64 05           XRL        A,#0x5
                             LAB_CODE_2ad6                                   XREF[1]:     CODE:2ad1(j)  
       CODE:2ad6 30 f0 02        JNB        B.0,LAB_CODE_2adb                                          = ??
       CODE:2ad9 64 03           XRL        A,#0x3
                             LAB_CODE_2adb                                   XREF[1]:     CODE:2ad6(j)  
       CODE:2adb 65 71           XRL        A,DAT_INTMEM_71                                            = ??
       CODE:2add 54 1f           ANL        A,#0x1f
       CODE:2adf 22              RET
                             **************************************************************
                             *                          FUNCTION                          *
                             **************************************************************
                             undefined FUN_CODE_2ae0()
             undefined         ACC:1          <RETURN>
                             FUN_CODE_2ae0                                   XREF[1]:     FUN_CODE_2a20:2a58(c)  
       CODE:2ae0 e5 74           MOV        A,DAT_INTMEM_74                                            = ??
       CODE:2ae2 f4              CPL        A
       CODE:2ae3 65 71           XRL        A,DAT_INTMEM_71                                            = ??
       CODE:2ae5 54 1f           ANL        A,#0x1f
       CODE:2ae7 70 70           JNZ        LAB_CODE_2b59
       CODE:2ae9 e4              CLR        A
       CODE:2aea 85 71 f0        MOV        B,DAT_INTMEM_71                                            = ??
       CODE:2aed 30 f7 02        JNB        B.7,LAB_CODE_2af2                                          = ??
       CODE:2af0 64 18           XRL        A,#0x18
                             LAB_CODE_2af2                                   XREF[1]:     CODE:2aed(j)  
       CODE:2af2 30 f6 02        JNB        B.6,LAB_CODE_2af7                                          = ??
       CODE:2af5 64 17           XRL        A,#0x17
                             LAB_CODE_2af7                                   XREF[1]:     CODE:2af2(j)  
       CODE:2af7 30 f5 02        JNB        B.5,LAB_CODE_2afc                                          = ??
       CODE:2afa 64 16           XRL        A,#0x16
                             LAB_CODE_2afc                                   XREF[1]:     CODE:2af7(j)  
       CODE:2afc 85 72 f0        MOV        B,DAT_INTMEM_72                                            = ??
       CODE:2aff 30 f4 02        JNB        B.4,LAB_CODE_2b04                                          = ??
       CODE:2b02 64 15           XRL        A,#0x15
                             LAB_CODE_2b04                                   XREF[1]:     CODE:2aff(j)  
       CODE:2b04 30 f3 02        JNB        B.3,LAB_CODE_2b09                                          = ??
       CODE:2b07 64 14           XRL        A,#0x14
                             LAB_CODE_2b09                                   XREF[1]:     CODE:2b04(j)  
       CODE:2b09 30 f2 02        JNB        B.2,LAB_CODE_2b0e                                          = ??
       CODE:2b0c 64 13           XRL        A,#0x13
                             LAB_CODE_2b0e                                   XREF[1]:     CODE:2b09(j)  
       CODE:2b0e 30 f1 02        JNB        B.1,LAB_CODE_2b13                                          = ??
       CODE:2b11 64 12           XRL        A,#0x12
                             LAB_CODE_2b13                                   XREF[1]:     CODE:2b0e(j)  
       CODE:2b13 30 f0 02        JNB        B.0,LAB_CODE_2b18                                          = ??
       CODE:2b16 64 11           XRL        A,#0x11
                             LAB_CODE_2b18                                   XREF[1]:     CODE:2b13(j)  
       CODE:2b18 85 73 f0        MOV        B,DAT_INTMEM_73                                            = ??
       CODE:2b1b 30 f7 02        JNB        B.7,LAB_CODE_2b20                                          = ??
       CODE:2b1e 64 0f           XRL        A,#0xf
                             LAB_CODE_2b20                                   XREF[1]:     CODE:2b1b(j)  
       CODE:2b20 30 f6 02        JNB        B.6,LAB_CODE_2b25                                          = ??
       CODE:2b23 64 0e           XRL        A,#0xe
                             LAB_CODE_2b25                                   XREF[1]:     CODE:2b20(j)  
       CODE:2b25 30 f5 02        JNB        B.5,LAB_CODE_2b2a                                          = ??
       CODE:2b28 64 0d           XRL        A,#0xd
                             LAB_CODE_2b2a                                   XREF[1]:     CODE:2b25(j)  
       CODE:2b2a 30 f4 02        JNB        B.4,LAB_CODE_2b2f                                          = ??
       CODE:2b2d 64 0c           XRL        A,#0xc
                             LAB_CODE_2b2f                                   XREF[1]:     CODE:2b2a(j)  
       CODE:2b2f 30 f3 02        JNB        B.3,LAB_CODE_2b34                                          = ??
       CODE:2b32 64 0b           XRL        A,#0xb
                             LAB_CODE_2b34                                   XREF[1]:     CODE:2b2f(j)  
       CODE:2b34 30 f2 02        JNB        B.2,LAB_CODE_2b39                                          = ??
       CODE:2b37 64 0a           XRL        A,#0xa
                             LAB_CODE_2b39                                   XREF[1]:     CODE:2b34(j)  
       CODE:2b39 30 f1 02        JNB        B.1,LAB_CODE_2b3e                                          = ??
       CODE:2b3c 64 09           XRL        A,#0x9
                             LAB_CODE_2b3e                                   XREF[1]:     CODE:2b39(j)  
       CODE:2b3e 30 f0 02        JNB        B.0,LAB_CODE_2b43                                          = ??
       CODE:2b41 64 07           XRL        A,#0x7
                             LAB_CODE_2b43                                   XREF[1]:     CODE:2b3e(j)  
       CODE:2b43 85 74 f0        MOV        B,DAT_INTMEM_74                                            = ??
       CODE:2b46 30 f7 02        JNB        B.7,LAB_CODE_2b4b                                          = ??
       CODE:2b49 64 06           XRL        A,#0x6
                             LAB_CODE_2b4b                                   XREF[1]:     CODE:2b46(j)  
       CODE:2b4b 30 f6 02        JNB        B.6,LAB_CODE_2b50                                          = ??
       CODE:2b4e 64 05           XRL        A,#0x5
                             LAB_CODE_2b50                                   XREF[1]:     CODE:2b4b(j)  
       CODE:2b50 30 f5 02        JNB        B.5,LAB_CODE_2b55                                          = ??
       CODE:2b53 64 03           XRL        A,#0x3
                             LAB_CODE_2b55                                   XREF[1]:     CODE:2b50(j)  
       CODE:2b55 65 71           XRL        A,DAT_INTMEM_71                                            = ??
       CODE:2b57 54 1f           ANL        A,#0x1f
                             LAB_CODE_2b59                                   XREF[1]:     CODE:2ae7(j)  
       CODE:2b59 22              RET
                             **************************************************************
                             *                          FUNCTION                          *
                             **************************************************************
                             undefined FUN_CODE_2b5a()
             undefined         ACC:1          <RETURN>
                             FUN_CODE_2b5a                                   XREF[1]:     FUN_CODE_2a20:2a89(c)  
       CODE:2b5a e4              CLR        A
       CODE:2b5b 85 71 f0        MOV        B,DAT_INTMEM_71                                            = ??
       CODE:2b5e 30 f7 02        JNB        B.7,LAB_CODE_2b63                                          = ??
       CODE:2b61 64 1f           XRL        A,#0x1f
                             LAB_CODE_2b63                                   XREF[1]:     CODE:2b5e(j)  
       CODE:2b63 30 f6 02        JNB        B.6,LAB_CODE_2b68                                          = ??
       CODE:2b66 64 1f           XRL        A,#0x1f
                             LAB_CODE_2b68                                   XREF[1]:     CODE:2b63(j)  
       CODE:2b68 30 f5 02        JNB        B.5,LAB_CODE_2b6d                                          = ??
       CODE:2b6b 64 1e           XRL        A,#0x1e
                             LAB_CODE_2b6d                                   XREF[1]:     CODE:2b68(j)  
       CODE:2b6d 85 72 f0        MOV        B,DAT_INTMEM_72                                            = ??
       CODE:2b70 30 f7 02        JNB        B.7,LAB_CODE_2b75                                          = ??
       CODE:2b73 64 1d           XRL        A,#0x1d
                             LAB_CODE_2b75                                   XREF[1]:     CODE:2b70(j)  
       CODE:2b75 30 f6 02        JNB        B.6,LAB_CODE_2b7a                                          = ??
       CODE:2b78 64 1c           XRL        A,#0x1c
                             LAB_CODE_2b7a                                   XREF[1]:     CODE:2b75(j)  
       CODE:2b7a 30 f5 02        JNB        B.5,LAB_CODE_2b7f                                          = ??
       CODE:2b7d 64 1b           XRL        A,#0x1b
                             LAB_CODE_2b7f                                   XREF[1]:     CODE:2b7a(j)  
       CODE:2b7f 30 f4 02        JNB        B.4,LAB_CODE_2b84                                          = ??
       CODE:2b82 64 1a           XRL        A,#0x1a
                             LAB_CODE_2b84                                   XREF[1]:     CODE:2b7f(j)  
       CODE:2b84 30 f3 02        JNB        B.3,LAB_CODE_2b89                                          = ??
       CODE:2b87 64 19           XRL        A,#0x19
                             LAB_CODE_2b89                                   XREF[1]:     CODE:2b84(j)  
       CODE:2b89 30 f2 02        JNB        B.2,LAB_CODE_2b8e                                          = ??
       CODE:2b8c 64 18           XRL        A,#0x18
                             LAB_CODE_2b8e                                   XREF[1]:     CODE:2b89(j)  
       CODE:2b8e 30 f1 02        JNB        B.1,LAB_CODE_2b93                                          = ??
       CODE:2b91 64 17           XRL        A,#0x17
                             LAB_CODE_2b93                                   XREF[1]:     CODE:2b8e(j)  
       CODE:2b93 30 f0 02        JNB        B.0,LAB_CODE_2b98                                          = ??
       CODE:2b96 64 16           XRL        A,#0x16
                             LAB_CODE_2b98                                   XREF[1]:     CODE:2b93(j)  
       CODE:2b98 85 73 f0        MOV        B,DAT_INTMEM_73                                            = ??
       CODE:2b9b 30 f7 02        JNB        B.7,LAB_CODE_2ba0                                          = ??
       CODE:2b9e 64 15           XRL        A,#0x15
                             LAB_CODE_2ba0                                   XREF[1]:     CODE:2b9b(j)  
       CODE:2ba0 30 f6 02        JNB        B.6,LAB_CODE_2ba5                                          = ??
       CODE:2ba3 64 14           XRL        A,#0x14
                             LAB_CODE_2ba5                                   XREF[1]:     CODE:2ba0(j)  
       CODE:2ba5 30 f5 02        JNB        B.5,LAB_CODE_2baa                                          = ??
       CODE:2ba8 64 13           XRL        A,#0x13
                             LAB_CODE_2baa                                   XREF[1]:     CODE:2ba5(j)  
       CODE:2baa 30 f4 02        JNB        B.4,LAB_CODE_2baf                                          = ??
       CODE:2bad 64 12           XRL        A,#0x12
                             LAB_CODE_2baf                                   XREF[1]:     CODE:2baa(j)  
       CODE:2baf 30 f3 02        JNB        B.3,LAB_CODE_2bb4                                          = ??
       CODE:2bb2 64 11           XRL        A,#0x11
                             LAB_CODE_2bb4                                   XREF[1]:     CODE:2baf(j)  
       CODE:2bb4 30 f2 02        JNB        B.2,LAB_CODE_2bb9                                          = ??
       CODE:2bb7 64 0f           XRL        A,#0xf
                             LAB_CODE_2bb9                                   XREF[1]:     CODE:2bb4(j)  
       CODE:2bb9 30 f1 02        JNB        B.1,LAB_CODE_2bbe                                          = ??
       CODE:2bbc 64 0e           XRL        A,#0xe
                             LAB_CODE_2bbe                                   XREF[1]:     CODE:2bb9(j)  
       CODE:2bbe 30 f0 02        JNB        B.0,LAB_CODE_2bc3                                          = ??
       CODE:2bc1 64 0d           XRL        A,#0xd
                             LAB_CODE_2bc3                                   XREF[1]:     CODE:2bbe(j)  
       CODE:2bc3 85 74 f0        MOV        B,DAT_INTMEM_74                                            = ??
       CODE:2bc6 30 f7 02        JNB        B.7,LAB_CODE_2bcb                                          = ??
       CODE:2bc9 64 0c           XRL        A,#0xc
                             LAB_CODE_2bcb                                   XREF[1]:     CODE:2bc6(j)  
       CODE:2bcb 30 f6 02        JNB        B.6,LAB_CODE_2bd0                                          = ??
       CODE:2bce 64 0b           XRL        A,#0xb
                             LAB_CODE_2bd0                                   XREF[1]:     CODE:2bcb(j)  
       CODE:2bd0 30 f5 02        JNB        B.5,LAB_CODE_2bd5                                          = ??
       CODE:2bd3 64 0a           XRL        A,#0xa
                             LAB_CODE_2bd5                                   XREF[1]:     CODE:2bd0(j)  
       CODE:2bd5 30 f4 02        JNB        B.4,LAB_CODE_2bda                                          = ??
       CODE:2bd8 64 09           XRL        A,#0x9
                             LAB_CODE_2bda                                   XREF[1]:     CODE:2bd5(j)  
       CODE:2bda 30 f3 02        JNB        B.3,LAB_CODE_2bdf                                          = ??
       CODE:2bdd 64 07           XRL        A,#0x7
                             LAB_CODE_2bdf                                   XREF[1]:     CODE:2bda(j)  
       CODE:2bdf 30 f2 02        JNB        B.2,LAB_CODE_2be4                                          = ??
       CODE:2be2 64 06           XRL        A,#0x6
                             LAB_CODE_2be4                                   XREF[1]:     CODE:2bdf(j)  
       CODE:2be4 30 f1 02        JNB        B.1,LAB_CODE_2be9                                          = ??
       CODE:2be7 64 05           XRL        A,#0x5
                             LAB_CODE_2be9                                   XREF[1]:     CODE:2be4(j)  
       CODE:2be9 30 f0 02        JNB        B.0,LAB_CODE_2bee                                          = ??
       CODE:2bec 64 03           XRL        A,#0x3
                             LAB_CODE_2bee                                   XREF[1]:     CODE:2be9(j)  
       CODE:2bee 65 71           XRL        A,DAT_INTMEM_71                                            = ??
       CODE:2bf0 54 1f           ANL        A,#0x1f
       CODE:2bf2 22              RET
                             **************************************************************
                             *                          FUNCTION                          *
                             **************************************************************
                             undefined FUN_CODE_2bf3()
             undefined         ACC:1          <RETURN>
                             FUN_CODE_2bf3                                   XREF[3]:     FUN_CODE_2a20:2a4a(c), 
                                                                                          FUN_CODE_2a20:2a5d(c), 
                                                                                          FUN_CODE_2a20:2a8e(c)  
       CODE:2bf3 e5 71           MOV        A,DAT_INTMEM_71                                            = ??
       CODE:2bf5 c4              SWAP       A
       CODE:2bf6 03              RR         A
                             **************************************************************
                             *                          FUNCTION                          *
                             **************************************************************
                             undefined FUN_CODE_2bf7()
             undefined         ACC:1          <RETURN>
                             FUN_CODE_2bf7                                   XREF[1]:     FUN_CODE_2a20:2a2d(c)  
       CODE:2bf7 78 bf           MOV        R0,#0xbf
       CODE:2bf9 86 f0           MOV        B,@R0=>DAT_INTMEM_bf                                       = ??
       CODE:2bfb 20 f3 03        JB         B.3,LAB_CODE_2c01                                          = ??
       CODE:2bfe a2 f0           MOV        CY,B.0                                                     = ??
       CODE:2c00 22              RET
                             LAB_CODE_2c01                                   XREF[1]:     CODE:2bfb(j)  
       CODE:2c01 54 07           ANL        A,#0x7
       CODE:2c03 b4 07 02        CJNE       A,#0x7,LAB_CODE_2c08
                             LAB_CODE_2c06                                   XREF[1]:     CODE:2c0c(j)  
       CODE:2c06 d3              SETB       CY
       CODE:2c07 22              RET
                             LAB_CODE_2c08                                   XREF[1]:     CODE:2c03(j)  
       CODE:2c08 65 f0           XRL        A,B
       CODE:2c0a 54 07           ANL        A,#0x7
       CODE:2c0c 60 f8           JZ         LAB_CODE_2c06
       CODE:2c0e c3              CLR        CY
       CODE:2c0f 22              RET
                             **************************************************************
                             *                          FUNCTION                          *
                             **************************************************************
                             undefined FUN_CODE_2c10()
             undefined         ACC:1          <RETURN>
                             FUN_CODE_2c10                                   XREF[1]:     CODE:1d88(c)  
       CODE:2c10 e5 1f           MOV        A,BANK3_R7                                                 = ??
       CODE:2c12 22              RET
                             **************************************************************
                             *                          FUNCTION                          *
                             **************************************************************
                             undefined FUN_CODE_2c13()
             undefined         ACC:1          <RETURN>
                             FUN_CODE_2c13                                   XREF[2]:     CODE:1d90(c), CODE:1ee2(c)  
       CODE:2c13 12 25 40        LCALL      FUN_CODE_2540                                              undefined FUN_CODE_2540()
       CODE:2c16 c3              CLR        CY
       CODE:2c17 20 55 01        JB         2a.5,LAB_CODE_2c1b                                         = ??
       CODE:2c1a 22              RET
                             LAB_CODE_2c1b                                   XREF[1]:     CODE:2c17(j)  
       CODE:2c1b ee              MOV        A,R6
       CODE:2c1c 95 30           SUBB       A,DAT_INTMEM_30                                            = ??
       CODE:2c1e 40 16           JC         LAB_CODE_2c36
       CODE:2c20 70 14           JNZ        LAB_CODE_2c36
       CODE:2c22 c3              CLR        CY
       CODE:2c23 ed              MOV        A,R5
       CODE:2c24 95 31           SUBB       A,DAT_INTMEM_31                                            = ??
       CODE:2c26 40 0e           JC         LAB_CODE_2c36
       CODE:2c28 70 0c           JNZ        LAB_CODE_2c36
       CODE:2c2a c3              CLR        CY
       CODE:2c2b ec              MOV        A,R4
       CODE:2c2c 95 32           SUBB       A,DAT_INTMEM_32                                            = ??
       CODE:2c2e 40 06           JC         LAB_CODE_2c36
       CODE:2c30 70 04           JNZ        LAB_CODE_2c36
       CODE:2c32 c3              CLR        CY
       CODE:2c33 eb              MOV        A,R3
       CODE:2c34 95 33           SUBB       A,DAT_INTMEM_33                                            = ??
                             LAB_CODE_2c36                                   XREF[6]:     CODE:2c1e(j), CODE:2c20(j), 
                                                                                          CODE:2c26(j), CODE:2c28(j), 
                                                                                          CODE:2c2e(j), CODE:2c30(j)  
       CODE:2c36 b3              CPL        CY
       CODE:2c37 22              RET
                             **************************************************************
                             *                          FUNCTION                          *
                             **************************************************************
                             undefined FUN_CODE_2c38()
             undefined         ACC:1          <RETURN>
                             FUN_CODE_2c38                                   XREF[5]:     FUN_CODE_07ea:07ee(c), 
                                                                                          FUN_CODE_07ea:07f5(c), 
                                                                                          FUN_CODE_080d:0811(c), 
                                                                                          FUN_CODE_080d:0818(c), 
                                                                                          CODE:2c3b(j)  
       CODE:2c38 76 00           MOV        @R0,#0x0
       CODE:2c3a 08              INC        R0
       CODE:2c3b da fb           DJNZ       R2,FUN_CODE_2c38
       CODE:2c3d 22              RET
                             LAB_CODE_2c3e                                   XREF[1]:     CODE:2c46(j)  
       CODE:2c3e f9              MOV        R1,A
       CODE:2c3f a3              INC        DPTR
       CODE:2c40 e4              CLR        A
       CODE:2c41 93              MOVC       A,@A+DPTR
       CODE:2c42 f7              MOV        @R1,A
       CODE:2c43 a3              INC        DPTR
                             **************************************************************
                             *                          FUNCTION                          *
                             **************************************************************
                             undefined FUN_CODE_2c44()
             undefined         ACC:1          <RETURN>
                             FUN_CODE_2c44                                   XREF[1]:     FUN_CODE_23aa:23ad(c)  
       CODE:2c44 e4              CLR        A
       CODE:2c45 93              MOVC       A,@A+DPTR
       CODE:2c46 70 f6           JNZ        LAB_CODE_2c3e
       CODE:2c48 22              RET
                             **************************************************************
                             *                          FUNCTION                          *
                             **************************************************************
                             undefined FUN_CODE_2c49()
             undefined         ACC:1          <RETURN>
                             FUN_CODE_2c49                                   XREF[3]:     FUN_CODE_07ea:07fc(c), 
                                                                                          FUN_CODE_080d:081f(c), 
                                                                                          CODE:2c5c(j)  
       CODE:2c49 e8              MOV        A,R0
       CODE:2c4a 75 f0 08        MOV        B,#0x8
       CODE:2c4d 84              DIV        AB
       CODE:2c4e 24 20           ADD        A,#0x20
       CODE:2c50 f9              MOV        R1,A
       CODE:2c51 05 f0           INC        B
       CODE:2c53 74 7f           MOV        A,#0x7f
                             LAB_CODE_2c55                                   XREF[1]:     CODE:2c56(j)  
       CODE:2c55 23              RL         A
       CODE:2c56 d5 f0 fc        DJNZ       B,LAB_CODE_2c55
       CODE:2c59 57              ANL        A,@R1
       CODE:2c5a f7              MOV        @R1,A
       CODE:2c5b 08              INC        R0
       CODE:2c5c da eb           DJNZ       R2,FUN_CODE_2c49
       CODE:2c5e 22              RET
       CODE:2c5f 00              ??         00h
       CODE:2c60 00              ??         00h
       CODE:2c61 00              ??         00h
       CODE:2c62 00              ??         00h
       CODE:2c63 00              ??         00h
       CODE:2c64 00              ??         00h
       CODE:2c65 00              ??         00h
       CODE:2c66 00              ??         00h
       CODE:2c67 00              ??         00h
       CODE:2c68 00              ??         00h
       CODE:2c69 00              ??         00h
       CODE:2c6a 00              ??         00h
       CODE:2c6b 00              ??         00h
       CODE:2c6c 00              ??         00h
       CODE:2c6d 00              ??         00h
       CODE:2c6e 00              ??         00h
       CODE:2c6f 00              ??         00h
       CODE:2c70 00              ??         00h
       CODE:2c71 00              ??         00h
       CODE:2c72 00              ??         00h
       CODE:2c73 00              ??         00h
       CODE:2c74 00              ??         00h
       CODE:2c75 00              ??         00h
       CODE:2c76 00              ??         00h
       CODE:2c77 00              ??         00h
       CODE:2c78 00              ??         00h
       CODE:2c79 00              ??         00h
       CODE:2c7a 00              ??         00h
       CODE:2c7b 00              ??         00h
       CODE:2c7c 00              ??         00h
       CODE:2c7d 00              ??         00h
       CODE:2c7e 00              ??         00h
       CODE:2c7f 00              ??         00h
       CODE:2c80 00              ??         00h
       CODE:2c81 00              ??         00h
       CODE:2c82 00              ??         00h
       CODE:2c83 00              ??         00h
       CODE:2c84 00              ??         00h
       CODE:2c85 00              ??         00h
       CODE:2c86 00              ??         00h
       CODE:2c87 00              ??         00h
       CODE:2c88 00              ??         00h
       CODE:2c89 00              ??         00h
       CODE:2c8a 00              ??         00h
       CODE:2c8b 00              ??         00h
       CODE:2c8c 00              ??         00h
       CODE:2c8d 00              ??         00h
       CODE:2c8e 00              ??         00h
       CODE:2c8f 00              ??         00h
       CODE:2c90 00              ??         00h
       CODE:2c91 00              ??         00h
       CODE:2c92 00              ??         00h
       CODE:2c93 00              ??         00h
       CODE:2c94 00              ??         00h
       CODE:2c95 00              ??         00h
       CODE:2c96 00              ??         00h
       CODE:2c97 00              ??         00h
       CODE:2c98 00              ??         00h
       CODE:2c99 00              ??         00h
       CODE:2c9a 00              ??         00h
       CODE:2c9b 00              ??         00h
       CODE:2c9c 00              ??         00h
       CODE:2c9d 00              ??         00h
       CODE:2c9e 00              ??         00h
       CODE:2c9f 00              ??         00h
       CODE:2ca0 00              ??         00h
       CODE:2ca1 00              ??         00h
       CODE:2ca2 00              ??         00h
       CODE:2ca3 00              ??         00h
       CODE:2ca4 00              ??         00h
       CODE:2ca5 00              ??         00h
       CODE:2ca6 00              ??         00h
       CODE:2ca7 00              ??         00h
       CODE:2ca8 00              ??         00h
       CODE:2ca9 00              ??         00h
       CODE:2caa 00              ??         00h
       CODE:2cab 00              ??         00h
       CODE:2cac 00              ??         00h
       CODE:2cad 00              ??         00h
       CODE:2cae 00              ??         00h
       CODE:2caf 00              ??         00h
       CODE:2cb0 00              ??         00h
       CODE:2cb1 00              ??         00h
       CODE:2cb2 00              ??         00h
       CODE:2cb3 00              ??         00h
       CODE:2cb4 00              ??         00h
       CODE:2cb5 00              ??         00h
       CODE:2cb6 00              ??         00h
       CODE:2cb7 00              ??         00h
       CODE:2cb8 00              ??         00h
       CODE:2cb9 00              ??         00h
       CODE:2cba 00              ??         00h
       CODE:2cbb 00              ??         00h
       CODE:2cbc 00              ??         00h
       CODE:2cbd 00              ??         00h
       CODE:2cbe 00              ??         00h
       CODE:2cbf 00              ??         00h
       CODE:2cc0 00              ??         00h
       CODE:2cc1 00              ??         00h
       CODE:2cc2 00              ??         00h
       CODE:2cc3 00              ??         00h
       CODE:2cc4 00              ??         00h
       CODE:2cc5 00              ??         00h
       CODE:2cc6 00              ??         00h
       CODE:2cc7 00              ??         00h
       CODE:2cc8 00              ??         00h
       CODE:2cc9 00              ??         00h
       CODE:2cca 00              ??         00h
       CODE:2ccb 00              ??         00h
       CODE:2ccc 00              ??         00h
       CODE:2ccd 00              ??         00h
       CODE:2cce 00              ??         00h
       CODE:2ccf 00              ??         00h
       CODE:2cd0 00              ??         00h
       CODE:2cd1 00              ??         00h
       CODE:2cd2 00              ??         00h
       CODE:2cd3 00              ??         00h
       CODE:2cd4 00              ??         00h
       CODE:2cd5 00              ??         00h
       CODE:2cd6 00              ??         00h
       CODE:2cd7 00              ??         00h
       CODE:2cd8 00              ??         00h
       CODE:2cd9 00              ??         00h
       CODE:2cda 00              ??         00h
       CODE:2cdb 00              ??         00h
       CODE:2cdc 00              ??         00h
       CODE:2cdd 00              ??         00h
       CODE:2cde 00              ??         00h
       CODE:2cdf 00              ??         00h
       CODE:2ce0 00              ??         00h
       CODE:2ce1 00              ??         00h
       CODE:2ce2 00              ??         00h
       CODE:2ce3 00              ??         00h
       CODE:2ce4 00              ??         00h
       CODE:2ce5 00              ??         00h
       CODE:2ce6 00              ??         00h
       CODE:2ce7 00              ??         00h
       CODE:2ce8 00              ??         00h
       CODE:2ce9 00              ??         00h
       CODE:2cea 00              ??         00h
       CODE:2ceb 00              ??         00h
       CODE:2cec 00              ??         00h
       CODE:2ced 00              ??         00h
       CODE:2cee 00              ??         00h
       CODE:2cef 00              ??         00h
       CODE:2cf0 00              ??         00h
       CODE:2cf1 00              ??         00h
       CODE:2cf2 00              ??         00h
       CODE:2cf3 00              ??         00h
       CODE:2cf4 00              ??         00h
       CODE:2cf5 00              ??         00h
       CODE:2cf6 00              ??         00h
       CODE:2cf7 00              ??         00h
       CODE:2cf8 00              ??         00h
       CODE:2cf9 00              ??         00h
       CODE:2cfa 00              ??         00h
       CODE:2cfb 00              ??         00h
       CODE:2cfc 00              ??         00h
       CODE:2cfd 00              ??         00h
       CODE:2cfe 00              ??         00h
       CODE:2cff 00              ??         00h
       CODE:2d00 00              ??         00h
       CODE:2d01 00              ??         00h
       CODE:2d02 00              ??         00h
       CODE:2d03 00              ??         00h
       CODE:2d04 00              ??         00h
       CODE:2d05 00              ??         00h
       CODE:2d06 00              ??         00h
       CODE:2d07 00              ??         00h
       CODE:2d08 00              ??         00h
       CODE:2d09 00              ??         00h
       CODE:2d0a 00              ??         00h
       CODE:2d0b 00              ??         00h
       CODE:2d0c 00              ??         00h
       CODE:2d0d 00              ??         00h
       CODE:2d0e 00              ??         00h
       CODE:2d0f 00              ??         00h
       CODE:2d10 00              ??         00h
       CODE:2d11 00              ??         00h
       CODE:2d12 00              ??         00h
       CODE:2d13 00              ??         00h
       CODE:2d14 00              ??         00h
       CODE:2d15 00              ??         00h
       CODE:2d16 00              ??         00h
       CODE:2d17 00              ??         00h
       CODE:2d18 00              ??         00h
       CODE:2d19 00              ??         00h
       CODE:2d1a 00              ??         00h
       CODE:2d1b 00              ??         00h
       CODE:2d1c 00              ??         00h
       CODE:2d1d 00              ??         00h
       CODE:2d1e 00              ??         00h
       CODE:2d1f 00              ??         00h
       CODE:2d20 00              ??         00h
       CODE:2d21 00              ??         00h
       CODE:2d22 00              ??         00h
       CODE:2d23 00              ??         00h
       CODE:2d24 00              ??         00h
       CODE:2d25 00              ??         00h
       CODE:2d26 00              ??         00h
       CODE:2d27 00              ??         00h
       CODE:2d28 00              ??         00h
       CODE:2d29 00              ??         00h
       CODE:2d2a 00              ??         00h
       CODE:2d2b 00              ??         00h
       CODE:2d2c 00              ??         00h
       CODE:2d2d 00              ??         00h
       CODE:2d2e 00              ??         00h
       CODE:2d2f 00              ??         00h
       CODE:2d30 00              ??         00h
       CODE:2d31 00              ??         00h
       CODE:2d32 00              ??         00h
       CODE:2d33 00              ??         00h
       CODE:2d34 00              ??         00h
       CODE:2d35 00              ??         00h
       CODE:2d36 00              ??         00h
       CODE:2d37 00              ??         00h
       CODE:2d38 00              ??         00h
       CODE:2d39 00              ??         00h
       CODE:2d3a 00              ??         00h
       CODE:2d3b 00              ??         00h
       CODE:2d3c 00              ??         00h
       CODE:2d3d 00              ??         00h
       CODE:2d3e 00              ??         00h
       CODE:2d3f 00              ??         00h
       CODE:2d40 00              ??         00h
       CODE:2d41 00              ??         00h
       CODE:2d42 00              ??         00h
       CODE:2d43 00              ??         00h
       CODE:2d44 00              ??         00h
       CODE:2d45 00              ??         00h
       CODE:2d46 00              ??         00h
       CODE:2d47 00              ??         00h
       CODE:2d48 00              ??         00h
       CODE:2d49 00              ??         00h
       CODE:2d4a 00              ??         00h
       CODE:2d4b 00              ??         00h
       CODE:2d4c 00              ??         00h
       CODE:2d4d 00              ??         00h
       CODE:2d4e 00              ??         00h
       CODE:2d4f 00              ??         00h
       CODE:2d50 00              ??         00h
       CODE:2d51 00              ??         00h
       CODE:2d52 00              ??         00h
       CODE:2d53 00              ??         00h
       CODE:2d54 00              ??         00h
       CODE:2d55 00              ??         00h
       CODE:2d56 00              ??         00h
       CODE:2d57 00              ??         00h
       CODE:2d58 00              ??         00h
       CODE:2d59 00              ??         00h
       CODE:2d5a 00              ??         00h
       CODE:2d5b 00              ??         00h
       CODE:2d5c 00              ??         00h
       CODE:2d5d 00              ??         00h
       CODE:2d5e 00              ??         00h
       CODE:2d5f 00              ??         00h
       CODE:2d60 00              ??         00h
       CODE:2d61 00              ??         00h
       CODE:2d62 00              ??         00h
       CODE:2d63 00              ??         00h
       CODE:2d64 00              ??         00h
       CODE:2d65 00              ??         00h
       CODE:2d66 00              ??         00h
       CODE:2d67 00              ??         00h
       CODE:2d68 00              ??         00h
       CODE:2d69 00              ??         00h
       CODE:2d6a 00              ??         00h
       CODE:2d6b 00              ??         00h
       CODE:2d6c 00              ??         00h
       CODE:2d6d 00              ??         00h
       CODE:2d6e 00              ??         00h
       CODE:2d6f 00              ??         00h
       CODE:2d70 00              ??         00h
       CODE:2d71 00              ??         00h
       CODE:2d72 00              ??         00h
       CODE:2d73 00              ??         00h
       CODE:2d74 00              ??         00h
       CODE:2d75 00              ??         00h
       CODE:2d76 00              ??         00h
       CODE:2d77 00              ??         00h
       CODE:2d78 00              ??         00h
       CODE:2d79 00              ??         00h
       CODE:2d7a 00              ??         00h
       CODE:2d7b 00              ??         00h
       CODE:2d7c 00              ??         00h
       CODE:2d7d 00              ??         00h
       CODE:2d7e 00              ??         00h
       CODE:2d7f 00              ??         00h
       CODE:2d80 00              ??         00h
       CODE:2d81 00              ??         00h
       CODE:2d82 00              ??         00h
       CODE:2d83 00              ??         00h
       CODE:2d84 00              ??         00h
       CODE:2d85 00              ??         00h
       CODE:2d86 00              ??         00h
       CODE:2d87 00              ??         00h
       CODE:2d88 00              ??         00h
       CODE:2d89 00              ??         00h
       CODE:2d8a 00              ??         00h
       CODE:2d8b 00              ??         00h
       CODE:2d8c 00              ??         00h
       CODE:2d8d 00              ??         00h
       CODE:2d8e 00              ??         00h
       CODE:2d8f 00              ??         00h
       CODE:2d90 00              ??         00h
       CODE:2d91 00              ??         00h
       CODE:2d92 00              ??         00h
       CODE:2d93 00              ??         00h
       CODE:2d94 00              ??         00h
       CODE:2d95 00              ??         00h
       CODE:2d96 00              ??         00h
       CODE:2d97 00              ??         00h
       CODE:2d98 00              ??         00h
       CODE:2d99 00              ??         00h
       CODE:2d9a 00              ??         00h
       CODE:2d9b 00              ??         00h
       CODE:2d9c 00              ??         00h
       CODE:2d9d 00              ??         00h
       CODE:2d9e 00              ??         00h
       CODE:2d9f 00              ??         00h
       CODE:2da0 00              ??         00h
       CODE:2da1 00              ??         00h
       CODE:2da2 00              ??         00h
       CODE:2da3 00              ??         00h
       CODE:2da4 00              ??         00h
       CODE:2da5 00              ??         00h
       CODE:2da6 00              ??         00h
       CODE:2da7 00              ??         00h
       CODE:2da8 00              ??         00h
       CODE:2da9 00              ??         00h
       CODE:2daa 00              ??         00h
       CODE:2dab 00              ??         00h
       CODE:2dac 00              ??         00h
       CODE:2dad 00              ??         00h
       CODE:2dae 00              ??         00h
       CODE:2daf 00              ??         00h
       CODE:2db0 00              ??         00h
       CODE:2db1 00              ??         00h
       CODE:2db2 00              ??         00h
       CODE:2db3 00              ??         00h
       CODE:2db4 00              ??         00h
       CODE:2db5 00              ??         00h
       CODE:2db6 00              ??         00h
       CODE:2db7 00              ??         00h
       CODE:2db8 00              ??         00h
       CODE:2db9 00              ??         00h
       CODE:2dba 00              ??         00h
       CODE:2dbb 00              ??         00h
       CODE:2dbc 00              ??         00h
       CODE:2dbd 00              ??         00h
       CODE:2dbe 00              ??         00h
       CODE:2dbf 00              ??         00h
       CODE:2dc0 00              ??         00h
       CODE:2dc1 00              ??         00h
       CODE:2dc2 00              ??         00h
       CODE:2dc3 00              ??         00h
       CODE:2dc4 00              ??         00h
       CODE:2dc5 00              ??         00h
       CODE:2dc6 00              ??         00h
       CODE:2dc7 00              ??         00h
       CODE:2dc8 00              ??         00h
       CODE:2dc9 00              ??         00h
       CODE:2dca 00              ??         00h
       CODE:2dcb 00              ??         00h
       CODE:2dcc 00              ??         00h
       CODE:2dcd 00              ??         00h
       CODE:2dce 00              ??         00h
       CODE:2dcf 00              ??         00h
       CODE:2dd0 00              ??         00h
       CODE:2dd1 00              ??         00h
       CODE:2dd2 00              ??         00h
       CODE:2dd3 00              ??         00h
       CODE:2dd4 00              ??         00h
       CODE:2dd5 00              ??         00h
       CODE:2dd6 00              ??         00h
       CODE:2dd7 00              ??         00h
       CODE:2dd8 00              ??         00h
       CODE:2dd9 00              ??         00h
       CODE:2dda 00              ??         00h
       CODE:2ddb 00              ??         00h
       CODE:2ddc 00              ??         00h
       CODE:2ddd 00              ??         00h
       CODE:2dde 00              ??         00h
       CODE:2ddf 00              ??         00h
       CODE:2de0 00              ??         00h
       CODE:2de1 00              ??         00h
       CODE:2de2 00              ??         00h
       CODE:2de3 00              ??         00h
       CODE:2de4 00              ??         00h
       CODE:2de5 00              ??         00h
       CODE:2de6 00              ??         00h
       CODE:2de7 00              ??         00h
       CODE:2de8 00              ??         00h
       CODE:2de9 00              ??         00h
       CODE:2dea 00              ??         00h
       CODE:2deb 00              ??         00h
       CODE:2dec 00              ??         00h
       CODE:2ded 00              ??         00h
       CODE:2dee 00              ??         00h
       CODE:2def 00              ??         00h
       CODE:2df0 00              ??         00h
       CODE:2df1 00              ??         00h
       CODE:2df2 00              ??         00h
       CODE:2df3 00              ??         00h
       CODE:2df4 00              ??         00h
       CODE:2df5 00              ??         00h
       CODE:2df6 00              ??         00h
       CODE:2df7 00              ??         00h
       CODE:2df8 00              ??         00h
       CODE:2df9 00              ??         00h
       CODE:2dfa 00              ??         00h
       CODE:2dfb 00              ??         00h
       CODE:2dfc 00              ??         00h
       CODE:2dfd 00              ??         00h
       CODE:2dfe 00              ??         00h
       CODE:2dff 00              ??         00h
       CODE:2e00 00              ??         00h
       CODE:2e01 00              ??         00h
       CODE:2e02 00              ??         00h
       CODE:2e03 00              ??         00h
       CODE:2e04 00              ??         00h
       CODE:2e05 00              ??         00h
       CODE:2e06 00              ??         00h
       CODE:2e07 00              ??         00h
       CODE:2e08 00              ??         00h
       CODE:2e09 00              ??         00h
       CODE:2e0a 00              ??         00h
       CODE:2e0b 00              ??         00h
       CODE:2e0c 00              ??         00h
       CODE:2e0d 00              ??         00h
       CODE:2e0e 00              ??         00h
       CODE:2e0f 00              ??         00h
       CODE:2e10 00              ??         00h
       CODE:2e11 00              ??         00h
       CODE:2e12 00              ??         00h
       CODE:2e13 00              ??         00h
       CODE:2e14 00              ??         00h
       CODE:2e15 00              ??         00h
       CODE:2e16 00              ??         00h
       CODE:2e17 00              ??         00h
       CODE:2e18 00              ??         00h
       CODE:2e19 00              ??         00h
       CODE:2e1a 00              ??         00h
       CODE:2e1b 00              ??         00h
       CODE:2e1c 00              ??         00h
       CODE:2e1d 00              ??         00h
       CODE:2e1e 00              ??         00h
       CODE:2e1f 00              ??         00h
       CODE:2e20 00              ??         00h
       CODE:2e21 00              ??         00h
       CODE:2e22 00              ??         00h
       CODE:2e23 00              ??         00h
       CODE:2e24 00              ??         00h
       CODE:2e25 00              ??         00h
       CODE:2e26 00              ??         00h
       CODE:2e27 00              ??         00h
       CODE:2e28 00              ??         00h
       CODE:2e29 00              ??         00h
       CODE:2e2a 00              ??         00h
       CODE:2e2b 00              ??         00h
       CODE:2e2c 00              ??         00h
       CODE:2e2d 00              ??         00h
       CODE:2e2e 00              ??         00h
       CODE:2e2f 00              ??         00h
       CODE:2e30 00              ??         00h
       CODE:2e31 00              ??         00h
       CODE:2e32 00              ??         00h
       CODE:2e33 00              ??         00h
       CODE:2e34 00              ??         00h
       CODE:2e35 00              ??         00h
       CODE:2e36 00              ??         00h
       CODE:2e37 00              ??         00h
       CODE:2e38 00              ??         00h
       CODE:2e39 00              ??         00h
       CODE:2e3a 00              ??         00h
       CODE:2e3b 00              ??         00h
       CODE:2e3c 00              ??         00h
       CODE:2e3d 00              ??         00h
       CODE:2e3e 00              ??         00h
       CODE:2e3f 00              ??         00h
       CODE:2e40 00              ??         00h
       CODE:2e41 00              ??         00h
       CODE:2e42 00              ??         00h
       CODE:2e43 00              ??         00h
       CODE:2e44 00              ??         00h
       CODE:2e45 00              ??         00h
       CODE:2e46 00              ??         00h
       CODE:2e47 00              ??         00h
       CODE:2e48 00              ??         00h
       CODE:2e49 00              ??         00h
       CODE:2e4a 00              ??         00h
       CODE:2e4b 00              ??         00h
       CODE:2e4c 00              ??         00h
       CODE:2e4d 00              ??         00h
       CODE:2e4e 00              ??         00h
       CODE:2e4f 00              ??         00h
       CODE:2e50 00              ??         00h
       CODE:2e51 00              ??         00h
       CODE:2e52 00              ??         00h
       CODE:2e53 00              ??         00h
       CODE:2e54 00              ??         00h
       CODE:2e55 00              ??         00h
       CODE:2e56 00              ??         00h
       CODE:2e57 00              ??         00h
       CODE:2e58 00              ??         00h
       CODE:2e59 00              ??         00h
       CODE:2e5a 00              ??         00h
       CODE:2e5b 00              ??         00h
       CODE:2e5c 00              ??         00h
       CODE:2e5d 00              ??         00h
       CODE:2e5e 00              ??         00h
       CODE:2e5f 00              ??         00h
       CODE:2e60 00              ??         00h
       CODE:2e61 00              ??         00h
       CODE:2e62 00              ??         00h
       CODE:2e63 00              ??         00h
       CODE:2e64 00              ??         00h
       CODE:2e65 00              ??         00h
       CODE:2e66 00              ??         00h
       CODE:2e67 00              ??         00h
       CODE:2e68 00              ??         00h
       CODE:2e69 00              ??         00h
       CODE:2e6a 00              ??         00h
       CODE:2e6b 00              ??         00h
       CODE:2e6c 00              ??         00h
       CODE:2e6d 00              ??         00h
       CODE:2e6e 00              ??         00h
       CODE:2e6f 00              ??         00h
       CODE:2e70 00              ??         00h
       CODE:2e71 00              ??         00h
       CODE:2e72 00              ??         00h
       CODE:2e73 00              ??         00h
       CODE:2e74 00              ??         00h
       CODE:2e75 00              ??         00h
       CODE:2e76 00              ??         00h
       CODE:2e77 00              ??         00h
       CODE:2e78 00              ??         00h
       CODE:2e79 00              ??         00h
       CODE:2e7a 00              ??         00h
       CODE:2e7b 00              ??         00h
       CODE:2e7c 00              ??         00h
       CODE:2e7d 00              ??         00h
       CODE:2e7e 00              ??         00h
       CODE:2e7f 00              ??         00h
       CODE:2e80 00              ??         00h
       CODE:2e81 00              ??         00h
       CODE:2e82 00              ??         00h
       CODE:2e83 00              ??         00h
       CODE:2e84 00              ??         00h
       CODE:2e85 00              ??         00h
       CODE:2e86 00              ??         00h
       CODE:2e87 00              ??         00h
       CODE:2e88 00              ??         00h
       CODE:2e89 00              ??         00h
       CODE:2e8a 00              ??         00h
       CODE:2e8b 00              ??         00h
       CODE:2e8c 00              ??         00h
       CODE:2e8d 00              ??         00h
       CODE:2e8e 00              ??         00h
       CODE:2e8f 00              ??         00h
       CODE:2e90 00              ??         00h
       CODE:2e91 00              ??         00h
       CODE:2e92 00              ??         00h
       CODE:2e93 00              ??         00h
       CODE:2e94 00              ??         00h
       CODE:2e95 00              ??         00h
       CODE:2e96 00              ??         00h
       CODE:2e97 00              ??         00h
       CODE:2e98 00              ??         00h
       CODE:2e99 00              ??         00h
       CODE:2e9a 00              ??         00h
       CODE:2e9b 00              ??         00h
       CODE:2e9c 00              ??         00h
       CODE:2e9d 00              ??         00h
       CODE:2e9e 00              ??         00h
       CODE:2e9f 00              ??         00h
       CODE:2ea0 00              ??         00h
       CODE:2ea1 00              ??         00h
       CODE:2ea2 00              ??         00h
       CODE:2ea3 00              ??         00h
       CODE:2ea4 00              ??         00h
       CODE:2ea5 00              ??         00h
       CODE:2ea6 00              ??         00h
       CODE:2ea7 00              ??         00h
       CODE:2ea8 00              ??         00h
       CODE:2ea9 00              ??         00h
       CODE:2eaa 00              ??         00h
       CODE:2eab 00              ??         00h
       CODE:2eac 00              ??         00h
       CODE:2ead 00              ??         00h
       CODE:2eae 00              ??         00h
       CODE:2eaf 00              ??         00h
       CODE:2eb0 00              ??         00h
       CODE:2eb1 00              ??         00h
       CODE:2eb2 00              ??         00h
       CODE:2eb3 00              ??         00h
       CODE:2eb4 00              ??         00h
       CODE:2eb5 00              ??         00h
       CODE:2eb6 00              ??         00h
       CODE:2eb7 00              ??         00h
       CODE:2eb8 00              ??         00h
       CODE:2eb9 00              ??         00h
       CODE:2eba 00              ??         00h
       CODE:2ebb 00              ??         00h
       CODE:2ebc 00              ??         00h
       CODE:2ebd 00              ??         00h
       CODE:2ebe 00              ??         00h
       CODE:2ebf 00              ??         00h
       CODE:2ec0 00              ??         00h
       CODE:2ec1 00              ??         00h
       CODE:2ec2 00              ??         00h
       CODE:2ec3 00              ??         00h
       CODE:2ec4 00              ??         00h
       CODE:2ec5 00              ??         00h
       CODE:2ec6 00              ??         00h
       CODE:2ec7 00              ??         00h
       CODE:2ec8 00              ??         00h
       CODE:2ec9 00              ??         00h
       CODE:2eca 00              ??         00h
       CODE:2ecb 00              ??         00h
       CODE:2ecc 00              ??         00h
       CODE:2ecd 00              ??         00h
       CODE:2ece 00              ??         00h
       CODE:2ecf 00              ??         00h
       CODE:2ed0 00              ??         00h
       CODE:2ed1 00              ??         00h
       CODE:2ed2 00              ??         00h
       CODE:2ed3 00              ??         00h
       CODE:2ed4 00              ??         00h
       CODE:2ed5 00              ??         00h
       CODE:2ed6 00              ??         00h
       CODE:2ed7 00              ??         00h
       CODE:2ed8 00              ??         00h
       CODE:2ed9 00              ??         00h
       CODE:2eda 00              ??         00h
       CODE:2edb 00              ??         00h
       CODE:2edc 00              ??         00h
       CODE:2edd 00              ??         00h
       CODE:2ede 00              ??         00h
       CODE:2edf 00              ??         00h
       CODE:2ee0 00              ??         00h
       CODE:2ee1 00              ??         00h
       CODE:2ee2 00              ??         00h
       CODE:2ee3 00              ??         00h
       CODE:2ee4 00              ??         00h
       CODE:2ee5 00              ??         00h
       CODE:2ee6 00              ??         00h
       CODE:2ee7 00              ??         00h
       CODE:2ee8 00              ??         00h
       CODE:2ee9 00              ??         00h
       CODE:2eea 00              ??         00h
       CODE:2eeb 00              ??         00h
       CODE:2eec 00              ??         00h
       CODE:2eed 00              ??         00h
       CODE:2eee 00              ??         00h
       CODE:2eef 00              ??         00h
       CODE:2ef0 00              ??         00h
       CODE:2ef1 00              ??         00h
       CODE:2ef2 00              ??         00h
       CODE:2ef3 00              ??         00h
       CODE:2ef4 00              ??         00h
       CODE:2ef5 00              ??         00h
       CODE:2ef6 00              ??         00h
       CODE:2ef7 00              ??         00h
       CODE:2ef8 00              ??         00h
       CODE:2ef9 00              ??         00h
       CODE:2efa 00              ??         00h
       CODE:2efb 00              ??         00h
       CODE:2efc 00              ??         00h
       CODE:2efd 00              ??         00h
       CODE:2efe 00              ??         00h
       CODE:2eff 00              ??         00h
       CODE:2f00 00              ??         00h
       CODE:2f01 00              ??         00h
       CODE:2f02 00              ??         00h
       CODE:2f03 00              ??         00h
       CODE:2f04 00              ??         00h
       CODE:2f05 00              ??         00h
       CODE:2f06 00              ??         00h
       CODE:2f07 00              ??         00h
       CODE:2f08 00              ??         00h
       CODE:2f09 00              ??         00h
       CODE:2f0a 00              ??         00h
       CODE:2f0b 00              ??         00h
       CODE:2f0c 00              ??         00h
       CODE:2f0d 00              ??         00h
       CODE:2f0e 00              ??         00h
       CODE:2f0f 00              ??         00h
       CODE:2f10 00              ??         00h
       CODE:2f11 00              ??         00h
       CODE:2f12 00              ??         00h
       CODE:2f13 00              ??         00h
       CODE:2f14 00              ??         00h
       CODE:2f15 00              ??         00h
       CODE:2f16 00              ??         00h
       CODE:2f17 00              ??         00h
       CODE:2f18 00              ??         00h
       CODE:2f19 00              ??         00h
       CODE:2f1a 00              ??         00h
       CODE:2f1b 00              ??         00h
       CODE:2f1c 00              ??         00h
       CODE:2f1d 00              ??         00h
       CODE:2f1e 00              ??         00h
       CODE:2f1f 00              ??         00h
       CODE:2f20 00              ??         00h
       CODE:2f21 00              ??         00h
       CODE:2f22 00              ??         00h
       CODE:2f23 00              ??         00h
       CODE:2f24 00              ??         00h
       CODE:2f25 00              ??         00h
       CODE:2f26 00              ??         00h
       CODE:2f27 00              ??         00h
       CODE:2f28 00              ??         00h
       CODE:2f29 00              ??         00h
       CODE:2f2a 00              ??         00h
       CODE:2f2b 00              ??         00h
       CODE:2f2c 00              ??         00h
       CODE:2f2d 00              ??         00h
       CODE:2f2e 00              ??         00h
       CODE:2f2f 00              ??         00h
       CODE:2f30 00              ??         00h
       CODE:2f31 00              ??         00h
       CODE:2f32 00              ??         00h
       CODE:2f33 00              ??         00h
       CODE:2f34 00              ??         00h
       CODE:2f35 00              ??         00h
       CODE:2f36 00              ??         00h
       CODE:2f37 00              ??         00h
       CODE:2f38 00              ??         00h
       CODE:2f39 00              ??         00h
       CODE:2f3a 00              ??         00h
       CODE:2f3b 00              ??         00h
       CODE:2f3c 00              ??         00h
       CODE:2f3d 00              ??         00h
       CODE:2f3e 00              ??         00h
       CODE:2f3f 00              ??         00h
       CODE:2f40 00              ??         00h
       CODE:2f41 00              ??         00h
       CODE:2f42 00              ??         00h
       CODE:2f43 00              ??         00h
       CODE:2f44 00              ??         00h
       CODE:2f45 00              ??         00h
       CODE:2f46 00              ??         00h
       CODE:2f47 00              ??         00h
       CODE:2f48 00              ??         00h
       CODE:2f49 00              ??         00h
       CODE:2f4a 00              ??         00h
       CODE:2f4b 00              ??         00h
       CODE:2f4c 00              ??         00h
       CODE:2f4d 00              ??         00h
       CODE:2f4e 00              ??         00h
       CODE:2f4f 00              ??         00h
       CODE:2f50 00              ??         00h
       CODE:2f51 00              ??         00h
       CODE:2f52 00              ??         00h
       CODE:2f53 00              ??         00h
       CODE:2f54 00              ??         00h
       CODE:2f55 00              ??         00h
       CODE:2f56 00              ??         00h
       CODE:2f57 00              ??         00h
       CODE:2f58 00              ??         00h
       CODE:2f59 00              ??         00h
       CODE:2f5a 00              ??         00h
       CODE:2f5b 00              ??         00h
       CODE:2f5c 00              ??         00h
       CODE:2f5d 00              ??         00h
       CODE:2f5e 00              ??         00h
       CODE:2f5f 00              ??         00h
       CODE:2f60 00              ??         00h
       CODE:2f61 00              ??         00h
       CODE:2f62 00              ??         00h
       CODE:2f63 00              ??         00h
       CODE:2f64 00              ??         00h
       CODE:2f65 00              ??         00h
       CODE:2f66 00              ??         00h
       CODE:2f67 00              ??         00h
       CODE:2f68 00              ??         00h
       CODE:2f69 00              ??         00h
       CODE:2f6a 00              ??         00h
       CODE:2f6b 00              ??         00h
       CODE:2f6c 00              ??         00h
       CODE:2f6d 00              ??         00h
       CODE:2f6e 00              ??         00h
       CODE:2f6f 00              ??         00h
       CODE:2f70 00              ??         00h
       CODE:2f71 00              ??         00h
       CODE:2f72 00              ??         00h
       CODE:2f73 00              ??         00h
       CODE:2f74 00              ??         00h
       CODE:2f75 00              ??         00h
       CODE:2f76 00              ??         00h
       CODE:2f77 00              ??         00h
       CODE:2f78 00              ??         00h
       CODE:2f79 00              ??         00h
       CODE:2f7a 00              ??         00h
       CODE:2f7b 00              ??         00h
       CODE:2f7c 00              ??         00h
       CODE:2f7d 00              ??         00h
       CODE:2f7e 00              ??         00h
       CODE:2f7f 00              ??         00h
       CODE:2f80 00              ??         00h
       CODE:2f81 00              ??         00h
       CODE:2f82 00              ??         00h
       CODE:2f83 00              ??         00h
       CODE:2f84 00              ??         00h
       CODE:2f85 00              ??         00h
       CODE:2f86 00              ??         00h
       CODE:2f87 00              ??         00h
       CODE:2f88 00              ??         00h
       CODE:2f89 00              ??         00h
       CODE:2f8a 00              ??         00h
       CODE:2f8b 00              ??         00h
       CODE:2f8c 00              ??         00h
       CODE:2f8d 00              ??         00h
       CODE:2f8e 00              ??         00h
       CODE:2f8f 00              ??         00h
       CODE:2f90 00              ??         00h
       CODE:2f91 00              ??         00h
       CODE:2f92 00              ??         00h
       CODE:2f93 00              ??         00h
       CODE:2f94 00              ??         00h
       CODE:2f95 00              ??         00h
       CODE:2f96 00              ??         00h
       CODE:2f97 00              ??         00h
       CODE:2f98 00              ??         00h
       CODE:2f99 00              ??         00h
       CODE:2f9a 00              ??         00h
       CODE:2f9b 00              ??         00h
       CODE:2f9c 00              ??         00h
       CODE:2f9d 00              ??         00h
       CODE:2f9e 00              ??         00h
       CODE:2f9f 00              ??         00h
       CODE:2fa0 00              ??         00h
       CODE:2fa1 00              ??         00h
       CODE:2fa2 00              ??         00h
       CODE:2fa3 00              ??         00h
       CODE:2fa4 00              ??         00h
       CODE:2fa5 00              ??         00h
       CODE:2fa6 00              ??         00h
       CODE:2fa7 00              ??         00h
       CODE:2fa8 00              ??         00h
       CODE:2fa9 00              ??         00h
       CODE:2faa 00              ??         00h
       CODE:2fab 00              ??         00h
       CODE:2fac 00              ??         00h
       CODE:2fad 00              ??         00h
       CODE:2fae 00              ??         00h
       CODE:2faf 00              ??         00h
       CODE:2fb0 00              ??         00h
       CODE:2fb1 00              ??         00h
       CODE:2fb2 00              ??         00h
       CODE:2fb3 00              ??         00h
       CODE:2fb4 00              ??         00h
       CODE:2fb5 00              ??         00h
       CODE:2fb6 00              ??         00h
       CODE:2fb7 00              ??         00h
       CODE:2fb8 00              ??         00h
       CODE:2fb9 00              ??         00h
       CODE:2fba 00              ??         00h
       CODE:2fbb 00              ??         00h
       CODE:2fbc 00              ??         00h
       CODE:2fbd 00              ??         00h
       CODE:2fbe 00              ??         00h
       CODE:2fbf 00              ??         00h
       CODE:2fc0 00              ??         00h
       CODE:2fc1 00              ??         00h
       CODE:2fc2 00              ??         00h
       CODE:2fc3 00              ??         00h
       CODE:2fc4 00              ??         00h
       CODE:2fc5 00              ??         00h
       CODE:2fc6 00              ??         00h
       CODE:2fc7 00              ??         00h
       CODE:2fc8 00              ??         00h
       CODE:2fc9 00              ??         00h
       CODE:2fca 00              ??         00h
       CODE:2fcb 00              ??         00h
       CODE:2fcc 00              ??         00h
       CODE:2fcd 00              ??         00h
       CODE:2fce 00              ??         00h
       CODE:2fcf 00              ??         00h
       CODE:2fd0 00              ??         00h
       CODE:2fd1 00              ??         00h
       CODE:2fd2 00              ??         00h
       CODE:2fd3 00              ??         00h
       CODE:2fd4 00              ??         00h
       CODE:2fd5 00              ??         00h
       CODE:2fd6 00              ??         00h
       CODE:2fd7 00              ??         00h
       CODE:2fd8 00              ??         00h
       CODE:2fd9 00              ??         00h
       CODE:2fda 00              ??         00h
       CODE:2fdb 00              ??         00h
       CODE:2fdc 00              ??         00h
       CODE:2fdd 00              ??         00h
       CODE:2fde 00              ??         00h
       CODE:2fdf 00              ??         00h
       CODE:2fe0 00              ??         00h
       CODE:2fe1 00              ??         00h
       CODE:2fe2 00              ??         00h
       CODE:2fe3 00              ??         00h
       CODE:2fe4 00              ??         00h
       CODE:2fe5 00              ??         00h
       CODE:2fe6 00              ??         00h
       CODE:2fe7 00              ??         00h
       CODE:2fe8 00              ??         00h
       CODE:2fe9 00              ??         00h
       CODE:2fea 00              ??         00h
       CODE:2feb 00              ??         00h
       CODE:2fec 00              ??         00h
       CODE:2fed 00              ??         00h
       CODE:2fee 00              ??         00h
       CODE:2fef 00              ??         00h
       CODE:2ff0 00              ??         00h
       CODE:2ff1 00              ??         00h
       CODE:2ff2 00              ??         00h
       CODE:2ff3 00              ??         00h
       CODE:2ff4 00              ??         00h
       CODE:2ff5 00              ??         00h
       CODE:2ff6 00              ??         00h
       CODE:2ff7 00              ??         00h
       CODE:2ff8 e1              ??         E1h
       CODE:2ff9 56              ??         56h    V
       CODE:2ffa 21              ??         21h    !
       CODE:2ffb 3a              ??         3Ah    :
       CODE:2ffc 00              ??         00h
       CODE:2ffd 00              ??         00h
       CODE:2ffe 00              ??         00h
       CODE:2fff 00              ??         00h
                             //
                             // REG_BANK_1 
                             // INTMEM:00-INTMEM:07
                             //
                             BANK0_R0
       INTMEM:00                 ??         ??
                             BANK0_R1
       INTMEM:01                 ??         ??
                             BANK0_R2
       INTMEM:02                 ??         ??
                             BANK0_R3
       INTMEM:03                 ??         ??
                             BANK0_R4
       INTMEM:04                 ??         ??
                             BANK0_R5
       INTMEM:05                 ??         ??
                             BANK0_R6
       INTMEM:06                 ??         ??
                             BANK0_R7
       INTMEM:07                 ??         ??
                             //
                             // REG_BANK_2 
                             // INTMEM:08-INTMEM:0f
                             //
                             BANK1_R0
       INTMEM:08                 ??         ??
                             BANK1_R1
       INTMEM:09                 ??         ??
                             BANK1_R2
       INTMEM:0a                 ??         ??
                             BANK1_R3
       INTMEM:0b                 ??         ??
                             BANK1_R4
       INTMEM:0c                 ??         ??
                             BANK1_R5
       INTMEM:0d                 ??         ??
                             BANK1_R6
       INTMEM:0e                 ??         ??
                             BANK1_R7
       INTMEM:0f                 ??         ??
                             //
                             // REG_BANK_3 
                             // INTMEM:10-INTMEM:17
                             //
                             BANK2_R0                                        XREF[10]:    FUN_CODE_0163:0172(R), 
                                                                                          CODE:01ac(W), CODE:01b1(W), 
                                                                                          CODE:01b6(W), CODE:01cd(W), 
                                                                                          CODE:020a(W), CODE:0218(W), 
                                                                                          CODE:023b(W), CODE:0273(W), 
                                                                                          FUN_CODE_25b4:25b8(W)  
       INTMEM:10                 undefined1 ??
                             BANK2_R1                                        XREF[7]:     CODE:01c5(R), CODE:25f8(W), 
                                                                                          CODE:2640(W), CODE:2663(W), 
                                                                                          CODE:2696(W), CODE:26ed(W), 
                                                                                          CODE:281d(W)  
       INTMEM:11                 undefined1 ??
                             BANK2_R2                                        XREF[9]:     CODE:01da(R), CODE:01de(RW), 
                                                                                          CODE:01e5(R), CODE:25fb(W), 
                                                                                          CODE:2643(W), CODE:2672(W), 
                                                                                          CODE:2699(W), CODE:26f0(W), 
                                                                                          CODE:2804(W)  
       INTMEM:12                 undefined1 ??
                             BANK2_R3                                        XREF[5]:     CODE:026b(R), CODE:264a(W), 
                                                                                          CODE:26a0(W), CODE:26fa(W), 
                                                                                          CODE:2833(W)  
       INTMEM:13                 undefined1 ??
                             BANK2_R4                                        XREF[8]:     CODE:0283(R), CODE:0290(RW), 
                                                                                          CODE:02a1(R), CODE:264d(W), 
                                                                                          CODE:26ab(W), CODE:26fd(W), 
                                                                                          CODE:2809(W), CODE:280b(RW)  
       INTMEM:14                 undefined1 ??
                             BANK2_R5                                        XREF[17]:    CODE:0233(R), CODE:2614(W), 
                                                                                          CODE:2658(W), CODE:26b2(W), 
                                                                                          CODE:26c0(R), CODE:26c9(R), 
                                                                                          CODE:26f3(W), CODE:272b(R), 
                                                                                          CODE:2747(R), CODE:27a3(W), 
                                                                                          CODE:27ab(W), CODE:27b0(W), 
                                                                                          CODE:27b8(R), CODE:27f2(W), 
                                                                                          CODE:2828(W), 
                                                                                          FUN_CODE_294e:294e(W), 
                                                                                          FUN_CODE_294e:2962(RW)  
       INTMEM:15                 undefined1 ??
                             BANK2_R6                                        XREF[7]:     CODE:0248(R), CODE:024f(RW), 
                                                                                          CODE:261b(W), CODE:2729(R), 
                                                                                          CODE:274a(R), CODE:280f(W), 
                                                                                          CODE:2811(RW)  
       INTMEM:16                 undefined1 ??
                             BANK2_R7                                        XREF[9]:     CODE:2622(W), CODE:2707(R), 
                                                                                          CODE:2723(R), CODE:2754(R), 
                                                                                          CODE:2770(R), CODE:277d(R), 
                                                                                          CODE:2793(R), CODE:27cf(R), 
                                                                                          CODE:27e5(R)  
       INTMEM:17                 undefined1 ??
                             //
                             // REG_BANK_4 
                             // INTMEM:18-INTMEM:1f
                             //
                             BANK3_R0                                        XREF[10]:    CODE:262c(W), CODE:2635(W), 
                                                                                          CODE:2705(R), CODE:2726(R), 
                                                                                          CODE:2752(R), CODE:2773(R), 
                                                                                          CODE:277b(R), CODE:2796(R), 
                                                                                          CODE:27ca(R), CODE:27e0(R)  
       INTMEM:18                 undefined1 ??
                             BANK3_R1                                        XREF[1]:     CODE:260c(W)  
       INTMEM:19                 ??         ??
                             BANK3_R2                                        XREF[2]:     CODE:260a(W), CODE:2624(R)  
       INTMEM:1a                 undefined1 ??
                             BANK3_R3                                        XREF[16]:    CODE:01a3(W), CODE:01c0(R), 
                                                                                          CODE:01ca(W), CODE:01d5(R), 
                                                                                          CODE:01f1(W), CODE:0204(W), 
                                                                                          CODE:021d(R), CODE:022e(R), 
                                                                                          CODE:0238(W), CODE:0243(R), 
                                                                                          CODE:0253(W), CODE:0266(R), 
                                                                                          CODE:0270(W), CODE:027b(R), 
                                                                                          CODE:028d(W), CODE:0295(W)  
       INTMEM:1b                 undefined1 ??
                             BANK3_R4                                        XREF[6]:     FUN_CODE_0648:065e(W), 
                                                                                          FUN_CODE_0648:0666(RW), 
                                                                                          FUN_CODE_0648:0682(W), 
                                                                                          FUN_CODE_0648:068d(RW), 
                                                                                          FUN_CODE_0648:0699(RW), 
                                                                                          FUN_CODE_0648:06a2(W)  
       INTMEM:1c                 ??         ??
                             BANK3_R5                                        XREF[6]:     FUN_CODE_0648:06b6(W), 
                                                                                          FUN_CODE_0648:06be(RW), 
                                                                                          FUN_CODE_0648:06da(W), 
                                                                                          FUN_CODE_0648:06e5(RW), 
                                                                                          FUN_CODE_0648:06f1(RW), 
                                                                                          FUN_CODE_0648:06fa(W)  
       INTMEM:1d                 ??         ??
                             BANK3_R6                                        XREF[6]:     FUN_CODE_0648:070e(W), 
                                                                                          FUN_CODE_0648:0716(RW), 
                                                                                          FUN_CODE_0648:0732(W), 
                                                                                          FUN_CODE_0648:073d(RW), 
                                                                                          FUN_CODE_0648:0749(RW), 
                                                                                          FUN_CODE_0648:0752(W)  
       INTMEM:1e                 ??         ??
                             BANK3_R7                                        XREF[6]:     FUN_CODE_0648:0648(R), 
                                                                                          FUN_CODE_0648:069c(W), 
                                                                                          FUN_CODE_0648:06f4(W), 
                                                                                          FUN_CODE_0648:074c(W), 
                                                                                          FUN_CODE_22f9:2320(W), 
                                                                                          FUN_CODE_2c10:2c10(R)  
       INTMEM:1f                 undefined1 ??
                             //
                             // INTMEM 
                             // INTMEM:20-INTMEM:ff
                             //
       INTMEM:20                 ??         ??
       INTMEM:21                 ??         ??
       INTMEM:22                 ??         ??
       INTMEM:23                 ??         ??
       INTMEM:24                 ??         ??
       INTMEM:25                 ??         ??
       INTMEM:26                 ??         ??
       INTMEM:27                 ??         ??
       INTMEM:28                 ??         ??
       INTMEM:29                 ??         ??
       INTMEM:2a                 ??         ??
       INTMEM:2b                 ??         ??
       INTMEM:2c                 ??         ??
       INTMEM:2d                 ??         ??
       INTMEM:2e                 ??         ??
                             DAT_INTMEM_2f                                   XREF[11]:    FUN_CODE_07ea:0807(W), 
                                                                                          FUN_CODE_080d:0835(R), 
                                                                                          FUN_CODE_080d:083b(W), 
                                                                                          FUN_CODE_083e:0938(R), 
                                                                                          FUN_CODE_083e:0961(R), 
                                                                                          FUN_CODE_0cf7:0db8(R), 
                                                                                          CODE:12c7(R), CODE:12f9(R), 
                                                                                          CODE:1307(W), CODE:141b(R), 
                                                                                          FUN_CODE_1b47:1b55(R)  
       INTMEM:2f                 undefined1 ??
                             DAT_INTMEM_30                                   XREF[3]:     FUN_CODE_083e:08ef(R), 
                                                                                          FUN_CODE_083e:0b9e(W), 
                                                                                          FUN_CODE_2c13:2c1c(R)  
       INTMEM:30                 undefined1 ??
                             DAT_INTMEM_31                                   XREF[3]:     FUN_CODE_083e:08ea(R), 
                                                                                          FUN_CODE_083e:0ba0(W), 
                                                                                          FUN_CODE_2c13:2c24(R)  
       INTMEM:31                 undefined1 ??
                             DAT_INTMEM_32                                   XREF[3]:     FUN_CODE_083e:08e5(R), 
                                                                                          FUN_CODE_083e:0ba2(W), 
                                                                                          FUN_CODE_2c13:2c2c(R)  
       INTMEM:32                 undefined1 ??
                             DAT_INTMEM_33                                   XREF[3]:     FUN_CODE_083e:08e0(R), 
                                                                                          FUN_CODE_083e:0ba4(W), 
                                                                                          FUN_CODE_2c13:2c34(R)  
       INTMEM:33                 undefined1 ??
                             DAT_INTMEM_34                                   XREF[7]:     FUN_CODE_0756:078e(RW), 
                                                                                          FUN_CODE_0756:0793(RW), 
                                                                                          CODE:0f8f(RW), CODE:1793(R), 
                                                                                          CODE:179e(RW), CODE:17de(R), 
                                                                                          CODE:1960(RW)  
       INTMEM:34                 undefined1 ??
                             DAT_INTMEM_35                                   XREF[19]:    FUN_CODE_2036:2040(W), 
                                                                                          FUN_CODE_2036:2077(W), 
                                                                                          FUN_CODE_2092:2092(RW), 
                                                                                          FUN_CODE_2092:209f(W), 
                                                                                          FUN_CODE_20a7:20a7(RW), 
                                                                                          FUN_CODE_20a7:20b5(W), 
                                                                                          FUN_CODE_20a7:20bd(W), 
                                                                                          FUN_CODE_20f0:20f0(RW), 
                                                                                          CODE:20f5(RW), CODE:20fb(W), 
                                                                                          CODE:2100(RW), CODE:2103(W), 
                                                                                          CODE:2115(RW), CODE:2118(W), 
                                                                                          CODE:211e(W), CODE:213c(RW), 
                                                                                          CODE:2144(W), CODE:2176(RW), 
                                                                                          FUN_CODE_2191:2194(W)  
       INTMEM:35                 ??         ??
                             DAT_INTMEM_36                                   XREF[23]:    FUN_CODE_083e:092d(R), 
                                                                                          FUN_CODE_083e:0bf3(R), 
                                                                                          FUN_CODE_0cf7:0e50(R), 
                                                                                          CODE:0e90(R), CODE:1f10(R), 
                                                                                          FUN_CODE_2036:203b(R), 
                                                                                          FUN_CODE_2036:2051(R), 
                                                                                          FUN_CODE_2036:2059(R), 
                                                                                          FUN_CODE_2036:205e(W), 
                                                                                          FUN_CODE_2036:2070(R), 
                                                                                          FUN_CODE_2036:2082(W), 
                                                                                          FUN_CODE_2036:208a(W), 
                                                                                          FUN_CODE_2092:209a(W), 
                                                                                          FUN_CODE_20a7:20b2(W), 
                                                                                          FUN_CODE_20a7:20ba(W), 
                                                                                          CODE:2106(R), CODE:2121(R), 
                                                                                          CODE:2132(W), CODE:2156(W), 
                                                                                          FUN_CODE_2191:219c(R), [more]
       INTMEM:36                 undefined1 ??
                             DAT_INTMEM_37                                   XREF[28]:    FUN_CODE_083e:0c01(W), 
                                                                                          FUN_CODE_083e:0c11(W), 
                                                                                          CODE:1d6a(W), CODE:1d9d(W), 
                                                                                          CODE:1da5(W), CODE:1e32(R), 
                                                                                          CODE:1e34(W), CODE:1e3a(W), 
                                                                                          CODE:1e45(W), CODE:1e4c(R), 
                                                                                          CODE:1e4e(W), CODE:1e54(W), 
                                                                                          CODE:1e5f(W), CODE:1f1c(R), 
                                                                                          CODE:1f1e(W), CODE:1f24(W), 
                                                                                          CODE:1f2f(W), CODE:1f3f(W), 
                                                                                          FUN_CODE_2036:2049(R), 
                                                                                          FUN_CODE_2036:2064(W), [more]
       INTMEM:37                 undefined1 ??
                             DAT_INTMEM_38                                   XREF[2]:     CODE:13a6(W), CODE:13ab(RW)  
       INTMEM:38                 ??         ??
                             DAT_INTMEM_39                                   XREF[2]:     FUN_CODE_0756:077e(W), 
                                                                                          CODE:1393(R)  
       INTMEM:39                 undefined1 ??
                             DAT_INTMEM_3a                                   XREF[3]:     CODE:1385(R), CODE:1e13(W), 
                                                                                          CODE:1e75(W)  
       INTMEM:3a                 undefined1 ??
                             DAT_INTMEM_3b                                   XREF[6]:     CODE:1377(R), CODE:1d65(W), 
                                                                                          CODE:1e10(W), CODE:1ead(W), 
                                                                                          CODE:1ec0(W), CODE:1f7a(W)  
       INTMEM:3b                 undefined1 ??
                             DAT_INTMEM_3c                                   XREF[6]:     FUN_CODE_080d:082b(W), 
                                                                                          CODE:1379(R), CODE:1387(R), 
                                                                                          CODE:1395(R), CODE:13a1(R), 
                                                                                          CODE:13a4(W)  
       INTMEM:3c                 undefined1 ??
                             DAT_INTMEM_3d                                   XREF[28]:    FUN_CODE_083e:0b1b(W), 
                                                                                          FUN_CODE_083e:0b25(W), 
                                                                                          CODE:0ef6(W), CODE:0f12(RW), 
                                                                                          CODE:0f18(W), CODE:0f3a(W), 
                                                                                          CODE:0f3f(RW), CODE:0f44(W), 
                                                                                          CODE:0f4a(RW), CODE:0f92(W), 
                                                                                          CODE:0f9c(RW), CODE:0fe1(W), 
                                                                                          CODE:0feb(RW), CODE:11ae(W), 
                                                                                          CODE:11b8(RW), CODE:11ca(W), 
                                                                                          CODE:1211(RW), CODE:1228(W), 
                                                                                          CODE:1233(RW), CODE:1236(W), 
                                                                                          [more]
       INTMEM:3d                 undefined1 ??
                             DAT_INTMEM_3e                                   XREF[6]:     FUN_CODE_083e:08a7(R), 
                                                                                          CODE:1257(RW), CODE:1259(R), 
                                                                                          CODE:1e72(R), CODE:1ebb(W), 
                                                                                          CODE:1f74(W)  
       INTMEM:3e                 undefined1 ??
                             DAT_INTMEM_3f                                   XREF[3]:     FUN_CODE_083e:08fa(R), 
                                                                                          CODE:275d(R), CODE:2773(W)  
       INTMEM:3f                 undefined1 ??
                             DAT_INTMEM_40                                   XREF[5]:     FUN_CODE_083e:08ff(R), 
                                                                                          FUN_CODE_146e:1486(R), 
                                                                                          FUN_CODE_146e:14a1(R), 
                                                                                          CODE:275a(R), CODE:2770(W)  
       INTMEM:40                 undefined1 ??
                             DAT_INTMEM_41                                   XREF[3]:     FUN_CODE_083e:0904(R), 
                                                                                          CODE:2734(R), CODE:274a(W)  
       INTMEM:41                 undefined1 ??
                             DAT_INTMEM_42                                   XREF[5]:     FUN_CODE_083e:0909(R), 
                                                                                          FUN_CODE_146e:148c(R), 
                                                                                          FUN_CODE_146e:14ac(R), 
                                                                                          CODE:2731(R), CODE:2747(W)  
       INTMEM:42                 undefined1 ??
                             DAT_INTMEM_43                                   XREF[3]:     FUN_CODE_083e:090e(R), 
                                                                                          CODE:2710(R), CODE:2726(W)  
       INTMEM:43                 undefined1 ??
                             DAT_INTMEM_44                                   XREF[5]:     FUN_CODE_083e:0913(R), 
                                                                                          FUN_CODE_146e:1492(R), 
                                                                                          FUN_CODE_146e:14b7(R), 
                                                                                          CODE:270d(R), CODE:2723(W)  
       INTMEM:44                 undefined1 ??
                             DAT_INTMEM_45                                   XREF[3]:     FUN_CODE_083e:0918(R), 
                                                                                          FUN_CODE_1569:1593(R), 
                                                                                          CODE:2796(W)  
       INTMEM:45                 undefined1 ??
                             DAT_INTMEM_46                                   XREF[4]:     FUN_CODE_080d:0828(W), 
                                                                                          FUN_CODE_083e:091d(R), 
                                                                                          FUN_CODE_1569:1569(R), 
                                                                                          CODE:2793(W)  
       INTMEM:46                 undefined1 ??
                             DAT_INTMEM_47                                   XREF[1]:     CODE:275d(W)  
       INTMEM:47                 ??         ??
                             DAT_INTMEM_48                                   XREF[2]:     FUN_CODE_146e:14d7(R), 
                                                                                          CODE:275a(W)  
       INTMEM:48                 undefined1 ??
                             DAT_INTMEM_49                                   XREF[1]:     CODE:2734(W)  
       INTMEM:49                 ??         ??
                             DAT_INTMEM_4a                                   XREF[2]:     FUN_CODE_146e:14db(R), 
                                                                                          CODE:2731(W)  
       INTMEM:4a                 undefined1 ??
                             DAT_INTMEM_4b                                   XREF[1]:     CODE:2710(W)  
       INTMEM:4b                 ??         ??
                             DAT_INTMEM_4c                                   XREF[2]:     FUN_CODE_146e:14df(R), 
                                                                                          CODE:270d(W)  
       INTMEM:4c                 undefined1 ??
                             DAT_INTMEM_4d                                   XREF[2]:     FUN_CODE_146e:14e7(R), 
                                                                                          FUN_CODE_240d:24e1(W)  
       INTMEM:4d                 undefined1 ??
                             DAT_INTMEM_4e                                   XREF[2]:     FUN_CODE_146e:14f5(R), 
                                                                                          FUN_CODE_240d:24e4(W)  
       INTMEM:4e                 undefined1 ??
                             DAT_INTMEM_4f                                   XREF[2]:     FUN_CODE_146e:1503(R), 
                                                                                          FUN_CODE_240d:24e7(W)  
       INTMEM:4f                 undefined1 ??
                             DAT_INTMEM_50                                   XREF[2]:     FUN_CODE_146e:14a3(R), 
                                                                                          FUN_CODE_240d:24f0(W)  
       INTMEM:50                 ??         ??
                             DAT_INTMEM_51                                   XREF[2]:     FUN_CODE_146e:14ae(R), 
                                                                                          FUN_CODE_240d:24f3(W)  
       INTMEM:51                 ??         ??
                             DAT_INTMEM_52                                   XREF[2]:     FUN_CODE_146e:14b9(R), 
                                                                                          FUN_CODE_240d:24f6(W)  
       INTMEM:52                 ??         ??
                             DAT_INTMEM_53                                   XREF[3]:     FUN_CODE_080d:0822(W), 
                                                                                          FUN_CODE_1f9f:1fa5(RW), 
                                                                                          FUN_CODE_1f9f:1fa8(W)  
       INTMEM:53                 ??         ??
                             DAT_INTMEM_54                                   XREF[4]:     FUN_CODE_080d:0825(W), 
                                                                                          FUN_CODE_083e:0bd0(W), 
                                                                                          FUN_CODE_1f9f:1fc1(W), 
                                                                                          FUN_CODE_1f9f:1fc5(RW)  
       INTMEM:54                 ??         ??
                             DAT_INTMEM_55                                   XREF[3]:     FUN_CODE_146e:1474(W), 
                                                                                          FUN_CODE_146e:147e(RW), 
                                                                                          FUN_CODE_146e:1481(W)  
       INTMEM:55                 ??         ??
                             DAT_INTMEM_56                                   XREF[10]:    FUN_CODE_083e:0922(R), 
                                                                                          FUN_CODE_146e:1471(W), 
                                                                                          FUN_CODE_146e:1529(R), 
                                                                                          FUN_CODE_146e:152c(W), 
                                                                                          FUN_CODE_146e:1538(R), 
                                                                                          FUN_CODE_146e:154c(R), 
                                                                                          FUN_CODE_1569:15a1(W), 
                                                                                          FUN_CODE_1612:16b5(R), 
                                                                                          FUN_CODE_1612:16cc(R), 
                                                                                          FUN_CODE_1612:16d3(R)  
       INTMEM:56                 undefined1 ??
                             DAT_INTMEM_57                                   XREF[3]:     FUN_CODE_083e:0bdc(W), 
                                                                                          FUN_CODE_146e:153a(R), 
                                                                                          FUN_CODE_240d:2485(W)  
       INTMEM:57                 undefined1 ??
                             DAT_INTMEM_58                                   XREF[3]:     FUN_CODE_083e:0be7(W), 
                                                                                          FUN_CODE_146e:154e(R), 
                                                                                          FUN_CODE_240d:2488(W)  
       INTMEM:58                 undefined1 ??
                             DAT_INTMEM_59                                   XREF[19]:    FUN_CODE_083e:0cbe(W), 
                                                                                          CODE:0fa1(W), CODE:0fc5(W), 
                                                                                          CODE:100b(W), CODE:118d(W), 
                                                                                          CODE:11bb(W), CODE:1214(W), 
                                                                                          CODE:1244(W), 
                                                                                          FUN_CODE_146e:14c7(W), 
                                                                                          CODE:1861(R), CODE:1868(R), 
                                                                                          CODE:1876(R), CODE:1a92(W), 
                                                                                          FUN_CODE_1c98:1cbb(W), 
                                                                                          FUN_CODE_1c98:1ccb(W), 
                                                                                          FUN_CODE_1c98:1cdb(W), 
                                                                                          FUN_CODE_1c98:1ceb(W), 
                                                                                          FUN_CODE_1f9f:1fca(W), 
                                                                                          CODE:27f0(R)  
       INTMEM:59                 undefined1 ??
                             DAT_INTMEM_5a                                   XREF[20]:    FUN_CODE_083e:0cc2(W), 
                                                                                          CODE:0fa7(W), CODE:0fcb(W), 
                                                                                          CODE:1011(W), CODE:1193(W), 
                                                                                          CODE:11c1(W), CODE:121a(W), 
                                                                                          CODE:124a(W), 
                                                                                          FUN_CODE_146e:14cb(W), 
                                                                                          CODE:1858(R), CODE:1a98(W), 
                                                                                          CODE:1c79(R), CODE:1c7d(W), 
                                                                                          CODE:1c88(W), CODE:1c8d(W), 
                                                                                          FUN_CODE_1c98:1cc1(W), 
                                                                                          FUN_CODE_1c98:1cd1(W), 
                                                                                          FUN_CODE_1c98:1ce1(W), 
                                                                                          FUN_CODE_1c98:1cf1(W), 
                                                                                          FUN_CODE_1f9f:1fd0(W)  
       INTMEM:5a                 undefined1 ??
                             DAT_INTMEM_5b                                   XREF[16]:    FUN_CODE_083e:0cc0(W), 
                                                                                          CODE:0fa4(W), CODE:0fc8(W), 
                                                                                          CODE:100e(W), CODE:1190(W), 
                                                                                          CODE:11be(W), CODE:1217(W), 
                                                                                          CODE:1247(W), 
                                                                                          FUN_CODE_146e:14c9(W), 
                                                                                          CODE:17ee(R), CODE:1a95(W), 
                                                                                          FUN_CODE_1c98:1cbe(W), 
                                                                                          FUN_CODE_1c98:1cce(W), 
                                                                                          FUN_CODE_1c98:1cde(W), 
                                                                                          FUN_CODE_1c98:1cee(W), 
                                                                                          FUN_CODE_1f9f:1fcd(W)  
       INTMEM:5b                 undefined1 ??
                             DAT_INTMEM_5c                                   XREF[6]:     FUN_CODE_083e:0ccc(W), 
                                                                                          FUN_CODE_083e:0cd2(W), 
                                                                                          FUN_CODE_083e:0cd8(W), 
                                                                                          FUN_CODE_083e:0ce0(R), 
                                                                                          CODE:1261(W), CODE:1266(R)  
       INTMEM:5c                 undefined1 ??
                             DAT_INTMEM_5d                                   XREF[9]:     CODE:12c5(W), CODE:12cd(R), 
                                                                                          CODE:12e2(R), CODE:12e8(W), 
                                                                                          CODE:12f7(R), CODE:1307(R), 
                                                                                          CODE:1b03(RW), CODE:1b0b(R), 
                                                                                          CODE:1b0f(W)  
       INTMEM:5d                 undefined1 ??
                             DAT_INTMEM_5e                                   XREF[3]:     CODE:12bf(W), CODE:12f0(RW), 
                                                                                          CODE:12ff(W)  
       INTMEM:5e                 ??         ??
                             DAT_INTMEM_5f                                   XREF[8]:     CODE:179b(W), CODE:17f0(W), 
                                                                                          CODE:17f6(R), CODE:18a2(R), 
                                                                                          CODE:1947(R), CODE:1959(R), 
                                                                                          CODE:195d(R), CODE:1964(R)  
       INTMEM:5f                 undefined1 ??
                             DAT_INTMEM_60                                   XREF[5]:     FUN_CODE_0756:0798(R), 
                                                                                          FUN_CODE_0756:079c(RW), 
                                                                                          FUN_CODE_0756:079e(R), 
                                                                                          FUN_CODE_083e:0991(W), 
                                                                                          FUN_CODE_083e:0999(W)  
       INTMEM:60                 undefined1 ??
                             DAT_INTMEM_61                                   XREF[17]:    FUN_CODE_080d:082e(W), 
                                                                                          FUN_CODE_083e:0c1e(R), 
                                                                                          FUN_CODE_083e:0c3d(W), 
                                                                                          FUN_CODE_083e:0c43(R), 
                                                                                          FUN_CODE_083e:0c58(W), 
                                                                                          CODE:1721(R), CODE:1738(W), 
                                                                                          CODE:1809(R), CODE:1843(R), 
                                                                                          CODE:184e(R), CODE:1dee(W), 
                                                                                          CODE:1f3a(W), CODE:1f60(RW), 
                                                                                          FUN_CODE_21d2:21de(R), 
                                                                                          FUN_CODE_21d2:21e4(W), 
                                                                                          FUN_CODE_21d2:21e9(R), 
                                                                                          FUN_CODE_21d2:21ef(W)  
       INTMEM:61                 undefined1 ??
                             DAT_INTMEM_62                                   XREF[14]:    FUN_CODE_083e:089d(R), 
                                                                                          CODE:1d98(W), CODE:1da0(W), 
                                                                                          CODE:1da8(W), CODE:1dad(W), 
                                                                                          CODE:1db2(W), CODE:1db7(W), 
                                                                                          CODE:1dbc(W), CODE:1dc1(W), 
                                                                                          CODE:1dc6(W), CODE:1dcb(W), 
                                                                                          CODE:1dd3(W), CODE:1f51(W), 
                                                                                          CODE:1f58(W)  
       INTMEM:62                 undefined1 ??
                             DAT_INTMEM_63                                   XREF[2]:     FUN_CODE_083e:0b5c(W), 
                                                                                          CODE:0f42(R)  
       INTMEM:63                 undefined1 ??
                             DAT_INTMEM_64                                   XREF[4]:     FUN_CODE_1fed:1fed(W), 
                                                                                          FUN_CODE_1ff7:1ffc(RW), 
                                                                                          FUN_CODE_2007:2007(W), 
                                                                                          FUN_CODE_2011:2016(RW)  
       INTMEM:64                 ??         ??
                             DAT_INTMEM_65                                   XREF[8]:     FUN_CODE_083e:0bf8(W), 
                                                                                          FUN_CODE_083e:0c08(W), 
                                                                                          CODE:0ef9(W), CODE:0f1b(RW), 
                                                                                          CODE:1ee7(R), CODE:1f02(RW), 
                                                                                          CODE:1f17(W), 
                                                                                          FUN_CODE_2191:21a2(W)  
       INTMEM:65                 undefined1 ??
                             DAT_INTMEM_66                                   XREF[3]:     FUN_CODE_083e:0a84(R), 
                                                                                          FUN_CODE_083e:0cf2(W), 
                                                                                          CODE:1f4b(W)  
       INTMEM:66                 undefined1 ??
                             DAT_INTMEM_67                                   XREF[3]:     FUN_CODE_083e:0a89(R), 
                                                                                          FUN_CODE_083e:0cf4(W), 
                                                                                          CODE:1f4e(W)  
       INTMEM:67                 undefined1 ??
                             DAT_INTMEM_68                                   XREF[11]:    CODE:0574(W), CODE:0578(W), 
                                                                                          CODE:057c(W), CODE:0580(W), 
                                                                                          CODE:0584(W), CODE:0588(W), 
                                                                                          CODE:058c(W), CODE:0590(W), 
                                                                                          CODE:0594(W), 
                                                                                          FUN_CODE_062f:062f(R), 
                                                                                          FUN_CODE_22f9:2305(W)  
       INTMEM:68                 undefined1 ??
                             DAT_INTMEM_69                                   XREF[17]:    CODE:04d0(W), CODE:04f3(W), 
                                                                                          CODE:04f8(RW), CODE:0507(RW), 
                                                                                          CODE:050d(RW), CODE:0515(W), 
                                                                                          CODE:053c(RW), CODE:0559(W), 
                                                                                          CODE:0565(RW), CODE:056f(W), 
                                                                                          CODE:059b(RW), CODE:05c8(W), 
                                                                                          CODE:05d9(RW), CODE:05e0(W), 
                                                                                          CODE:0604(RW), CODE:0615(W), 
                                                                                          CODE:0622(W)  
       INTMEM:69                 ??         ??
                             DAT_INTMEM_6a                                   XREF[6]:     CODE:04f0(W), CODE:0556(W), 
                                                                                          CODE:05a5(RW), CODE:05e3(R), 
                                                                                          CODE:05e5(RW), CODE:0611(R)  
       INTMEM:6a                 undefined1 ??
                             DAT_INTMEM_6b                                   XREF[4]:     CODE:05b5(R), CODE:05cb(R), 
                                                                                          CODE:05d0(W), 
                                                                                          FUN_CODE_2967:296c(R)  
       INTMEM:6b                 undefined1 ??
                             DAT_INTMEM_6c                                   XREF[7]:     CODE:0545(W), CODE:054c(R), 
                                                                                          CODE:05f8(R), CODE:05fb(W), 
                                                                                          FUN_CODE_2971:2971(W), 
                                                                                          FUN_CODE_2971:2985(R), 
                                                                                          FUN_CODE_299a:29b0(W)  
       INTMEM:6c                 undefined1 ??
                             DAT_INTMEM_6d                                   XREF[4]:     CODE:0545(R), CODE:05b5(W), 
                                                                                          FUN_CODE_2971:2973(W), 
                                                                                          FUN_CODE_299a:29a4(R)  
       INTMEM:6d                 undefined1 ??
                             DAT_INTMEM_6e                                   XREF[4]:     CODE:052c(R), CODE:0535(RW), 
                                                                                          FUN_CODE_2971:297c(W), 
                                                                                          FUN_CODE_299a:29b2(W)  
       INTMEM:6e                 undefined1 ??
                             DAT_INTMEM_6f                                   XREF[17]:    FUN_CODE_02fe:0321(R), 
                                                                                          FUN_CODE_02fe:03a5(RW), 
                                                                                          FUN_CODE_02fe:03b3(W), 
                                                                                          FUN_CODE_02fe:03c2(W), 
                                                                                          FUN_CODE_02fe:03df(RW), 
                                                                                          FUN_CODE_02fe:03ed(RW), 
                                                                                          FUN_CODE_02fe:03fb(RW), 
                                                                                          FUN_CODE_02fe:03ff(W), 
                                                                                          FUN_CODE_02fe:041f(RW), 
                                                                                          FUN_CODE_02fe:0427(RW), 
                                                                                          FUN_CODE_02fe:0435(RW), 
                                                                                          FUN_CODE_02fe:0459(RW), 
                                                                                          FUN_CODE_02fe:0461(RW), 
                                                                                          FUN_CODE_02fe:0478(W), 
                                                                                          FUN_CODE_02fe:0480(W), 
                                                                                          FUN_CODE_02fe:048a(RW), 
                                                                                          FUN_CODE_0496:04b1(W)  
       INTMEM:6f                 undefined1 ??
                             DAT_INTMEM_70                                   XREF[7]:     FUN_CODE_02fe:0393(W), 
                                                                                          FUN_CODE_02fe:046a(W), 
                                                                                          FUN_CODE_02fe:0470(R), 
                                                                                          FUN_CODE_2a20:2a23(R), 
                                                                                          FUN_CODE_2a20:2a4f(R), 
                                                                                          FUN_CODE_2a20:2a85(R), 
                                                                                          FUN_CODE_2a20:2a93(R)  
       INTMEM:70                 undefined1 ??
                             DAT_INTMEM_71                                   XREF[12]:    FUN_CODE_02fe:040e(R), 
                                                                                          FUN_CODE_02fe:0411(W), 
                                                                                          FUN_CODE_02fe:046d(W), 
                                                                                          FUN_CODE_2a20:2a27(R), 
                                                                                          FUN_CODE_2a9d:2a9e(R), 
                                                                                          FUN_CODE_2a9d:2adb(R), 
                                                                                          FUN_CODE_2ae0:2ae3(R), 
                                                                                          FUN_CODE_2ae0:2aea(R), 
                                                                                          FUN_CODE_2ae0:2b55(R), 
                                                                                          FUN_CODE_2b5a:2b5b(R), 
                                                                                          FUN_CODE_2b5a:2bee(R), 
                                                                                          FUN_CODE_2bf3:2bf3(R)  
       INTMEM:71                 undefined1 ??
                             DAT_INTMEM_72                                   XREF[11]:    FUN_CODE_02fe:0409(R), 
                                                                                          FUN_CODE_02fe:040c(W), 
                                                                                          FUN_CODE_02fe:0448(R), 
                                                                                          FUN_CODE_02fe:044b(W), 
                                                                                          FUN_CODE_2a20:2a39(R), 
                                                                                          FUN_CODE_2a20:2a6c(R), 
                                                                                          FUN_CODE_2a20:2a6f(W), 
                                                                                          FUN_CODE_2a20:2a7f(R), 
                                                                                          FUN_CODE_2a20:2a95(R), 
                                                                                          FUN_CODE_2ae0:2afc(R), 
                                                                                          FUN_CODE_2b5a:2b6d(R)  
       INTMEM:72                 undefined1 ??
                             DAT_INTMEM_73                                   XREF[9]:     FUN_CODE_02fe:0443(R), 
                                                                                          FUN_CODE_02fe:0446(W), 
                                                                                          FUN_CODE_02fe:046a(R), 
                                                                                          FUN_CODE_2a20:2a67(R), 
                                                                                          FUN_CODE_2a20:2a6a(W), 
                                                                                          FUN_CODE_2a20:2a78(R), 
                                                                                          FUN_CODE_2a20:2a97(R), 
                                                                                          FUN_CODE_2ae0:2b18(R), 
                                                                                          FUN_CODE_2b5a:2b98(R)  
       INTMEM:73                 undefined1 ??
                             DAT_INTMEM_74                                   XREF[13]:    FUN_CODE_02fe:0390(W), 
                                                                                          FUN_CODE_02fe:043e(R), 
                                                                                          FUN_CODE_02fe:0441(W), 
                                                                                          FUN_CODE_02fe:046d(R), 
                                                                                          FUN_CODE_2a20:2a51(R), 
                                                                                          FUN_CODE_2a20:2a62(R), 
                                                                                          FUN_CODE_2a20:2a65(W), 
                                                                                          FUN_CODE_2a20:2a71(R), 
                                                                                          FUN_CODE_2a20:2a99(R), 
                                                                                          FUN_CODE_2a9d:2ab0(R), 
                                                                                          FUN_CODE_2ae0:2ae0(R), 
                                                                                          FUN_CODE_2ae0:2b43(R), 
                                                                                          FUN_CODE_2b5a:2bc3(R)  
       INTMEM:74                 undefined1 ??
                             DAT_INTMEM_75                                   XREF[7]:     FUN_CODE_02fe:02e7(RW), 
                                                                                          FUN_CODE_02fe:0311(W), 
                                                                                          FUN_CODE_02fe:0314(R), 
                                                                                          FUN_CODE_02fe:0396(R), 
                                                                                          FUN_CODE_02fe:03c7(R), 
                                                                                          FUN_CODE_02fe:0404(R), 
                                                                                          FUN_CODE_02fe:0439(R)  
       INTMEM:75                 undefined1 ??
                             DAT_INTMEM_76                                   XREF[5]:     FUN_CODE_013a:0146(RW), 
                                                                                          FUN_CODE_2286:2286(W), 
                                                                                          FUN_CODE_2293:2293(R), 
                                                                                          FUN_CODE_2293:229e(R), 
                                                                                          FUN_CODE_2293:22a3(W)  
       INTMEM:76                 undefined1 ??
                             DAT_INTMEM_77                                   XREF[3]:     FUN_CODE_013a:0154(RW), 
                                                                                          FUN_CODE_2536:2536(W), 
                                                                                          FUN_CODE_253a:253a(R)  
       INTMEM:77                 undefined1 ??
                             DAT_INTMEM_78                                   XREF[14]:    FUN_CODE_255c:255c(W), 
                                                                                          FUN_CODE_2564:2564(W), 
                                                                                          FUN_CODE_2569:2569(W), 
                                                                                          FUN_CODE_256e:256e(W), 
                                                                                          FUN_CODE_2573:2573(W), 
                                                                                          FUN_CODE_2578:2578(W), 
                                                                                          FUN_CODE_257d:257d(W), 
                                                                                          FUN_CODE_2582:2582(W), 
                                                                                          FUN_CODE_2587:258a(R), 
                                                                                          FUN_CODE_258f:25ad(R), 
                                                                                          CODE:279e(R), CODE:27c5(R), 
                                                                                          CODE:27d4(W), CODE:27d7(R)  
       INTMEM:78                 undefined1 ??
                             DAT_INTMEM_79                                   XREF[41]:    FUN_CODE_2587:258a(W), 
                                                                                          FUN_CODE_258f:25ad(W), 
                                                                                          FUN_CODE_25c4:25c7(R), 
                                                                                          CODE:25ea(RW), CODE:25f2(RW), 
                                                                                          CODE:2605(RW), CODE:2607(R), 
                                                                                          CODE:260f(RW), CODE:2611(R), 
                                                                                          CODE:2616(RW), CODE:2618(R), 
                                                                                          CODE:261d(RW), CODE:261f(R), 
                                                                                          CODE:2630(RW), CODE:2632(R), 
                                                                                          CODE:2639(RW), CODE:2653(RW), 
                                                                                          CODE:2655(R), CODE:265c(RW), 
                                                                                          CODE:266d(RW), [more]
       INTMEM:79                 undefined1 ??
                             DAT_INTMEM_7a                                   XREF[3]:     FUN_CODE_255c:255f(W), 
                                                                                          FUN_CODE_2587:2587(W), 
                                                                                          FUN_CODE_258f:25a3(RW)  
       INTMEM:7a                 ??         ??
       INTMEM:7b                 ??         ??
                             DAT_INTMEM_7c                                   XREF[2]:     FUN_CODE_2971:2979(W), 
                                                                                          FUN_CODE_299a:29a7(RW)  
       INTMEM:7c                 ??         ??
       INTMEM:7d                 ??         ??
       INTMEM:7e                 ??         ??
       INTMEM:7f                 ??         ??
       INTMEM:80                 ??         ??
       INTMEM:81                 ??         ??
       INTMEM:82                 ??         ??
       INTMEM:83                 ??         ??
       INTMEM:84                 ??         ??
       INTMEM:85                 ??         ??
       INTMEM:86                 ??         ??
       INTMEM:87                 ??         ??
       INTMEM:88                 ??         ??
       INTMEM:89                 ??         ??
       INTMEM:8a                 ??         ??
       INTMEM:8b                 ??         ??
       INTMEM:8c                 ??         ??
       INTMEM:8d                 ??         ??
       INTMEM:8e                 ??         ??
       INTMEM:8f                 ??         ??
       INTMEM:90                 ??         ??
       INTMEM:91                 ??         ??
       INTMEM:92                 ??         ??
       INTMEM:93                 ??         ??
       INTMEM:94                 ??         ??
       INTMEM:95                 ??         ??
       INTMEM:96                 ??         ??
       INTMEM:97                 ??         ??
       INTMEM:98                 ??         ??
       INTMEM:99                 ??         ??
       INTMEM:9a                 ??         ??
       INTMEM:9b                 ??         ??
       INTMEM:9c                 ??         ??
       INTMEM:9d                 ??         ??
       INTMEM:9e                 ??         ??
       INTMEM:9f                 ??         ??
       INTMEM:a0                 ??         ??
       INTMEM:a1                 ??         ??
       INTMEM:a2                 ??         ??
       INTMEM:a3                 ??         ??
       INTMEM:a4                 ??         ??
       INTMEM:a5                 ??         ??
       INTMEM:a6                 ??         ??
       INTMEM:a7                 ??         ??
       INTMEM:a8                 ??         ??
       INTMEM:a9                 ??         ??
       INTMEM:aa                 ??         ??
       INTMEM:ab                 ??         ??
       INTMEM:ac                 ??         ??
       INTMEM:ad                 ??         ??
       INTMEM:ae                 ??         ??
       INTMEM:af                 ??         ??
       INTMEM:b0                 ??         ??
       INTMEM:b1                 ??         ??
       INTMEM:b2                 ??         ??
       INTMEM:b3                 ??         ??
       INTMEM:b4                 ??         ??
       INTMEM:b5                 ??         ??
       INTMEM:b6                 ??         ??
       INTMEM:b7                 ??         ??
       INTMEM:b8                 ??         ??
       INTMEM:b9                 ??         ??
       INTMEM:ba                 ??         ??
       INTMEM:bb                 ??         ??
       INTMEM:bc                 ??         ??
                             DAT_INTMEM_bd                                   XREF[10]:    FUN_CODE_1d44:1d49(R), 
                                                                                          FUN_CODE_1d44:1d4a(R), 
                                                                                          FUN_CODE_1d44:1d4b(R), 
                                                                                          CODE:1e8b(W), CODE:1e90(W), 
                                                                                          CODE:1e95(W), CODE:1e9a(W), 
                                                                                          CODE:1e9f(W), CODE:1ea4(W), 
                                                                                          CODE:1ea9(W)  
       INTMEM:bd                 undefined1 ??
                             DAT_INTMEM_be                                   XREF[7]:     FUN_CODE_1fed:1fda(W), 
                                                                                          FUN_CODE_1fdd:1fdf(W), 
                                                                                          FUN_CODE_1fe2:1fe4(W), 
                                                                                          FUN_CODE_1fe7:1fe9(W), 
                                                                                          FUN_CODE_2021:2023(R), 
                                                                                          FUN_CODE_2021:2024(R), 
                                                                                          FUN_CODE_2021:2025(R)  
       INTMEM:be                 undefined1 ??
                             DAT_INTMEM_bf                                   XREF[6]:     FUN_CODE_07ea:0801(W), 
                                                                                          FUN_CODE_083e:0940(R), 
                                                                                          FUN_CODE_083e:0c84(W), 
                                                                                          CODE:177a(R), CODE:193c(W), 
                                                                                          FUN_CODE_2bf7:2bf9(R)  
       INTMEM:bf                 undefined1 ??
                             DAT_INTMEM_c0                                   XREF[3]:     FUN_CODE_1b47:1b66(R), 
                                                                                          FUN_CODE_1b47:1b69(W), 
                                                                                          FUN_CODE_1b47:1b7f(W)  
       INTMEM:c0                 undefined1 ??
                             DAT_INTMEM_c1                                   XREF[5]:     FUN_CODE_07ea:0805(W), 
                                                                                          FUN_CODE_1b47:1b49(R), 
                                                                                          FUN_CODE_1b47:1b4e(RW), 
                                                                                          FUN_CODE_1b47:1b70(R), 
                                                                                          FUN_CODE_1b47:1b79(W)  
       INTMEM:c1                 undefined1 ??
                             DAT_INTMEM_c2                                   XREF[8]:     CODE:10f2(W), CODE:10f7(W), 
                                                                                          CODE:10fc(W), CODE:1101(W), 
                                                                                          FUN_CODE_114a:114f(W), 
                                                                                          FUN_CODE_114a:1154(R), 
                                                                                          FUN_CODE_114a:1155(R), 
                                                                                          FUN_CODE_114a:1156(R)  
       INTMEM:c2                 undefined1 ??
                             DAT_INTMEM_c3                                   XREF[13]:    CODE:0f60(W), CODE:0f65(W), 
                                                                                          CODE:0f6a(W), CODE:0f6f(W), 
                                                                                          CODE:0f74(W), CODE:0f79(W), 
                                                                                          CODE:0f7e(W), CODE:0f83(W), 
                                                                                          CODE:0f88(W), 
                                                                                          FUN_CODE_1021:1028(W), 
                                                                                          FUN_CODE_1021:102d(R), 
                                                                                          FUN_CODE_1021:102e(R), 
                                                                                          FUN_CODE_1021:102f(R)  
       INTMEM:c3                 undefined1 ??
                             DAT_INTMEM_c4                                   XREF[16]:    CODE:11d1(W), CODE:11d6(W), 
                                                                                          CODE:11db(W), CODE:11e0(W), 
                                                                                          CODE:11e5(W), CODE:11ea(W), 
                                                                                          CODE:11ef(W), CODE:11f4(W), 
                                                                                          CODE:11f9(W), CODE:11fe(W), 
                                                                                          CODE:1203(W), CODE:1208(W), 
                                                                                          FUN_CODE_127a:127f(W), 
                                                                                          FUN_CODE_127a:1284(R), 
                                                                                          FUN_CODE_127a:1285(R), 
                                                                                          FUN_CODE_127a:1286(R)  
       INTMEM:c4                 undefined1 ??
                             DAT_INTMEM_c5                                   XREF[6]:     CODE:1059(W), CODE:105e(W), 
                                                                                          FUN_CODE_10d6:10db(W), 
                                                                                          FUN_CODE_10d6:10e0(R), 
                                                                                          FUN_CODE_10d6:10e1(R), 
                                                                                          FUN_CODE_10d6:10e2(R)  
       INTMEM:c5                 undefined1 ??
                             DAT_INTMEM_c6                                   XREF[15]:    FUN_CODE_0e58:0e5d(W), 
                                                                                          FUN_CODE_0e58:0e62(R), 
                                                                                          FUN_CODE_0e58:0e63(R), 
                                                                                          FUN_CODE_0e58:0e64(R), 
                                                                                          CODE:0eb6(W), CODE:0ebb(W), 
                                                                                          CODE:0ec0(W), CODE:0ec5(W), 
                                                                                          CODE:0eca(W), CODE:0ecf(W), 
                                                                                          CODE:0ed4(W), CODE:0ed9(W), 
                                                                                          CODE:0ede(W), CODE:0ee3(W), 
                                                                                          CODE:0ee8(W)  
       INTMEM:c6                 undefined1 ??
                             DAT_INTMEM_c7                                   XREF[6]:     CODE:12b1(W), CODE:12b6(W), 
                                                                                          CODE:12bb(W), 
                                                                                          FUN_CODE_1312:1314(R), 
                                                                                          FUN_CODE_1312:1315(R), 
                                                                                          FUN_CODE_1312:1316(R)  
       INTMEM:c7                 undefined1 ??
                             DAT_INTMEM_c8                                   XREF[7]:     CODE:1326(W), CODE:132b(W), 
                                                                                          CODE:1330(W), CODE:1335(W), 
                                                                                          FUN_CODE_1339:133b(R), 
                                                                                          FUN_CODE_1339:133c(R), 
                                                                                          FUN_CODE_1339:133d(R)  
       INTMEM:c8                 undefined1 ??
                             DAT_INTMEM_c9                                   XREF[5]:     CODE:136e(W), CODE:1373(W), 
                                                                                          FUN_CODE_13b0:13b2(R), 
                                                                                          FUN_CODE_13b0:13b3(R), 
                                                                                          FUN_CODE_13b0:13b4(R)  
       INTMEM:c9                 undefined1 ??
                             DAT_INTMEM_ca                                   XREF[6]:     CODE:13cb(W), CODE:13d0(W), 
                                                                                          CODE:13d5(W), 
                                                                                          FUN_CODE_1459:145b(R), 
                                                                                          FUN_CODE_1459:145c(R), 
                                                                                          FUN_CODE_1459:145d(R)  
       INTMEM:ca                 undefined1 ??
       INTMEM:cb                 ??         ??
                             DAT_INTMEM_cc                                   XREF[11]:    CODE:18d6(W), CODE:18db(W), 
                                                                                          CODE:18e0(W), CODE:18e5(W), 
                                                                                          CODE:18ea(W), CODE:18ef(W), 
                                                                                          CODE:18f4(W), CODE:18f9(W), 
                                                                                          FUN_CODE_1973:1998(R), 
                                                                                          FUN_CODE_1973:1999(R), 
                                                                                          FUN_CODE_1973:199a(R)  
       INTMEM:cc                 undefined1 ??
                             DAT_INTMEM_cd                                   XREF[12]:    FUN_CODE_19b7:19b9(R), 
                                                                                          FUN_CODE_19b7:19ba(R), 
                                                                                          FUN_CODE_19b7:19bb(R), 
                                                                                          CODE:1ab8(W), CODE:1abd(W), 
                                                                                          CODE:1ac2(W), CODE:1ac7(W), 
                                                                                          CODE:1acc(W), CODE:1ad1(W), 
                                                                                          CODE:1ad6(W), CODE:1adb(W), 
                                                                                          CODE:1ae0(W)  
       INTMEM:cd                 undefined1 ??
                             DAT_INTMEM_ce                                   XREF[8]:     CODE:1bf8(W), CODE:1bfd(W), 
                                                                                          CODE:1c02(W), CODE:1c07(W), 
                                                                                          CODE:1c0c(W), 
                                                                                          FUN_CODE_1c10:1c12(R), 
                                                                                          FUN_CODE_1c10:1c13(R), 
                                                                                          FUN_CODE_1c10:1c14(R)  
       INTMEM:ce                 undefined1 ??
                             DAT_INTMEM_cf                                   XREF[6]:     CODE:1cfb(W), CODE:1d00(W), 
                                                                                          CODE:1d05(W), 
                                                                                          FUN_CODE_1d32:1d34(R), 
                                                                                          FUN_CODE_1d32:1d35(R), 
                                                                                          FUN_CODE_1d32:1d36(R)  
       INTMEM:cf                 undefined1 ??
                             DAT_INTMEM_d0                                   XREF[13]:    FUN_CODE_2092:20c4(W), 
                                                                                          FUN_CODE_20c7:20c9(W), 
                                                                                          FUN_CODE_20cc:20ce(W), 
                                                                                          FUN_CODE_20d1:20d3(W), 
                                                                                          FUN_CODE_20d6:20d8(W), 
                                                                                          FUN_CODE_20db:20dd(W), 
                                                                                          CODE:20e2(W), CODE:20e7(W), 
                                                                                          CODE:20ec(W), 
                                                                                          FUN_CODE_2191:2199(W), 
                                                                                          FUN_CODE_2191:21ad(R), 
                                                                                          FUN_CODE_2191:21ae(R), 
                                                                                          FUN_CODE_2191:21af(R)  
       INTMEM:d0                 undefined1 ??
                             DAT_INTMEM_d1                                   XREF[5]:     CODE:21f6(W), CODE:21fb(W), 
                                                                                          FUN_CODE_221d:221f(R), 
                                                                                          FUN_CODE_221d:2220(R), 
                                                                                          FUN_CODE_221d:2221(R)  
       INTMEM:d1                 undefined1 ??
                             DAT_INTMEM_d2                                   XREF[3]:     FUN_CODE_0cf7:0e0e(R), 
                                                                                          CODE:1b2c(W), 
                                                                                          FUN_CODE_1b47:1bf2(W)  
       INTMEM:d2                 undefined1 ??
                             DAT_INTMEM_d3                                   XREF[3]:     FUN_CODE_0cf7:0e1e(R), 
                                                                                          CODE:1b29(W), 
                                                                                          FUN_CODE_1b47:1be2(W)  
       INTMEM:d3                 undefined1 ??
                             DAT_INTMEM_d4                                   XREF[2]:     FUN_CODE_0cf7:0e22(R), 
                                                                                          FUN_CODE_1b47:1be8(W)  
       INTMEM:d4                 undefined1 ??
                             DAT_INTMEM_d5                                   XREF[2]:     FUN_CODE_0cf7:0e26(R), 
                                                                                          FUN_CODE_1b47:1bee(W)  
       INTMEM:d5                 undefined1 ??
                             DAT_INTMEM_d6                                   XREF[3]:     FUN_CODE_083e:0c5e(W), 
                                                                                          CODE:18ca(R), CODE:1907(R)  
       INTMEM:d6                 undefined1 ??
                             DAT_INTMEM_d7                                   XREF[9]:     FUN_CODE_083e:0ce0(W), 
                                                                                          CODE:1266(W), CODE:1727(R), 
                                                                                          CODE:1813(R), CODE:184b(R), 
                                                                                          CODE:1c6d(R), CODE:1f67(W), 
                                                                                          CODE:1f92(W), CODE:1f99(W)  
       INTMEM:d7                 undefined1 ??
                             DAT_INTMEM_d8                                   XREF[5]:     FUN_CODE_083e:0c9f(W), 
                                                                                          FUN_CODE_0cf7:0dee(R), 
                                                                                          CODE:1826(R), CODE:191c(R), 
                                                                                          CODE:1923(W)  
       INTMEM:d8                 undefined1 ??
                             DAT_INTMEM_d9                                   XREF[4]:     FUN_CODE_083e:0ca4(W), 
                                                                                          FUN_CODE_0cf7:0df2(R), 
                                                                                          CODE:1822(R), CODE:1919(W)  
       INTMEM:d9                 undefined1 ??
       INTMEM:da                 ??         ??
                             DAT_INTMEM_db                                   XREF[1]:     FUN_CODE_146e:152b(R)  
       INTMEM:db                 undefined1 ??
       INTMEM:dc                 ??         ??
       INTMEM:dd                 ??         ??
       INTMEM:de                 ??         ??
       INTMEM:df                 ??         ??
                             DAT_INTMEM_e0                                   XREF[3]:     CODE:1b08(R), CODE:1b23(R), 
                                                                                          CODE:27e4(W)  
       INTMEM:e0                 undefined1 ??
                             DAT_INTMEM_e1                                   XREF[2]:     FUN_CODE_2971:2978(W), 
                                                                                          FUN_CODE_299a:29b0(R)  
       INTMEM:e1                 undefined1 ??
                             DAT_INTMEM_e2                                   XREF[2]:     FUN_CODE_240d:24df(W), 
                                                                                          CODE:262b(R)  
       INTMEM:e2                 undefined1 ??
                             DAT_INTMEM_e3                                   XREF[1]:     FUN_CODE_240d:2493(W)  
       INTMEM:e3                 undefined1 ??
                             DAT_INTMEM_e4                                   XREF[1]:     FUN_CODE_240d:2496(W)  
       INTMEM:e4                 undefined1 ??
                             DAT_INTMEM_e5                                   XREF[1]:     FUN_CODE_240d:2499(W)  
       INTMEM:e5                 undefined1 ??
                             DAT_INTMEM_e6                                   XREF[1]:     FUN_CODE_240d:249c(W)  
       INTMEM:e6                 undefined1 ??
                             DAT_INTMEM_e7                                   XREF[1]:     FUN_CODE_240d:24a6(W)  
       INTMEM:e7                 undefined1 ??
                             DAT_INTMEM_e8                                   XREF[1]:     FUN_CODE_240d:24a9(W)  
       INTMEM:e8                 undefined1 ??
                             DAT_INTMEM_e9                                   XREF[1]:     FUN_CODE_240d:24ac(W)  
       INTMEM:e9                 undefined1 ??
                             DAT_INTMEM_ea                                   XREF[1]:     FUN_CODE_240d:24af(W)  
       INTMEM:ea                 undefined1 ??
                             DAT_INTMEM_eb                                   XREF[1]:     FUN_CODE_240d:24b9(W)  
       INTMEM:eb                 undefined1 ??
                             DAT_INTMEM_ec                                   XREF[1]:     FUN_CODE_240d:24bc(W)  
       INTMEM:ec                 undefined1 ??
                             DAT_INTMEM_ed                                   XREF[1]:     FUN_CODE_240d:24bf(W)  
       INTMEM:ed                 undefined1 ??
                             DAT_INTMEM_ee                                   XREF[1]:     FUN_CODE_240d:24c2(W)  
       INTMEM:ee                 undefined1 ??
                             DAT_INTMEM_ef                                   XREF[1]:     FUN_CODE_240d:24cc(W)  
       INTMEM:ef                 undefined1 ??
                             DAT_INTMEM_f0                                   XREF[1]:     FUN_CODE_240d:24cf(W)  
       INTMEM:f0                 undefined1 ??
                             DAT_INTMEM_f1                                   XREF[1]:     FUN_CODE_240d:24d2(W)  
       INTMEM:f1                 undefined1 ??
                             DAT_INTMEM_f2                                   XREF[1]:     FUN_CODE_240d:24d5(W)  
       INTMEM:f2                 undefined1 ??
       INTMEM:f3                 ??         ??
       INTMEM:f4                 ??         ??
       INTMEM:f5                 ??         ??
       INTMEM:f6                 ??         ??
       INTMEM:f7                 ??         ??
       INTMEM:f8                 ??         ??
       INTMEM:f9                 ??         ??
       INTMEM:fa                 ??         ??
       INTMEM:fb                 ??         ??
       INTMEM:fc                 ??         ??
       INTMEM:fd                 ??         ??
       INTMEM:fe                 ??         ??
       INTMEM:ff                 ??         ??
                             //
                             // SFR 
                             // SFR:80-SFR:ff
                             //
                             P0                                              XREF[1]:     FUN_CODE_22bc:22da(W)  
          SFR:80                 ??         ??
                             SP                                              XREF[2]:     FUN_CODE_0756:0756(W), 
                                                                                          FUN_CODE_0756:0775(W)  
          SFR:81                 ??         ??
                             DPL
          SFR:82                 ??         ??
                             DPH
          SFR:83                 ??         ??
                             DPXL
          SFR:84                 ??         ??
          SFR:85                 ??         ??
          SFR:86                 ??         ??
                             PCON                                            XREF[1]:     FUN_CODE_22f9:2329(RW)  
          SFR:87                 ??         ??
                             TCON                                            XREF[2]:     FUN_CODE_22f9:2311(W), 
                                                                                          FUN_CODE_2938:2947(W)  
          SFR:88                 ??         ??
                             TMOD
          SFR:89                 ??         ??
                             TL0
          SFR:8a                 ??         ??
                             TL1                                             XREF[1]:     CODE:0187(W)  
          SFR:8b                 ??         ??
                             TH0                                             XREF[1]:     CODE:018a(W)  
          SFR:8c                 ??         ??
                             TH1
          SFR:8d                 ??         ??
          SFR:8e                 ??         ??
                             FADDR                                           XREF[9]:     FUN_CODE_006f:006f(R), 
                                                                                          FUN_CODE_00d9:00d9(R), 
                                                                                          FUN_CODE_013a:0143(RW), 
                                                                                          FUN_CODE_013a:0156(RW), 
                                                                                          FUN_CODE_0163:016c(RW), 
                                                                                          CODE:0192(RW), 
                                                                                          FUN_CODE_02fe:02f1(RW), 
                                                                                          FUN_CODE_02fe:0307(RW), 
                                                                                          FUN_CODE_222c:2230(RW)  
          SFR:8f                 undefined1 ??
                             P1                                              XREF[1]:     FUN_CODE_22bc:22dd(W)  
          SFR:90                 ??         ??
                             DAT_SFR_91                                      XREF[1]:     FUN_CODE_2500:2500(W)  
          SFR:91                 ??         ??
                             DAT_SFR_92                                      XREF[1]:     FUN_CODE_22f9:230b(W)  
          SFR:92                 ??         ??
                             DPX                                             XREF[1]:     FUN_CODE_2503:2503(W)  
          SFR:93                 ??         ??
                             DAT_SFR_94                                      XREF[1]:     FUN_CODE_22f9:230e(W)  
          SFR:94                 ??         ??
                             DAT_SFR_95                                      XREF[3]:     FUN_CODE_22f9:2317(W), 
                                                                                          CODE:26de(W), 
                                                                                          FUN_CODE_2938:294a(W)  
          SFR:95                 ??         ??
                             DAT_SFR_96                                      XREF[1]:     FUN_CODE_22f9:2308(W)  
          SFR:96                 ??         ??
                             HADDR
          SFR:97                 ??         ??
                             SCON                                            XREF[3]:     FUN_CODE_22f9:2314(W), 
                                                                                          CODE:26c6(W), CODE:26db(W)  
          SFR:98                 ??         ??
                             SBUF
          SFR:99                 ??         ??
          SFR:9a                 ??         ??
                             DAT_SFR_9b                                      XREF[1]:     CODE:26e1(W)  
          SFR:9b                 ??         ??
                             DAT_SFR_9c                                      XREF[1]:     CODE:26e4(W)  
          SFR:9c                 ??         ??
                             DAT_SFR_9d                                      XREF[7]:     CODE:04be(RW), CODE:04c1(RW), 
                                                                                          CODE:04d5(RW), CODE:04d8(RW), 
                                                                                          CODE:051a(RW), CODE:051d(RW), 
                                                                                          FUN_CODE_22bc:22cb(W)  
          SFR:9d                 ??         ??
                             DAT_SFR_9e                                      XREF[1]:     FUN_CODE_22bc:22ce(W)  
          SFR:9e                 ??         ??
                             DAT_SFR_9f                                      XREF[1]:     FUN_CODE_22bc:22d1(W)  
          SFR:9f                 ??         ??
                             P2                                              XREF[1]:     FUN_CODE_22bc:22e0(W)  
          SFR:a0                 ??         ??
                             HIE                                             XREF[1]:     FUN_CODE_22bc:22d4(W)  
          SFR:a1                 ??         ??
                             FIE                                             XREF[8]:     CODE:04c4(RW), CODE:04c7(RW), 
                                                                                          CODE:04db(RW), CODE:04de(RW), 
                                                                                          CODE:0520(RW), CODE:0523(RW), 
                                                                                          FUN_CODE_22bc:22bc(RW), 
                                                                                          FUN_CODE_22bc:22e9(W)  
          SFR:a2                 ??         ??
                             FIE1                                            XREF[2]:     FUN_CODE_22bc:22bf(RW), 
                                                                                          FUN_CODE_22bc:22ec(W)  
          SFR:a3                 ??         ??
                             DAT_SFR_a4                                      XREF[2]:     FUN_CODE_22bc:22c2(RW), 
                                                                                          FUN_CODE_22bc:22ef(W)  
          SFR:a4                 ??         ??
                             DAT_SFR_a5                                      XREF[4]:     FUN_CODE_02ad:02b3(RW), 
                                                                                          FUN_CODE_22b4:22b4(RW), 
                                                                                          FUN_CODE_22bc:22c5(RW), 
                                                                                          FUN_CODE_22bc:22f2(W)  
          SFR:a5                 ??         ??
                             WDTRST                                          XREF[7]:     FUN_CODE_02ad:02ad(RW), 
                                                                                          FUN_CODE_02ad:02b0(RW), 
                                                                                          FUN_CODE_02ad:02b6(RW), 
                                                                                          FUN_CODE_02ad:02c3(RW), 
                                                                                          FUN_CODE_02ad:02c6(RW), 
                                                                                          FUN_CODE_22bc:22c8(RW), 
                                                                                          FUN_CODE_22bc:22f5(W)  
          SFR:a6                 ??         ??
                             WCON                                            XREF[3]:     FUN_CODE_02ad:02b9(RW), 
                                                                                          FUN_CODE_02ad:02bc(RW), 
                                                                                          FUN_CODE_22bc:22d7(W)  
          SFR:a7                 ??         ??
                             IE                                              XREF[1]:     FUN_CODE_2234:2249(W)  
          SFR:a8                 ??         ??
                             SADDR
          SFR:a9                 ??         ??
                             DAT_SFR_aa                                      XREF[2]:     FUN_CODE_2540:254b(R), 
                                                                                          FUN_CODE_254e:2556(W)  
          SFR:aa                 undefined1 ??
                             DAT_SFR_ab                                      XREF[2]:     FUN_CODE_2540:2549(R), 
                                                                                          FUN_CODE_254e:2554(W)  
          SFR:ab                 undefined1 ??
                             DAT_SFR_ac                                      XREF[2]:     FUN_CODE_2540:2547(R), 
                                                                                          FUN_CODE_254e:2552(W)  
          SFR:ac                 undefined1 ??
                             DAT_SFR_ad                                      XREF[2]:     FUN_CODE_2540:2545(R), 
                                                                                          FUN_CODE_254e:2550(W)  
          SFR:ad                 undefined1 ??
                             HSTAT                                           XREF[2]:     FUN_CODE_2540:2543(R), 
                                                                                          FUN_CODE_254e:254e(W)  
          SFR:ae                 undefined1 ??
                             DAT_SFR_af                                      XREF[2]:     FUN_CODE_2540:2540(RW), 
                                                                                          FUN_CODE_254e:2558(RW)  
          SFR:af                 ??         ??
                             P3                                              XREF[3]:     FUN_CODE_02fe:02ee(W), 
                                                                                          FUN_CODE_02fe:030a(R), 
                                                                                          FUN_CODE_0496:04ab(W)  
          SFR:b0                 undefined1 ??
                             IEN1                                            XREF[2]:     FUN_CODE_0496:049c(W), 
                                                                                          FUN_CODE_0496:04ae(W)  
          SFR:b1                 ??         ??
                             IPL1                                            XREF[2]:     FUN_CODE_0496:049f(W), 
                                                                                          FUN_CODE_0496:04a2(W)  
          SFR:b2                 ??         ??
                             IPH1                                            XREF[1]:     FUN_CODE_0496:04a5(W)  
          SFR:b3                 ??         ??
                             DAT_SFR_b4                                      XREF[1]:     FUN_CODE_0496:04a8(W)  
          SFR:b4                 ??         ??
                             DAT_SFR_b5                                      XREF[1]:     FUN_CODE_02fe:030f(R)  
          SFR:b5                 undefined1 ??
                             DAT_SFR_b6                                      XREF[1]:     FUN_CODE_02fe:0311(R)  
          SFR:b6                 undefined1 ??
                             IPH0                                            XREF[3]:     FUN_CODE_0496:0496(W), 
                                                                                          FUN_CODE_0496:0499(W), 
                                                                                          FUN_CODE_0496:04b4(RW)  
          SFR:b7                 ??         ??
                             IP                                              XREF[1]:     FUN_CODE_2234:224c(W)  
          SFR:b8                 ??         ??
                             SADEN                                           XREF[2]:     FUN_CODE_0496:04b7(RW), 
                                                                                          FUN_CODE_2234:2240(W)  
          SFR:b9                 ??         ??
                             DAT_SFR_ba                                      XREF[1]:     FUN_CODE_2234:2243(W)  
          SFR:ba                 ??         ??
                             DAT_SFR_bb                                      XREF[1]:     FUN_CODE_2234:2246(W)  
          SFR:bb                 ??         ??
                             DAT_SFR_bc                                      XREF[8]:     FUN_CODE_012d:012d(RW), 
                                                                                          FUN_CODE_0163:016f(RW), 
                                                                                          CODE:018f(RW), CODE:0213(RW), 
                                                                                          FUN_CODE_0496:04ba(RW), 
                                                                                          FUN_CODE_2234:2237(W), 
                                                                                          FUN_CODE_2286:2289(RW), 
                                                                                          FUN_CODE_25b4:25bd(RW)  
          SFR:bc                 ??         ??
                             DAT_SFR_bd                                      XREF[3]:     FUN_CODE_012d:0130(RW), 
                                                                                          FUN_CODE_012d:0133(RW), 
                                                                                          FUN_CODE_2234:223a(W)  
          SFR:bd                 ??         ??
                             SPH                                             XREF[1]:     FUN_CODE_2234:223d(W)  
          SFR:be                 ??         ??
                             DAT_SFR_bf                                      XREF[11]:    FUN_CODE_013a:013a(RW), 
                                                                                          FUN_CODE_013a:015f(RW), 
                                                                                          FUN_CODE_0163:0163(RW), 
                                                                                          CODE:019b(RW), 
                                                                                          FUN_CODE_02fe:02fa(RW), 
                                                                                          FUN_CODE_02fe:02fe(RW), 
                                                                                          FUN_CODE_2234:2234(W), 
                                                                                          FUN_CODE_2286:228c(RW), 
                                                                                          FUN_CODE_2293:229b(RW), 
                                                                                          FUN_CODE_2293:22a6(RW), 
                                                                                          FUN_CODE_2333:2333(RW)  
          SFR:bf                 ??         ??
                             FIFLG                                           XREF[1]:     FUN_CODE_22bc:22e3(W)  
          SFR:c0                 ??         ??
                             FIFLG1                                          XREF[1]:     FUN_CODE_2234:224f(W)  
          SFR:c1                 ??         ??
                             DAT_SFR_c2                                      XREF[2]:     FUN_CODE_2234:2252(W), 
                                                                                          FUN_CODE_22f9:2326(RW)  
          SFR:c2                 ??         ??
                             DAT_SFR_c3                                      XREF[1]:     FUN_CODE_2234:2255(W)  
          SFR:c3                 ??         ??
                             DAT_SFR_c4                                      XREF[1]:     FUN_CODE_2234:2258(W)  
          SFR:c4                 ??         ??
                             DAT_SFR_c5                                      XREF[1]:     FUN_CODE_2234:225b(W)  
          SFR:c5                 ??         ??
                             DAT_SFR_c6                                      XREF[1]:     FUN_CODE_2234:225e(W)  
          SFR:c6                 ??         ??
                             EPCONFIG                                        XREF[1]:     FUN_CODE_2234:2261(W)  
          SFR:c7                 ??         ??
                             T2CON                                           XREF[1]:     FUN_CODE_22bc:22e6(W)  
          SFR:c8                 ??         ??
                             T2MOD                                           XREF[1]:     FUN_CODE_2234:2264(W)  
          SFR:c9                 ??         ??
                             RCAP2L                                          XREF[1]:     FUN_CODE_2234:2267(W)  
          SFR:ca                 ??         ??
                             RCAP2H                                          XREF[1]:     FUN_CODE_2234:226a(W)  
          SFR:cb                 ??         ??
                             TL2                                             XREF[1]:     FUN_CODE_2234:226d(W)  
          SFR:cc                 ??         ??
                             TH2                                             XREF[1]:     FUN_CODE_2234:2270(W)  
          SFR:cd                 ??         ??
                             DAT_SFR_ce                                      XREF[1]:     FUN_CODE_2234:2273(W)  
          SFR:ce                 ??         ??
                             HPCON                                           XREF[1]:     FUN_CODE_2234:2276(W)  
          SFR:cf                 ??         ??
                             PSW
          SFR:d0                 ??         ??
                             PSW1                                            XREF[1]:     FUN_CODE_2234:2279(W)  
          SFR:d1                 ??         ??
                             SOFL                                            XREF[1]:     FUN_CODE_2234:227c(W)  
          SFR:d2                 ??         ??
                             DAT_SFR_d3                                      XREF[1]:     FUN_CODE_2234:227f(W)  
          SFR:d3                 ??         ??
                             HPINDEX                                         XREF[1]:     FUN_CODE_2234:2282(W)  
          SFR:d4                 ??         ??
                             HPSC                                            XREF[3]:     CODE:02a8(W), 
                                                                                          FUN_CODE_238a:2391(W), 
                                                                                          FUN_CODE_239e:239e(W)  
          SFR:d5                 ??         ??
                             DAT_SFR_d6                                      XREF[5]:     FUN_CODE_238a:238d(W), 
                                                                                          FUN_CODE_238a:2394(R), 
                                                                                          FUN_CODE_2399:239b(W), 
                                                                                          FUN_CODE_23a1:23a1(W), 
                                                                                          FUN_CODE_23a5:23a5(R)  
          SFR:d6                 undefined1 ??
                             HPSTAT                                          XREF[6]:     FUN_CODE_0648:064d(R), 
                                                                                          FUN_CODE_0648:0652(R), 
                                                                                          FUN_CODE_0648:0657(R), 
                                                                                          FUN_CODE_0648:06a5(R), 
                                                                                          FUN_CODE_0648:06aa(R), 
                                                                                          FUN_CODE_0648:06af(R)  
          SFR:d7                 undefined1 ??
                             CCON                                            XREF[1]:     FUN_CODE_2938:2944(W)  
          SFR:d8                 ??         ??
                             CMOD                                            XREF[6]:     CODE:01c2(R), CODE:01d7(R), 
                                                                                          CODE:0230(R), CODE:0245(R), 
                                                                                          CODE:0268(R), CODE:027d(R)  
          SFR:d9                 ??         ??
                             CCAPM0                                          XREF[8]:     CODE:01c5(W), CODE:01e8(W), 
                                                                                          CODE:01ec(W), CODE:0233(W), 
                                                                                          CODE:024c(W), CODE:026b(W), 
                                                                                          CODE:02a4(R), CODE:02a8(R)  
          SFR:da                 undefined1 ??
                             CCAPM1                                          XREF[1]:     FUN_CODE_2938:2938(W)  
          SFR:db                 ??         ??
                             CCAPM2                                          XREF[2]:     FUN_CODE_02ad:02c9(W), 
                                                                                          FUN_CODE_2938:293b(W)  
          SFR:dc                 ??         ??
                             CCAPM3                                          XREF[1]:     FUN_CODE_2938:293e(W)  
          SFR:dd                 ??         ??
                             CCAPM4                                          XREF[1]:     FUN_CODE_2938:2941(W)  
          SFR:de                 ??         ??
                             PCON1
          SFR:df                 ??         ??
                             ACC
          SFR:e0                 ??         ??
                             EPCON                                           XREF[4]:     CODE:01ec(R), CODE:024c(R), 
                                                                                          FUN_CODE_2372:2379(R), 
                                                                                          FUN_CODE_2383:2383(R)  
          SFR:e1                 undefined1 ??
                             RXSTAT                                          XREF[4]:     FUN_CODE_00f6:00f6(R), 
                                                                                          FUN_CODE_2372:2377(W), 
                                                                                          FUN_CODE_237e:2380(W), 
                                                                                          FUN_CODE_2386:2386(W)  
          SFR:e2                 undefined1 ??
                             RXDAT                                           XREF[5]:     FUN_CODE_00af:00af(W), 
                                                                                          FUN_CODE_00af:00b2(W), 
                                                                                          FUN_CODE_00af:00b5(W), 
                                                                                          FUN_CODE_00af:00b8(W), 
                                                                                          FUN_CODE_23aa:23b0(R)  
          SFR:e3                 undefined1 ??
                             RXCON
          SFR:e4                 ??         ??
                             RXFLG
          SFR:e5                 ??         ??
                             RXCNTL
          SFR:e6                 ??         ??
                             RXCNTH
          SFR:e7                 ??         ??
                             HIFLG                                           XREF[1]:     FUN_CODE_22f9:2323(W)  
          SFR:e8                 ??         ??
                             CL
          SFR:e9                 ??         ??
                             CCAP0L                                          XREF[11]:    FUN_CODE_240d:2421(W), 
                                                                                          FUN_CODE_240d:242c(W), 
                                                                                          FUN_CODE_240d:2438(W), 
                                                                                          FUN_CODE_240d:2474(W), 
                                                                                          FUN_CODE_240d:247f(W), 
                                                                                          FUN_CODE_240d:248b(W), 
                                                                                          FUN_CODE_240d:249e(W), 
                                                                                          FUN_CODE_240d:24b1(W), 
                                                                                          FUN_CODE_240d:24c4(W), 
                                                                                          FUN_CODE_240d:24d7(W), 
                                                                                          FUN_CODE_240d:24ea(W)  
          SFR:ea                 ??         ??
                             CCAP1L                                          XREF[3]:     FUN_CODE_23aa:23c8(W), 
                                                                                          FUN_CODE_240d:241e(W), 
                                                                                          FUN_CODE_240d:2471(W)  
          SFR:eb                 ??         ??
                             CCAP2L                                          XREF[1]:     FUN_CODE_23aa:23c3(W)  
          SFR:ec                 ??         ??
                             CCAP3L                                          XREF[1]:     FUN_CODE_23aa:23be(W)  
          SFR:ed                 ??         ??
                             CCAP4L                                          XREF[1]:     FUN_CODE_240d:240f(R)  
          SFR:ee                 undefined1 ??
          SFR:ef                 ??         ??
                             B
          SFR:f0                 ??         ??
                             EPINDEX                                         XREF[9]:     FUN_CODE_240d:2432(R), 
                                                                                          FUN_CODE_240d:2442(R), 
                                                                                          FUN_CODE_240d:247a(R), 
                                                                                          FUN_CODE_240d:2496(R), 
                                                                                          FUN_CODE_240d:24a9(R), 
                                                                                          FUN_CODE_240d:24bc(R), 
                                                                                          FUN_CODE_240d:24cf(R), 
                                                                                          FUN_CODE_240d:24df(R), 
                                                                                          FUN_CODE_240d:24f0(R)  
          SFR:f1                 undefined1 ??
                             TXSTAT                                          XREF[9]:     FUN_CODE_240d:2434(R), 
                                                                                          FUN_CODE_240d:2446(R), 
                                                                                          FUN_CODE_240d:2485(R), 
                                                                                          FUN_CODE_240d:2493(R), 
                                                                                          FUN_CODE_240d:24a6(R), 
                                                                                          FUN_CODE_240d:24b9(R), 
                                                                                          FUN_CODE_240d:24cc(R), 
                                                                                          FUN_CODE_240d:24e1(R), 
                                                                                          FUN_CODE_240d:24f3(R)  
          SFR:f2                 undefined1 ??
                             TXDAT                                           XREF[9]:     FUN_CODE_240d:2427(R), 
                                                                                          FUN_CODE_240d:244a(R), 
                                                                                          FUN_CODE_240d:2488(R), 
                                                                                          FUN_CODE_240d:249c(R), 
                                                                                          FUN_CODE_240d:24af(R), 
                                                                                          FUN_CODE_240d:24c2(R), 
                                                                                          FUN_CODE_240d:24d5(R), 
                                                                                          FUN_CODE_240d:24e4(R), 
                                                                                          FUN_CODE_240d:24f6(R)  
          SFR:f3                 undefined1 ??
                             TXCON                                           XREF[6]:     FUN_CODE_240d:244e(R), 
                                                                                          FUN_CODE_240d:2499(R), 
                                                                                          FUN_CODE_240d:24ac(R), 
                                                                                          FUN_CODE_240d:24bf(R), 
                                                                                          FUN_CODE_240d:24d2(R), 
                                                                                          FUN_CODE_240d:24e7(R)  
          SFR:f4                 undefined1 ??
                             TXFLG                                           XREF[12]:    FUN_CODE_23aa:23ca(W), 
                                                                                          FUN_CODE_240d:2424(W), 
                                                                                          FUN_CODE_240d:242f(W), 
                                                                                          FUN_CODE_240d:243b(W), 
                                                                                          FUN_CODE_240d:2477(W), 
                                                                                          FUN_CODE_240d:2482(W), 
                                                                                          FUN_CODE_240d:248e(W), 
                                                                                          FUN_CODE_240d:24a1(W), 
                                                                                          FUN_CODE_240d:24b4(W), 
                                                                                          FUN_CODE_240d:24c7(W), 
                                                                                          FUN_CODE_240d:24da(W), 
                                                                                          FUN_CODE_240d:24ed(W)  
          SFR:f5                 ??         ??
                             TXCNTL
          SFR:f6                 ??         ??
                             TXCNTH
          SFR:f7                 ??         ??
          SFR:f8                 ??         ??
                             CH
          SFR:f9                 ??         ??
                             CCAP0H
          SFR:fa                 ??         ??
                             CCAP1H
          SFR:fb                 ??         ??
                             CCAP2H                                          XREF[1]:     FUN_CODE_007f:0086(W)  
          SFR:fc                 ??         ??
                             CCAP3H                                          XREF[3]:     FUN_CODE_0648:06fd(R), 
                                                                                          FUN_CODE_0648:0702(R), 
                                                                                          FUN_CODE_0648:0707(R)  
          SFR:fd                 undefined1 ??
                             CCAP4H                                          XREF[3]:     FUN_CODE_22aa:22aa(W), 
                                                                                          FUN_CODE_22aa:22b0(W), 
                                                                                          FUN_CODE_2333:2339(W)  
          SFR:fe                 ??         ??
                             DAT_SFR_ff                                      XREF[2]:     FUN_CODE_22aa:22ad(W), 
                                                                                          FUN_CODE_2333:2336(W)  
          SFR:ff                 ??         ??
                             //
                             // BITS (bitmap[0x0, 0x80, INTMEM:20])
                             // BITS:00-BITS:7f
                             //
                             20.0                                            XREF[3]:     FUN_CODE_07ea:080a(W), 
                                                                                          FUN_CODE_1b47:1b83(R), 
                                                                                          FUN_CODE_1b47:1b86(W)  
         BITS:00                 ??         ??
                             20.1                                            XREF[3]:     FUN_CODE_1b47:1b8b(W), 
                                                                                          FUN_CODE_1b47:1b8d(R), 
                                                                                          FUN_CODE_1b47:1b99(RW)  
         BITS:01                 ??         ??
                             20.2                                            XREF[4]:     FUN_CODE_1b47:1b9b(R), 
                                                                                          FUN_CODE_1b47:1ba1(W), 
                                                                                          CODE:1dec(W), CODE:1f42(W)  
         BITS:02                 ??         ??
                             20.3                                            XREF[5]:     FUN_CODE_083e:0b44(W), 
                                                                                          CODE:175d(R), CODE:1d6d(R), 
                                                                                          CODE:1dd8(W), CODE:1ed0(R)  
         BITS:03                 ??         ??
                             20.4                                            XREF[3]:     FUN_CODE_083e:0b23(W), 
                                                                                          CODE:1111(R), CODE:1ecd(R)  
         BITS:04                 ??         ??
                             20.5                                            XREF[5]:     FUN_CODE_083e:0950(R), 
                                                                                          FUN_CODE_0cf7:0dd4(R), 
                                                                                          CODE:1713(R), 
                                                                                          FUN_CODE_1ff7:1fff(W), 
                                                                                          FUN_CODE_2011:2019(W)  
         BITS:05                 ??         ??
                             20.6                                            XREF[2]:     FUN_CODE_0756:0788(R), 
                                                                                          FUN_CODE_0756:0796(W)  
         BITS:06                 ??         ??
                             20.7                                            XREF[2]:     FUN_CODE_083e:08ba(R), 
                                                                                          FUN_CODE_083e:0b7d(W)  
         BITS:07                 ??         ??
                             21.0                                            XREF[10]:    FUN_CODE_083e:0b19(W), 
                                                                                          FUN_CODE_083e:0b50(W), 
                                                                                          FUN_CODE_0cf7:0d50(R), 
                                                                                          CODE:0f09(W), CODE:0f27(R), 
                                                                                          CODE:1c5d(W), CODE:1d76(R), 
                                                                                          CODE:1dde(W), CODE:1e28(R), 
                                                                                          CODE:1ed6(R)  
         BITS:08                 ??         ??
                             21.1                                            XREF[7]:     CODE:1c93(W), CODE:1d70(R), 
                                                                                          CODE:1dda(W), CODE:1e1f(R), 
                                                                                          CODE:1e30(W), CODE:1eeb(R), 
                                                                                          CODE:1f07(W)  
         BITS:09                 ??         ??
                             21.2                                            XREF[7]:     FUN_CODE_0756:0773(W), 
                                                                                          CODE:1420(W), CODE:1b1d(W), 
                                                                                          CODE:1b38(R), CODE:1b3c(W), 
                                                                                          CODE:1d82(R), CODE:1de4(W)  
         BITS:0a                 ??         ??
                             21.3                                            XREF[9]:     FUN_CODE_083e:0b54(W), 
                                                                                          FUN_CODE_0cf7:0d56(R), 
                                                                                          CODE:0f0d(W), CODE:0f2d(R), 
                                                                                          CODE:144b(W), CODE:1b3e(R), 
                                                                                          CODE:1b42(W), CODE:1de6(W), 
                                                                                          CODE:1edc(R)  
         BITS:0b                 ??         ??
                             21.4                                            XREF[5]:     FUN_CODE_0756:076e(W), 
                                                                                          CODE:1144(W), 
                                                                                          FUN_CODE_114a:114a(R), 
                                                                                          CODE:1e06(W), CODE:1e0b(R)  
         BITS:0c                 ??         ??
                             21.5                                            XREF[6]:     FUN_CODE_1021:1021(R), 
                                                                                          FUN_CODE_1021:1024(W), 
                                                                                          CODE:1df8(W), CODE:1e64(W), 
                                                                                          CODE:1eb6(R), CODE:1f88(W)  
         BITS:0d                 ??         ??
                             21.6                                            XREF[8]:     CODE:1253(W), CODE:126a(W), 
                                                                                          FUN_CODE_127a:127a(R), 
                                                                                          CODE:1e1c(R), CODE:1e68(W), 
                                                                                          CODE:1eb9(W), CODE:1f72(W), 
                                                                                          CODE:1f8c(W)  
         BITS:0e                 ??         ??
                             21.7                                            XREF[9]:     CODE:10d2(W), 
                                                                                          FUN_CODE_10d6:10d6(R), 
                                                                                          CODE:1178(W), CODE:126e(W), 
                                                                                          CODE:1272(R), CODE:1e6a(W), 
                                                                                          CODE:1f44(W), CODE:1f7d(R), 
                                                                                          CODE:1f8e(W)  
         BITS:0f                 ??         ??
                             22.0                                            XREF[6]:     FUN_CODE_0e58:0e58(R), 
                                                                                          CODE:0f55(W), CODE:1e00(R), 
                                                                                          CODE:1e66(W), CODE:1f80(W), 
                                                                                          CODE:1f8a(W)  
         BITS:10                 ??         ??
                             22.1                                            XREF[2]:     FUN_CODE_22b4:22b9(W), 
                                                                                          FUN_CODE_240d:2418(R)  
         BITS:11                 ??         ??
                             22.2                                            XREF[3]:     CODE:1071(W), CODE:1223(W), 
                                                                                          CODE:1e25(R)  
         BITS:12                 ??         ??
                             22.3                                            XREF[9]:     FUN_CODE_083e:08b1(W), 
                                                                                          FUN_CODE_083e:0b5e(W), 
                                                                                          FUN_CODE_083e:0cdb(R), 
                                                                                          FUN_CODE_0cf7:0cf8(R), 
                                                                                          CODE:1062(W), CODE:122d(R), 
                                                                                          CODE:123b(R), CODE:1ef8(R), 
                                                                                          CODE:1f0d(R)  
         BITS:13                 ??         ??
                             22.4                                            XREF[12]:    FUN_CODE_083e:0b31(W), 
                                                                                          FUN_CODE_083e:0b4e(W), 
                                                                                          FUN_CODE_0cf7:0d4d(R), 
                                                                                          CODE:1169(R), CODE:1176(W), 
                                                                                          CODE:1b32(R), CODE:1b36(W), 
                                                                                          CODE:1ed3(R), CODE:1f35(R), 
                                                                                          CODE:1f54(W), 
                                                                                          FUN_CODE_2191:21a5(R), 
                                                                                          FUN_CODE_2191:21a9(W)  
         BITS:14                 ??         ??
                             22.5                                            XREF[4]:     FUN_CODE_083e:0b36(W), 
                                                                                          CODE:1760(R), CODE:1769(W), 
                                                                                          CODE:1f6d(R)  
         BITS:15                 ??         ??
                             22.6                                            XREF[3]:     FUN_CODE_083e:0b3a(W), 
                                                                                          CODE:1f5d(R), CODE:1f63(W)  
         BITS:16                 ??         ??
                             22.7                                            XREF[7]:     FUN_CODE_0756:078b(R), 
                                                                                          CODE:0f1e(W), CODE:0fb7(W), 
                                                                                          FUN_CODE_146e:146e(R), 
                                                                                          FUN_CODE_1c98:1c98(R), 
                                                                                          FUN_CODE_1f9f:1f9f(R), 
                                                                                          FUN_CODE_2344:2346(R)  
         BITS:17                 ??         ??
                             23.0                                            XREF[4]:     CODE:0eec(W), CODE:0fe9(W), 
                                                                                          FUN_CODE_1c98:1ca0(R), 
                                                                                          FUN_CODE_2361:2363(R)  
         BITS:18                 ??         ??
                             23.1                                            XREF[4]:     FUN_CODE_0058:005a(R), 
                                                                                          CODE:0ea5(W), CODE:101d(W), 
                                                                                          FUN_CODE_1c98:1ca8(R)  
         BITS:19                 ??         ??
                             23.2                                            XREF[4]:     FUN_CODE_0036:0038(R), 
                                                                                          CODE:0efe(W), CODE:0fd7(W), 
                                                                                          FUN_CODE_1c98:1cb0(R)  
         BITS:1a                 ??         ??
                             23.3                                            XREF[17]:    CODE:0e8a(R), CODE:0f03(R), 
                                                                                          CODE:0f30(R), CODE:0f9f(W), 
                                                                                          CODE:0fc3(W), CODE:1009(W), 
                                                                                          CODE:1a90(W), 
                                                                                          FUN_CODE_1c98:1cb9(W), 
                                                                                          FUN_CODE_1c98:1cc9(W), 
                                                                                          FUN_CODE_1c98:1cd9(W), 
                                                                                          FUN_CODE_1c98:1ce9(W), 
                                                                                          CODE:1df5(R), CODE:1e16(R), 
                                                                                          CODE:1eb0(R), CODE:1ec3(R), 
                                                                                          CODE:1f94(R), 
                                                                                          FUN_CODE_1f9f:1fc8(W)  
         BITS:1b                 ??         ??
                             23.4                                            XREF[9]:     CODE:0e8d(R), CODE:0f06(R), 
                                                                                          CODE:0f33(R), 
                                                                                          FUN_CODE_146e:14bf(R), 
                                                                                          FUN_CODE_146e:14c5(W), 
                                                                                          FUN_CODE_146e:1535(R), 
                                                                                          CODE:1e19(R), CODE:1eb3(R), 
                                                                                          CODE:1ec6(R)  
         BITS:1c                 ??         ??
                             23.5                                            XREF[5]:     FUN_CODE_083e:0cc9(W), 
                                                                                          CODE:1167(W), CODE:1230(R), 
                                                                                          CODE:123e(R), CODE:125e(R)  
         BITS:1d                 ??         ??
                             23.6                                            XREF[4]:     FUN_CODE_080d:0833(W), 
                                                                                          FUN_CODE_1b47:1bb5(R), 
                                                                                          CODE:1d68(W), CODE:1dea(W)  
         BITS:1e                 ??         ??
                             23.7                                            XREF[11]:    FUN_CODE_083e:0b52(W), 
                                                                                          FUN_CODE_0cf7:0d53(R), 
                                                                                          CODE:0f0b(W), CODE:0f2a(R), 
                                                                                          FUN_CODE_1b47:1ba9(W), 
                                                                                          FUN_CODE_1b47:1bbe(W), 
                                                                                          FUN_CODE_1b47:1bdb(W), 
                                                                                          CODE:1d79(R), CODE:1de0(W), 
                                                                                          CODE:1e2b(R), CODE:1ed9(R)  
         BITS:1f                 ??         ??
                             24.0                                            XREF[3]:     FUN_CODE_1b47:1bd2(W), 
                                                                                          CODE:1d7c(R), CODE:1de2(W)  
         BITS:20                 ??         ??
                             24.1                                            XREF[2]:     FUN_CODE_1b47:1bc9(W), 
                                                                                          CODE:1d7f(R)  
         BITS:21                 ??         ??
                             24.2                                            XREF[7]:     FUN_CODE_1b47:1bb2(W), 
                                                                                          CODE:1d73(R), CODE:1ddc(W), 
                                                                                          CODE:1e22(R), CODE:1e4a(W), 
                                                                                          CODE:1eee(R), CODE:1f0b(W)  
         BITS:22                 ??         ??
                             24.3                                            XREF[3]:     CODE:0e9c(W), CODE:0ff6(W), 
                                                                                          FUN_CODE_2191:2191(R)  
         BITS:23                 ??         ??
                             24.4                                            XREF[5]:     FUN_CODE_080d:0831(W), 
                                                                                          FUN_CODE_083e:0c18(W), 
                                                                                          CODE:1dd6(W), 
                                                                                          FUN_CODE_2036:2036(R), 
                                                                                          FUN_CODE_2036:2039(W)  
         BITS:24                 ??         ??
                             24.5                                            XREF[5]:     FUN_CODE_2036:206e(W), 
                                                                                          FUN_CODE_2036:2075(W), 
                                                                                          CODE:211b(R), CODE:213f(R), 
                                                                                          CODE:2142(W)  
         BITS:25                 ??         ??
                             24.6                                            XREF[6]:     CODE:2138(W), CODE:2149(R), 
                                                                                          CODE:2151(W), CODE:2171(W), 
                                                                                          CODE:2179(R), CODE:2181(W)  
         BITS:26                 ??         ??
                             24.7                                            XREF[6]:     CODE:1e42(R), CODE:1e5c(R), 
                                                                                          CODE:1f2c(R), 
                                                                                          FUN_CODE_2036:2067(W), 
                                                                                          CODE:214f(W), CODE:217f(W)  
         BITS:27                 ??         ??
                             25.0                                            XREF[4]:     FUN_CODE_083e:0c1b(W), 
                                                                                          CODE:1064(W), CODE:116c(W), 
                                                                                          FUN_CODE_2191:21a7(R)  
         BITS:28                 ??         ??
                             25.1                                            XREF[5]:     CODE:0f36(W), CODE:1079(W), 
                                                                                          CODE:10d0(W), CODE:112e(W), 
                                                                                          CODE:19dd(R)  
         BITS:29                 ??         ??
                             25.2                                            XREF[4]:     CODE:10c2(R), CODE:10c7(R), 
                                                                                          CODE:19db(W), CODE:1a5f(W)  
         BITS:2a                 ??         ??
                             25.3                                            XREF[3]:     FUN_CODE_083e:0a6b(W), 
                                                                                          CODE:19e2(R), CODE:1a69(W)  
         BITS:2b                 ??         ??
                             25.4                                            XREF[4]:     CODE:1132(W), CODE:113e(R), 
                                                                                          CODE:19f0(R), CODE:1a8b(W)  
         BITS:2c                 ??         ??
                             25.5                                            XREF[3]:     CODE:0fb0(W), CODE:19ff(R), 
                                                                                          CODE:1aa6(W)  
         BITS:2d                 ??         ??
                             25.6                                            XREF[3]:     CODE:0f20(W), CODE:1a0e(R), 
                                                                                          CODE:1ab2(W)  
         BITS:2e                 ??         ??
                             25.7                                            XREF[4]:     CODE:12f3(W), CODE:1304(R), 
                                                                                          CODE:1a20(R), CODE:1afe(W)  
         BITS:2f                 ??         ??
                             26.0                                            XREF[4]:     CODE:1424(W), CODE:1451(R), 
                                                                                          CODE:1a2f(R), CODE:1b18(W)  
         BITS:30                 ??         ??
                             26.1                                            XREF[3]:     CODE:1a3e(R), CODE:1ae9(W), 
                                                                                          FUN_CODE_1f9f:1fab(W)  
         BITS:31                 ??         ??
                             26.2                                            XREF[18]:    FUN_CODE_083e:0cc7(W), 
                                                                                          CODE:0fac(W), CODE:0fd0(W), 
                                                                                          CODE:1016(W), CODE:1198(W), 
                                                                                          CODE:11c6(W), CODE:121f(W), 
                                                                                          CODE:124f(W), 
                                                                                          FUN_CODE_146e:14d0(W), 
                                                                                          CODE:1a50(R), CODE:1a9d(W), 
                                                                                          CODE:1af5(W), CODE:1c77(W), 
                                                                                          FUN_CODE_1c98:1cc6(W), 
                                                                                          FUN_CODE_1c98:1cd6(W), 
                                                                                          FUN_CODE_1c98:1ce6(W), 
                                                                                          FUN_CODE_1c98:1cf6(W), 
                                                                                          FUN_CODE_1f9f:1fd5(W)  
         BITS:32                 ??         ??
                             26.3                                            XREF[6]:     FUN_CODE_0756:07a2(W), 
                                                                                          FUN_CODE_083e:0997(W), 
                                                                                          FUN_CODE_083e:09aa(W), 
                                                                                          FUN_CODE_083e:09b7(R), 
                                                                                          CODE:1a1d(R), CODE:1a4d(R)  
         BITS:33                 ??         ??
                             26.4                                            XREF[6]:     FUN_CODE_083e:088e(W), 
                                                                                          CODE:1d11(R), CODE:1d19(R), 
                                                                                          CODE:1d27(W), CODE:2211(W), 
                                                                                          CODE:2215(R)  
         BITS:34                 ??         ??
                             26.5                                            XREF[5]:     FUN_CODE_083e:0a6d(W), 
                                                                                          CODE:1a6b(W), CODE:1d14(W), 
                                                                                          CODE:1d1c(R), CODE:1d21(R)  
         BITS:35                 ??         ??
                             26.6                                            XREF[5]:     FUN_CODE_0cf7:0cff(W), 
                                                                                          FUN_CODE_0cf7:0d17(R), 
                                                                                          FUN_CODE_0cf7:0dac(W), 
                                                                                          CODE:130a(W), CODE:1e77(W)  
         BITS:36                 ??         ??
                             26.7                                            XREF[4]:     FUN_CODE_0cf7:0d01(W), 
                                                                                          FUN_CODE_0cf7:0d1d(R), 
                                                                                          FUN_CODE_0cf7:0dc0(W), 
                                                                                          CODE:1816(W)  
         BITS:37                 ??         ??
                             27.0                                            XREF[5]:     FUN_CODE_0cf7:0d03(W), 
                                                                                          FUN_CODE_0cf7:0d23(R), 
                                                                                          FUN_CODE_0cf7:0dcf(W), 
                                                                                          FUN_CODE_1ff7:2001(W), 
                                                                                          FUN_CODE_2011:201b(W)  
         BITS:38                 ??         ??
                             27.1                                            XREF[4]:     FUN_CODE_0cf7:0cfb(W), 
                                                                                          FUN_CODE_0cf7:0d0c(R), 
                                                                                          FUN_CODE_0cf7:0d4b(W), 
                                                                                          CODE:1efb(W)  
         BITS:39                 ??         ??
                             27.2                                            XREF[5]:     FUN_CODE_083e:0c8c(R), 
                                                                                          FUN_CODE_0cf7:0d05(W), 
                                                                                          FUN_CODE_0cf7:0d29(R), 
                                                                                          FUN_CODE_0cf7:0dea(W), 
                                                                                          CODE:1924(W)  
         BITS:3a                 ??         ??
                             27.3                                            XREF[5]:     FUN_CODE_0cf7:0d07(W), 
                                                                                          FUN_CODE_0cf7:0d2f(R), 
                                                                                          FUN_CODE_0cf7:0e0a(W), 
                                                                                          CODE:1b2e(W), 
                                                                                          FUN_CODE_1b47:1bf3(W)  
         BITS:3b                 ??         ??
                             27.4                                            XREF[4]:     FUN_CODE_0cf7:0cfd(W), 
                                                                                          FUN_CODE_0cf7:0d11(R), 
                                                                                          FUN_CODE_0cf7:0d9e(W), 
                                                                                          CODE:1f15(W)  
         BITS:3c                 ??         ??
                             27.5                                            XREF[7]:     FUN_CODE_083e:0bfe(W), 
                                                                                          FUN_CODE_083e:0c0e(W), 
                                                                                          FUN_CODE_0cf7:0d09(W), 
                                                                                          FUN_CODE_0cf7:0d35(R), 
                                                                                          FUN_CODE_0cf7:0e49(W), 
                                                                                          CODE:1e79(W), 
                                                                                          FUN_CODE_21d2:21d2(W)  
         BITS:3d                 ??         ??
                             27.6                                            XREF[3]:     CODE:0f38(W), CODE:1130(W), 
                                                                                          CODE:17ab(R)  
         BITS:3e                 ??         ??
                             27.7                                            XREF[4]:     CODE:0f4d(R), CODE:0f52(R), 
                                                                                          CODE:17a9(W), CODE:17e7(W)  
         BITS:3f                 ??         ??
                             28.0                                            XREF[3]:     CODE:1368(W), CODE:17d4(R), 
                                                                                          CODE:1807(W)  
         BITS:40                 ??         ??
                             28.1                                            XREF[3]:     CODE:170c(W), CODE:17ae(R), 
                                                                                          FUN_CODE_1973:1986(W)  
         BITS:41                 ??         ??
                             28.2                                            XREF[7]:     CODE:1134(W), CODE:130c(W), 
                                                                                          CODE:171c(W), CODE:17b9(R), 
                                                                                          FUN_CODE_1973:1994(W), 
                                                                                          FUN_CODE_1ff7:2003(W), 
                                                                                          FUN_CODE_2011:201d(W)  
         BITS:42                 ??         ??
                             28.3                                            XREF[4]:     CODE:1138(W), CODE:1141(R), 
                                                                                          CODE:17b4(R), CODE:192f(W)  
         BITS:43                 ??         ??
                             28.4                                            XREF[6]:     FUN_CODE_083e:0b81(W), 
                                                                                          FUN_CODE_083e:0bba(W), 
                                                                                          FUN_CODE_083e:0c86(W), 
                                                                                          CODE:1788(W), CODE:17d9(R), 
                                                                                          CODE:1dd1(W)  
         BITS:44                 ??         ??
                             28.5                                            XREF[17]:    FUN_CODE_083e:0cc5(W), 
                                                                                          CODE:0faa(W), CODE:0fce(W), 
                                                                                          CODE:1014(W), CODE:1196(W), 
                                                                                          CODE:11c4(W), CODE:121d(W), 
                                                                                          CODE:124d(W), 
                                                                                          FUN_CODE_146e:14ce(W), 
                                                                                          CODE:17ca(R), CODE:17ec(W), 
                                                                                          CODE:1a9b(W), 
                                                                                          FUN_CODE_1c98:1cc4(W), 
                                                                                          FUN_CODE_1c98:1cd4(W), 
                                                                                          FUN_CODE_1c98:1ce4(W), 
                                                                                          FUN_CODE_1c98:1cf4(W), 
                                                                                          FUN_CODE_1f9f:1fd3(W)  
         BITS:45                 ??         ??
                             28.6                                            XREF[10]:    FUN_CODE_083e:0c40(W), 
                                                                                          CODE:113a(W), CODE:1756(W), 
                                                                                          CODE:17c4(R), 
                                                                                          FUN_CODE_1973:1990(W), 
                                                                                          CODE:1df1(W), CODE:1f3d(W), 
                                                                                          CODE:1f69(W), 
                                                                                          FUN_CODE_21d2:21e6(W), 
                                                                                          FUN_CODE_21d2:21f1(W)  
         BITS:46                 ??         ??
                             28.7                                            XREF[11]:    FUN_CODE_083e:0c5f(W), 
                                                                                          FUN_CODE_083e:0ce2(W), 
                                                                                          CODE:1268(W), CODE:130e(W), 
                                                                                          CODE:17cf(R), CODE:1885(W), 
                                                                                          CODE:188e(W), CODE:1c75(W), 
                                                                                          CODE:1df3(W), CODE:1f6b(W), 
                                                                                          CODE:1f9b(W)  
         BITS:47                 ??         ??
                             29.0                                            XREF[4]:     CODE:1136(W), CODE:1767(W), 
                                                                                          CODE:17bf(R), CODE:1f70(W)  
         BITS:48                 ??         ??
                             29.1                                            XREF[4]:     FUN_CODE_083e:0c89(R), 
                                                                                          FUN_CODE_083e:0ca5(W), 
                                                                                          CODE:17e2(R), CODE:1926(W)  
         BITS:49                 ??         ??
                             29.2                                            XREF[3]:     FUN_CODE_1973:198a(W), 
                                                                                          CODE:1d85(R), CODE:1de8(W)  
         BITS:4a                 ??         ??
                             29.3                                            XREF[3]:     FUN_CODE_083e:0bce(W), 
                                                                                          FUN_CODE_146e:1532(R), 
                                                                                          FUN_CODE_1f9f:1fa2(R)  
         BITS:4b                 ??         ??
                             29.4                                            XREF[3]:     FUN_CODE_083e:0bc9(W), 
                                                                                          FUN_CODE_1569:156b(R), 
                                                                                          CODE:1f5b(W)  
         BITS:4c                 ??         ??
                             29.5                                            XREF[3]:     CODE:0f0f(R), 
                                                                                          FUN_CODE_146e:1484(W), 
                                                                                          FUN_CODE_146e:1498(W)  
         BITS:4d                 ??         ??
                             29.6                                            XREF[4]:     CODE:0f15(R), 
                                                                                          FUN_CODE_146e:149a(W), 
                                                                                          FUN_CODE_146e:14bd(W), 
                                                                                          FUN_CODE_146e:14c2(R)  
         BITS:4e                 ??         ??
                             29.7                                            XREF[3]:     FUN_CODE_1f9f:1fad(R), 
                                                                                          FUN_CODE_1f9f:1fb9(W), 
                                                                                          CODE:2758(W)  
         BITS:4f                 ??         ??
                             2a.0                                            XREF[3]:     FUN_CODE_1f9f:1fb0(R), 
                                                                                          FUN_CODE_1f9f:1fbb(W), 
                                                                                          CODE:272f(W)  
         BITS:50                 ??         ??
                             2a.1                                            XREF[3]:     FUN_CODE_1f9f:1fb3(R), 
                                                                                          FUN_CODE_1f9f:1fbd(W), 
                                                                                          CODE:270b(W)  
         BITS:51                 ??         ??
                             2a.2                                            XREF[3]:     FUN_CODE_1f9f:1fb6(R), 
                                                                                          FUN_CODE_1f9f:1fbf(W), 
                                                                                          CODE:2781(W)  
         BITS:52                 ??         ??
                             2a.3                                            XREF[4]:     FUN_CODE_083e:0c6f(W), 
                                                                                          FUN_CODE_083e:0c72(W), 
                                                                                          CODE:1066(W), CODE:12da(R)  
         BITS:53                 ??         ??
                             2a.4                                            XREF[2]:     CODE:1b24(R), CODE:27e9(W)  
         BITS:54                 ??         ??
                             2a.5                                            XREF[8]:     FUN_CODE_083e:0b7f(W), 
                                                                                          FUN_CODE_083e:0baa(W), 
                                                                                          FUN_CODE_083e:0bb8(W), 
                                                                                          CODE:177d(R), CODE:1936(W), 
                                                                                          CODE:1dcf(W), CODE:1f49(W), 
                                                                                          FUN_CODE_2c13:2c17(R)  
         BITS:55                 ??         ??
                             2a.6                                            XREF[5]:     FUN_CODE_083e:08be(R), 
                                                                                          FUN_CODE_083e:0ba8(W), 
                                                                                          CODE:1780(R), CODE:1d8d(R), 
                                                                                          CODE:1edf(R)  
         BITS:56                 ??         ??
                             2a.7                                            XREF[3]:     FUN_CODE_083e:0894(R), 
                                                                                          FUN_CODE_240d:240d(W), 
                                                                                          FUN_CODE_240d:241b(W)  
         BITS:57                 ??         ??
                             2b.0
         BITS:58                 ??         ??
                             2b.1                                            XREF[3]:     FUN_CODE_013a:014a(R), 
                                                                                          FUN_CODE_232d:232d(W), 
                                                                                          FUN_CODE_2330:2330(W)  
         BITS:59                 ??         ??
                             2b.2                                            XREF[8]:     CODE:01e0(R), CODE:029c(R), 
                                                                                          CODE:2637(W), CODE:265a(W), 
                                                                                          CODE:2688(W), CODE:26b6(W), 
                                                                                          CODE:2700(W), CODE:283a(W)  
         BITS:5a                 ??         ??
                             2b.3                                            XREF[7]:     CODE:01a6(R), CODE:25f6(W), 
                                                                                          CODE:263e(W), CODE:2661(W), 
                                                                                          CODE:2694(W), CODE:26eb(W), 
                                                                                          CODE:2819(W)  
         BITS:5b                 ??         ??
                             2b.4                                            XREF[10]:    CODE:01a9(R), CODE:01f6(R), 
                                                                                          CODE:0207(R), CODE:0258(W), 
                                                                                          CODE:25fe(W), CODE:2646(W), 
                                                                                          CODE:2666(W), CODE:269c(W), 
                                                                                          CODE:26f6(W), CODE:2824(W)  
         BITS:5c                 ??         ??
                             2b.5                                            XREF[8]:     CODE:01f9(R), CODE:025a(R), 
                                                                                          CODE:2600(W), CODE:2648(W), 
                                                                                          CODE:2668(W), CODE:269e(W), 
                                                                                          CODE:26f8(W), CODE:282f(W)  
         BITS:5d                 ??         ??
                             2b.6                                            XREF[3]:     CODE:0216(W), 
                                                                                          FUN_CODE_258f:258f(R), 
                                                                                          FUN_CODE_25b4:25b6(W)  
         BITS:5e                 ??         ??
                             2b.7                                            XREF[6]:     CODE:01fc(W), CODE:025d(W), 
                                                                                          CODE:0287(W), 
                                                                                          FUN_CODE_258f:25a0(R), 
                                                                                          FUN_CODE_258f:25b0(W), 
                                                                                          FUN_CODE_25b4:25b4(W)  
         BITS:5f                 ??         ??
                             2c.0                                            XREF[6]:     FUN_CODE_02fe:031b(R), 
                                                                                          FUN_CODE_02fe:03d1(W), 
                                                                                          FUN_CODE_22f9:22f9(W), 
                                                                                          FUN_CODE_2a20:2a20(R), 
                                                                                          FUN_CODE_2a20:2a3b(W), 
                                                                                          FUN_CODE_2a20:2a3e(W)  
         BITS:60                 ??         ??
                             2c.1                                            XREF[6]:     CODE:050a(R), CODE:05ae(W), 
                                                                                          CODE:05c4(W), 
                                                                                          FUN_CODE_22f9:2303(W), 
                                                                                          FUN_CODE_2967:2969(R), 
                                                                                          FUN_CODE_2967:296e(W)  
         BITS:61                 ??         ??
                             2c.2                                            XREF[16]:    CODE:04ec(W), CODE:04fb(W), 
                                                                                          CODE:0530(R), CODE:053f(W), 
                                                                                          CODE:0550(W), CODE:056b(W), 
                                                                                          CODE:05a1(W), CODE:05b8(W), 
                                                                                          CODE:05c0(W), CODE:05dc(W), 
                                                                                          CODE:0607(W), CODE:0627(W), 
                                                                                          FUN_CODE_22f9:2301(W), 
                                                                                          FUN_CODE_2971:2990(W), 
                                                                                          FUN_CODE_2971:2997(W), 
                                                                                          FUN_CODE_299a:299b(R)  
         BITS:62                 ??         ??
                             2c.3                                            XREF[5]:     CODE:0552(W), CODE:05ba(W), 
                                                                                          CODE:0629(W), 
                                                                                          FUN_CODE_2971:2983(W), 
                                                                                          FUN_CODE_299a:299e(R)  
         BITS:63                 ??         ??
                             2c.4                                            XREF[3]:     CODE:061d(R), 
                                                                                          FUN_CODE_2971:297f(W), 
                                                                                          FUN_CODE_2971:2995(W)  
         BITS:64                 ??         ??
                             2c.5                                            XREF[4]:     CODE:04e9(R), CODE:0539(R), 
                                                                                          FUN_CODE_2971:2981(W), 
                                                                                          FUN_CODE_2971:2993(W)  
         BITS:65                 ??         ??
                             2c.6                                            XREF[12]:    CODE:04ca(W), CODE:04e6(R), 
                                                                                          CODE:04ee(W), CODE:0529(R), 
                                                                                          CODE:0568(R), CODE:059e(R), 
                                                                                          CODE:05a8(R), CODE:05bc(W), 
                                                                                          CODE:05c2(W), CODE:061a(R), 
                                                                                          CODE:0620(W), CODE:062b(W)  
         BITS:66                 ??         ??
                             2c.7                                            XREF[7]:     CODE:0543(W), CODE:054a(W), 
                                                                                          CODE:05ab(R), CODE:05b2(R), 
                                                                                          CODE:05d2(W), CODE:05f2(R), 
                                                                                          CODE:05fd(W)  
         BITS:67                 ??         ??
                             2d.0                                            XREF[4]:     CODE:055e(W), CODE:05ea(W), 
                                                                                          CODE:05f6(W), CODE:060b(R)  
         BITS:68                 ??         ??
                             2d.1                                            XREF[4]:     FUN_CODE_0648:065c(W), 
                                                                                          FUN_CODE_0648:0663(R), 
                                                                                          FUN_CODE_0648:0669(W), 
                                                                                          FUN_CODE_22f9:231a(W)  
         BITS:69                 ??         ??
                             2d.2                                            XREF[4]:     FUN_CODE_0648:06b4(W), 
                                                                                          FUN_CODE_0648:06bb(R), 
                                                                                          FUN_CODE_0648:06c1(W), 
                                                                                          FUN_CODE_22f9:231c(W)  
         BITS:6a                 ??         ??
                             2d.3                                            XREF[4]:     FUN_CODE_0648:070c(W), 
                                                                                          FUN_CODE_0648:0713(R), 
                                                                                          FUN_CODE_0648:0719(W), 
                                                                                          FUN_CODE_22f9:231e(W)  
         BITS:6b                 ??         ??
                             2d.4                                            XREF[3]:     FUN_CODE_0648:066f(W), 
                                                                                          FUN_CODE_0648:0675(R), 
                                                                                          FUN_CODE_0648:0690(RW)  
         BITS:6c                 ??         ??
                             2d.5                                            XREF[3]:     FUN_CODE_0648:06c7(W), 
                                                                                          FUN_CODE_0648:06cd(R), 
                                                                                          FUN_CODE_0648:06e8(RW)  
         BITS:6d                 ??         ??
                             2d.6                                            XREF[3]:     FUN_CODE_0648:071f(W), 
                                                                                          FUN_CODE_0648:0725(R), 
                                                                                          FUN_CODE_0648:0740(RW)  
         BITS:6e                 ??         ??
                             2d.7                                            XREF[4]:     FUN_CODE_0648:066b(W), 
                                                                                          FUN_CODE_0648:0678(R), 
                                                                                          FUN_CODE_0648:067e(W), 
                                                                                          FUN_CODE_0648:0692(W)  
         BITS:6f                 ??         ??
                             2e.0                                            XREF[4]:     FUN_CODE_0648:06c3(W), 
                                                                                          FUN_CODE_0648:06d0(R), 
                                                                                          FUN_CODE_0648:06d6(W), 
                                                                                          FUN_CODE_0648:06ea(W)  
         BITS:70                 ??         ??
                             2e.1                                            XREF[4]:     FUN_CODE_0648:071b(W), 
                                                                                          FUN_CODE_0648:0728(R), 
                                                                                          FUN_CODE_0648:072e(W), 
                                                                                          FUN_CODE_0648:0742(W)  
         BITS:71                 ??         ??
                             2e.2                                            XREF[3]:     FUN_CODE_0648:0680(W), 
                                                                                          FUN_CODE_0648:0687(R), 
                                                                                          FUN_CODE_0648:06a0(W)  
         BITS:72                 ??         ??
                             2e.3                                            XREF[3]:     FUN_CODE_0648:06d8(W), 
                                                                                          FUN_CODE_0648:06df(R), 
                                                                                          FUN_CODE_0648:06f8(W)  
         BITS:73                 ??         ??
                             2e.4                                            XREF[3]:     FUN_CODE_0648:0730(W), 
                                                                                          FUN_CODE_0648:0737(R), 
                                                                                          FUN_CODE_0648:0750(W)  
         BITS:74                 ??         ??
                             2e.5                                            XREF[4]:     CODE:2686(W), CODE:26b4(W), 
                                                                                          CODE:26bd(R), CODE:26e9(W)  
         BITS:75                 ??         ??
                             2e.6
         BITS:76                 ??         ??
                             2e.7
         BITS:77                 ??         ??
                             2f.0
         BITS:78                 ??         ??
                             2f.1
         BITS:79                 ??         ??
                             2f.2
         BITS:7a                 ??         ??
                             2f.3
         BITS:7b                 ??         ??
                             2f.4
         BITS:7c                 ??         ??
                             2f.5
         BITS:7d                 ??         ??
                             2f.6
         BITS:7e                 ??         ??
                             2f.7
         BITS:7f                 ??         ??
                             //
                             // SFR-BITS (bitmap[0x0, 0x80, SFR:80])
                             // BITS:80-BITS:ff
                             //
                             P0.0                                            XREF[2]:     FUN_CODE_0063:0063(W), 
                                                                                          FUN_CODE_0066:0066(W)  
         BITS:80                 ??         ??
                             P0.1                                            XREF[2]:     FUN_CODE_0041:0041(W), 
                                                                                          FUN_CODE_0044:004c(W)  
         BITS:81                 ??         ??
                             P0.2                                            XREF[9]:     CODE:04cc(W), CODE:04e1(R), 
                                                                                          CODE:04ff(R), CODE:0511(W), 
                                                                                          CODE:0526(R), CODE:0562(R), 
                                                                                          CODE:0598(R), CODE:05d6(R), 
                                                                                          CODE:0601(R)  
         BITS:82                 ??         ??
                             P0.3                                            XREF[8]:     CODE:04ce(W), CODE:0502(R), 
                                                                                          CODE:0513(W), CODE:055c(W), 
                                                                                          CODE:05cd(R), CODE:05e8(W), 
                                                                                          CODE:05f4(W), CODE:060e(R)  
         BITS:83                 ??         ??
                             P0.4                                            XREF[2]:     FUN_CODE_00a9:00a9(W), 
                                                                                          FUN_CODE_00ac:00ac(W)  
         BITS:84                 ??         ??
                             P0.5                                            XREF[2]:     FUN_CODE_0076:0076(W), 
                                                                                          FUN_CODE_0079:0079(W)  
         BITS:85                 ??         ??
                             P0.6                                            XREF[2]:     FUN_CODE_0069:0069(W), 
                                                                                          FUN_CODE_006c:006c(W)  
         BITS:86                 ??         ??
                             P0.7                                            XREF[1]:     FUN_CODE_004f:004f(R)  
         BITS:87                 ??         ??
                             IT0
         BITS:88                 ??         ??
                             IE0
         BITS:89                 ??         ??
                             IT1                                             XREF[1]:     CODE:018d(W)  
         BITS:8a                 ??         ??
                             IE1
         BITS:8b                 ??         ??
                             TR0
         BITS:8c                 ??         ??
                             TF0
         BITS:8d                 ??         ??
                             TR1
         BITS:8e                 ??         ??
                             TF1
         BITS:8f                 ??         ??
                             P1.0                                            XREF[1]:     FUN_CODE_250a:250a(R)  
         BITS:90                 ??         ??
                             P1.1                                            XREF[1]:     FUN_CODE_2512:2518(R)  
         BITS:91                 ??         ??
                             P1.2                                            XREF[1]:     FUN_CODE_250e:250e(R)  
         BITS:92                 ??         ??
                             P1.3                                            XREF[2]:     FUN_CODE_235b:235b(W), 
                                                                                          FUN_CODE_235e:235e(W)  
         BITS:93                 ??         ??
                             P1.4                                            XREF[2]:     FUN_CODE_2355:2355(W), 
                                                                                          FUN_CODE_2358:2358(W)  
         BITS:94                 ??         ??
                             P1.5                                            XREF[2]:     FUN_CODE_234f:234f(W), 
                                                                                          FUN_CODE_2352:2352(W)  
         BITS:95                 ??         ??
                             P1.6                                            XREF[1]:     FUN_CODE_0058:0058(R)  
         BITS:96                 ??         ??
                             P1.7                                            XREF[2]:     FUN_CODE_0052:0052(W), 
                                                                                          FUN_CODE_0055:0055(W)  
         BITS:97                 ??         ??
                             RI
         BITS:98                 ??         ??
                             TI
         BITS:99                 ??         ??
                             RB8                                             XREF[1]:     CODE:26e7(W)  
         BITS:9a                 ??         ??
                             TB8
         BITS:9b                 ??         ??
                             REN
         BITS:9c                 ??         ??
                             SM2
         BITS:9d                 ??         ??
                             SM1
         BITS:9e                 ??         ??
                             SM0                                             XREF[1]:     CODE:26d5(R)  
         BITS:9f                 ??         ??
                             P2.0                                            XREF[2]:     FUN_CODE_00bc:00bc(W), 
                                                                                          FUN_CODE_00bf:00bf(W)  
         BITS:a0                 ??         ??
                             P2.1                                            XREF[2]:     FUN_CODE_233e:233e(W), 
                                                                                          FUN_CODE_2341:2341(W)  
         BITS:a1                 ??         ??
                             P2.2                                            XREF[2]:     FUN_CODE_0030:0030(W), 
                                                                                          FUN_CODE_0033:0033(W)  
         BITS:a2                 ??         ??
                             P2.3                                            XREF[2]:     FUN_CODE_00c2:00c2(W), 
                                                                                          FUN_CODE_00c5:00c5(W)  
         BITS:a3                 ??         ??
                             P2.4                                            XREF[1]:     FUN_CODE_0036:0036(R)  
         BITS:a4                 ??         ??
                             P2.5                                            XREF[1]:     FUN_CODE_2344:2344(R)  
         BITS:a5                 ??         ??
                             P2.6                                            XREF[2]:     FUN_CODE_236c:236c(W), 
                                                                                          FUN_CODE_236f:236f(W)  
         BITS:a6                 ??         ??
                             P2.7                                            XREF[1]:     FUN_CODE_2506:2506(R)  
         BITS:a7                 ??         ??
                             EX0                                             XREF[2]:     FUN_CODE_2512:2512(R), 
                                                                                          FUN_CODE_2512:2514(W)  
         BITS:a8                 ??         ??
                             ET0                                             XREF[2]:     FUN_CODE_2344:2349(W), 
                                                                                          FUN_CODE_2344:234c(R)  
         BITS:a9                 ??         ??
                             EX1                                             XREF[2]:     FUN_CODE_2361:2366(W), 
                                                                                          FUN_CODE_2361:2369(R)  
         BITS:aa                 ??         ??
                             ET1                                             XREF[2]:     FUN_CODE_0058:005d(W), 
                                                                                          FUN_CODE_0058:0060(R)  
         BITS:ab                 ??         ??
                             ES                                              XREF[2]:     FUN_CODE_0036:003b(W), 
                                                                                          FUN_CODE_0036:003e(R)  
         BITS:ac                 ??         ??
                             ET2
         BITS:ad                 ??         ??
                             EC
         BITS:ae                 ??         ??
                             EA
         BITS:af                 ??         ??
                             RXD
         BITS:b0                 ??         ??
                             TXD
         BITS:b1                 ??         ??
                             INT0
         BITS:b2                 ??         ??
                             INT1
         BITS:b3                 ??         ??
                             T0
         BITS:b4                 ??         ??
                             T1
         BITS:b5                 ??         ??
                             WR
         BITS:b6                 ??         ??
                             RD
         BITS:b7                 ??         ??
                             PX0
         BITS:b8                 ??         ??
                             PT0
         BITS:b9                 ??         ??
                             PX1
         BITS:ba                 ??         ??
                             PT1
         BITS:bb                 ??         ??
                             PS
         BITS:bc                 ??         ??
                             PT2
         BITS:bd                 ??         ??
                             PC                                              XREF[1]:     FUN_CODE_007c:007c(W)  
         BITS:be                 ??         ??
                             IP.7                                            XREF[1]:     FUN_CODE_013a:0148(W)  
         BITS:bf                 ??         ??
                             FIFLG.0                                         XREF[3]:     FUN_CODE_00f0:00f0(W), 
                                                                                          FUN_CODE_00f3:00f3(W), 
                                                                                          FUN_CODE_22b4:22b7(R)  
         BITS:c0                 ??         ??
                             FIFLG.1                                         XREF[1]:     FUN_CODE_2361:2361(R)  
         BITS:c1                 ??         ??
                             FIFLG.2                                         XREF[1]:     FUN_CODE_251c:251d(R)  
         BITS:c2                 ??         ??
                             FIFLG.3                                         XREF[4]:     FUN_CODE_0044:0044(W), 
                                                                                          FUN_CODE_0044:0046(W), 
                                                                                          FUN_CODE_0044:0048(W), 
                                                                                          FUN_CODE_0044:004a(W)  
         BITS:c3                 ??         ??
                             FIFLG.4                                         XREF[1]:     FUN_CODE_251c:252d(R)  
         BITS:c4                 ??         ??
                             FIFLG.5                                         XREF[1]:     FUN_CODE_251c:2529(R)  
         BITS:c5                 ??         ??
                             FIFLG.6                                         XREF[1]:     FUN_CODE_251c:2525(R)  
         BITS:c6                 ??         ??
                             FIFLG.7                                         XREF[1]:     FUN_CODE_251c:2521(R)  
         BITS:c7                 ??         ??
                             CPRL2                                           XREF[3]:     FUN_CODE_02ad:02bf(W), 
                                                                                          FUN_CODE_294e:2951(W), 
                                                                                          FUN_CODE_294e:2956(W)  
         BITS:c8                 ??         ??
                             CT2                                             XREF[4]:     FUN_CODE_02ad:02c1(W), 
                                                                                          CODE:25dd(W), CODE:25e2(W), 
                                                                                          FUN_CODE_2934:2934(R)  
         BITS:c9                 ??         ??
                             TR2                                             XREF[1]:     FUN_CODE_007f:0081(R)  
         BITS:ca                 ??         ??
                             EXEN2                                           XREF[1]:     FUN_CODE_251c:2531(R)  
         BITS:cb                 ??         ??
                             TCLK                                            XREF[2]:     FUN_CODE_24fa:24fa(W), 
                                                                                          FUN_CODE_24fd:24fd(W)  
         BITS:cc                 ??         ??
                             RCLK                                            XREF[2]:     FUN_CODE_013a:0151(R), 
                                                                                          FUN_CODE_253a:253c(R)  
         BITS:cd                 ??         ??
                             EXF2                                            XREF[1]:     FUN_CODE_00c8:00cd(R)  
         BITS:ce                 ??         ??
                             TF2                                             XREF[4]:     FUN_CODE_00c8:00c9(R), 
                                                                                          FUN_CODE_00d0:00d0(W), 
                                                                                          FUN_CODE_00d3:00d3(W), 
                                                                                          FUN_CODE_00d6:00d6(RW)  
         BITS:cf                 ??         ??
                             P                                               XREF[13]:    FUN_CODE_006f:0073(R), 
                                                                                          FUN_CODE_00d9:00dd(R), 
                                                                                          FUN_CODE_02fe:0472(R), 
                                                                                          FUN_CODE_0648:067b(R), 
                                                                                          FUN_CODE_0648:068a(R), 
                                                                                          FUN_CODE_0648:0696(R), 
                                                                                          FUN_CODE_0648:06d3(R), 
                                                                                          FUN_CODE_0648:06e2(R), 
                                                                                          FUN_CODE_0648:06ee(R), 
                                                                                          FUN_CODE_0648:072b(R), 
                                                                                          FUN_CODE_0648:073a(R), 
                                                                                          FUN_CODE_0648:0746(R), 
                                                                                          CODE:1c4b(R)  
         BITS:d0                 ??         ??
                             UD                                              XREF[20]:    CODE:13e4(W), CODE:13ed(W), 
                                                                                          CODE:13ef(RW), CODE:13fa(W), 
                                                                                          CODE:1403(W), CODE:1405(RW), 
                                                                                          CODE:1407(R), CODE:140c(W), 
                                                                                          CODE:1415(W), CODE:1417(RW), 
                                                                                          CODE:142a(W), CODE:1433(W), 
                                                                                          CODE:1435(RW), CODE:1437(R), 
                                                                                          CODE:143c(W), CODE:1445(W), 
                                                                                          CODE:1447(RW), 
                                                                                          FUN_CODE_15da:1603(W), 
                                                                                          FUN_CODE_1612:1615(R), 
                                                                                          FUN_CODE_1612:165c(R)  
         BITS:d1                 ??         ??
                             OV                                              XREF[2]:     FUN_CODE_1612:16b8(R), 
                                                                                          FUN_CODE_16da:16e1(R)  
         BITS:d2                 ??         ??
                             RS0                                             XREF[7]:     FUN_CODE_013a:0141(W), 
                                                                                          FUN_CODE_013a:0159(W), 
                                                                                          FUN_CODE_0163:016a(W), 
                                                                                          CODE:0195(W), 
                                                                                          FUN_CODE_02fe:02f4(W), 
                                                                                          FUN_CODE_02fe:0305(W), 
                                                                                          FUN_CODE_222c:222c(W)  
         BITS:d3                 ??         ??
                             RS1                                             XREF[1]:     FUN_CODE_222c:222e(W)  
         BITS:d4                 ??         ??
                             F0                                              XREF[69]:    CODE:13e2(W), CODE:13eb(W), 
                                                                                          CODE:13f8(W), 
                                                                                          FUN_CODE_1569:158b(W), 
                                                                                          FUN_CODE_1569:159a(R), 
                                                                                          FUN_CODE_15da:15ec(W), 
                                                                                          FUN_CODE_1612:1678(R), 
                                                                                          FUN_CODE_1b47:1b62(W), 
                                                                                          FUN_CODE_1b47:1b73(W), 
                                                                                          FUN_CODE_1b47:1b8f(W), 
                                                                                          FUN_CODE_1b47:1b94(RW), 
                                                                                          FUN_CODE_1b47:1b96(R), 
                                                                                          FUN_CODE_1b47:1b9e(R), 
                                                                                          FUN_CODE_1b47:1ba6(R), 
                                                                                          FUN_CODE_1b47:1baf(R), 
                                                                                          FUN_CODE_1b47:1bbb(R), 
                                                                                          FUN_CODE_1b47:1bc6(R), 
                                                                                          FUN_CODE_1b47:1bcf(R), 
                                                                                          FUN_CODE_1b47:1bd8(R), 
                                                                                          FUN_CODE_2a20:2a2b(W), [more]
         BITS:d5                 ??         ??
                             AC
         BITS:d6                 ??         ??
                             C
         BITS:d7                 ??         ??
                             CCF.0                                           XREF[2]:     CODE:028b(W), CODE:0293(W)  
         BITS:d8                 ??         ??
                             CCF.1                                           XREF[16]:    CODE:019f(W), CODE:01bd(R), 
                                                                                          CODE:01c8(W), CODE:01d2(R), 
                                                                                          CODE:01ef(W), CODE:0202(W), 
                                                                                          CODE:0211(W), CODE:022b(R), 
                                                                                          CODE:0236(W), CODE:0240(R), 
                                                                                          CODE:0251(W), CODE:0263(R), 
                                                                                          CODE:026e(W), CODE:0278(R), 
                                                                                          CODE:0298(W), 
                                                                                          FUN_CODE_25b4:25bb(W)  
         BITS:d9                 ??         ??
                             CCF.2                                           XREF[3]:     CODE:020f(W), 
                                                                                          FUN_CODE_258f:2594(R), 
                                                                                          FUN_CODE_258f:259a(R)  
         BITS:da                 ??         ??
                             CCF.3                                           XREF[5]:     CODE:01a1(W), CODE:01bb(W), 
                                                                                          CODE:0200(W), CODE:0229(W), 
                                                                                          CODE:0261(W)  
         BITS:db                 ??         ??
                             CCF.4
         BITS:dc                 ??         ??
                             CCON.5
         BITS:dd                 ??         ??
                             CR
         BITS:de                 ??         ??
                             CF                                              XREF[1]:     FUN_CODE_02ad:02cc(W)  
         BITS:df                 ??         ??
                             ACC.0                                           XREF[26]:    FUN_CODE_0648:064f(*), 
                                                                                          FUN_CODE_0648:0654(*), 
                                                                                          FUN_CODE_0648:0659(*), 
                                                                                          FUN_CODE_083e:098b(*), 
                                                                                          FUN_CODE_083e:09c5(*), 
                                                                                          FUN_CODE_083e:0b34(*), 
                                                                                          FUN_CODE_083e:0bc7(*), 
                                                                                          FUN_CODE_083e:0c30(*), 
                                                                                          FUN_CODE_083e:0c39(*), 
                                                                                          FUN_CODE_083e:0c54(*), 
                                                                                          FUN_CODE_083e:0ccf(*), 
                                                                                          CODE:1715(*), CODE:1734(*), 
                                                                                          CODE:1762(*), 
                                                                                          FUN_CODE_1973:198e(*), 
                                                                                          CODE:1b34(*), CODE:1c44(*), 
                                                                                          CODE:1c4e(*), CODE:1c83(*), 
                                                                                          FUN_CODE_240d:2411(*), [more]
         BITS:e0                 ??         ??
                             ACC.1                                           XREF[13]:    FUN_CODE_0648:066d(*), 
                                                                                          FUN_CODE_083e:0994(*), 
                                                                                          FUN_CODE_083e:0b38(*), 
                                                                                          FUN_CODE_083e:0bcb(*), 
                                                                                          FUN_CODE_083e:0c34(*), 
                                                                                          FUN_CODE_083e:0cd5(*), 
                                                                                          CODE:1717(*), 
                                                                                          FUN_CODE_1973:1992(*), 
                                                                                          CODE:1c49(*), 
                                                                                          FUN_CODE_21d2:21e2(*), 
                                                                                          FUN_CODE_21d2:21ed(*), 
                                                                                          FUN_CODE_240d:247c(*), 
                                                                                          FUN_CODE_251c:252f(*)  
         BITS:e1                 ??         ??
                             ACC.2                                           XREF[9]:     FUN_CODE_0648:06a7(*), 
                                                                                          FUN_CODE_0648:06ac(*), 
                                                                                          FUN_CODE_0648:06b1(*), 
                                                                                          FUN_CODE_0756:0784(*), 
                                                                                          FUN_CODE_083e:09a7(*), 
                                                                                          CODE:1743(*), CODE:174d(*), 
                                                                                          CODE:1b3a(*), 
                                                                                          FUN_CODE_251c:252b(*)  
         BITS:e2                 ??         ??
                             ACC.3                                           XREF[10]:    FUN_CODE_02fe:0398(*), 
                                                                                          FUN_CODE_02fe:03c9(*), 
                                                                                          FUN_CODE_02fe:0406(*), 
                                                                                          FUN_CODE_02fe:043b(*), 
                                                                                          FUN_CODE_0648:06c5(*), 
                                                                                          CODE:1747(*), CODE:1751(*), 
                                                                                          CODE:1b40(*), 
                                                                                          FUN_CODE_251c:2527(*), 
                                                                                          FUN_CODE_2a20:2a29(*)  
         BITS:e3                 ??         ??
                             ACC.4                                           XREF[12]:    FUN_CODE_00d9:00e0(*), 
                                                                                          FUN_CODE_00f6:00f8(*), 
                                                                                          FUN_CODE_0648:06ff(*), 
                                                                                          FUN_CODE_0648:0704(*), 
                                                                                          FUN_CODE_0648:0709(*), 
                                                                                          FUN_CODE_1973:1983(*), 
                                                                                          FUN_CODE_2372:2375(*), 
                                                                                          FUN_CODE_237e:237e(*), 
                                                                                          FUN_CODE_238a:238b(*), 
                                                                                          FUN_CODE_2399:2399(*), 
                                                                                          FUN_CODE_23a5:23a7(*), 
                                                                                          FUN_CODE_251c:2523(*)  
         BITS:e4                 ??         ??
                             ACC.5                                           XREF[7]:     FUN_CODE_0648:071d(*), 
                                                                                          FUN_CODE_083e:0963(*), 
                                                                                          CODE:141d(*), CODE:180e(*), 
                                                                                          FUN_CODE_1973:1980(*), 
                                                                                          CODE:1b0d(*), 
                                                                                          FUN_CODE_2971:298d(*)  
         BITS:e5                 ??         ??
                             ACC.6                                           XREF[8]:     FUN_CODE_083e:0966(*), 
                                                                                          FUN_CODE_0cf7:0e14(*), 
                                                                                          CODE:191f(*), 
                                                                                          FUN_CODE_1973:197d(*), 
                                                                                          FUN_CODE_1b47:1b5c(*), 
                                                                                          FUN_CODE_251c:251f(*), 
                                                                                          FUN_CODE_2971:298a(*), 
                                                                                          FUN_CODE_2a20:2a33(*)  
         BITS:e6                 ??         ??
                             ACC.7                                           XREF[26]:    FUN_CODE_083e:09e0(*), 
                                                                                          FUN_CODE_083e:09e4(*), 
                                                                                          FUN_CODE_083e:09e8(*), 
                                                                                          FUN_CODE_083e:0a09(*), 
                                                                                          FUN_CODE_083e:0a37(*), 
                                                                                          FUN_CODE_15da:15ea(*), 
                                                                                          FUN_CODE_15da:1601(*), 
                                                                                          FUN_CODE_1612:16bb(*), 
                                                                                          FUN_CODE_16da:16e4(*), 
                                                                                          FUN_CODE_16da:16ea(*), 
                                                                                          CODE:180b(*), CODE:1827(*), 
                                                                                          CODE:1934(*), 
                                                                                          FUN_CODE_1973:197a(*), 
                                                                                          FUN_CODE_1b47:1b88(*), 
                                                                                          FUN_CODE_1b47:1b91(*), 
                                                                                          FUN_CODE_2971:2987(*), 
                                                                                          FUN_CODE_2a20:2a37(*), 
                                                                                          FUN_CODE_2a20:2a7a(*), 
                                                                                          FUN_CODE_2a20:2a7c(*), [more]
         BITS:e7                 ??         ??
                             HIFLG.0
         BITS:e8                 ??         ??
                             HIFLG.1
         BITS:e9                 ??         ??
                             HIFLG.2
         BITS:ea                 ??         ??
                             HIFLG.3
         BITS:eb                 ??         ??
                             HIFLG.4
         BITS:ec                 ??         ??
                             HIFLG.5
         BITS:ed                 ??         ??
                             HIFLG.6
         BITS:ee                 ??         ??
                             HIFLG.7
         BITS:ef                 ??         ??
                             B.0                                             XREF[16]:    FUN_CODE_083e:0896(*), 
                                                                                          FUN_CODE_083e:08bc(*), 
                                                                                          FUN_CODE_083e:0952(*), 
                                                                                          FUN_CODE_083e:0ba6(*), 
                                                                                          FUN_CODE_083e:0c6c(*), 
                                                                                          FUN_CODE_0cf7:0dd6(*), 
                                                                                          CODE:1741(*), 
                                                                                          FUN_CODE_240d:2444(*), 
                                                                                          FUN_CODE_240d:2454(*), 
                                                                                          FUN_CODE_2a9d:2ad6(*), 
                                                                                          FUN_CODE_2ae0:2b13(*), 
                                                                                          FUN_CODE_2ae0:2b3e(*), 
                                                                                          FUN_CODE_2b5a:2b93(*), 
                                                                                          FUN_CODE_2b5a:2bbe(*), 
                                                                                          FUN_CODE_2b5a:2be9(*), 
                                                                                          FUN_CODE_2bf7:2bfe(*)  
         BITS:f0                 ??         ??
                             B.1                                             XREF[10]:    FUN_CODE_083e:08c0(*), 
                                                                                          CODE:1745(*), 
                                                                                          FUN_CODE_240d:2448(*), 
                                                                                          FUN_CODE_240d:2458(*), 
                                                                                          FUN_CODE_2a9d:2ad1(*), 
                                                                                          FUN_CODE_2ae0:2b0e(*), 
                                                                                          FUN_CODE_2ae0:2b39(*), 
                                                                                          FUN_CODE_2b5a:2b8e(*), 
                                                                                          FUN_CODE_2b5a:2bb9(*), 
                                                                                          FUN_CODE_2b5a:2be4(*)  
         BITS:f1                 ??         ??
                             B.2                                             XREF[11]:    FUN_CODE_083e:0c32(*), 
                                                                                          CODE:173b(*), CODE:174b(*), 
                                                                                          FUN_CODE_240d:244c(*), 
                                                                                          FUN_CODE_240d:245c(*), 
                                                                                          FUN_CODE_2a9d:2acc(*), 
                                                                                          FUN_CODE_2ae0:2b09(*), 
                                                                                          FUN_CODE_2ae0:2b34(*), 
                                                                                          FUN_CODE_2b5a:2b89(*), 
                                                                                          FUN_CODE_2b5a:2bb4(*), 
                                                                                          FUN_CODE_2b5a:2bdf(*)  
         BITS:f2                 ??         ??
                             B.3                                             XREF[12]:    FUN_CODE_083e:0c36(*), 
                                                                                          CODE:173e(*), CODE:174f(*), 
                                                                                          FUN_CODE_240d:2450(*), 
                                                                                          FUN_CODE_240d:2460(*), 
                                                                                          FUN_CODE_2a9d:2ac7(*), 
                                                                                          FUN_CODE_2ae0:2b04(*), 
                                                                                          FUN_CODE_2ae0:2b2f(*), 
                                                                                          FUN_CODE_2b5a:2b84(*), 
                                                                                          FUN_CODE_2b5a:2baf(*), 
                                                                                          FUN_CODE_2b5a:2bda(*), 
                                                                                          FUN_CODE_2bf7:2bfb(*)  
         BITS:f3                 ??         ??
                             B.4                                             XREF[9]:     FUN_CODE_083e:0c3b(*), 
                                                                                          CODE:172d(*), CODE:1736(*), 
                                                                                          FUN_CODE_2a9d:2ac2(*), 
                                                                                          FUN_CODE_2ae0:2aff(*), 
                                                                                          FUN_CODE_2ae0:2b2a(*), 
                                                                                          FUN_CODE_2b5a:2b7f(*), 
                                                                                          FUN_CODE_2b5a:2baa(*), 
                                                                                          FUN_CODE_2b5a:2bd5(*)  
         BITS:f4                 ??         ??
                             B.5                                             XREF[13]:    FUN_CODE_083e:0c56(*), 
                                                                                          CODE:172a(*), CODE:1851(*), 
                                                                                          FUN_CODE_1b47:1b58(*), 
                                                                                          FUN_CODE_2a9d:2aab(*), 
                                                                                          FUN_CODE_2a9d:2abd(*), 
                                                                                          FUN_CODE_2ae0:2af7(*), 
                                                                                          FUN_CODE_2ae0:2b25(*), 
                                                                                          FUN_CODE_2ae0:2b50(*), 
                                                                                          FUN_CODE_2b5a:2b68(*), 
                                                                                          FUN_CODE_2b5a:2b7a(*), 
                                                                                          FUN_CODE_2b5a:2ba5(*), 
                                                                                          FUN_CODE_2b5a:2bd0(*)  
         BITS:f5                 ??         ??
                             B.6                                             XREF[10]:    FUN_CODE_1569:159d(*), 
                                                                                          FUN_CODE_2a9d:2aa6(*), 
                                                                                          FUN_CODE_2a9d:2ab8(*), 
                                                                                          FUN_CODE_2ae0:2af2(*), 
                                                                                          FUN_CODE_2ae0:2b20(*), 
                                                                                          FUN_CODE_2ae0:2b4b(*), 
                                                                                          FUN_CODE_2b5a:2b63(*), 
                                                                                          FUN_CODE_2b5a:2b75(*), 
                                                                                          FUN_CODE_2b5a:2ba0(*), 
                                                                                          FUN_CODE_2b5a:2bcb(*)  
         BITS:f6                 ??         ??
                             B.7                                             XREF[17]:    FUN_CODE_146e:153d(*), 
                                                                                          FUN_CODE_146e:1540(*), 
                                                                                          FUN_CODE_146e:1551(*), 
                                                                                          FUN_CODE_146e:1554(*), 
                                                                                          FUN_CODE_1569:1596(*), 
                                                                                          CODE:1731(*), CODE:1783(*), 
                                                                                          CODE:1846(*), 
                                                                                          FUN_CODE_2a9d:2aa1(*), 
                                                                                          FUN_CODE_2a9d:2ab3(*), 
                                                                                          FUN_CODE_2ae0:2aed(*), 
                                                                                          FUN_CODE_2ae0:2b1b(*), 
                                                                                          FUN_CODE_2ae0:2b46(*), 
                                                                                          FUN_CODE_2b5a:2b5e(*), 
                                                                                          FUN_CODE_2b5a:2b70(*), 
                                                                                          FUN_CODE_2b5a:2b9b(*), 
                                                                                          FUN_CODE_2b5a:2bc6(*)  
         BITS:f7                 ??         ??
                             F8.0
         BITS:f8                 ??         ??
                             F8.1
         BITS:f9                 ??         ??
                             F8.2
         BITS:fa                 ??         ??
                             F8.3
         BITS:fb                 ??         ??
                             F8.4
         BITS:fc                 ??         ??
                             F8.5
         BITS:fd                 ??         ??
                             F8.6
         BITS:fe                 ??         ??
                             F8.7
         BITS:ff                 ??         ??
